ARM GAS  /var/folders/bq/yv49bw8j2kd6w3hsq868qv180000gn/T//ccSmIUlm.s 			page 1


   1              		.cpu cortex-m0plus
   2              		.eabi_attribute 23, 1
   3              		.eabi_attribute 24, 1
   4              		.eabi_attribute 25, 1
   5              		.eabi_attribute 26, 1
   6              		.eabi_attribute 30, 4
   7              		.eabi_attribute 34, 0
   8              		.eabi_attribute 18, 4
   9              		.file	"lr1mac_core.c"
  10              		.text
  11              	.Ltext0:
  12              		.cfi_sections	.debug_frame
  13              		.section	.rodata.lr1mac_core_process.str1.1,"aMS",%progbits,1
  14              	.LC2:
  15 0000 1B5B303B 		.ascii	"\033[0;31m\000"
  15      33316D00 
  16              	.LC4:
  17 0008 4552524F 		.ascii	"ERROR: \000"
  17      523A2000 
  18              	.LC6:
  19 0010 4641494C 		.ascii	"FAILSAFE EVENT OCCUR \012\000"
  19      53414645 
  19      20455645 
  19      4E54204F 
  19      43435552 
  20              	.LC8:
  21 0027 1B5B306D 		.ascii	"\033[0m\000"
  21      00
  22              	.LC11:
  23 002c 0A20202A 		.ascii	"\012  *************************************\012  * "
  23      2A2A2A2A 
  23      2A2A2A2A 
  23      2A2A2A2A 
  23      2A2A2A2A 
  24 0059 00       		.ascii	"\000"
  25              	.LC13:
  26 005a 53656E64 		.ascii	"Send Payload  HOOK ID = %d\000"
  26      20506179 
  26      6C6F6164 
  26      2020484F 
  26      4F4B2049 
  27              	.LC15:
  28 0075 0A20202A 		.ascii	"\012  *************************************\012\000"
  28      2A2A2A2A 
  28      2A2A2A2A 
  28      2A2A2A2A 
  28      2A2A2A2A 
  29              	.LC17:
  30 009f 52656365 		.ascii	"Receive a downlink RX1 for Hook Id = %d\000"
  30      69766520 
  30      6120646F 
  30      776E6C69 
  30      6E6B2052 
  31              	.LC19:
  32 00c7 52583120 		.ascii	"RX1 Timeout for Hook Id = %d\000"
  32      54696D65 
  32      6F757420 
ARM GAS  /var/folders/bq/yv49bw8j2kd6w3hsq868qv180000gn/T//ccSmIUlm.s 			page 2


  32      666F7220 
  32      486F6F6B 
  33              	.LC21:
  34 00e4 52656365 		.ascii	"Receive a downlink RX2 for Hook Id = %d\000"
  34      69766520 
  34      6120646F 
  34      776E6C69 
  34      6E6B2052 
  35              	.LC23:
  36 010c 52583220 		.ascii	"RX2 Timeout for Hook Id = %d\000"
  36      54696D65 
  36      6F757420 
  36      666F7220 
  36      486F6F6B 
  37              	.LC25:
  38 0129 50726F63 		.ascii	"Process Downlink for Hook Id = %d\000"
  38      65737320 
  38      446F776E 
  38      6C696E6B 
  38      20666F72 
  39              	.LC28:
  40 014b 55706461 		.ascii	"Update Mac for Hook Id = %d\000"
  40      7465204D 
  40      61632066 
  40      6F722048 
  40      6F6F6B20 
  41              	.LC30:
  42 0167 20757064 		.ascii	" update join procedure \012\000"
  42      61746520 
  42      6A6F696E 
  42      2070726F 
  42      63656475 
  43              	.LC32:
  44 0180 2E00     		.ascii	".\000"
  45              	.LC34:
  46 0182 20496C6C 		.ascii	" Illegal state in lorawan process\012 \000"
  46      6567616C 
  46      20737461 
  46      74652069 
  46      6E206C6F 
  47              		.section	.text.lr1mac_core_process,"ax",%progbits
  48              		.align	1
  49              		.global	lr1mac_core_process
  50              		.arch armv6s-m
  51              		.syntax unified
  52              		.code	16
  53              		.thumb_func
  54              		.fpu softvfp
  56              	lr1mac_core_process:
  57              	.LVL0:
  58              	.LFB10:
  59              		.file 1 "lr1mac/src/lr1mac_core.c"
   1:lr1mac/src/lr1mac_core.c **** /*!
   2:lr1mac/src/lr1mac_core.c ****  * \file      lr1_mac_core.c
   3:lr1mac/src/lr1mac_core.c ****  *
   4:lr1mac/src/lr1mac_core.c ****  * \brief     LoRaWan core definition
   5:lr1mac/src/lr1mac_core.c ****  *
ARM GAS  /var/folders/bq/yv49bw8j2kd6w3hsq868qv180000gn/T//ccSmIUlm.s 			page 3


   6:lr1mac/src/lr1mac_core.c ****  * Revised BSD License
   7:lr1mac/src/lr1mac_core.c ****  * Copyright Semtech Corporation 2020. All rights reserved.
   8:lr1mac/src/lr1mac_core.c ****  *
   9:lr1mac/src/lr1mac_core.c ****  * Redistribution and use in source and binary forms, with or without
  10:lr1mac/src/lr1mac_core.c ****  * modification, are permitted provided that the following conditions are met:
  11:lr1mac/src/lr1mac_core.c ****  *     * Redistributions of source code must retain the above copyright
  12:lr1mac/src/lr1mac_core.c ****  *       notice, this list of conditions and the following disclaimer.
  13:lr1mac/src/lr1mac_core.c ****  *     * Redistributions in binary form must reproduce the above copyright
  14:lr1mac/src/lr1mac_core.c ****  *       notice, this list of conditions and the following disclaimer in the
  15:lr1mac/src/lr1mac_core.c ****  *       documentation and/or other materials provided with the distribution.
  16:lr1mac/src/lr1mac_core.c ****  *     * Neither the name of the Semtech corporation nor the
  17:lr1mac/src/lr1mac_core.c ****  *       names of its contributors may be used to endorse or promote products
  18:lr1mac/src/lr1mac_core.c ****  *       derived from this software without specific prior written permission.
  19:lr1mac/src/lr1mac_core.c ****  *
  20:lr1mac/src/lr1mac_core.c ****  * THIS SOFTWARE IS PROVIDED BY THE COPYRIGHT HOLDERS AND CONTRIBUTORS "AS IS"
  21:lr1mac/src/lr1mac_core.c ****  * AND ANY EXPRESS OR IMPLIED WARRANTIES, INCLUDING, BUT NOT LIMITED TO, THE
  22:lr1mac/src/lr1mac_core.c ****  * IMPLIED WARRANTIES OF MERCHANTABILITY AND FITNESS FOR A PARTICULAR PURPOSE
  23:lr1mac/src/lr1mac_core.c ****  * ARE DISCLAIMED. IN NO EVENT SHALL SEMTECH CORPORATION BE LIABLE FOR ANY DIRECT,
  24:lr1mac/src/lr1mac_core.c ****  * INDIRECT, INCIDENTAL, SPECIAL, EXEMPLARY, OR CONSEQUENTIAL DAMAGES
  25:lr1mac/src/lr1mac_core.c ****  * (INCLUDING, BUT NOT LIMITED TO, PROCUREMENT OF SUBSTITUTE GOODS OR SERVICES;
  26:lr1mac/src/lr1mac_core.c ****  * LOSS OF USE, DATA, OR PROFITS; OR BUSINESS INTERRUPTION) HOWEVER CAUSED AND
  27:lr1mac/src/lr1mac_core.c ****  * ON ANY THEORY OF LIABILITY, WHETHER IN CONTRACT, STRICT LIABILITY, OR TORT
  28:lr1mac/src/lr1mac_core.c ****  * (INCLUDING NEGLIGENCE OR OTHERWISE) ARISING IN ANY WAY OUT OF THE USE OF THIS
  29:lr1mac/src/lr1mac_core.c ****  * SOFTWARE, EVEN IF ADVISED OF THE POSSIBILITY OF SUCH DAMAGE.
  30:lr1mac/src/lr1mac_core.c ****  */
  31:lr1mac/src/lr1mac_core.c **** 
  32:lr1mac/src/lr1mac_core.c **** /*
  33:lr1mac/src/lr1mac_core.c ****  *-----------------------------------------------------------------------------------
  34:lr1mac/src/lr1mac_core.c ****  * --- DEPENDENCIES -----------------------------------------------------------------
  35:lr1mac/src/lr1mac_core.c ****  */
  36:lr1mac/src/lr1mac_core.c **** 
  37:lr1mac/src/lr1mac_core.c **** #include "lr1mac_core.h"
  38:lr1mac/src/lr1mac_core.c **** #include "lr1mac_utilities.h"
  39:lr1mac/src/lr1mac_core.c **** #include "smtc_bsp.h"
  40:lr1mac/src/lr1mac_core.c **** #include "smtc_real.h"
  41:lr1mac/src/lr1mac_core.c **** #include "smtc_real_defs.h"
  42:lr1mac/src/lr1mac_core.c **** #include "smtc_real_defs_str.h"
  43:lr1mac/src/lr1mac_core.c **** 
  44:lr1mac/src/lr1mac_core.c **** #define DBG_PRINT_WITH_LINE( ... )                                              \
  45:lr1mac/src/lr1mac_core.c ****     do                                                                          \
  46:lr1mac/src/lr1mac_core.c ****     {                                                                           \
  47:lr1mac/src/lr1mac_core.c ****         BSP_DBG_TRACE_MSG( "\n  *************************************\n  * " ); \
  48:lr1mac/src/lr1mac_core.c ****         BSP_DBG_TRACE_PRINTF( __VA_ARGS__ );                                    \
  49:lr1mac/src/lr1mac_core.c ****         BSP_DBG_TRACE_MSG( "\n  *************************************\n" );     \
  50:lr1mac/src/lr1mac_core.c ****     } while( 0 );
  51:lr1mac/src/lr1mac_core.c **** 
  52:lr1mac/src/lr1mac_core.c **** /*
  53:lr1mac/src/lr1mac_core.c ****  *-----------------------------------------------------------------------------------
  54:lr1mac/src/lr1mac_core.c ****  *--- PRIVATE VARIABLES -------------------------------------------------------------
  55:lr1mac/src/lr1mac_core.c ****  */
  56:lr1mac/src/lr1mac_core.c **** static lr1mac_states_t  lr1mac_state        = LWPSTATE_IDLE;
  57:lr1mac/src/lr1mac_core.c **** static lr1_stack_mac_t  lr1_mac_obj         = { 0 };
  58:lr1mac/src/lr1mac_core.c **** static uint8_t          stack_id4rp         = 0;
  59:lr1mac/src/lr1mac_core.c **** static rx_packet_type_t valid_rx_packet     = NO_MORE_VALID_RX_PACKET;
  60:lr1mac/src/lr1mac_core.c **** static receive_win_t    receive_window_type = RECEIVE_NONE;
  61:lr1mac/src/lr1mac_core.c **** 
  62:lr1mac/src/lr1mac_core.c **** /*
ARM GAS  /var/folders/bq/yv49bw8j2kd6w3hsq868qv180000gn/T//ccSmIUlm.s 			page 4


  63:lr1mac/src/lr1mac_core.c ****  *-----------------------------------------------------------------------------------
  64:lr1mac/src/lr1mac_core.c ****  *--- PRIVATE FUNCTIONS DECLARATION -------------------------------------------------
  65:lr1mac/src/lr1mac_core.c ****  */
  66:lr1mac/src/lr1mac_core.c **** static uint32_t    failsafe_timstamp_get( void );
  67:lr1mac/src/lr1mac_core.c **** static rp_status_t rp_status_get( void );
  68:lr1mac/src/lr1mac_core.c **** static void        copy_user_payload( const uint8_t* data_in, const uint8_t size_in );
  69:lr1mac/src/lr1mac_core.c **** 
  70:lr1mac/src/lr1mac_core.c **** /*
  71:lr1mac/src/lr1mac_core.c ****  *-----------------------------------------------------------------------------------
  72:lr1mac/src/lr1mac_core.c ****  *--- PUBLIC FUNCTIONS DEFINITIONS --------------------------------------------------
  73:lr1mac/src/lr1mac_core.c ****  */
  74:lr1mac/src/lr1mac_core.c **** 
  75:lr1mac/src/lr1mac_core.c **** void lr1mac_core_init( radio_planner_t* rp, lorawan_keys_t* lorawan_keys, smtc_real_t* smtc_region 
  76:lr1mac/src/lr1mac_core.c **** {
  77:lr1mac/src/lr1mac_core.c ****     lr1_stack_mac_init( &lr1_mac_obj, lorawan_keys, smtc_region );
  78:lr1mac/src/lr1mac_core.c **** 
  79:lr1mac/src/lr1mac_core.c ****     status_lorawan_t status = lr1mac_core_context_load( );
  80:lr1mac/src/lr1mac_core.c **** 
  81:lr1mac/src/lr1mac_core.c ****     if( status == OKLORAWAN )
  82:lr1mac/src/lr1mac_core.c ****     {
  83:lr1mac/src/lr1mac_core.c ****         // Check if the region stored in flash is still valid
  84:lr1mac/src/lr1mac_core.c ****         status = lr1mac_core_is_supported_region( lr1_mac_obj.real->region_type );
  85:lr1mac/src/lr1mac_core.c ****     }
  86:lr1mac/src/lr1mac_core.c **** 
  87:lr1mac/src/lr1mac_core.c ****     if( status == ERRORLORAWAN )
  88:lr1mac/src/lr1mac_core.c ****     {
  89:lr1mac/src/lr1mac_core.c ****         memcpy( lr1_mac_obj.app_skey, lorawan_keys->LoRaMacAppSKey, 16 );
  90:lr1mac/src/lr1mac_core.c ****         memcpy( lr1_mac_obj.nwk_skey, lorawan_keys->LoRaMacNwkSKey, 16 );
  91:lr1mac/src/lr1mac_core.c ****         memcpy( lr1_mac_obj.app_key, lorawan_keys->LoRaMacAppKey, 16 );
  92:lr1mac/src/lr1mac_core.c ****         memcpy( lr1_mac_obj.dev_eui, lorawan_keys->DevEui, 8 );
  93:lr1mac/src/lr1mac_core.c ****         memcpy( lr1_mac_obj.app_eui, lorawan_keys->AppEui, 8 );
  94:lr1mac/src/lr1mac_core.c ****         lr1_mac_obj.dev_nonce         = 0;
  95:lr1mac/src/lr1mac_core.c ****         lr1_mac_obj.adr_custom        = BSP_USER_DR_DISTRIBUTION_PARAMETERS;  // (dr0 only)
  96:lr1mac/src/lr1mac_core.c ****         lr1_mac_obj.nb_of_reset       = 0;
  97:lr1mac/src/lr1mac_core.c ****         lr1_mac_obj.real->region_type = ( smtc_real_region_types_t ) smtc_real_region_list[0];
  98:lr1mac/src/lr1mac_core.c ****         lr1mac_core_context_save( );
  99:lr1mac/src/lr1mac_core.c ****     }
 100:lr1mac/src/lr1mac_core.c ****     smtc_real_init( &lr1_mac_obj );
 101:lr1mac/src/lr1mac_core.c ****     BSP_DBG_TRACE_PRINTF( " Region = %s\n", smtc_real_region_list_str[lr1_mac_obj.real->region_type
 102:lr1mac/src/lr1mac_core.c **** 
 103:lr1mac/src/lr1mac_core.c ****     lr1_mac_obj.rp = rp;
 104:lr1mac/src/lr1mac_core.c **** 
 105:lr1mac/src/lr1mac_core.c ****     rp_hook_init( lr1_mac_obj.rp, stack_id4rp, ( void ( * )( void* ) )( lr1_stack_mac_rp_callback )
 106:lr1mac/src/lr1mac_core.c **** }
 107:lr1mac/src/lr1mac_core.c **** 
 108:lr1mac/src/lr1mac_core.c **** /***********************************************************************************************/
 109:lr1mac/src/lr1mac_core.c **** /*    LoraWanProcess Method                                                                    */
 110:lr1mac/src/lr1mac_core.c **** /***********************************************************************************************/
 111:lr1mac/src/lr1mac_core.c **** 
 112:lr1mac/src/lr1mac_core.c **** lr1mac_states_t lr1mac_core_process( user_rx_packet_type_t* available_rx_packet )
 113:lr1mac/src/lr1mac_core.c **** {
  60              		.loc 1 113 1 view -0
  61              		.cfi_startproc
  62              		@ args = 0, pretend = 0, frame = 16
  63              		@ frame_needed = 0, uses_anonymous_args = 0
 114:lr1mac/src/lr1mac_core.c ****     uint8_t myhook_id;
  64              		.loc 1 114 5 view .LVU1
ARM GAS  /var/folders/bq/yv49bw8j2kd6w3hsq868qv180000gn/T//ccSmIUlm.s 			page 5


 115:lr1mac/src/lr1mac_core.c ****     rp_hook_get_id( lr1_mac_obj.rp, ( void* ) ( &( lr1_mac_obj ) ), &myhook_id );
  65              		.loc 1 115 5 view .LVU2
 113:lr1mac/src/lr1mac_core.c ****     uint8_t myhook_id;
  66              		.loc 1 113 1 is_stmt 0 view .LVU3
  67 0000 F0B5     		push	{r4, r5, r6, r7, lr}
  68              		.cfi_def_cfa_offset 20
  69              		.cfi_offset 4, -20
  70              		.cfi_offset 5, -16
  71              		.cfi_offset 6, -12
  72              		.cfi_offset 7, -8
  73              		.cfi_offset 14, -4
  74 0002 85B0     		sub	sp, sp, #20
  75              		.cfi_def_cfa_offset 40
  76              		.loc 1 115 5 view .LVU4
  77 0004 AB4C     		ldr	r4, .L26
  78 0006 02AB     		add	r3, sp, #8
  79              		.loc 1 115 32 view .LVU5
  80 0008 AB4F     		ldr	r7, .L26+4
  81              		.loc 1 115 5 view .LVU6
  82 000a DE1D     		adds	r6, r3, #7
  83 000c 3200     		movs	r2, r6
 113:lr1mac/src/lr1mac_core.c ****     uint8_t myhook_id;
  84              		.loc 1 113 1 view .LVU7
  85 000e 0190     		str	r0, [sp, #4]
  86              		.loc 1 115 5 view .LVU8
  87 0010 2100     		movs	r1, r4
  88 0012 E059     		ldr	r0, [r4, r7]
  89              	.LVL1:
  90              		.loc 1 115 5 view .LVU9
  91 0014 FFF7FEFF 		bl	rp_hook_get_id
  92              	.LVL2:
 116:lr1mac/src/lr1mac_core.c ****     *available_rx_packet = NO_LORA_RXPACKET_AVAILABLE;
  93              		.loc 1 116 5 is_stmt 1 view .LVU10
  94              		.loc 1 116 26 is_stmt 0 view .LVU11
  95 0018 0023     		movs	r3, #0
  96 001a 019A     		ldr	r2, [sp, #4]
 117:lr1mac/src/lr1mac_core.c **** #ifndef TEST_BYPASS_JOIN_DUTY_CYCLE
 118:lr1mac/src/lr1mac_core.c **** //    if( ( lr1_mac_joined_status_get( ) == NOT_JOINED ) &&
 119:lr1mac/src/lr1mac_core.c **** //        ( ( int32_t )( lr1_mac_obj.next_time_to_join_seconds - bsp_rtc_get_time_s( ) ) > 0 ) )
 120:lr1mac/src/lr1mac_core.c **** //    {
 121:lr1mac/src/lr1mac_core.c **** //        BSP_DBG_TRACE_PRINTF( "TOO SOON TO JOIN time is  %lu time target is : %lu \n", bsp_rtc_ge
 122:lr1mac/src/lr1mac_core.c **** //                              lr1_mac_obj.next_time_to_join_seconds );
 123:lr1mac/src/lr1mac_core.c **** //        lr1mac_state = LWPSTATE_IDLE;
 124:lr1mac/src/lr1mac_core.c **** //    }
 125:lr1mac/src/lr1mac_core.c **** #endif  // TEST_BYPASS_JOIN_DUTY_CYCLE
 126:lr1mac/src/lr1mac_core.c **** 
 127:lr1mac/src/lr1mac_core.c ****     if( ( lr1mac_state != LWPSTATE_IDLE ) && ( ( bsp_rtc_get_time_s( ) - failsafe_timstamp_get( ) )
  97              		.loc 1 127 24 view .LVU12
  98 001c A74D     		ldr	r5, .L26+8
 116:lr1mac/src/lr1mac_core.c ****     *available_rx_packet = NO_LORA_RXPACKET_AVAILABLE;
  99              		.loc 1 116 26 view .LVU13
 100 001e 1370     		strb	r3, [r2]
 101              		.loc 1 127 5 is_stmt 1 view .LVU14
 102              		.loc 1 127 7 is_stmt 0 view .LVU15
 103 0020 2B78     		ldrb	r3, [r5]
 104 0022 002B     		cmp	r3, #0
 105 0024 2AD0     		beq	.L3
ARM GAS  /var/folders/bq/yv49bw8j2kd6w3hsq868qv180000gn/T//ccSmIUlm.s 			page 6


 106              		.loc 1 127 50 discriminator 1 view .LVU16
 107 0026 FFF7FEFF 		bl	bsp_rtc_get_time_s
 108              	.LVL3:
 109              	.LBB11:
 110              	.LBI11:
 128:lr1mac/src/lr1mac_core.c ****     {
 129:lr1mac/src/lr1mac_core.c ****         lr1mac_state = LWPSTATE_ERROR;
 130:lr1mac/src/lr1mac_core.c ****         BSP_DBG_TRACE_ERROR( "FAILSAFE EVENT OCCUR \n" );
 131:lr1mac/src/lr1mac_core.c ****         bsp_mcu_handle_lr1mac_issue( );
 132:lr1mac/src/lr1mac_core.c ****     }
 133:lr1mac/src/lr1mac_core.c ****     switch( lr1mac_state )
 134:lr1mac/src/lr1mac_core.c ****     {
 135:lr1mac/src/lr1mac_core.c ****         /************************************************************************************/
 136:lr1mac/src/lr1mac_core.c ****         /*                                    STATE IDLE                                    */
 137:lr1mac/src/lr1mac_core.c ****         /************************************************************************************/
 138:lr1mac/src/lr1mac_core.c ****     case LWPSTATE_IDLE:
 139:lr1mac/src/lr1mac_core.c ****         break;
 140:lr1mac/src/lr1mac_core.c **** 
 141:lr1mac/src/lr1mac_core.c ****         /************************************************************************************/
 142:lr1mac/src/lr1mac_core.c ****         /*                                    STATE TX                                      */
 143:lr1mac/src/lr1mac_core.c ****         /************************************************************************************/
 144:lr1mac/src/lr1mac_core.c ****     case LWPSTATE_SEND:
 145:lr1mac/src/lr1mac_core.c ****         switch( lr1_stack_mac_radio_state_get( &lr1_mac_obj ) )
 146:lr1mac/src/lr1mac_core.c ****         {
 147:lr1mac/src/lr1mac_core.c ****         case RADIOSTATE_IDLE:
 148:lr1mac/src/lr1mac_core.c ****             receive_window_type = RECEIVE_NONE;
 149:lr1mac/src/lr1mac_core.c ****             DBG_PRINT_WITH_LINE( "Send Payload  HOOK ID = %d", myhook_id );
 150:lr1mac/src/lr1mac_core.c ****             lr1_stack_mac_tx_radio_start( &lr1_mac_obj );
 151:lr1mac/src/lr1mac_core.c ****             break;
 152:lr1mac/src/lr1mac_core.c **** 
 153:lr1mac/src/lr1mac_core.c ****         case RADIOSTATE_TXFINISHED:
 154:lr1mac/src/lr1mac_core.c ****             lr1mac_state = LWPSTATE_RX1;
 155:lr1mac/src/lr1mac_core.c ****             lr1_stack_mac_rx_timer_configure( &lr1_mac_obj, RX1 );
 156:lr1mac/src/lr1mac_core.c ****             lr1_mac_obj.tx_duty_cycle_timestamp_ms = bsp_rtc_get_time_ms( );
 157:lr1mac/src/lr1mac_core.c ****             lr1_mac_obj.tx_duty_cycle_time_off_ms =
 158:lr1mac/src/lr1mac_core.c ****                 ( lr1_mac_obj.rp->stats.tx_last_toa_ms[myhook_id] << lr1_mac_obj.max_duty_cycle_ind
 159:lr1mac/src/lr1mac_core.c ****                 lr1_mac_obj.rp->stats.tx_last_toa_ms[myhook_id];
 160:lr1mac/src/lr1mac_core.c ****             smtc_real_duty_cycle_sum( &lr1_mac_obj, lr1_mac_obj.tx_frequency,
 161:lr1mac/src/lr1mac_core.c ****                                       lr1_mac_obj.rp->stats.tx_last_toa_ms[myhook_id] );
 162:lr1mac/src/lr1mac_core.c ****             break;
 163:lr1mac/src/lr1mac_core.c **** 
 164:lr1mac/src/lr1mac_core.c ****         default:
 165:lr1mac/src/lr1mac_core.c ****             break;
 166:lr1mac/src/lr1mac_core.c ****         }
 167:lr1mac/src/lr1mac_core.c ****         break;
 168:lr1mac/src/lr1mac_core.c **** 
 169:lr1mac/src/lr1mac_core.c ****         /************************************************************************************/
 170:lr1mac/src/lr1mac_core.c ****         /*                                   STATE RX1                                      */
 171:lr1mac/src/lr1mac_core.c ****         /************************************************************************************/
 172:lr1mac/src/lr1mac_core.c ****     case LWPSTATE_RX1:
 173:lr1mac/src/lr1mac_core.c ****         if( lr1_stack_mac_radio_state_get( &lr1_mac_obj ) == RADIOSTATE_RX1FINISHED )
 174:lr1mac/src/lr1mac_core.c ****         {
 175:lr1mac/src/lr1mac_core.c ****             if( rp_status_get( ) == RP_STATUS_RX_PACKET )
 176:lr1mac/src/lr1mac_core.c ****             {
 177:lr1mac/src/lr1mac_core.c ****                 receive_window_type = RECEIVE_ON_RX1;
 178:lr1mac/src/lr1mac_core.c ****                 lr1mac_state        = LWPSTATE_PROCESS_DOWNLINK;
 179:lr1mac/src/lr1mac_core.c ****                 DBG_PRINT_WITH_LINE( "Receive a downlink RX1 for Hook Id = %d", myhook_id );
ARM GAS  /var/folders/bq/yv49bw8j2kd6w3hsq868qv180000gn/T//ccSmIUlm.s 			page 7


 180:lr1mac/src/lr1mac_core.c ****             }
 181:lr1mac/src/lr1mac_core.c ****             else
 182:lr1mac/src/lr1mac_core.c ****             {
 183:lr1mac/src/lr1mac_core.c ****                 lr1mac_state = LWPSTATE_RX2;
 184:lr1mac/src/lr1mac_core.c ****                 DBG_PRINT_WITH_LINE( "RX1 Timeout for Hook Id = %d", myhook_id );
 185:lr1mac/src/lr1mac_core.c ****                 lr1_stack_mac_rx_timer_configure( &lr1_mac_obj, RX2 );
 186:lr1mac/src/lr1mac_core.c ****             }
 187:lr1mac/src/lr1mac_core.c ****         }
 188:lr1mac/src/lr1mac_core.c ****         break;
 189:lr1mac/src/lr1mac_core.c **** 
 190:lr1mac/src/lr1mac_core.c ****         /************************************************************************************/
 191:lr1mac/src/lr1mac_core.c ****         /*                                   STATE RX2                                      */
 192:lr1mac/src/lr1mac_core.c ****         /************************************************************************************/
 193:lr1mac/src/lr1mac_core.c ****     case LWPSTATE_RX2:
 194:lr1mac/src/lr1mac_core.c ****         if( lr1_stack_mac_radio_state_get( &lr1_mac_obj ) == RADIOSTATE_IDLE )
 195:lr1mac/src/lr1mac_core.c ****         {
 196:lr1mac/src/lr1mac_core.c ****             if( rp_status_get( ) == RP_STATUS_RX_PACKET )
 197:lr1mac/src/lr1mac_core.c ****             {
 198:lr1mac/src/lr1mac_core.c ****                 receive_window_type = RECEIVE_ON_RX2;
 199:lr1mac/src/lr1mac_core.c ****                 lr1mac_state        = LWPSTATE_PROCESS_DOWNLINK;
 200:lr1mac/src/lr1mac_core.c ****                 DBG_PRINT_WITH_LINE( "Receive a downlink RX2 for Hook Id = %d", myhook_id );
 201:lr1mac/src/lr1mac_core.c ****             }
 202:lr1mac/src/lr1mac_core.c ****             else
 203:lr1mac/src/lr1mac_core.c ****             {
 204:lr1mac/src/lr1mac_core.c ****                 DBG_PRINT_WITH_LINE( "RX2 Timeout for Hook Id = %d", myhook_id );
 205:lr1mac/src/lr1mac_core.c ****                 lr1mac_state = LWPSTATE_UPDATE_MAC;
 206:lr1mac/src/lr1mac_core.c ****             }
 207:lr1mac/src/lr1mac_core.c ****         }
 208:lr1mac/src/lr1mac_core.c ****         break;
 209:lr1mac/src/lr1mac_core.c **** 
 210:lr1mac/src/lr1mac_core.c ****         /************************************************************************************/
 211:lr1mac/src/lr1mac_core.c ****         /*                              STATE PROCESS DOWNLINK                              */
 212:lr1mac/src/lr1mac_core.c ****         /* At this step crc is valid                                                        */
 213:lr1mac/src/lr1mac_core.c ****         /*    Step 1 : CheckRxPayloadLength                                                 */
 214:lr1mac/src/lr1mac_core.c ****         /*    Step 2 : ExtractRxMhdr                                                        */
 215:lr1mac/src/lr1mac_core.c ****         /*    Step 3 : ExtractRxFhdr                                                        */
 216:lr1mac/src/lr1mac_core.c ****         /*    Step 4 : Check Mic                                                            */
 217:lr1mac/src/lr1mac_core.c ****         /*    Step 5 : Decrypt Payload                                                      */
 218:lr1mac/src/lr1mac_core.c ****         /*    Step 6 : Extract Fport to select Between App/nwm Payload                      */
 219:lr1mac/src/lr1mac_core.c ****         /************************************************************************************/
 220:lr1mac/src/lr1mac_core.c ****     case LWPSTATE_PROCESS_DOWNLINK:
 221:lr1mac/src/lr1mac_core.c ****         // return NOvalid_rx_packet or  USERRX_FOPTSPACKET or NWKRXPACKET or JOIN_ACCEPT_PACKET.
 222:lr1mac/src/lr1mac_core.c ****         DBG_PRINT_WITH_LINE( "Process Downlink for Hook Id = %d", myhook_id );
 223:lr1mac/src/lr1mac_core.c **** 
 224:lr1mac/src/lr1mac_core.c ****         valid_rx_packet = lr1_stack_mac_rx_frame_decode( &lr1_mac_obj );
 225:lr1mac/src/lr1mac_core.c ****         lr1mac_state    = LWPSTATE_UPDATE_MAC;
 226:lr1mac/src/lr1mac_core.c ****         break;
 227:lr1mac/src/lr1mac_core.c **** 
 228:lr1mac/src/lr1mac_core.c ****         /************************************************************************************/
 229:lr1mac/src/lr1mac_core.c ****         /*                              STATE UPDATE MAC                                    */
 230:lr1mac/src/lr1mac_core.c ****         /************************************************************************************/
 231:lr1mac/src/lr1mac_core.c ****     case LWPSTATE_UPDATE_MAC:
 232:lr1mac/src/lr1mac_core.c ****         lr1_mac_obj.radio_process_state = RADIOSTATE_IDLE;
 233:lr1mac/src/lr1mac_core.c ****         DBG_PRINT_WITH_LINE( "Update Mac for Hook Id = %d", myhook_id );
 234:lr1mac/src/lr1mac_core.c **** 
 235:lr1mac/src/lr1mac_core.c ****         if( valid_rx_packet == JOIN_ACCEPT_PACKET )
 236:lr1mac/src/lr1mac_core.c ****         {
ARM GAS  /var/folders/bq/yv49bw8j2kd6w3hsq868qv180000gn/T//ccSmIUlm.s 			page 8


 237:lr1mac/src/lr1mac_core.c ****             BSP_DBG_TRACE_MSG( " update join procedure \n" );
 238:lr1mac/src/lr1mac_core.c ****             lr1_stack_mac_join_accept( &lr1_mac_obj );
 239:lr1mac/src/lr1mac_core.c **** 
 240:lr1mac/src/lr1mac_core.c ****             //@note because datarate Distribution has been changed during join
 241:lr1mac/src/lr1mac_core.c ****             smtc_real_dr_distribution_set( &lr1_mac_obj, lr1_mac_obj.adr_mode_select );
 242:lr1mac/src/lr1mac_core.c ****         }
 243:lr1mac/src/lr1mac_core.c ****         if( ( valid_rx_packet == NWKRXPACKET ) || ( valid_rx_packet == USERRX_FOPTSPACKET ) )
 244:lr1mac/src/lr1mac_core.c ****         {
 245:lr1mac/src/lr1mac_core.c ****             lr1_stack_mac_cmd_parse( &lr1_mac_obj );
 246:lr1mac/src/lr1mac_core.c ****         }
 247:lr1mac/src/lr1mac_core.c ****         lr1_stack_mac_update( &lr1_mac_obj );
 248:lr1mac/src/lr1mac_core.c ****         *available_rx_packet = lr1_mac_obj.available_app_packet;
 249:lr1mac/src/lr1mac_core.c **** 
 250:lr1mac/src/lr1mac_core.c ****         if( ( lr1_mac_obj.type_of_ans_to_send == NWKFRAME_TOSEND ) ||
 251:lr1mac/src/lr1mac_core.c ****             ( lr1_mac_obj.type_of_ans_to_send == USRFRAME_TORETRANSMIT ) )
 252:lr1mac/src/lr1mac_core.c ****         {  // @note ack send during the next tx|| ( packet.IsFrameToSend == USERACK_TOSEND ) ) {
 253:lr1mac/src/lr1mac_core.c ****             lr1_mac_obj.type_of_ans_to_send = NOFRAME_TOSEND;
 254:lr1mac/src/lr1mac_core.c ****             lr1_mac_obj.rtc_target_timer_ms = ( bsp_rtc_get_time_s( ) + bsp_rng_get_random_in_range
 255:lr1mac/src/lr1mac_core.c ****             lr1mac_state                    = LWPSTATE_TX_WAIT;
 256:lr1mac/src/lr1mac_core.c ****         }
 257:lr1mac/src/lr1mac_core.c ****         else
 258:lr1mac/src/lr1mac_core.c ****         {
 259:lr1mac/src/lr1mac_core.c ****             lr1mac_state = LWPSTATE_IDLE;
 260:lr1mac/src/lr1mac_core.c ****         }
 261:lr1mac/src/lr1mac_core.c ****         valid_rx_packet = NO_MORE_VALID_RX_PACKET;
 262:lr1mac/src/lr1mac_core.c ****         break;
 263:lr1mac/src/lr1mac_core.c **** 
 264:lr1mac/src/lr1mac_core.c ****         /************************************************************************************/
 265:lr1mac/src/lr1mac_core.c ****         /*                              STATE TXwait MAC                                    */
 266:lr1mac/src/lr1mac_core.c ****         /************************************************************************************/
 267:lr1mac/src/lr1mac_core.c ****     case LWPSTATE_TX_WAIT:
 268:lr1mac/src/lr1mac_core.c ****         BSP_DBG_TRACE_MSG( "." );
 269:lr1mac/src/lr1mac_core.c ****         if( bsp_rtc_get_time_ms( ) > lr1_mac_obj.rtc_target_timer_ms )
 270:lr1mac/src/lr1mac_core.c ****         {
 271:lr1mac/src/lr1mac_core.c ****             lr1mac_state = LWPSTATE_SEND;  //@note the frame have already been prepare in Update Ma
 272:lr1mac/src/lr1mac_core.c ****         }
 273:lr1mac/src/lr1mac_core.c ****         break;
 274:lr1mac/src/lr1mac_core.c **** 
 275:lr1mac/src/lr1mac_core.c ****     default:
 276:lr1mac/src/lr1mac_core.c ****         BSP_DBG_TRACE_MSG( " Illegal state in lorawan process\n " );
 277:lr1mac/src/lr1mac_core.c ****         bsp_mcu_handle_lr1mac_issue( );
 278:lr1mac/src/lr1mac_core.c ****         break;
 279:lr1mac/src/lr1mac_core.c ****     }
 280:lr1mac/src/lr1mac_core.c **** 
 281:lr1mac/src/lr1mac_core.c ****     return ( lr1mac_state );
 282:lr1mac/src/lr1mac_core.c **** }
 283:lr1mac/src/lr1mac_core.c **** 
 284:lr1mac/src/lr1mac_core.c **** /***********************************************************************************************/
 285:lr1mac/src/lr1mac_core.c **** /*    End Of LoraWanProcess Method                                                             */
 286:lr1mac/src/lr1mac_core.c **** /***********************************************************************************************/
 287:lr1mac/src/lr1mac_core.c **** 
 288:lr1mac/src/lr1mac_core.c **** /**************************************************/
 289:lr1mac/src/lr1mac_core.c **** /*            LoraWan  Join  Method               */
 290:lr1mac/src/lr1mac_core.c **** /**************************************************/
 291:lr1mac/src/lr1mac_core.c **** 
 292:lr1mac/src/lr1mac_core.c **** lr1mac_states_t lr1mac_core_join( uint32_t target_time_ms )
 293:lr1mac/src/lr1mac_core.c **** {
ARM GAS  /var/folders/bq/yv49bw8j2kd6w3hsq868qv180000gn/T//ccSmIUlm.s 			page 9


 294:lr1mac/src/lr1mac_core.c ****     if( lr1mac_state != LWPSTATE_IDLE )
 295:lr1mac/src/lr1mac_core.c ****     {
 296:lr1mac/src/lr1mac_core.c ****         BSP_DBG_TRACE_ERROR( "LP STATE NOT EQUAL TO IDLE \n" );
 297:lr1mac/src/lr1mac_core.c ****         return ( LWPSTATE_ERROR );
 298:lr1mac/src/lr1mac_core.c ****     }
 299:lr1mac/src/lr1mac_core.c ****     if( lr1mac_core_is_otaa_device( ) == ABP_DEVICE )
 300:lr1mac/src/lr1mac_core.c ****     {
 301:lr1mac/src/lr1mac_core.c ****         BSP_DBG_TRACE_ERROR( "ABP DEVICE CAN'T PROCCED A JOIN REQUEST \n" );
 302:lr1mac/src/lr1mac_core.c ****         return ( LWPSTATE_ERROR );
 303:lr1mac/src/lr1mac_core.c ****     }
 304:lr1mac/src/lr1mac_core.c ****     uint32_t current_timestamp      = bsp_rtc_get_time_s( );
 305:lr1mac/src/lr1mac_core.c ****     lr1_mac_obj.timestamp_failsafe  = current_timestamp;
 306:lr1mac/src/lr1mac_core.c ****     lr1_mac_obj.rtc_target_timer_ms = target_time_ms;
 307:lr1mac/src/lr1mac_core.c ****     lr1_mac_obj.join_status         = NOT_JOINED;
 308:lr1mac/src/lr1mac_core.c ****     smtc_real_init( &lr1_mac_obj );
 309:lr1mac/src/lr1mac_core.c ****     lr1_mac_obj.rx2_data_rate = smtc_real_rx2_join_dr_get( &lr1_mac_obj );
 310:lr1mac/src/lr1mac_core.c ****     smtc_real_dr_distribution_set( &lr1_mac_obj, JOIN_DR_DISTRIBUTION );
 311:lr1mac/src/lr1mac_core.c ****     smtc_real_next_dr_get( &lr1_mac_obj );
 312:lr1mac/src/lr1mac_core.c ****     smtc_real_duty_cycle_update( &lr1_mac_obj );
 313:lr1mac/src/lr1mac_core.c ****     if( smtc_real_join_next_channel_get( &lr1_mac_obj ) != OKLORAWAN )
 314:lr1mac/src/lr1mac_core.c ****     {
 315:lr1mac/src/lr1mac_core.c ****         return ( LWPSTATE_ERROR );
 316:lr1mac/src/lr1mac_core.c ****     }
 317:lr1mac/src/lr1mac_core.c **** 
 318:lr1mac/src/lr1mac_core.c ****     lr1_stack_mac_join_request_build( &lr1_mac_obj );
 319:lr1mac/src/lr1mac_core.c ****     lr1_stack_rx1_join_delay_set( &lr1_mac_obj );
 320:lr1mac/src/lr1mac_core.c ****     lr1_stack_rx2_join_dr_set( &lr1_mac_obj );
 321:lr1mac/src/lr1mac_core.c **** 
 322:lr1mac/src/lr1mac_core.c ****     // check if it first join try
 323:lr1mac/src/lr1mac_core.c ****     if( lr1_mac_obj.retry_join_cpt == 0 )
 324:lr1mac/src/lr1mac_core.c ****     {
 325:lr1mac/src/lr1mac_core.c ****         // take the timestamp reference for join duty cycle management
 326:lr1mac/src/lr1mac_core.c ****         lr1_mac_obj.first_join_timestamp = current_timestamp;
 327:lr1mac/src/lr1mac_core.c ****     }
 328:lr1mac/src/lr1mac_core.c **** 
 329:lr1mac/src/lr1mac_core.c ****     lr1mac_state = LWPSTATE_SEND;
 330:lr1mac/src/lr1mac_core.c ****     return ( lr1mac_state );
 331:lr1mac/src/lr1mac_core.c **** }
 332:lr1mac/src/lr1mac_core.c **** 
 333:lr1mac/src/lr1mac_core.c **** /**************************************************/
 334:lr1mac/src/lr1mac_core.c **** /*          LoraWan  IsJoined  Method             */
 335:lr1mac/src/lr1mac_core.c **** /**************************************************/
 336:lr1mac/src/lr1mac_core.c **** join_status_t lr1_mac_joined_status_get( void )
 337:lr1mac/src/lr1mac_core.c **** {
 338:lr1mac/src/lr1mac_core.c ****     join_status_t status = NOT_JOINED;
 339:lr1mac/src/lr1mac_core.c ****     status               = lr1_mac_obj.join_status;
 340:lr1mac/src/lr1mac_core.c ****     return ( status );
 341:lr1mac/src/lr1mac_core.c **** }
 342:lr1mac/src/lr1mac_core.c **** /**************************************************/
 343:lr1mac/src/lr1mac_core.c **** /*          LoraWan  ClearJoinStatus  Method      */
 344:lr1mac/src/lr1mac_core.c **** /**************************************************/
 345:lr1mac/src/lr1mac_core.c **** 
 346:lr1mac/src/lr1mac_core.c **** void lr1mac_core_join_status_clear( void )
 347:lr1mac/src/lr1mac_core.c **** {
 348:lr1mac/src/lr1mac_core.c ****     lr1_mac_obj.join_status = NOT_JOINED;
 349:lr1mac/src/lr1mac_core.c ****     smtc_real_join_snapshot_channel_mask_init( &lr1_mac_obj );
 350:lr1mac/src/lr1mac_core.c **** }
ARM GAS  /var/folders/bq/yv49bw8j2kd6w3hsq868qv180000gn/T//ccSmIUlm.s 			page 10


 351:lr1mac/src/lr1mac_core.c **** 
 352:lr1mac/src/lr1mac_core.c **** /**************************************************/
 353:lr1mac/src/lr1mac_core.c **** /*          LoraWan  IsJoined  Method             */
 354:lr1mac/src/lr1mac_core.c **** /**************************************************/
 355:lr1mac/src/lr1mac_core.c **** 
 356:lr1mac/src/lr1mac_core.c **** void lr1mac_core_new_join( void )
 357:lr1mac/src/lr1mac_core.c **** {
 358:lr1mac/src/lr1mac_core.c ****     lr1_mac_obj.join_status = NOT_JOINED;
 359:lr1mac/src/lr1mac_core.c **** }
 360:lr1mac/src/lr1mac_core.c **** /**************************************************/
 361:lr1mac/src/lr1mac_core.c **** /*         LoraWan  SendPayload  Method           */
 362:lr1mac/src/lr1mac_core.c **** /**************************************************/
 363:lr1mac/src/lr1mac_core.c **** 
 364:lr1mac/src/lr1mac_core.c **** lr1mac_states_t lr1mac_core_payload_send_at_time( uint8_t fport, const uint8_t* data_in, const uint
 365:lr1mac/src/lr1mac_core.c ****                                                   uint8_t packet_type, uint32_t target_time_ms )
 366:lr1mac/src/lr1mac_core.c **** {
 367:lr1mac/src/lr1mac_core.c ****     lr1mac_states_t status;
 368:lr1mac/src/lr1mac_core.c ****     status = lr1mac_core_payload_send( fport, data_in, size_in, packet_type, target_time_ms );
 369:lr1mac/src/lr1mac_core.c ****     if( status == LWPSTATE_SEND )
 370:lr1mac/src/lr1mac_core.c ****     {
 371:lr1mac/src/lr1mac_core.c ****         lr1_mac_obj.send_at_time = true;
 372:lr1mac/src/lr1mac_core.c ****         lr1_mac_obj.nb_trans_cpt = 1;  // Overwrite nb_trans_cpt, when downlink is At Time, repetit
 373:lr1mac/src/lr1mac_core.c ****     }
 374:lr1mac/src/lr1mac_core.c ****     return status;
 375:lr1mac/src/lr1mac_core.c **** }
 376:lr1mac/src/lr1mac_core.c **** 
 377:lr1mac/src/lr1mac_core.c **** lr1mac_states_t lr1mac_core_payload_send( uint8_t fport, const uint8_t* data_in, const uint8_t size
 378:lr1mac/src/lr1mac_core.c ****                                           uint8_t packet_type, uint32_t target_time_ms )
 379:lr1mac/src/lr1mac_core.c **** {
 380:lr1mac/src/lr1mac_core.c ****     status_lorawan_t status;
 381:lr1mac/src/lr1mac_core.c ****     status = smtc_real_is_valid_size( &lr1_mac_obj, lr1_mac_obj.tx_data_rate, size_in );
 382:lr1mac/src/lr1mac_core.c ****     if( status == ERRORLORAWAN )
 383:lr1mac/src/lr1mac_core.c ****     {
 384:lr1mac/src/lr1mac_core.c ****         BSP_DBG_TRACE_ERROR( "PAYLOAD SIZE TOO HIGH \n" );
 385:lr1mac/src/lr1mac_core.c ****         return ( LWPSTATE_INVALID );
 386:lr1mac/src/lr1mac_core.c ****     }
 387:lr1mac/src/lr1mac_core.c **** //    if( lr1mac_core_is_otaa_device( ) == OTAA_DEVICE )
 388:lr1mac/src/lr1mac_core.c **** //    {
 389:lr1mac/src/lr1mac_core.c **** //        if( lr1_mac_obj.join_status == NOT_JOINED )
 390:lr1mac/src/lr1mac_core.c **** //        {
 391:lr1mac/src/lr1mac_core.c **** //            BSP_DBG_TRACE_ERROR( "OTAA DEVICE NOT JOINED YET\n" );
 392:lr1mac/src/lr1mac_core.c **** //            return ( LWPSTATE_INVALID );
 393:lr1mac/src/lr1mac_core.c **** //        }
 394:lr1mac/src/lr1mac_core.c **** //    }
 395:lr1mac/src/lr1mac_core.c ****     if( lr1mac_state != LWPSTATE_IDLE )
 396:lr1mac/src/lr1mac_core.c ****     {
 397:lr1mac/src/lr1mac_core.c ****         BSP_DBG_TRACE_ERROR( "LP STATE NOT EQUAL TO IDLE \n" );
 398:lr1mac/src/lr1mac_core.c ****         return ( LWPSTATE_ERROR );
 399:lr1mac/src/lr1mac_core.c ****     }
 400:lr1mac/src/lr1mac_core.c ****     // Decrement duty cycle before check the available DTC
 401:lr1mac/src/lr1mac_core.c ****     smtc_real_duty_cycle_update( &lr1_mac_obj );
 402:lr1mac/src/lr1mac_core.c ****     if( smtc_real_next_channel_get( &lr1_mac_obj ) != OKLORAWAN )
 403:lr1mac/src/lr1mac_core.c ****     {
 404:lr1mac/src/lr1mac_core.c ****         BSP_DBG_TRACE_WARNING( "NO CHANNEL AVAILABLE\n" );
 405:lr1mac/src/lr1mac_core.c ****         return ( LWPSTATE_DUTY_CYCLE_FULL );
 406:lr1mac/src/lr1mac_core.c ****     }
 407:lr1mac/src/lr1mac_core.c **** 
ARM GAS  /var/folders/bq/yv49bw8j2kd6w3hsq868qv180000gn/T//ccSmIUlm.s 			page 11


 408:lr1mac/src/lr1mac_core.c ****     if( lr1mac_core_next_free_duty_cycle_ms_get( ) > 0 )
 409:lr1mac/src/lr1mac_core.c ****     {
 410:lr1mac/src/lr1mac_core.c ****         BSP_DBG_TRACE_WARNING( "Duty Cycle is full\n" );
 411:lr1mac/src/lr1mac_core.c ****         return ( LWPSTATE_DUTY_CYCLE_FULL );
 412:lr1mac/src/lr1mac_core.c ****     }
 413:lr1mac/src/lr1mac_core.c **** 
 414:lr1mac/src/lr1mac_core.c ****     lr1_mac_obj.timestamp_failsafe  = bsp_rtc_get_time_s( );
 415:lr1mac/src/lr1mac_core.c ****     lr1_mac_obj.rtc_target_timer_ms = target_time_ms;
 416:lr1mac/src/lr1mac_core.c ****     copy_user_payload( data_in, size_in );
 417:lr1mac/src/lr1mac_core.c ****     lr1_mac_obj.app_payload_size = size_in;
 418:lr1mac/src/lr1mac_core.c ****     lr1_mac_obj.tx_fport         = fport;
 419:lr1mac/src/lr1mac_core.c ****     lr1_mac_obj.tx_mtype         = packet_type;
 420:lr1mac/src/lr1mac_core.c ****     lr1_stack_mac_tx_frame_build( &lr1_mac_obj );
 421:lr1mac/src/lr1mac_core.c **** //    lr1_stack_mac_tx_frame_encrypt( &lr1_mac_obj );
 422:lr1mac/src/lr1mac_core.c ****     if( packet_type == CONF_DATA_UP )
 423:lr1mac/src/lr1mac_core.c ****     {
 424:lr1mac/src/lr1mac_core.c ****         lr1_mac_obj.nb_trans_cpt = MAX_CONFUP_MSG;
 425:lr1mac/src/lr1mac_core.c ****     }
 426:lr1mac/src/lr1mac_core.c ****     else
 427:lr1mac/src/lr1mac_core.c ****     {
 428:lr1mac/src/lr1mac_core.c ****         lr1_mac_obj.nb_trans_cpt = lr1_mac_obj.nb_trans;
 429:lr1mac/src/lr1mac_core.c ****     }
 430:lr1mac/src/lr1mac_core.c ****     lr1mac_state = LWPSTATE_SEND;
 431:lr1mac/src/lr1mac_core.c ****     return ( lr1mac_state );
 432:lr1mac/src/lr1mac_core.c **** }
 433:lr1mac/src/lr1mac_core.c **** 
 434:lr1mac/src/lr1mac_core.c **** /**************************************************/
 435:lr1mac/src/lr1mac_core.c **** /*        LoraWan  Receive  Method                */
 436:lr1mac/src/lr1mac_core.c **** /**************************************************/
 437:lr1mac/src/lr1mac_core.c **** status_lorawan_t lr1mac_core_payload_receive( uint8_t* user_rx_port, uint8_t* user_rx_payload,
 438:lr1mac/src/lr1mac_core.c ****                                               uint8_t* user_rx_payloadSize )
 439:lr1mac/src/lr1mac_core.c **** {
 440:lr1mac/src/lr1mac_core.c ****     status_lorawan_t status = OKLORAWAN;
 441:lr1mac/src/lr1mac_core.c ****     if( lr1_mac_obj.available_app_packet == NO_LORA_RXPACKET_AVAILABLE )
 442:lr1mac/src/lr1mac_core.c ****     {
 443:lr1mac/src/lr1mac_core.c ****         status = ERRORLORAWAN;
 444:lr1mac/src/lr1mac_core.c ****     }
 445:lr1mac/src/lr1mac_core.c ****     else
 446:lr1mac/src/lr1mac_core.c ****     {
 447:lr1mac/src/lr1mac_core.c ****         *user_rx_payloadSize = lr1_mac_obj.rx_payload_size;
 448:lr1mac/src/lr1mac_core.c ****         *user_rx_port        = lr1_mac_obj.rx_fport;
 449:lr1mac/src/lr1mac_core.c ****         memcpy( user_rx_payload, lr1_mac_obj.rx_payload, lr1_mac_obj.rx_payload_size );
 450:lr1mac/src/lr1mac_core.c ****         lr1_mac_obj.available_app_packet = NO_LORA_RXPACKET_AVAILABLE;
 451:lr1mac/src/lr1mac_core.c ****     }
 452:lr1mac/src/lr1mac_core.c ****     return ( status );
 453:lr1mac/src/lr1mac_core.c **** }
 454:lr1mac/src/lr1mac_core.c **** 
 455:lr1mac/src/lr1mac_core.c **** /**************************************************/
 456:lr1mac/src/lr1mac_core.c **** /*       LoraWan  AdrModeSelect  Method           */
 457:lr1mac/src/lr1mac_core.c **** /**************************************************/
 458:lr1mac/src/lr1mac_core.c **** 
 459:lr1mac/src/lr1mac_core.c **** void lr1mac_core_dr_strategy_set( dr_strategy_t adr_mode_select )
 460:lr1mac/src/lr1mac_core.c **** {
 461:lr1mac/src/lr1mac_core.c ****     lr1_mac_obj.adr_mode_select = adr_mode_select;
 462:lr1mac/src/lr1mac_core.c ****     smtc_real_dr_distribution_set( &lr1_mac_obj, adr_mode_select );
 463:lr1mac/src/lr1mac_core.c ****     smtc_real_next_dr_get( &lr1_mac_obj );
 464:lr1mac/src/lr1mac_core.c **** }
ARM GAS  /var/folders/bq/yv49bw8j2kd6w3hsq868qv180000gn/T//ccSmIUlm.s 			page 12


 465:lr1mac/src/lr1mac_core.c **** /**************************************************/
 466:lr1mac/src/lr1mac_core.c **** /*       LoraWan  AdrModeSelect  Get Method       */
 467:lr1mac/src/lr1mac_core.c **** /**************************************************/
 468:lr1mac/src/lr1mac_core.c **** 
 469:lr1mac/src/lr1mac_core.c **** dr_strategy_t lr1mac_core_dr_strategy_get( void )
 470:lr1mac/src/lr1mac_core.c **** {
 471:lr1mac/src/lr1mac_core.c ****     return ( lr1_mac_obj.adr_mode_select );
 472:lr1mac/src/lr1mac_core.c **** }
 473:lr1mac/src/lr1mac_core.c **** /*************************************************************/
 474:lr1mac/src/lr1mac_core.c **** /*       LoraWan  Set DataRate Custom for custom adr profile */
 475:lr1mac/src/lr1mac_core.c **** /*************************************************************/
 476:lr1mac/src/lr1mac_core.c **** 
 477:lr1mac/src/lr1mac_core.c **** void lr1mac_core_dr_custom_set( uint32_t DataRateCustom )
 478:lr1mac/src/lr1mac_core.c **** {
 479:lr1mac/src/lr1mac_core.c ****     lr1_mac_obj.adr_custom = DataRateCustom;
 480:lr1mac/src/lr1mac_core.c **** }
 481:lr1mac/src/lr1mac_core.c **** /**************************************************/
 482:lr1mac/src/lr1mac_core.c **** /*         LoraWan  GetDevAddr  Method            */
 483:lr1mac/src/lr1mac_core.c **** /**************************************************/
 484:lr1mac/src/lr1mac_core.c **** 
 485:lr1mac/src/lr1mac_core.c **** uint32_t lr1mac_core_devaddr_get( void )
 486:lr1mac/src/lr1mac_core.c **** {
 487:lr1mac/src/lr1mac_core.c ****     return ( lr1_mac_obj.dev_addr );
 488:lr1mac/src/lr1mac_core.c **** }
 489:lr1mac/src/lr1mac_core.c **** 
 490:lr1mac/src/lr1mac_core.c **** /**************************************************/
 491:lr1mac/src/lr1mac_core.c **** /*         LoraWan  GetDevEUI  Method             */
 492:lr1mac/src/lr1mac_core.c **** /**************************************************/
 493:lr1mac/src/lr1mac_core.c **** 
 494:lr1mac/src/lr1mac_core.c **** void lr1mac_core_deveui_get( uint8_t* DevEui )
 495:lr1mac/src/lr1mac_core.c **** {
 496:lr1mac/src/lr1mac_core.c ****     memcpy( DevEui, lr1_mac_obj.dev_eui, 8 );
 497:lr1mac/src/lr1mac_core.c **** }
 498:lr1mac/src/lr1mac_core.c **** 
 499:lr1mac/src/lr1mac_core.c **** /**************************************************/
 500:lr1mac/src/lr1mac_core.c **** /*         LoraWan  SetDevEUI  Method             */
 501:lr1mac/src/lr1mac_core.c **** /**************************************************/
 502:lr1mac/src/lr1mac_core.c **** 
 503:lr1mac/src/lr1mac_core.c **** void lr1mac_core_deveui_set( uint8_t* DevEui )
 504:lr1mac/src/lr1mac_core.c **** {
 505:lr1mac/src/lr1mac_core.c ****     memcpy( lr1_mac_obj.dev_eui, DevEui, 8 );
 506:lr1mac/src/lr1mac_core.c **** }
 507:lr1mac/src/lr1mac_core.c **** 
 508:lr1mac/src/lr1mac_core.c **** /**************************************************/
 509:lr1mac/src/lr1mac_core.c **** /*         LoraWan  SetAppKey  Method             */
 510:lr1mac/src/lr1mac_core.c **** /**************************************************/
 511:lr1mac/src/lr1mac_core.c **** 
 512:lr1mac/src/lr1mac_core.c **** void lr1mac_core_app_key_set( uint8_t* AppKey )
 513:lr1mac/src/lr1mac_core.c **** {
 514:lr1mac/src/lr1mac_core.c ****     memcpy( lr1_mac_obj.app_key, AppKey, 16 );
 515:lr1mac/src/lr1mac_core.c **** }
 516:lr1mac/src/lr1mac_core.c **** 
 517:lr1mac/src/lr1mac_core.c **** /**************************************************/
 518:lr1mac/src/lr1mac_core.c **** /*         LoraWan  GetAppEui  Method             */
 519:lr1mac/src/lr1mac_core.c **** /**************************************************/
 520:lr1mac/src/lr1mac_core.c **** 
 521:lr1mac/src/lr1mac_core.c **** void lr1mac_core_appeui_key_get( uint8_t* AppEui )
ARM GAS  /var/folders/bq/yv49bw8j2kd6w3hsq868qv180000gn/T//ccSmIUlm.s 			page 13


 522:lr1mac/src/lr1mac_core.c **** {
 523:lr1mac/src/lr1mac_core.c ****     memcpy( AppEui, lr1_mac_obj.app_eui, 8 );
 524:lr1mac/src/lr1mac_core.c **** }
 525:lr1mac/src/lr1mac_core.c **** 
 526:lr1mac/src/lr1mac_core.c **** /**************************************************/
 527:lr1mac/src/lr1mac_core.c **** /*         LoraWan  SetAppEui  Method             */
 528:lr1mac/src/lr1mac_core.c **** /**************************************************/
 529:lr1mac/src/lr1mac_core.c **** 
 530:lr1mac/src/lr1mac_core.c **** void lr1mac_core_appeui_key_set( uint8_t* AppEui )
 531:lr1mac/src/lr1mac_core.c **** {
 532:lr1mac/src/lr1mac_core.c ****     memcpy( lr1_mac_obj.app_eui, AppEui, 8 );
 533:lr1mac/src/lr1mac_core.c **** }
 534:lr1mac/src/lr1mac_core.c **** 
 535:lr1mac/src/lr1mac_core.c **** /**************************************************/
 536:lr1mac/src/lr1mac_core.c **** /*         LoraWan  GetNextPower  Method          */
 537:lr1mac/src/lr1mac_core.c **** /**************************************************/
 538:lr1mac/src/lr1mac_core.c **** 
 539:lr1mac/src/lr1mac_core.c **** uint8_t lr1mac_core_next_power_get( void )
 540:lr1mac/src/lr1mac_core.c **** {
 541:lr1mac/src/lr1mac_core.c ****     return ( lr1_mac_obj.tx_power );
 542:lr1mac/src/lr1mac_core.c **** }
 543:lr1mac/src/lr1mac_core.c **** 
 544:lr1mac/src/lr1mac_core.c **** /**************************************************/
 545:lr1mac/src/lr1mac_core.c **** /*    LoraWan  GetLorawanProcessState  Method     */
 546:lr1mac/src/lr1mac_core.c **** /**************************************************/
 547:lr1mac/src/lr1mac_core.c **** 
 548:lr1mac/src/lr1mac_core.c **** lr1mac_states_t lr1mac_core_state_get( void )
 549:lr1mac/src/lr1mac_core.c **** {
 550:lr1mac/src/lr1mac_core.c ****     return ( lr1mac_state );
 551:lr1mac/src/lr1mac_core.c **** }
 552:lr1mac/src/lr1mac_core.c **** 
 553:lr1mac/src/lr1mac_core.c **** /**************************************************/
 554:lr1mac/src/lr1mac_core.c **** /*    LoraWan  StoreContext  Method             */
 555:lr1mac/src/lr1mac_core.c **** /**************************************************/
 556:lr1mac/src/lr1mac_core.c **** 
 557:lr1mac/src/lr1mac_core.c **** void lr1mac_core_context_save( void )
 558:lr1mac/src/lr1mac_core.c **** {
 559:lr1mac/src/lr1mac_core.c ****     smtc_real_memory_save( &lr1_mac_obj );
 560:lr1mac/src/lr1mac_core.c **** }
 561:lr1mac/src/lr1mac_core.c **** /**************************************************/
 562:lr1mac/src/lr1mac_core.c **** /*    LoraWan  storeContext  Method               */
 563:lr1mac/src/lr1mac_core.c **** /**************************************************/
 564:lr1mac/src/lr1mac_core.c **** 
 565:lr1mac/src/lr1mac_core.c **** void lr1mac_core_keys_set( lorawan_keys_t LoRaWanKeys )
 566:lr1mac/src/lr1mac_core.c **** {
 567:lr1mac/src/lr1mac_core.c ****     memcpy( lr1_mac_obj.app_skey, LoRaWanKeys.LoRaMacAppSKey, 16 );
 568:lr1mac/src/lr1mac_core.c ****     memcpy( lr1_mac_obj.nwk_skey, LoRaWanKeys.LoRaMacNwkSKey, 16 );
 569:lr1mac/src/lr1mac_core.c ****     memcpy( lr1_mac_obj.app_key, LoRaWanKeys.LoRaMacAppKey, 16 );
 570:lr1mac/src/lr1mac_core.c ****     memcpy( lr1_mac_obj.dev_eui, LoRaWanKeys.DevEui, 8 );
 571:lr1mac/src/lr1mac_core.c ****     memcpy( lr1_mac_obj.app_eui, LoRaWanKeys.AppEui, 8 );
 572:lr1mac/src/lr1mac_core.c ****     lr1_mac_obj.otaa_device = LoRaWanKeys.otaaDevice;
 573:lr1mac/src/lr1mac_core.c ****     lr1_mac_obj.dev_addr    = LoRaWanKeys.LoRaDevAddr;
 574:lr1mac/src/lr1mac_core.c **** 
 575:lr1mac/src/lr1mac_core.c ****     smtc_real_memory_save( &lr1_mac_obj );
 576:lr1mac/src/lr1mac_core.c **** }
 577:lr1mac/src/lr1mac_core.c **** /**************************************************/
 578:lr1mac/src/lr1mac_core.c **** /*   LoraWan  lr1mac_core_next_max_payload_length_get  Method     */
ARM GAS  /var/folders/bq/yv49bw8j2kd6w3hsq868qv180000gn/T//ccSmIUlm.s 			page 14


 579:lr1mac/src/lr1mac_core.c **** /**************************************************/
 580:lr1mac/src/lr1mac_core.c **** 
 581:lr1mac/src/lr1mac_core.c **** uint32_t lr1mac_core_next_max_payload_length_get( void )
 582:lr1mac/src/lr1mac_core.c **** {
 583:lr1mac/src/lr1mac_core.c ****     return ( smtc_real_max_payload_size_get( &lr1_mac_obj, lr1_mac_obj.tx_data_rate ) -
 584:lr1mac/src/lr1mac_core.c ****              lr1_mac_obj.tx_fopts_current_length - 8 );
 585:lr1mac/src/lr1mac_core.c **** }
 586:lr1mac/src/lr1mac_core.c **** 
 587:lr1mac/src/lr1mac_core.c **** /**************************************************/
 588:lr1mac/src/lr1mac_core.c **** /*        LoraWan  lr1mac_core_next_dr_get  Method        */
 589:lr1mac/src/lr1mac_core.c **** /**************************************************/
 590:lr1mac/src/lr1mac_core.c **** 
 591:lr1mac/src/lr1mac_core.c **** uint8_t lr1mac_core_next_dr_get( void )
 592:lr1mac/src/lr1mac_core.c **** {  // note return datareate in case of adr
 593:lr1mac/src/lr1mac_core.c ****     return ( lr1_mac_obj.tx_data_rate );
 594:lr1mac/src/lr1mac_core.c **** }
 595:lr1mac/src/lr1mac_core.c **** 
 596:lr1mac/src/lr1mac_core.c **** uint32_t lr1mac_core_next_frequency_get( void )
 597:lr1mac/src/lr1mac_core.c **** {  // note return datareate in case of adr
 598:lr1mac/src/lr1mac_core.c ****     return ( lr1_mac_obj.tx_frequency );
 599:lr1mac/src/lr1mac_core.c **** }
 600:lr1mac/src/lr1mac_core.c **** 
 601:lr1mac/src/lr1mac_core.c **** void lr1mac_core_factory_reset( void )
 602:lr1mac/src/lr1mac_core.c **** {
 603:lr1mac/src/lr1mac_core.c ****     smtc_real_bad_crc_memory_set( &lr1_mac_obj );
 604:lr1mac/src/lr1mac_core.c **** }
 605:lr1mac/src/lr1mac_core.c **** 
 606:lr1mac/src/lr1mac_core.c **** type_otaa_abp_t lr1mac_core_is_otaa_device( void )
 607:lr1mac/src/lr1mac_core.c **** {
 608:lr1mac/src/lr1mac_core.c ****     return ( type_otaa_abp_t ) lr1_mac_obj.otaa_device;
 609:lr1mac/src/lr1mac_core.c **** }
 610:lr1mac/src/lr1mac_core.c **** 
 611:lr1mac/src/lr1mac_core.c **** void lr1mac_core_otaa_set( type_otaa_abp_t deviceType )
 612:lr1mac/src/lr1mac_core.c **** {
 613:lr1mac/src/lr1mac_core.c ****     lr1_mac_obj.otaa_device = deviceType;
 614:lr1mac/src/lr1mac_core.c **** }
 615:lr1mac/src/lr1mac_core.c **** radio_planner_t* lr1mac_core_rp_get( void )
 616:lr1mac/src/lr1mac_core.c **** {
 617:lr1mac/src/lr1mac_core.c ****     return lr1_mac_obj.rp;
 618:lr1mac/src/lr1mac_core.c **** }
 619:lr1mac/src/lr1mac_core.c **** int8_t lr1mac_core_tx_power_offset_get( void )
 620:lr1mac/src/lr1mac_core.c **** {
 621:lr1mac/src/lr1mac_core.c ****     return lr1_mac_obj.tx_power_offset;
 622:lr1mac/src/lr1mac_core.c **** }
 623:lr1mac/src/lr1mac_core.c **** void lr1mac_core_tx_power_offset_set( int8_t power_off )
 624:lr1mac/src/lr1mac_core.c **** {
 625:lr1mac/src/lr1mac_core.c ****     lr1_mac_obj.tx_power_offset = power_off;
 626:lr1mac/src/lr1mac_core.c **** }
 627:lr1mac/src/lr1mac_core.c **** 
 628:lr1mac/src/lr1mac_core.c **** uint16_t lr1mac_core_nb_reset_get( void )
 629:lr1mac/src/lr1mac_core.c **** {
 630:lr1mac/src/lr1mac_core.c ****     return lr1_mac_obj.nb_of_reset;
 631:lr1mac/src/lr1mac_core.c **** }
 632:lr1mac/src/lr1mac_core.c **** 
 633:lr1mac/src/lr1mac_core.c **** uint16_t lr1mac_core_devnonce_get( void )
 634:lr1mac/src/lr1mac_core.c **** {
 635:lr1mac/src/lr1mac_core.c ****     return lr1_mac_obj.dev_nonce;
ARM GAS  /var/folders/bq/yv49bw8j2kd6w3hsq868qv180000gn/T//ccSmIUlm.s 			page 15


 636:lr1mac/src/lr1mac_core.c **** }
 637:lr1mac/src/lr1mac_core.c **** 
 638:lr1mac/src/lr1mac_core.c **** int16_t lr1mac_core_last_snr_get( void )
 639:lr1mac/src/lr1mac_core.c **** {
 640:lr1mac/src/lr1mac_core.c ****     return lr1_mac_obj.rx_snr;
 641:lr1mac/src/lr1mac_core.c **** }
 642:lr1mac/src/lr1mac_core.c **** 
 643:lr1mac/src/lr1mac_core.c **** int16_t lr1mac_core_last_rssi_get( void )
 644:lr1mac/src/lr1mac_core.c **** {
 645:lr1mac/src/lr1mac_core.c ****     return lr1_mac_obj.rx_rssi;
 646:lr1mac/src/lr1mac_core.c **** }
 647:lr1mac/src/lr1mac_core.c **** 
 648:lr1mac/src/lr1mac_core.c **** uint8_t lr1mac_core_min_dr_get( void )
 649:lr1mac/src/lr1mac_core.c **** {
 650:lr1mac/src/lr1mac_core.c ****     uint8_t tmp = lr1_stack_mac_min_dr_get( &lr1_mac_obj );
 651:lr1mac/src/lr1mac_core.c ****     BSP_DBG_TRACE_PRINTF( "Min DataRate = %d\n", tmp );
 652:lr1mac/src/lr1mac_core.c ****     return ( tmp );
 653:lr1mac/src/lr1mac_core.c **** }
 654:lr1mac/src/lr1mac_core.c **** uint8_t lr1mac_core_max_dr_get( void )
 655:lr1mac/src/lr1mac_core.c **** {
 656:lr1mac/src/lr1mac_core.c ****     uint8_t tmp = lr1_stack_mac_max_dr_get( &lr1_mac_obj );
 657:lr1mac/src/lr1mac_core.c ****     BSP_DBG_TRACE_PRINTF( "Max DataRate = %d\n", tmp );
 658:lr1mac/src/lr1mac_core.c ****     return ( tmp );
 659:lr1mac/src/lr1mac_core.c **** }
 660:lr1mac/src/lr1mac_core.c **** 
 661:lr1mac/src/lr1mac_core.c **** void lr1mac_core_apps_key_get( uint8_t* key )
 662:lr1mac/src/lr1mac_core.c **** {
 663:lr1mac/src/lr1mac_core.c ****     memcpy( key, lr1_mac_obj.app_skey, 16 );
 664:lr1mac/src/lr1mac_core.c **** }
 665:lr1mac/src/lr1mac_core.c **** 
 666:lr1mac/src/lr1mac_core.c **** status_lorawan_t lr1mac_core_context_load( void )
 667:lr1mac/src/lr1mac_core.c **** {
 668:lr1mac/src/lr1mac_core.c ****     return smtc_real_memory_load( &lr1_mac_obj );
 669:lr1mac/src/lr1mac_core.c **** }
 670:lr1mac/src/lr1mac_core.c **** receive_win_t lr1mac_core_rx_window_get( void )
 671:lr1mac/src/lr1mac_core.c **** {
 672:lr1mac/src/lr1mac_core.c ****     return ( receive_window_type );
 673:lr1mac/src/lr1mac_core.c **** }
 674:lr1mac/src/lr1mac_core.c **** uint32_t lr1mac_core_fcnt_up_get( void )
 675:lr1mac/src/lr1mac_core.c **** {
 676:lr1mac/src/lr1mac_core.c ****     return ( lr1_mac_obj.fcnt_up );
 677:lr1mac/src/lr1mac_core.c **** }
 678:lr1mac/src/lr1mac_core.c **** uint32_t lr1mac_core_next_join_time_second_get( void )
 679:lr1mac/src/lr1mac_core.c **** {
 680:lr1mac/src/lr1mac_core.c ****     return ( lr1_mac_obj.next_time_to_join_seconds );
 681:lr1mac/src/lr1mac_core.c **** }
 682:lr1mac/src/lr1mac_core.c **** int32_t lr1mac_core_next_free_duty_cycle_ms_get( void )
 683:lr1mac/src/lr1mac_core.c **** {
 684:lr1mac/src/lr1mac_core.c ****     int32_t nwk_dtc    = lr1_stack_network_next_free_duty_cycle_ms_get( &lr1_mac_obj );
 685:lr1mac/src/lr1mac_core.c ****     int32_t region_dtc = smtc_real_next_free_duty_cycle_ms_get( &lr1_mac_obj );
 686:lr1mac/src/lr1mac_core.c **** 
 687:lr1mac/src/lr1mac_core.c ****     return ( MAX( nwk_dtc, region_dtc ) );
 688:lr1mac/src/lr1mac_core.c **** }
 689:lr1mac/src/lr1mac_core.c **** void lr1mac_core_duty_cycle_enable_set( uint8_t enable )
 690:lr1mac/src/lr1mac_core.c **** {
 691:lr1mac/src/lr1mac_core.c ****     smtc_real_duty_cycle_enable_set( &lr1_mac_obj, enable );
 692:lr1mac/src/lr1mac_core.c **** }
ARM GAS  /var/folders/bq/yv49bw8j2kd6w3hsq868qv180000gn/T//ccSmIUlm.s 			page 16


 693:lr1mac/src/lr1mac_core.c **** 
 694:lr1mac/src/lr1mac_core.c **** uint32_t r1mac_core_version_get( void )
 695:lr1mac/src/lr1mac_core.c **** {
 696:lr1mac/src/lr1mac_core.c ****     return ( LR1MAC_PROTOCOL_VERSION );
 697:lr1mac/src/lr1mac_core.c **** }
 698:lr1mac/src/lr1mac_core.c **** 
 699:lr1mac/src/lr1mac_core.c **** /*!
 700:lr1mac/src/lr1mac_core.c ****  * \brief
 701:lr1mac/src/lr1mac_core.c ****  * \remark
 702:lr1mac/src/lr1mac_core.c ****  * \param [IN]  none
 703:lr1mac/src/lr1mac_core.c ****  * \param [OUT] return
 704:lr1mac/src/lr1mac_core.c ****  */
 705:lr1mac/src/lr1mac_core.c **** uint8_t lr1mac_core_rx_ack_bit_get( void )
 706:lr1mac/src/lr1mac_core.c **** {
 707:lr1mac/src/lr1mac_core.c ****     return ( lr1_mac_obj.rx_ack_bit );
 708:lr1mac/src/lr1mac_core.c **** }
 709:lr1mac/src/lr1mac_core.c **** 
 710:lr1mac/src/lr1mac_core.c **** lr1_stack_mac_t* lr1mac_core_stack_mac_get( void )
 711:lr1mac/src/lr1mac_core.c **** {
 712:lr1mac/src/lr1mac_core.c ****     return &lr1_mac_obj;
 713:lr1mac/src/lr1mac_core.c **** }
 714:lr1mac/src/lr1mac_core.c **** 
 715:lr1mac/src/lr1mac_core.c **** status_lorawan_t lr1mac_core_is_supported_region( smtc_real_region_types_t region_type )
 716:lr1mac/src/lr1mac_core.c **** {
 717:lr1mac/src/lr1mac_core.c ****     uint8_t is_valid_region = false;
 718:lr1mac/src/lr1mac_core.c ****     for( uint8_t i = 0; i < SMTC_REAL_REGION_LIST_LENGTH; i++ )
 719:lr1mac/src/lr1mac_core.c ****     {
 720:lr1mac/src/lr1mac_core.c ****         if( smtc_real_region_list[i] == region_type )
 721:lr1mac/src/lr1mac_core.c ****         {
 722:lr1mac/src/lr1mac_core.c ****             is_valid_region = true;
 723:lr1mac/src/lr1mac_core.c ****             break;
 724:lr1mac/src/lr1mac_core.c ****         }
 725:lr1mac/src/lr1mac_core.c ****     }
 726:lr1mac/src/lr1mac_core.c **** 
 727:lr1mac/src/lr1mac_core.c ****     if( is_valid_region == false )
 728:lr1mac/src/lr1mac_core.c ****     {
 729:lr1mac/src/lr1mac_core.c ****         BSP_DBG_TRACE_ERROR( "Invalid Region 0x%02x\n", region_type );
 730:lr1mac/src/lr1mac_core.c ****         return ERRORLORAWAN;
 731:lr1mac/src/lr1mac_core.c ****     }
 732:lr1mac/src/lr1mac_core.c ****     return OKLORAWAN;
 733:lr1mac/src/lr1mac_core.c **** }
 734:lr1mac/src/lr1mac_core.c **** 
 735:lr1mac/src/lr1mac_core.c **** smtc_real_region_types_t lr1mac_core_get_region( void )
 736:lr1mac/src/lr1mac_core.c **** {
 737:lr1mac/src/lr1mac_core.c ****     return lr1_mac_obj.real->region_type;
 738:lr1mac/src/lr1mac_core.c **** }
 739:lr1mac/src/lr1mac_core.c **** 
 740:lr1mac/src/lr1mac_core.c **** status_lorawan_t lr1mac_core_set_region( smtc_real_region_types_t region_type )
 741:lr1mac/src/lr1mac_core.c **** {
 742:lr1mac/src/lr1mac_core.c ****     if( lr1mac_core_is_supported_region( region_type ) == OKLORAWAN )
 743:lr1mac/src/lr1mac_core.c ****     {
 744:lr1mac/src/lr1mac_core.c ****         lr1_mac_obj.real->region_type = region_type;
 745:lr1mac/src/lr1mac_core.c ****         lr1mac_core_context_save( );
 746:lr1mac/src/lr1mac_core.c ****         return OKLORAWAN;
 747:lr1mac/src/lr1mac_core.c ****     }
 748:lr1mac/src/lr1mac_core.c ****     return ERRORLORAWAN;
 749:lr1mac/src/lr1mac_core.c **** }
ARM GAS  /var/folders/bq/yv49bw8j2kd6w3hsq868qv180000gn/T//ccSmIUlm.s 			page 17


 750:lr1mac/src/lr1mac_core.c **** 
 751:lr1mac/src/lr1mac_core.c **** /*
 752:lr1mac/src/lr1mac_core.c ****  *-----------------------------------------------------------------------------------
 753:lr1mac/src/lr1mac_core.c ****  * --- PRIVATE FUNCTIONS DEFINITIONS ------------------------------------------------
 754:lr1mac/src/lr1mac_core.c ****  */
 755:lr1mac/src/lr1mac_core.c **** 
 756:lr1mac/src/lr1mac_core.c **** static void copy_user_payload( const uint8_t* data_in, const uint8_t size_in )
 757:lr1mac/src/lr1mac_core.c **** {
 758:lr1mac/src/lr1mac_core.c **** //    memcpy( &lr1_mac_obj.tx_payload[FHDROFFSET + lr1_mac_obj.tx_fopts_current_length], data_in, s
 759:lr1mac/src/lr1mac_core.c **** 	memcpy( &lr1_mac_obj.tx_payload[0], data_in, size_in );
 760:lr1mac/src/lr1mac_core.c **** }
 761:lr1mac/src/lr1mac_core.c **** 
 762:lr1mac/src/lr1mac_core.c **** static uint32_t failsafe_timstamp_get( void )
 111              		.loc 1 762 17 is_stmt 1 discriminator 1 view .LVU17
 112              	.LBB12:
 763:lr1mac/src/lr1mac_core.c **** {
 764:lr1mac/src/lr1mac_core.c ****     return lr1_mac_obj.timestamp_failsafe;
 113              		.loc 1 764 5 discriminator 1 view .LVU18
 114              		.loc 1 764 23 is_stmt 0 discriminator 1 view .LVU19
 115 002a A54B     		ldr	r3, .L26+12
 116              	.LBE12:
 117              	.LBE11:
 127:lr1mac/src/lr1mac_core.c ****     {
 118              		.loc 1 127 72 discriminator 1 view .LVU20
 119 002c E358     		ldr	r3, [r4, r3]
 120 002e C01A     		subs	r0, r0, r3
 127:lr1mac/src/lr1mac_core.c ****     {
 121              		.loc 1 127 43 discriminator 1 view .LVU21
 122 0030 7828     		cmp	r0, #120
 123 0032 0FD9     		bls	.L4
 129:lr1mac/src/lr1mac_core.c ****         BSP_DBG_TRACE_ERROR( "FAILSAFE EVENT OCCUR \n" );
 124              		.loc 1 129 9 is_stmt 1 view .LVU22
 129:lr1mac/src/lr1mac_core.c ****         BSP_DBG_TRACE_ERROR( "FAILSAFE EVENT OCCUR \n" );
 125              		.loc 1 129 22 is_stmt 0 view .LVU23
 126 0034 0823     		movs	r3, #8
 130:lr1mac/src/lr1mac_core.c ****         bsp_mcu_handle_lr1mac_issue( );
 127              		.loc 1 130 9 view .LVU24
 128 0036 A348     		ldr	r0, .L26+16
 129:lr1mac/src/lr1mac_core.c ****         BSP_DBG_TRACE_ERROR( "FAILSAFE EVENT OCCUR \n" );
 129              		.loc 1 129 22 view .LVU25
 130 0038 2B70     		strb	r3, [r5]
 130:lr1mac/src/lr1mac_core.c ****         bsp_mcu_handle_lr1mac_issue( );
 131              		.loc 1 130 9 is_stmt 1 view .LVU26
 130:lr1mac/src/lr1mac_core.c ****         bsp_mcu_handle_lr1mac_issue( );
 132              		.loc 1 130 9 view .LVU27
 133 003a FFF7FEFF 		bl	bsp_trace_print
 134              	.LVL4:
 130:lr1mac/src/lr1mac_core.c ****         bsp_mcu_handle_lr1mac_issue( );
 135              		.loc 1 130 9 view .LVU28
 136 003e A248     		ldr	r0, .L26+20
 137 0040 FFF7FEFF 		bl	bsp_trace_print
 138              	.LVL5:
 130:lr1mac/src/lr1mac_core.c ****         bsp_mcu_handle_lr1mac_issue( );
 139              		.loc 1 130 9 view .LVU29
 140 0044 A148     		ldr	r0, .L26+24
 141 0046 FFF7FEFF 		bl	bsp_trace_print
 142              	.LVL6:
ARM GAS  /var/folders/bq/yv49bw8j2kd6w3hsq868qv180000gn/T//ccSmIUlm.s 			page 18


 130:lr1mac/src/lr1mac_core.c ****         bsp_mcu_handle_lr1mac_issue( );
 143              		.loc 1 130 9 view .LVU30
 144 004a A148     		ldr	r0, .L26+28
 145 004c FFF7FEFF 		bl	bsp_trace_print
 146              	.LVL7:
 130:lr1mac/src/lr1mac_core.c ****         bsp_mcu_handle_lr1mac_issue( );
 147              		.loc 1 130 9 view .LVU31
 130:lr1mac/src/lr1mac_core.c ****         bsp_mcu_handle_lr1mac_issue( );
 148              		.loc 1 130 57 view .LVU32
 131:lr1mac/src/lr1mac_core.c ****     }
 149              		.loc 1 131 9 view .LVU33
 150 0050 FFF7FEFF 		bl	bsp_mcu_handle_lr1mac_issue
 151              	.LVL8:
 152              	.L4:
 133:lr1mac/src/lr1mac_core.c ****     {
 153              		.loc 1 133 5 view .LVU34
 154 0054 2878     		ldrb	r0, [r5]
 155 0056 0628     		cmp	r0, #6
 156 0058 00D9     		bls	.LCB73
 157 005a 21E1     		b	.L5	@long jump
 158              	.LCB73:
 159 005c FFF7FEFF 		bl	__gnu_thumb1_case_uhi
 160              	.L7:
 161 0060 0E00     		.2byte	(.L3-.L7)/2
 162 0062 0700     		.2byte	(.L12-.L7)/2
 163 0064 4500     		.2byte	(.L11-.L7)/2
 164 0066 7A00     		.2byte	(.L10-.L7)/2
 165 0068 A900     		.2byte	(.L9-.L7)/2
 166 006a C000     		.2byte	(.L8-.L7)/2
 167 006c 1001     		.2byte	(.L6-.L7)/2
 168              		.p2align 1
 169              	.L12:
 145:lr1mac/src/lr1mac_core.c ****         {
 170              		.loc 1 145 9 view .LVU35
 145:lr1mac/src/lr1mac_core.c ****         {
 171              		.loc 1 145 17 is_stmt 0 view .LVU36
 172 006e 2000     		movs	r0, r4
 173 0070 FFF7FEFF 		bl	lr1_stack_mac_radio_state_get
 174              	.LVL9:
 175 0074 0028     		cmp	r0, #0
 176 0076 04D0     		beq	.L14
 177 0078 0228     		cmp	r0, #2
 178 007a 19D0     		beq	.L15
 179              	.LVL10:
 180              	.L3:
 281:lr1mac/src/lr1mac_core.c **** }
 181              		.loc 1 281 5 is_stmt 1 view .LVU37
 281:lr1mac/src/lr1mac_core.c **** }
 182              		.loc 1 281 12 is_stmt 0 view .LVU38
 183 007c 2878     		ldrb	r0, [r5]
 282:lr1mac/src/lr1mac_core.c **** 
 184              		.loc 1 282 1 view .LVU39
 185 007e 05B0     		add	sp, sp, #20
 186              		@ sp needed
 187 0080 F0BD     		pop	{r4, r5, r6, r7, pc}
 188              	.LVL11:
 189              	.L14:
ARM GAS  /var/folders/bq/yv49bw8j2kd6w3hsq868qv180000gn/T//ccSmIUlm.s 			page 19


 148:lr1mac/src/lr1mac_core.c ****             DBG_PRINT_WITH_LINE( "Send Payload  HOOK ID = %d", myhook_id );
 190              		.loc 1 148 13 is_stmt 1 view .LVU40
 148:lr1mac/src/lr1mac_core.c ****             DBG_PRINT_WITH_LINE( "Send Payload  HOOK ID = %d", myhook_id );
 191              		.loc 1 148 33 is_stmt 0 view .LVU41
 192 0082 944B     		ldr	r3, .L26+32
 149:lr1mac/src/lr1mac_core.c ****             lr1_stack_mac_tx_radio_start( &lr1_mac_obj );
 193              		.loc 1 149 13 view .LVU42
 194 0084 924F     		ldr	r7, .L26+28
 148:lr1mac/src/lr1mac_core.c ****             DBG_PRINT_WITH_LINE( "Send Payload  HOOK ID = %d", myhook_id );
 195              		.loc 1 148 33 view .LVU43
 196 0086 1870     		strb	r0, [r3]
 149:lr1mac/src/lr1mac_core.c ****             lr1_stack_mac_tx_radio_start( &lr1_mac_obj );
 197              		.loc 1 149 13 is_stmt 1 view .LVU44
 149:lr1mac/src/lr1mac_core.c ****             lr1_stack_mac_tx_radio_start( &lr1_mac_obj );
 198              		.loc 1 149 13 view .LVU45
 149:lr1mac/src/lr1mac_core.c ****             lr1_stack_mac_tx_radio_start( &lr1_mac_obj );
 199              		.loc 1 149 13 view .LVU46
 200 0088 3800     		movs	r0, r7
 201 008a FFF7FEFF 		bl	bsp_trace_print
 202              	.LVL12:
 149:lr1mac/src/lr1mac_core.c ****             lr1_stack_mac_tx_radio_start( &lr1_mac_obj );
 203              		.loc 1 149 13 view .LVU47
 204 008e 9248     		ldr	r0, .L26+36
 205 0090 FFF7FEFF 		bl	bsp_trace_print
 206              	.LVL13:
 149:lr1mac/src/lr1mac_core.c ****             lr1_stack_mac_tx_radio_start( &lr1_mac_obj );
 207              		.loc 1 149 13 view .LVU48
 149:lr1mac/src/lr1mac_core.c ****             lr1_stack_mac_tx_radio_start( &lr1_mac_obj );
 208              		.loc 1 149 13 view .LVU49
 149:lr1mac/src/lr1mac_core.c ****             lr1_stack_mac_tx_radio_start( &lr1_mac_obj );
 209              		.loc 1 149 13 view .LVU50
 210 0094 3178     		ldrb	r1, [r6]
 211 0096 9148     		ldr	r0, .L26+40
 212 0098 FFF7FEFF 		bl	bsp_trace_print
 213              	.LVL14:
 149:lr1mac/src/lr1mac_core.c ****             lr1_stack_mac_tx_radio_start( &lr1_mac_obj );
 214              		.loc 1 149 13 view .LVU51
 149:lr1mac/src/lr1mac_core.c ****             lr1_stack_mac_tx_radio_start( &lr1_mac_obj );
 215              		.loc 1 149 13 view .LVU52
 216 009c 3800     		movs	r0, r7
 217 009e FFF7FEFF 		bl	bsp_trace_print
 218              	.LVL15:
 149:lr1mac/src/lr1mac_core.c ****             lr1_stack_mac_tx_radio_start( &lr1_mac_obj );
 219              		.loc 1 149 13 view .LVU53
 220 00a2 8F48     		ldr	r0, .L26+44
 221 00a4 FFF7FEFF 		bl	bsp_trace_print
 222              	.LVL16:
 149:lr1mac/src/lr1mac_core.c ****             lr1_stack_mac_tx_radio_start( &lr1_mac_obj );
 223              		.loc 1 149 13 view .LVU54
 149:lr1mac/src/lr1mac_core.c ****             lr1_stack_mac_tx_radio_start( &lr1_mac_obj );
 224              		.loc 1 149 13 view .LVU55
 149:lr1mac/src/lr1mac_core.c ****             lr1_stack_mac_tx_radio_start( &lr1_mac_obj );
 225              		.loc 1 149 13 view .LVU56
 149:lr1mac/src/lr1mac_core.c ****             lr1_stack_mac_tx_radio_start( &lr1_mac_obj );
 226              		.loc 1 149 75 view .LVU57
 150:lr1mac/src/lr1mac_core.c ****             break;
 227              		.loc 1 150 13 view .LVU58
ARM GAS  /var/folders/bq/yv49bw8j2kd6w3hsq868qv180000gn/T//ccSmIUlm.s 			page 20


 228 00a8 2000     		movs	r0, r4
 229 00aa FFF7FEFF 		bl	lr1_stack_mac_tx_radio_start
 230              	.LVL17:
 151:lr1mac/src/lr1mac_core.c **** 
 231              		.loc 1 151 13 view .LVU59
 232 00ae E5E7     		b	.L3
 233              	.L15:
 154:lr1mac/src/lr1mac_core.c ****             lr1_stack_mac_rx_timer_configure( &lr1_mac_obj, RX1 );
 234              		.loc 1 154 13 view .LVU60
 155:lr1mac/src/lr1mac_core.c ****             lr1_mac_obj.tx_duty_cycle_timestamp_ms = bsp_rtc_get_time_ms( );
 235              		.loc 1 155 13 is_stmt 0 view .LVU61
 236 00b0 0021     		movs	r1, #0
 154:lr1mac/src/lr1mac_core.c ****             lr1_stack_mac_rx_timer_configure( &lr1_mac_obj, RX1 );
 237              		.loc 1 154 26 view .LVU62
 238 00b2 2870     		strb	r0, [r5]
 155:lr1mac/src/lr1mac_core.c ****             lr1_mac_obj.tx_duty_cycle_timestamp_ms = bsp_rtc_get_time_ms( );
 239              		.loc 1 155 13 is_stmt 1 view .LVU63
 240 00b4 2000     		movs	r0, r4
 241 00b6 FFF7FEFF 		bl	lr1_stack_mac_rx_timer_configure
 242              	.LVL18:
 156:lr1mac/src/lr1mac_core.c ****             lr1_mac_obj.tx_duty_cycle_time_off_ms =
 243              		.loc 1 156 13 view .LVU64
 156:lr1mac/src/lr1mac_core.c ****             lr1_mac_obj.tx_duty_cycle_time_off_ms =
 244              		.loc 1 156 54 is_stmt 0 view .LVU65
 245 00ba FFF7FEFF 		bl	bsp_rtc_get_time_ms
 246              	.LVL19:
 156:lr1mac/src/lr1mac_core.c ****             lr1_mac_obj.tx_duty_cycle_time_off_ms =
 247              		.loc 1 156 52 view .LVU66
 248 00be E923     		movs	r3, #233
 249 00c0 9B00     		lsls	r3, r3, #2
 250 00c2 E050     		str	r0, [r4, r3]
 157:lr1mac/src/lr1mac_core.c ****                 ( lr1_mac_obj.rp->stats.tx_last_toa_ms[myhook_id] << lr1_mac_obj.max_duty_cycle_ind
 251              		.loc 1 157 13 is_stmt 1 view .LVU67
 158:lr1mac/src/lr1mac_core.c ****                 lr1_mac_obj.rp->stats.tx_last_toa_ms[myhook_id];
 252              		.loc 1 158 55 is_stmt 0 view .LVU68
 253 00c4 3378     		ldrb	r3, [r6]
 254 00c6 E259     		ldr	r2, [r4, r7]
 255 00c8 0533     		adds	r3, r3, #5
 256 00ca FF33     		adds	r3, r3, #255
 257 00cc 9B00     		lsls	r3, r3, #2
 258 00ce 9A58     		ldr	r2, [r3, r2]
 158:lr1mac/src/lr1mac_core.c ****                 lr1_mac_obj.rp->stats.tx_last_toa_ms[myhook_id];
 259              		.loc 1 158 67 view .LVU69
 260 00d0 216A     		ldr	r1, [r4, #32]
 261 00d2 1300     		movs	r3, r2
 262 00d4 8B40     		lsls	r3, r3, r1
 157:lr1mac/src/lr1mac_core.c ****                 ( lr1_mac_obj.rp->stats.tx_last_toa_ms[myhook_id] << lr1_mac_obj.max_duty_cycle_ind
 263              		.loc 1 157 51 view .LVU70
 264 00d6 E821     		movs	r1, #232
 158:lr1mac/src/lr1mac_core.c ****                 lr1_mac_obj.rp->stats.tx_last_toa_ms[myhook_id];
 265              		.loc 1 158 105 view .LVU71
 266 00d8 9B1A     		subs	r3, r3, r2
 157:lr1mac/src/lr1mac_core.c ****                 ( lr1_mac_obj.rp->stats.tx_last_toa_ms[myhook_id] << lr1_mac_obj.max_duty_cycle_ind
 267              		.loc 1 157 51 view .LVU72
 268 00da 8900     		lsls	r1, r1, #2
 269 00dc 6350     		str	r3, [r4, r1]
 160:lr1mac/src/lr1mac_core.c ****                                       lr1_mac_obj.rp->stats.tx_last_toa_ms[myhook_id] );
ARM GAS  /var/folders/bq/yv49bw8j2kd6w3hsq868qv180000gn/T//ccSmIUlm.s 			page 21


 270              		.loc 1 160 13 is_stmt 1 view .LVU73
 271 00de 814B     		ldr	r3, .L26+48
 272 00e0 2000     		movs	r0, r4
 273 00e2 E158     		ldr	r1, [r4, r3]
 274 00e4 FFF7FEFF 		bl	smtc_real_duty_cycle_sum
 275              	.LVL20:
 162:lr1mac/src/lr1mac_core.c **** 
 276              		.loc 1 162 13 view .LVU74
 277 00e8 C8E7     		b	.L3
 278              	.L11:
 173:lr1mac/src/lr1mac_core.c ****         {
 279              		.loc 1 173 9 view .LVU75
 173:lr1mac/src/lr1mac_core.c ****         {
 280              		.loc 1 173 13 is_stmt 0 view .LVU76
 281 00ea 2000     		movs	r0, r4
 282 00ec FFF7FEFF 		bl	lr1_stack_mac_radio_state_get
 283              	.LVL21:
 173:lr1mac/src/lr1mac_core.c ****         {
 284              		.loc 1 173 11 view .LVU77
 285 00f0 0328     		cmp	r0, #3
 286 00f2 C3D1     		bne	.L3
 175:lr1mac/src/lr1mac_core.c ****             {
 287              		.loc 1 175 13 is_stmt 1 view .LVU78
 288              	.LBB13:
 289              	.LBI13:
 765:lr1mac/src/lr1mac_core.c **** }
 766:lr1mac/src/lr1mac_core.c **** 
 767:lr1mac/src/lr1mac_core.c **** static rp_status_t rp_status_get( void )
 290              		.loc 1 767 20 view .LVU79
 291              	.LBB14:
 768:lr1mac/src/lr1mac_core.c **** {
 769:lr1mac/src/lr1mac_core.c ****     return lr1_mac_obj.planner_status;
 292              		.loc 1 769 5 view .LVU80
 293              		.loc 1 769 23 is_stmt 0 view .LVU81
 294 00f4 7C4B     		ldr	r3, .L26+52
 295 00f6 764F     		ldr	r7, .L26+28
 296              	.LBE14:
 297              	.LBE13:
 175:lr1mac/src/lr1mac_core.c ****             {
 298              		.loc 1 175 15 view .LVU82
 299 00f8 E35C     		ldrb	r3, [r4, r3]
 300 00fa 042B     		cmp	r3, #4
 301 00fc 14D1     		bne	.L17
 177:lr1mac/src/lr1mac_core.c ****                 lr1mac_state        = LWPSTATE_PROCESS_DOWNLINK;
 302              		.loc 1 177 17 is_stmt 1 view .LVU83
 177:lr1mac/src/lr1mac_core.c ****                 lr1mac_state        = LWPSTATE_PROCESS_DOWNLINK;
 303              		.loc 1 177 37 is_stmt 0 view .LVU84
 304 00fe 0121     		movs	r1, #1
 305 0100 744A     		ldr	r2, .L26+32
 179:lr1mac/src/lr1mac_core.c ****             }
 306              		.loc 1 179 17 view .LVU85
 307 0102 3800     		movs	r0, r7
 177:lr1mac/src/lr1mac_core.c ****                 lr1mac_state        = LWPSTATE_PROCESS_DOWNLINK;
 308              		.loc 1 177 37 view .LVU86
 309 0104 1170     		strb	r1, [r2]
 178:lr1mac/src/lr1mac_core.c ****                 DBG_PRINT_WITH_LINE( "Receive a downlink RX1 for Hook Id = %d", myhook_id );
 310              		.loc 1 178 17 is_stmt 1 view .LVU87
ARM GAS  /var/folders/bq/yv49bw8j2kd6w3hsq868qv180000gn/T//ccSmIUlm.s 			page 22


 178:lr1mac/src/lr1mac_core.c ****                 DBG_PRINT_WITH_LINE( "Receive a downlink RX1 for Hook Id = %d", myhook_id );
 311              		.loc 1 178 37 is_stmt 0 view .LVU88
 312 0106 2B70     		strb	r3, [r5]
 179:lr1mac/src/lr1mac_core.c ****             }
 313              		.loc 1 179 17 is_stmt 1 view .LVU89
 179:lr1mac/src/lr1mac_core.c ****             }
 314              		.loc 1 179 17 view .LVU90
 179:lr1mac/src/lr1mac_core.c ****             }
 315              		.loc 1 179 17 view .LVU91
 316 0108 FFF7FEFF 		bl	bsp_trace_print
 317              	.LVL22:
 179:lr1mac/src/lr1mac_core.c ****             }
 318              		.loc 1 179 17 view .LVU92
 319 010c 7248     		ldr	r0, .L26+36
 320 010e FFF7FEFF 		bl	bsp_trace_print
 321              	.LVL23:
 179:lr1mac/src/lr1mac_core.c ****             }
 322              		.loc 1 179 17 view .LVU93
 179:lr1mac/src/lr1mac_core.c ****             }
 323              		.loc 1 179 17 view .LVU94
 179:lr1mac/src/lr1mac_core.c ****             }
 324              		.loc 1 179 17 view .LVU95
 325 0112 7648     		ldr	r0, .L26+56
 326 0114 3178     		ldrb	r1, [r6]
 327 0116 FFF7FEFF 		bl	bsp_trace_print
 328              	.LVL24:
 179:lr1mac/src/lr1mac_core.c ****             }
 329              		.loc 1 179 17 view .LVU96
 179:lr1mac/src/lr1mac_core.c ****             }
 330              		.loc 1 179 17 view .LVU97
 331 011a 3800     		movs	r0, r7
 332              	.L25:
 200:lr1mac/src/lr1mac_core.c ****             }
 333              		.loc 1 200 17 is_stmt 0 view .LVU98
 334 011c FFF7FEFF 		bl	bsp_trace_print
 335              	.LVL25:
 200:lr1mac/src/lr1mac_core.c ****             }
 336              		.loc 1 200 17 is_stmt 1 view .LVU99
 337 0120 6F48     		ldr	r0, .L26+44
 338 0122 FFF7FEFF 		bl	bsp_trace_print
 339              	.LVL26:
 200:lr1mac/src/lr1mac_core.c ****             }
 340              		.loc 1 200 17 view .LVU100
 200:lr1mac/src/lr1mac_core.c ****             }
 341              		.loc 1 200 17 view .LVU101
 200:lr1mac/src/lr1mac_core.c ****             }
 342              		.loc 1 200 17 view .LVU102
 200:lr1mac/src/lr1mac_core.c ****             }
 343              		.loc 1 200 92 view .LVU103
 344 0126 A9E7     		b	.L3
 345              	.L17:
 183:lr1mac/src/lr1mac_core.c ****                 DBG_PRINT_WITH_LINE( "RX1 Timeout for Hook Id = %d", myhook_id );
 346              		.loc 1 183 17 view .LVU104
 183:lr1mac/src/lr1mac_core.c ****                 DBG_PRINT_WITH_LINE( "RX1 Timeout for Hook Id = %d", myhook_id );
 347              		.loc 1 183 30 is_stmt 0 view .LVU105
 348 0128 2870     		strb	r0, [r5]
 184:lr1mac/src/lr1mac_core.c ****                 lr1_stack_mac_rx_timer_configure( &lr1_mac_obj, RX2 );
ARM GAS  /var/folders/bq/yv49bw8j2kd6w3hsq868qv180000gn/T//ccSmIUlm.s 			page 23


 349              		.loc 1 184 17 is_stmt 1 view .LVU106
 184:lr1mac/src/lr1mac_core.c ****                 lr1_stack_mac_rx_timer_configure( &lr1_mac_obj, RX2 );
 350              		.loc 1 184 17 view .LVU107
 184:lr1mac/src/lr1mac_core.c ****                 lr1_stack_mac_rx_timer_configure( &lr1_mac_obj, RX2 );
 351              		.loc 1 184 17 view .LVU108
 352 012a 3800     		movs	r0, r7
 353 012c FFF7FEFF 		bl	bsp_trace_print
 354              	.LVL27:
 184:lr1mac/src/lr1mac_core.c ****                 lr1_stack_mac_rx_timer_configure( &lr1_mac_obj, RX2 );
 355              		.loc 1 184 17 view .LVU109
 356 0130 6948     		ldr	r0, .L26+36
 357 0132 FFF7FEFF 		bl	bsp_trace_print
 358              	.LVL28:
 184:lr1mac/src/lr1mac_core.c ****                 lr1_stack_mac_rx_timer_configure( &lr1_mac_obj, RX2 );
 359              		.loc 1 184 17 view .LVU110
 184:lr1mac/src/lr1mac_core.c ****                 lr1_stack_mac_rx_timer_configure( &lr1_mac_obj, RX2 );
 360              		.loc 1 184 17 view .LVU111
 184:lr1mac/src/lr1mac_core.c ****                 lr1_stack_mac_rx_timer_configure( &lr1_mac_obj, RX2 );
 361              		.loc 1 184 17 view .LVU112
 362 0136 3178     		ldrb	r1, [r6]
 363 0138 6D48     		ldr	r0, .L26+60
 364 013a FFF7FEFF 		bl	bsp_trace_print
 365              	.LVL29:
 184:lr1mac/src/lr1mac_core.c ****                 lr1_stack_mac_rx_timer_configure( &lr1_mac_obj, RX2 );
 366              		.loc 1 184 17 view .LVU113
 184:lr1mac/src/lr1mac_core.c ****                 lr1_stack_mac_rx_timer_configure( &lr1_mac_obj, RX2 );
 367              		.loc 1 184 17 view .LVU114
 368 013e 3800     		movs	r0, r7
 369 0140 FFF7FEFF 		bl	bsp_trace_print
 370              	.LVL30:
 184:lr1mac/src/lr1mac_core.c ****                 lr1_stack_mac_rx_timer_configure( &lr1_mac_obj, RX2 );
 371              		.loc 1 184 17 view .LVU115
 372 0144 6648     		ldr	r0, .L26+44
 373 0146 FFF7FEFF 		bl	bsp_trace_print
 374              	.LVL31:
 184:lr1mac/src/lr1mac_core.c ****                 lr1_stack_mac_rx_timer_configure( &lr1_mac_obj, RX2 );
 375              		.loc 1 184 17 view .LVU116
 184:lr1mac/src/lr1mac_core.c ****                 lr1_stack_mac_rx_timer_configure( &lr1_mac_obj, RX2 );
 376              		.loc 1 184 17 view .LVU117
 184:lr1mac/src/lr1mac_core.c ****                 lr1_stack_mac_rx_timer_configure( &lr1_mac_obj, RX2 );
 377              		.loc 1 184 17 view .LVU118
 184:lr1mac/src/lr1mac_core.c ****                 lr1_stack_mac_rx_timer_configure( &lr1_mac_obj, RX2 );
 378              		.loc 1 184 81 view .LVU119
 185:lr1mac/src/lr1mac_core.c ****             }
 379              		.loc 1 185 17 view .LVU120
 380 014a 0121     		movs	r1, #1
 381 014c 2000     		movs	r0, r4
 382 014e FFF7FEFF 		bl	lr1_stack_mac_rx_timer_configure
 383              	.LVL32:
 384 0152 93E7     		b	.L3
 385              	.L10:
 194:lr1mac/src/lr1mac_core.c ****         {
 386              		.loc 1 194 9 view .LVU121
 194:lr1mac/src/lr1mac_core.c ****         {
 387              		.loc 1 194 13 is_stmt 0 view .LVU122
 388 0154 2000     		movs	r0, r4
 389 0156 FFF7FEFF 		bl	lr1_stack_mac_radio_state_get
ARM GAS  /var/folders/bq/yv49bw8j2kd6w3hsq868qv180000gn/T//ccSmIUlm.s 			page 24


 390              	.LVL33:
 194:lr1mac/src/lr1mac_core.c ****         {
 391              		.loc 1 194 11 view .LVU123
 392 015a 0028     		cmp	r0, #0
 393 015c 00D0     		beq	.LCB275
 394 015e 8DE7     		b	.L3	@long jump
 395              	.LCB275:
 196:lr1mac/src/lr1mac_core.c ****             {
 396              		.loc 1 196 13 is_stmt 1 view .LVU124
 397              	.LBB15:
 398              	.LBI15:
 767:lr1mac/src/lr1mac_core.c **** {
 399              		.loc 1 767 20 view .LVU125
 400              	.LBB16:
 401              		.loc 1 769 5 view .LVU126
 402              		.loc 1 769 23 is_stmt 0 view .LVU127
 403 0160 614B     		ldr	r3, .L26+52
 404 0162 5D4F     		ldr	r7, .L26+36
 405              	.LBE16:
 406              	.LBE15:
 196:lr1mac/src/lr1mac_core.c ****             {
 407              		.loc 1 196 15 view .LVU128
 408 0164 E35C     		ldrb	r3, [r4, r3]
 409 0166 5A4C     		ldr	r4, .L26+28
 410 0168 042B     		cmp	r3, #4
 411 016a 0FD1     		bne	.L18
 198:lr1mac/src/lr1mac_core.c ****                 lr1mac_state        = LWPSTATE_PROCESS_DOWNLINK;
 412              		.loc 1 198 17 is_stmt 1 view .LVU129
 198:lr1mac/src/lr1mac_core.c ****                 lr1mac_state        = LWPSTATE_PROCESS_DOWNLINK;
 413              		.loc 1 198 37 is_stmt 0 view .LVU130
 414 016c 0221     		movs	r1, #2
 415 016e 594A     		ldr	r2, .L26+32
 200:lr1mac/src/lr1mac_core.c ****             }
 416              		.loc 1 200 17 view .LVU131
 417 0170 2000     		movs	r0, r4
 198:lr1mac/src/lr1mac_core.c ****                 lr1mac_state        = LWPSTATE_PROCESS_DOWNLINK;
 418              		.loc 1 198 37 view .LVU132
 419 0172 1170     		strb	r1, [r2]
 199:lr1mac/src/lr1mac_core.c ****                 DBG_PRINT_WITH_LINE( "Receive a downlink RX2 for Hook Id = %d", myhook_id );
 420              		.loc 1 199 17 is_stmt 1 view .LVU133
 199:lr1mac/src/lr1mac_core.c ****                 DBG_PRINT_WITH_LINE( "Receive a downlink RX2 for Hook Id = %d", myhook_id );
 421              		.loc 1 199 37 is_stmt 0 view .LVU134
 422 0174 2B70     		strb	r3, [r5]
 200:lr1mac/src/lr1mac_core.c ****             }
 423              		.loc 1 200 17 is_stmt 1 view .LVU135
 200:lr1mac/src/lr1mac_core.c ****             }
 424              		.loc 1 200 17 view .LVU136
 200:lr1mac/src/lr1mac_core.c ****             }
 425              		.loc 1 200 17 view .LVU137
 426 0176 FFF7FEFF 		bl	bsp_trace_print
 427              	.LVL34:
 200:lr1mac/src/lr1mac_core.c ****             }
 428              		.loc 1 200 17 view .LVU138
 429 017a 3800     		movs	r0, r7
 430 017c FFF7FEFF 		bl	bsp_trace_print
 431              	.LVL35:
 200:lr1mac/src/lr1mac_core.c ****             }
ARM GAS  /var/folders/bq/yv49bw8j2kd6w3hsq868qv180000gn/T//ccSmIUlm.s 			page 25


 432              		.loc 1 200 17 view .LVU139
 200:lr1mac/src/lr1mac_core.c ****             }
 433              		.loc 1 200 17 view .LVU140
 200:lr1mac/src/lr1mac_core.c ****             }
 434              		.loc 1 200 17 view .LVU141
 435 0180 5C48     		ldr	r0, .L26+64
 436 0182 3178     		ldrb	r1, [r6]
 437 0184 FFF7FEFF 		bl	bsp_trace_print
 438              	.LVL36:
 200:lr1mac/src/lr1mac_core.c ****             }
 439              		.loc 1 200 17 view .LVU142
 200:lr1mac/src/lr1mac_core.c ****             }
 440              		.loc 1 200 17 view .LVU143
 441 0188 2000     		movs	r0, r4
 442 018a C7E7     		b	.L25
 443              	.L18:
 204:lr1mac/src/lr1mac_core.c ****                 lr1mac_state = LWPSTATE_UPDATE_MAC;
 444              		.loc 1 204 17 view .LVU144
 204:lr1mac/src/lr1mac_core.c ****                 lr1mac_state = LWPSTATE_UPDATE_MAC;
 445              		.loc 1 204 17 view .LVU145
 204:lr1mac/src/lr1mac_core.c ****                 lr1mac_state = LWPSTATE_UPDATE_MAC;
 446              		.loc 1 204 17 view .LVU146
 447 018c 2000     		movs	r0, r4
 448 018e FFF7FEFF 		bl	bsp_trace_print
 449              	.LVL37:
 204:lr1mac/src/lr1mac_core.c ****                 lr1mac_state = LWPSTATE_UPDATE_MAC;
 450              		.loc 1 204 17 view .LVU147
 451 0192 3800     		movs	r0, r7
 452 0194 FFF7FEFF 		bl	bsp_trace_print
 453              	.LVL38:
 204:lr1mac/src/lr1mac_core.c ****                 lr1mac_state = LWPSTATE_UPDATE_MAC;
 454              		.loc 1 204 17 view .LVU148
 204:lr1mac/src/lr1mac_core.c ****                 lr1mac_state = LWPSTATE_UPDATE_MAC;
 455              		.loc 1 204 17 view .LVU149
 204:lr1mac/src/lr1mac_core.c ****                 lr1mac_state = LWPSTATE_UPDATE_MAC;
 456              		.loc 1 204 17 view .LVU150
 457 0198 3178     		ldrb	r1, [r6]
 458 019a 5748     		ldr	r0, .L26+68
 459 019c FFF7FEFF 		bl	bsp_trace_print
 460              	.LVL39:
 204:lr1mac/src/lr1mac_core.c ****                 lr1mac_state = LWPSTATE_UPDATE_MAC;
 461              		.loc 1 204 17 view .LVU151
 204:lr1mac/src/lr1mac_core.c ****                 lr1mac_state = LWPSTATE_UPDATE_MAC;
 462              		.loc 1 204 17 view .LVU152
 463 01a0 2000     		movs	r0, r4
 464 01a2 FFF7FEFF 		bl	bsp_trace_print
 465              	.LVL40:
 204:lr1mac/src/lr1mac_core.c ****                 lr1mac_state = LWPSTATE_UPDATE_MAC;
 466              		.loc 1 204 17 view .LVU153
 467 01a6 4E48     		ldr	r0, .L26+44
 468 01a8 FFF7FEFF 		bl	bsp_trace_print
 469              	.LVL41:
 204:lr1mac/src/lr1mac_core.c ****                 lr1mac_state = LWPSTATE_UPDATE_MAC;
 470              		.loc 1 204 17 view .LVU154
 204:lr1mac/src/lr1mac_core.c ****                 lr1mac_state = LWPSTATE_UPDATE_MAC;
 471              		.loc 1 204 17 view .LVU155
 204:lr1mac/src/lr1mac_core.c ****                 lr1mac_state = LWPSTATE_UPDATE_MAC;
ARM GAS  /var/folders/bq/yv49bw8j2kd6w3hsq868qv180000gn/T//ccSmIUlm.s 			page 26


 472              		.loc 1 204 17 view .LVU156
 204:lr1mac/src/lr1mac_core.c ****                 lr1mac_state = LWPSTATE_UPDATE_MAC;
 473              		.loc 1 204 81 view .LVU157
 205:lr1mac/src/lr1mac_core.c ****             }
 474              		.loc 1 205 17 view .LVU158
 475              	.L23:
 225:lr1mac/src/lr1mac_core.c ****         break;
 476              		.loc 1 225 9 view .LVU159
 225:lr1mac/src/lr1mac_core.c ****         break;
 477              		.loc 1 225 25 is_stmt 0 view .LVU160
 478 01ac 0523     		movs	r3, #5
 479              	.L24:
 480 01ae 2B70     		strb	r3, [r5]
 226:lr1mac/src/lr1mac_core.c **** 
 481              		.loc 1 226 9 is_stmt 1 view .LVU161
 482 01b0 64E7     		b	.L3
 483              	.L9:
 222:lr1mac/src/lr1mac_core.c **** 
 484              		.loc 1 222 9 view .LVU162
 222:lr1mac/src/lr1mac_core.c **** 
 485              		.loc 1 222 9 view .LVU163
 222:lr1mac/src/lr1mac_core.c **** 
 486              		.loc 1 222 9 view .LVU164
 487 01b2 474F     		ldr	r7, .L26+28
 488 01b4 3800     		movs	r0, r7
 489 01b6 FFF7FEFF 		bl	bsp_trace_print
 490              	.LVL42:
 222:lr1mac/src/lr1mac_core.c **** 
 491              		.loc 1 222 9 view .LVU165
 492 01ba 4748     		ldr	r0, .L26+36
 493 01bc FFF7FEFF 		bl	bsp_trace_print
 494              	.LVL43:
 222:lr1mac/src/lr1mac_core.c **** 
 495              		.loc 1 222 9 view .LVU166
 222:lr1mac/src/lr1mac_core.c **** 
 496              		.loc 1 222 9 view .LVU167
 222:lr1mac/src/lr1mac_core.c **** 
 497              		.loc 1 222 9 view .LVU168
 498 01c0 3178     		ldrb	r1, [r6]
 499 01c2 4E48     		ldr	r0, .L26+72
 500 01c4 FFF7FEFF 		bl	bsp_trace_print
 501              	.LVL44:
 222:lr1mac/src/lr1mac_core.c **** 
 502              		.loc 1 222 9 view .LVU169
 222:lr1mac/src/lr1mac_core.c **** 
 503              		.loc 1 222 9 view .LVU170
 504 01c8 3800     		movs	r0, r7
 505 01ca FFF7FEFF 		bl	bsp_trace_print
 506              	.LVL45:
 222:lr1mac/src/lr1mac_core.c **** 
 507              		.loc 1 222 9 view .LVU171
 508 01ce 4448     		ldr	r0, .L26+44
 509 01d0 FFF7FEFF 		bl	bsp_trace_print
 510              	.LVL46:
 222:lr1mac/src/lr1mac_core.c **** 
 511              		.loc 1 222 9 view .LVU172
 222:lr1mac/src/lr1mac_core.c **** 
ARM GAS  /var/folders/bq/yv49bw8j2kd6w3hsq868qv180000gn/T//ccSmIUlm.s 			page 27


 512              		.loc 1 222 9 view .LVU173
 222:lr1mac/src/lr1mac_core.c **** 
 513              		.loc 1 222 9 view .LVU174
 222:lr1mac/src/lr1mac_core.c **** 
 514              		.loc 1 222 78 view .LVU175
 224:lr1mac/src/lr1mac_core.c ****         lr1mac_state    = LWPSTATE_UPDATE_MAC;
 515              		.loc 1 224 9 view .LVU176
 224:lr1mac/src/lr1mac_core.c ****         lr1mac_state    = LWPSTATE_UPDATE_MAC;
 516              		.loc 1 224 27 is_stmt 0 view .LVU177
 517 01d4 2000     		movs	r0, r4
 518 01d6 FFF7FEFF 		bl	lr1_stack_mac_rx_frame_decode
 519              	.LVL47:
 224:lr1mac/src/lr1mac_core.c ****         lr1mac_state    = LWPSTATE_UPDATE_MAC;
 520              		.loc 1 224 25 view .LVU178
 521 01da 494B     		ldr	r3, .L26+76
 522 01dc 1870     		strb	r0, [r3]
 523 01de E5E7     		b	.L23
 524              	.L8:
 232:lr1mac/src/lr1mac_core.c ****         DBG_PRINT_WITH_LINE( "Update Mac for Hook Id = %d", myhook_id );
 525              		.loc 1 232 9 is_stmt 1 view .LVU179
 232:lr1mac/src/lr1mac_core.c ****         DBG_PRINT_WITH_LINE( "Update Mac for Hook Id = %d", myhook_id );
 526              		.loc 1 232 41 is_stmt 0 view .LVU180
 527 01e0 0022     		movs	r2, #0
 233:lr1mac/src/lr1mac_core.c **** 
 528              		.loc 1 233 9 view .LVU181
 529 01e2 3B4F     		ldr	r7, .L26+28
 232:lr1mac/src/lr1mac_core.c ****         DBG_PRINT_WITH_LINE( "Update Mac for Hook Id = %d", myhook_id );
 530              		.loc 1 232 41 view .LVU182
 531 01e4 474B     		ldr	r3, .L26+80
 233:lr1mac/src/lr1mac_core.c **** 
 532              		.loc 1 233 9 view .LVU183
 533 01e6 3800     		movs	r0, r7
 232:lr1mac/src/lr1mac_core.c ****         DBG_PRINT_WITH_LINE( "Update Mac for Hook Id = %d", myhook_id );
 534              		.loc 1 232 41 view .LVU184
 535 01e8 E254     		strb	r2, [r4, r3]
 233:lr1mac/src/lr1mac_core.c **** 
 536              		.loc 1 233 9 is_stmt 1 view .LVU185
 233:lr1mac/src/lr1mac_core.c **** 
 537              		.loc 1 233 9 view .LVU186
 233:lr1mac/src/lr1mac_core.c **** 
 538              		.loc 1 233 9 view .LVU187
 539 01ea FFF7FEFF 		bl	bsp_trace_print
 540              	.LVL48:
 233:lr1mac/src/lr1mac_core.c **** 
 541              		.loc 1 233 9 view .LVU188
 542 01ee 3A48     		ldr	r0, .L26+36
 543 01f0 FFF7FEFF 		bl	bsp_trace_print
 544              	.LVL49:
 233:lr1mac/src/lr1mac_core.c **** 
 545              		.loc 1 233 9 view .LVU189
 233:lr1mac/src/lr1mac_core.c **** 
 546              		.loc 1 233 9 view .LVU190
 233:lr1mac/src/lr1mac_core.c **** 
 547              		.loc 1 233 9 view .LVU191
 548 01f4 3178     		ldrb	r1, [r6]
 549 01f6 4448     		ldr	r0, .L26+84
 550 01f8 FFF7FEFF 		bl	bsp_trace_print
ARM GAS  /var/folders/bq/yv49bw8j2kd6w3hsq868qv180000gn/T//ccSmIUlm.s 			page 28


 551              	.LVL50:
 233:lr1mac/src/lr1mac_core.c **** 
 552              		.loc 1 233 9 view .LVU192
 233:lr1mac/src/lr1mac_core.c **** 
 553              		.loc 1 233 9 view .LVU193
 554 01fc 3800     		movs	r0, r7
 555 01fe FFF7FEFF 		bl	bsp_trace_print
 556              	.LVL51:
 233:lr1mac/src/lr1mac_core.c **** 
 557              		.loc 1 233 9 view .LVU194
 558 0202 3748     		ldr	r0, .L26+44
 559 0204 FFF7FEFF 		bl	bsp_trace_print
 560              	.LVL52:
 233:lr1mac/src/lr1mac_core.c **** 
 561              		.loc 1 233 9 view .LVU195
 233:lr1mac/src/lr1mac_core.c **** 
 562              		.loc 1 233 9 view .LVU196
 233:lr1mac/src/lr1mac_core.c **** 
 563              		.loc 1 233 9 view .LVU197
 233:lr1mac/src/lr1mac_core.c **** 
 564              		.loc 1 233 72 view .LVU198
 235:lr1mac/src/lr1mac_core.c ****         {
 565              		.loc 1 235 9 view .LVU199
 235:lr1mac/src/lr1mac_core.c ****         {
 566              		.loc 1 235 29 is_stmt 0 view .LVU200
 567 0208 3D4E     		ldr	r6, .L26+76
 235:lr1mac/src/lr1mac_core.c ****         {
 568              		.loc 1 235 11 view .LVU201
 569 020a 3378     		ldrb	r3, [r6]
 570 020c 032B     		cmp	r3, #3
 571 020e 0DD1     		bne	.L19
 237:lr1mac/src/lr1mac_core.c ****             lr1_stack_mac_join_accept( &lr1_mac_obj );
 572              		.loc 1 237 13 is_stmt 1 view .LVU202
 237:lr1mac/src/lr1mac_core.c ****             lr1_stack_mac_join_accept( &lr1_mac_obj );
 573              		.loc 1 237 13 view .LVU203
 574 0210 3800     		movs	r0, r7
 575 0212 FFF7FEFF 		bl	bsp_trace_print
 576              	.LVL53:
 237:lr1mac/src/lr1mac_core.c ****             lr1_stack_mac_join_accept( &lr1_mac_obj );
 577              		.loc 1 237 13 view .LVU204
 578 0216 3D48     		ldr	r0, .L26+88
 579 0218 FFF7FEFF 		bl	bsp_trace_print
 580              	.LVL54:
 237:lr1mac/src/lr1mac_core.c ****             lr1_stack_mac_join_accept( &lr1_mac_obj );
 581              		.loc 1 237 13 view .LVU205
 237:lr1mac/src/lr1mac_core.c ****             lr1_stack_mac_join_accept( &lr1_mac_obj );
 582              		.loc 1 237 61 view .LVU206
 238:lr1mac/src/lr1mac_core.c **** 
 583              		.loc 1 238 13 view .LVU207
 584 021c 2000     		movs	r0, r4
 585 021e FFF7FEFF 		bl	lr1_stack_mac_join_accept
 586              	.LVL55:
 241:lr1mac/src/lr1mac_core.c ****         }
 587              		.loc 1 241 13 view .LVU208
 241:lr1mac/src/lr1mac_core.c ****         }
 588              		.loc 1 241 69 is_stmt 0 view .LVU209
 589 0222 3B4B     		ldr	r3, .L26+92
ARM GAS  /var/folders/bq/yv49bw8j2kd6w3hsq868qv180000gn/T//ccSmIUlm.s 			page 29


 241:lr1mac/src/lr1mac_core.c ****         }
 590              		.loc 1 241 13 view .LVU210
 591 0224 2000     		movs	r0, r4
 592 0226 E15C     		ldrb	r1, [r4, r3]
 593 0228 FFF7FEFF 		bl	smtc_real_dr_distribution_set
 594              	.LVL56:
 595              	.L19:
 243:lr1mac/src/lr1mac_core.c ****         {
 596              		.loc 1 243 9 is_stmt 1 view .LVU211
 243:lr1mac/src/lr1mac_core.c ****         {
 597              		.loc 1 243 48 is_stmt 0 view .LVU212
 598 022c 3378     		ldrb	r3, [r6]
 243:lr1mac/src/lr1mac_core.c ****         {
 599              		.loc 1 243 11 view .LVU213
 600 022e 013B     		subs	r3, r3, #1
 601 0230 012B     		cmp	r3, #1
 602 0232 02D8     		bhi	.L20
 245:lr1mac/src/lr1mac_core.c ****         }
 603              		.loc 1 245 13 is_stmt 1 view .LVU214
 604 0234 2000     		movs	r0, r4
 605 0236 FFF7FEFF 		bl	lr1_stack_mac_cmd_parse
 606              	.LVL57:
 607              	.L20:
 247:lr1mac/src/lr1mac_core.c ****         *available_rx_packet = lr1_mac_obj.available_app_packet;
 608              		.loc 1 247 9 view .LVU215
 609 023a 2000     		movs	r0, r4
 610 023c FFF7FEFF 		bl	lr1_stack_mac_update
 611              	.LVL58:
 248:lr1mac/src/lr1mac_core.c **** 
 612              		.loc 1 248 9 view .LVU216
 248:lr1mac/src/lr1mac_core.c **** 
 613              		.loc 1 248 43 is_stmt 0 view .LVU217
 614 0240 344B     		ldr	r3, .L26+96
 248:lr1mac/src/lr1mac_core.c **** 
 615              		.loc 1 248 30 view .LVU218
 616 0242 019A     		ldr	r2, [sp, #4]
 248:lr1mac/src/lr1mac_core.c **** 
 617              		.loc 1 248 43 view .LVU219
 618 0244 E35C     		ldrb	r3, [r4, r3]
 248:lr1mac/src/lr1mac_core.c **** 
 619              		.loc 1 248 30 view .LVU220
 620 0246 1370     		strb	r3, [r2]
 250:lr1mac/src/lr1mac_core.c ****             ( lr1_mac_obj.type_of_ans_to_send == USRFRAME_TORETRANSMIT ) )
 621              		.loc 1 250 9 is_stmt 1 view .LVU221
 250:lr1mac/src/lr1mac_core.c ****             ( lr1_mac_obj.type_of_ans_to_send == USRFRAME_TORETRANSMIT ) )
 622              		.loc 1 250 11 is_stmt 0 view .LVU222
 623 0248 0223     		movs	r3, #2
 250:lr1mac/src/lr1mac_core.c ****             ( lr1_mac_obj.type_of_ans_to_send == USRFRAME_TORETRANSMIT ) )
 624              		.loc 1 250 26 view .LVU223
 625 024a 334A     		ldr	r2, .L26+100
 250:lr1mac/src/lr1mac_core.c ****             ( lr1_mac_obj.type_of_ans_to_send == USRFRAME_TORETRANSMIT ) )
 626              		.loc 1 250 11 view .LVU224
 627 024c A75C     		ldrb	r7, [r4, r2]
 628 024e 9F43     		bics	r7, r3
 629 0250 0023     		movs	r3, #0
 630 0252 012F     		cmp	r7, #1
 631 0254 10D1     		bne	.L21
ARM GAS  /var/folders/bq/yv49bw8j2kd6w3hsq868qv180000gn/T//ccSmIUlm.s 			page 30


 253:lr1mac/src/lr1mac_core.c ****             lr1_mac_obj.rtc_target_timer_ms = ( bsp_rtc_get_time_s( ) + bsp_rng_get_random_in_range
 632              		.loc 1 253 13 is_stmt 1 view .LVU225
 253:lr1mac/src/lr1mac_core.c ****             lr1_mac_obj.rtc_target_timer_ms = ( bsp_rtc_get_time_s( ) + bsp_rng_get_random_in_range
 633              		.loc 1 253 45 is_stmt 0 view .LVU226
 634 0256 A354     		strb	r3, [r4, r2]
 254:lr1mac/src/lr1mac_core.c ****             lr1mac_state                    = LWPSTATE_TX_WAIT;
 635              		.loc 1 254 13 is_stmt 1 view .LVU227
 254:lr1mac/src/lr1mac_core.c ****             lr1mac_state                    = LWPSTATE_TX_WAIT;
 636              		.loc 1 254 49 is_stmt 0 view .LVU228
 637 0258 FFF7FEFF 		bl	bsp_rtc_get_time_s
 638              	.LVL59:
 254:lr1mac/src/lr1mac_core.c ****             lr1mac_state                    = LWPSTATE_TX_WAIT;
 639              		.loc 1 254 73 view .LVU229
 640 025c 0321     		movs	r1, #3
 254:lr1mac/src/lr1mac_core.c ****             lr1mac_state                    = LWPSTATE_TX_WAIT;
 641              		.loc 1 254 49 view .LVU230
 642 025e 0190     		str	r0, [sp, #4]
 643              	.LVL60:
 254:lr1mac/src/lr1mac_core.c ****             lr1mac_state                    = LWPSTATE_TX_WAIT;
 644              		.loc 1 254 73 view .LVU231
 645 0260 3800     		movs	r0, r7
 646 0262 FFF7FEFF 		bl	bsp_rng_get_random_in_range
 647              	.LVL61:
 254:lr1mac/src/lr1mac_core.c ****             lr1mac_state                    = LWPSTATE_TX_WAIT;
 648              		.loc 1 254 71 view .LVU232
 649 0266 019B     		ldr	r3, [sp, #4]
 650 0268 1B18     		adds	r3, r3, r0
 254:lr1mac/src/lr1mac_core.c ****             lr1mac_state                    = LWPSTATE_TX_WAIT;
 651              		.loc 1 254 111 view .LVU233
 652 026a FA20     		movs	r0, #250
 653 026c 8000     		lsls	r0, r0, #2
 654 026e 5843     		muls	r0, r3
 254:lr1mac/src/lr1mac_core.c ****             lr1mac_state                    = LWPSTATE_TX_WAIT;
 655              		.loc 1 254 45 view .LVU234
 656 0270 C323     		movs	r3, #195
 657 0272 DB00     		lsls	r3, r3, #3
 658 0274 E050     		str	r0, [r4, r3]
 255:lr1mac/src/lr1mac_core.c ****         }
 659              		.loc 1 255 13 is_stmt 1 view .LVU235
 255:lr1mac/src/lr1mac_core.c ****         }
 660              		.loc 1 255 45 is_stmt 0 view .LVU236
 661 0276 0623     		movs	r3, #6
 662              	.L21:
 259:lr1mac/src/lr1mac_core.c ****         }
 663              		.loc 1 259 13 is_stmt 1 view .LVU237
 259:lr1mac/src/lr1mac_core.c ****         }
 664              		.loc 1 259 26 is_stmt 0 view .LVU238
 665 0278 2B70     		strb	r3, [r5]
 261:lr1mac/src/lr1mac_core.c ****         break;
 666              		.loc 1 261 9 is_stmt 1 view .LVU239
 261:lr1mac/src/lr1mac_core.c ****         break;
 667              		.loc 1 261 25 is_stmt 0 view .LVU240
 668 027a 0023     		movs	r3, #0
 669 027c 3370     		strb	r3, [r6]
 262:lr1mac/src/lr1mac_core.c **** 
 670              		.loc 1 262 9 is_stmt 1 view .LVU241
 671 027e FDE6     		b	.L3
ARM GAS  /var/folders/bq/yv49bw8j2kd6w3hsq868qv180000gn/T//ccSmIUlm.s 			page 31


 672              	.LVL62:
 673              	.L6:
 268:lr1mac/src/lr1mac_core.c ****         if( bsp_rtc_get_time_ms( ) > lr1_mac_obj.rtc_target_timer_ms )
 674              		.loc 1 268 9 view .LVU242
 268:lr1mac/src/lr1mac_core.c ****         if( bsp_rtc_get_time_ms( ) > lr1_mac_obj.rtc_target_timer_ms )
 675              		.loc 1 268 9 view .LVU243
 676 0280 1348     		ldr	r0, .L26+28
 677 0282 FFF7FEFF 		bl	bsp_trace_print
 678              	.LVL63:
 268:lr1mac/src/lr1mac_core.c ****         if( bsp_rtc_get_time_ms( ) > lr1_mac_obj.rtc_target_timer_ms )
 679              		.loc 1 268 9 view .LVU244
 680 0286 2548     		ldr	r0, .L26+104
 681 0288 FFF7FEFF 		bl	bsp_trace_print
 682              	.LVL64:
 268:lr1mac/src/lr1mac_core.c ****         if( bsp_rtc_get_time_ms( ) > lr1_mac_obj.rtc_target_timer_ms )
 683              		.loc 1 268 9 view .LVU245
 268:lr1mac/src/lr1mac_core.c ****         if( bsp_rtc_get_time_ms( ) > lr1_mac_obj.rtc_target_timer_ms )
 684              		.loc 1 268 33 view .LVU246
 269:lr1mac/src/lr1mac_core.c ****         {
 685              		.loc 1 269 9 view .LVU247
 269:lr1mac/src/lr1mac_core.c ****         {
 686              		.loc 1 269 13 is_stmt 0 view .LVU248
 687 028c FFF7FEFF 		bl	bsp_rtc_get_time_ms
 688              	.LVL65:
 269:lr1mac/src/lr1mac_core.c ****         {
 689              		.loc 1 269 49 view .LVU249
 690 0290 C323     		movs	r3, #195
 691 0292 DB00     		lsls	r3, r3, #3
 269:lr1mac/src/lr1mac_core.c ****         {
 692              		.loc 1 269 11 view .LVU250
 693 0294 E358     		ldr	r3, [r4, r3]
 694 0296 9842     		cmp	r0, r3
 695 0298 00D8     		bhi	.LCB522
 696 029a EFE6     		b	.L3	@long jump
 697              	.LCB522:
 271:lr1mac/src/lr1mac_core.c ****         }
 698              		.loc 1 271 13 is_stmt 1 view .LVU251
 271:lr1mac/src/lr1mac_core.c ****         }
 699              		.loc 1 271 26 is_stmt 0 view .LVU252
 700 029c 0123     		movs	r3, #1
 701 029e 86E7     		b	.L24
 702              	.L5:
 276:lr1mac/src/lr1mac_core.c ****         bsp_mcu_handle_lr1mac_issue( );
 703              		.loc 1 276 9 is_stmt 1 view .LVU253
 276:lr1mac/src/lr1mac_core.c ****         bsp_mcu_handle_lr1mac_issue( );
 704              		.loc 1 276 9 view .LVU254
 705 02a0 0B48     		ldr	r0, .L26+28
 706 02a2 FFF7FEFF 		bl	bsp_trace_print
 707              	.LVL66:
 276:lr1mac/src/lr1mac_core.c ****         bsp_mcu_handle_lr1mac_issue( );
 708              		.loc 1 276 9 view .LVU255
 709 02a6 1E48     		ldr	r0, .L26+108
 710 02a8 FFF7FEFF 		bl	bsp_trace_print
 711              	.LVL67:
 276:lr1mac/src/lr1mac_core.c ****         bsp_mcu_handle_lr1mac_issue( );
 712              		.loc 1 276 9 view .LVU256
 276:lr1mac/src/lr1mac_core.c ****         bsp_mcu_handle_lr1mac_issue( );
ARM GAS  /var/folders/bq/yv49bw8j2kd6w3hsq868qv180000gn/T//ccSmIUlm.s 			page 32


 713              		.loc 1 276 68 view .LVU257
 277:lr1mac/src/lr1mac_core.c ****         break;
 714              		.loc 1 277 9 view .LVU258
 715 02ac FFF7FEFF 		bl	bsp_mcu_handle_lr1mac_issue
 716              	.LVL68:
 278:lr1mac/src/lr1mac_core.c ****     }
 717              		.loc 1 278 9 view .LVU259
 718 02b0 E4E6     		b	.L3
 719              	.L27:
 720 02b2 C046     		.align	2
 721              	.L26:
 722 02b4 00000000 		.word	lr1_mac_obj
 723 02b8 F4050000 		.word	1524
 724 02bc 00000000 		.word	.LANCHOR0
 725 02c0 0C060000 		.word	1548
 726 02c4 00000000 		.word	.LC2
 727 02c8 08000000 		.word	.LC4
 728 02cc 10000000 		.word	.LC6
 729 02d0 27000000 		.word	.LC8
 730 02d4 00000000 		.word	.LANCHOR1
 731 02d8 2C000000 		.word	.LC11
 732 02dc 5A000000 		.word	.LC13
 733 02e0 75000000 		.word	.LC15
 734 02e4 E4050000 		.word	1508
 735 02e8 FF050000 		.word	1535
 736 02ec 9F000000 		.word	.LC17
 737 02f0 C7000000 		.word	.LC19
 738 02f4 E4000000 		.word	.LC21
 739 02f8 0C010000 		.word	.LC23
 740 02fc 29010000 		.word	.LC25
 741 0300 00000000 		.word	.LANCHOR2
 742 0304 F3050000 		.word	1523
 743 0308 4B010000 		.word	.LC28
 744 030c 67010000 		.word	.LC30
 745 0310 CE050000 		.word	1486
 746 0314 9F030000 		.word	927
 747 0318 14060000 		.word	1556
 748 031c 80010000 		.word	.LC32
 749 0320 82010000 		.word	.LC34
 750              		.cfi_endproc
 751              	.LFE10:
 753              		.section	.rodata.lr1mac_core_join.str1.1,"aMS",%progbits,1
 754              	.LC39:
 755 0000 4C502053 		.ascii	"LP STATE NOT EQUAL TO IDLE \012\000"
 755      54415445 
 755      204E4F54 
 755      20455155 
 755      414C2054 
 756              	.LC43:
 757 001d 41425020 		.ascii	"ABP DEVICE CAN'T PROCCED A JOIN REQUEST \012\000"
 757      44455649 
 757      43452043 
 757      414E2754 
 757      2050524F 
 758              		.section	.text.lr1mac_core_join,"ax",%progbits
 759              		.align	1
 760              		.global	lr1mac_core_join
ARM GAS  /var/folders/bq/yv49bw8j2kd6w3hsq868qv180000gn/T//ccSmIUlm.s 			page 33


 761              		.syntax unified
 762              		.code	16
 763              		.thumb_func
 764              		.fpu softvfp
 766              	lr1mac_core_join:
 767              	.LVL69:
 768              	.LFB11:
 293:lr1mac/src/lr1mac_core.c ****     if( lr1mac_state != LWPSTATE_IDLE )
 769              		.loc 1 293 1 view -0
 770              		.cfi_startproc
 771              		@ args = 0, pretend = 0, frame = 8
 772              		@ frame_needed = 0, uses_anonymous_args = 0
 294:lr1mac/src/lr1mac_core.c ****     {
 773              		.loc 1 294 5 view .LVU261
 293:lr1mac/src/lr1mac_core.c ****     if( lr1mac_state != LWPSTATE_IDLE )
 774              		.loc 1 293 1 is_stmt 0 view .LVU262
 775 0000 F7B5     		push	{r0, r1, r2, r4, r5, r6, r7, lr}
 776              		.cfi_def_cfa_offset 32
 777              		.cfi_offset 0, -32
 778              		.cfi_offset 1, -28
 779              		.cfi_offset 2, -24
 780              		.cfi_offset 4, -20
 781              		.cfi_offset 5, -16
 782              		.cfi_offset 6, -12
 783              		.cfi_offset 7, -8
 784              		.cfi_offset 14, -4
 294:lr1mac/src/lr1mac_core.c ****     {
 785              		.loc 1 294 22 view .LVU263
 786 0002 2B4E     		ldr	r6, .L35
 293:lr1mac/src/lr1mac_core.c ****     if( lr1mac_state != LWPSTATE_IDLE )
 787              		.loc 1 293 1 view .LVU264
 788 0004 0190     		str	r0, [sp, #4]
 294:lr1mac/src/lr1mac_core.c ****     {
 789              		.loc 1 294 7 view .LVU265
 790 0006 3378     		ldrb	r3, [r6]
 791 0008 002B     		cmp	r3, #0
 792 000a 0DD0     		beq	.L29
 296:lr1mac/src/lr1mac_core.c ****         return ( LWPSTATE_ERROR );
 793              		.loc 1 296 9 is_stmt 1 view .LVU266
 296:lr1mac/src/lr1mac_core.c ****         return ( LWPSTATE_ERROR );
 794              		.loc 1 296 9 view .LVU267
 795 000c 2948     		ldr	r0, .L35+4
 796              	.LVL70:
 296:lr1mac/src/lr1mac_core.c ****         return ( LWPSTATE_ERROR );
 797              		.loc 1 296 9 is_stmt 0 view .LVU268
 798 000e FFF7FEFF 		bl	bsp_trace_print
 799              	.LVL71:
 296:lr1mac/src/lr1mac_core.c ****         return ( LWPSTATE_ERROR );
 800              		.loc 1 296 9 is_stmt 1 view .LVU269
 801 0012 2948     		ldr	r0, .L35+8
 802 0014 FFF7FEFF 		bl	bsp_trace_print
 803              	.LVL72:
 296:lr1mac/src/lr1mac_core.c ****         return ( LWPSTATE_ERROR );
 804              		.loc 1 296 9 view .LVU270
 805 0018 2848     		ldr	r0, .L35+12
 806              	.L34:
 301:lr1mac/src/lr1mac_core.c ****         return ( LWPSTATE_ERROR );
ARM GAS  /var/folders/bq/yv49bw8j2kd6w3hsq868qv180000gn/T//ccSmIUlm.s 			page 34


 807              		.loc 1 301 9 is_stmt 0 view .LVU271
 808 001a FFF7FEFF 		bl	bsp_trace_print
 809              	.LVL73:
 301:lr1mac/src/lr1mac_core.c ****         return ( LWPSTATE_ERROR );
 810              		.loc 1 301 9 is_stmt 1 view .LVU272
 811 001e 2848     		ldr	r0, .L35+16
 812 0020 FFF7FEFF 		bl	bsp_trace_print
 813              	.LVL74:
 301:lr1mac/src/lr1mac_core.c ****         return ( LWPSTATE_ERROR );
 814              		.loc 1 301 9 view .LVU273
 301:lr1mac/src/lr1mac_core.c ****         return ( LWPSTATE_ERROR );
 815              		.loc 1 301 76 view .LVU274
 302:lr1mac/src/lr1mac_core.c ****     }
 816              		.loc 1 302 9 view .LVU275
 302:lr1mac/src/lr1mac_core.c ****     }
 817              		.loc 1 302 16 is_stmt 0 view .LVU276
 818 0024 0820     		movs	r0, #8
 819              	.L30:
 331:lr1mac/src/lr1mac_core.c **** 
 820              		.loc 1 331 1 view .LVU277
 821              		@ sp needed
 822 0026 FEBD     		pop	{r1, r2, r3, r4, r5, r6, r7, pc}
 823              	.LVL75:
 824              	.L29:
 299:lr1mac/src/lr1mac_core.c ****     {
 825              		.loc 1 299 5 is_stmt 1 view .LVU278
 826              	.LBB17:
 827              	.LBI17:
 606:lr1mac/src/lr1mac_core.c **** {
 828              		.loc 1 606 17 view .LVU279
 829              	.LBB18:
 608:lr1mac/src/lr1mac_core.c **** }
 830              		.loc 1 608 5 view .LVU280
 608:lr1mac/src/lr1mac_core.c **** }
 831              		.loc 1 608 43 is_stmt 0 view .LVU281
 832 0028 264C     		ldr	r4, .L35+20
 833 002a 2300     		movs	r3, r4
 834 002c 7033     		adds	r3, r3, #112
 835              	.LBE18:
 836              	.LBE17:
 299:lr1mac/src/lr1mac_core.c ****     {
 837              		.loc 1 299 7 view .LVU282
 838 002e 1F78     		ldrb	r7, [r3]
 839 0030 002F     		cmp	r7, #0
 840 0032 07D0     		beq	.L31
 301:lr1mac/src/lr1mac_core.c ****         return ( LWPSTATE_ERROR );
 841              		.loc 1 301 9 is_stmt 1 view .LVU283
 301:lr1mac/src/lr1mac_core.c ****         return ( LWPSTATE_ERROR );
 842              		.loc 1 301 9 view .LVU284
 843 0034 1F48     		ldr	r0, .L35+4
 844              	.LVL76:
 301:lr1mac/src/lr1mac_core.c ****         return ( LWPSTATE_ERROR );
 845              		.loc 1 301 9 is_stmt 0 view .LVU285
 846 0036 FFF7FEFF 		bl	bsp_trace_print
 847              	.LVL77:
 301:lr1mac/src/lr1mac_core.c ****         return ( LWPSTATE_ERROR );
 848              		.loc 1 301 9 is_stmt 1 view .LVU286
ARM GAS  /var/folders/bq/yv49bw8j2kd6w3hsq868qv180000gn/T//ccSmIUlm.s 			page 35


 849 003a 1F48     		ldr	r0, .L35+8
 850 003c FFF7FEFF 		bl	bsp_trace_print
 851              	.LVL78:
 301:lr1mac/src/lr1mac_core.c ****         return ( LWPSTATE_ERROR );
 852              		.loc 1 301 9 view .LVU287
 853 0040 2148     		ldr	r0, .L35+24
 854 0042 EAE7     		b	.L34
 855              	.LVL79:
 856              	.L31:
 304:lr1mac/src/lr1mac_core.c ****     lr1_mac_obj.timestamp_failsafe  = current_timestamp;
 857              		.loc 1 304 5 view .LVU288
 304:lr1mac/src/lr1mac_core.c ****     lr1_mac_obj.timestamp_failsafe  = current_timestamp;
 858              		.loc 1 304 39 is_stmt 0 view .LVU289
 859 0044 FFF7FEFF 		bl	bsp_rtc_get_time_s
 860              	.LVL80:
 305:lr1mac/src/lr1mac_core.c ****     lr1_mac_obj.rtc_target_timer_ms = target_time_ms;
 861              		.loc 1 305 37 view .LVU290
 862 0048 204B     		ldr	r3, .L35+28
 306:lr1mac/src/lr1mac_core.c ****     lr1_mac_obj.join_status         = NOT_JOINED;
 863              		.loc 1 306 37 view .LVU291
 864 004a 019A     		ldr	r2, [sp, #4]
 305:lr1mac/src/lr1mac_core.c ****     lr1_mac_obj.rtc_target_timer_ms = target_time_ms;
 865              		.loc 1 305 37 view .LVU292
 866 004c E050     		str	r0, [r4, r3]
 306:lr1mac/src/lr1mac_core.c ****     lr1_mac_obj.join_status         = NOT_JOINED;
 867              		.loc 1 306 37 view .LVU293
 868 004e 0C33     		adds	r3, r3, #12
 869 0050 E250     		str	r2, [r4, r3]
 307:lr1mac/src/lr1mac_core.c ****     smtc_real_init( &lr1_mac_obj );
 870              		.loc 1 307 37 view .LVU294
 871 0052 1F4B     		ldr	r3, .L35+32
 304:lr1mac/src/lr1mac_core.c ****     lr1_mac_obj.timestamp_failsafe  = current_timestamp;
 872              		.loc 1 304 39 view .LVU295
 873 0054 0500     		movs	r5, r0
 874              	.LVL81:
 305:lr1mac/src/lr1mac_core.c ****     lr1_mac_obj.rtc_target_timer_ms = target_time_ms;
 875              		.loc 1 305 5 is_stmt 1 view .LVU296
 306:lr1mac/src/lr1mac_core.c ****     lr1_mac_obj.join_status         = NOT_JOINED;
 876              		.loc 1 306 5 view .LVU297
 307:lr1mac/src/lr1mac_core.c ****     smtc_real_init( &lr1_mac_obj );
 877              		.loc 1 307 5 view .LVU298
 308:lr1mac/src/lr1mac_core.c ****     lr1_mac_obj.rx2_data_rate = smtc_real_rx2_join_dr_get( &lr1_mac_obj );
 878              		.loc 1 308 5 is_stmt 0 view .LVU299
 879 0056 2000     		movs	r0, r4
 880              	.LVL82:
 307:lr1mac/src/lr1mac_core.c ****     smtc_real_init( &lr1_mac_obj );
 881              		.loc 1 307 37 view .LVU300
 882 0058 E754     		strb	r7, [r4, r3]
 308:lr1mac/src/lr1mac_core.c ****     lr1_mac_obj.rx2_data_rate = smtc_real_rx2_join_dr_get( &lr1_mac_obj );
 883              		.loc 1 308 5 is_stmt 1 view .LVU301
 884 005a FFF7FEFF 		bl	smtc_real_init
 885              	.LVL83:
 309:lr1mac/src/lr1mac_core.c ****     smtc_real_dr_distribution_set( &lr1_mac_obj, JOIN_DR_DISTRIBUTION );
 886              		.loc 1 309 5 view .LVU302
 309:lr1mac/src/lr1mac_core.c ****     smtc_real_dr_distribution_set( &lr1_mac_obj, JOIN_DR_DISTRIBUTION );
 887              		.loc 1 309 33 is_stmt 0 view .LVU303
 888 005e 2000     		movs	r0, r4
ARM GAS  /var/folders/bq/yv49bw8j2kd6w3hsq868qv180000gn/T//ccSmIUlm.s 			page 36


 889 0060 FFF7FEFF 		bl	smtc_real_rx2_join_dr_get
 890              	.LVL84:
 310:lr1mac/src/lr1mac_core.c ****     smtc_real_next_dr_get( &lr1_mac_obj );
 891              		.loc 1 310 5 view .LVU304
 892 0064 0521     		movs	r1, #5
 309:lr1mac/src/lr1mac_core.c ****     smtc_real_dr_distribution_set( &lr1_mac_obj, JOIN_DR_DISTRIBUTION );
 893              		.loc 1 309 31 view .LVU305
 894 0066 A073     		strb	r0, [r4, #14]
 310:lr1mac/src/lr1mac_core.c ****     smtc_real_next_dr_get( &lr1_mac_obj );
 895              		.loc 1 310 5 is_stmt 1 view .LVU306
 896 0068 2000     		movs	r0, r4
 897 006a FFF7FEFF 		bl	smtc_real_dr_distribution_set
 898              	.LVL85:
 311:lr1mac/src/lr1mac_core.c ****     smtc_real_duty_cycle_update( &lr1_mac_obj );
 899              		.loc 1 311 5 view .LVU307
 900 006e 2000     		movs	r0, r4
 901 0070 FFF7FEFF 		bl	smtc_real_next_dr_get
 902              	.LVL86:
 312:lr1mac/src/lr1mac_core.c ****     if( smtc_real_join_next_channel_get( &lr1_mac_obj ) != OKLORAWAN )
 903              		.loc 1 312 5 view .LVU308
 904 0074 2000     		movs	r0, r4
 905 0076 FFF7FEFF 		bl	smtc_real_duty_cycle_update
 906              	.LVL87:
 313:lr1mac/src/lr1mac_core.c ****     {
 907              		.loc 1 313 5 view .LVU309
 313:lr1mac/src/lr1mac_core.c ****     {
 908              		.loc 1 313 9 is_stmt 0 view .LVU310
 909 007a 2000     		movs	r0, r4
 910 007c FFF7FEFF 		bl	smtc_real_join_next_channel_get
 911              	.LVL88:
 912 0080 0300     		movs	r3, r0
 315:lr1mac/src/lr1mac_core.c ****     }
 913              		.loc 1 315 16 view .LVU311
 914 0082 0820     		movs	r0, #8
 313:lr1mac/src/lr1mac_core.c ****     {
 915              		.loc 1 313 7 view .LVU312
 916 0084 002B     		cmp	r3, #0
 917 0086 CED1     		bne	.L30
 318:lr1mac/src/lr1mac_core.c ****     lr1_stack_rx1_join_delay_set( &lr1_mac_obj );
 918              		.loc 1 318 5 is_stmt 1 view .LVU313
 919 0088 2000     		movs	r0, r4
 920 008a FFF7FEFF 		bl	lr1_stack_mac_join_request_build
 921              	.LVL89:
 319:lr1mac/src/lr1mac_core.c ****     lr1_stack_rx2_join_dr_set( &lr1_mac_obj );
 922              		.loc 1 319 5 view .LVU314
 923 008e 2000     		movs	r0, r4
 924 0090 FFF7FEFF 		bl	lr1_stack_rx1_join_delay_set
 925              	.LVL90:
 320:lr1mac/src/lr1mac_core.c **** 
 926              		.loc 1 320 5 view .LVU315
 927 0094 2000     		movs	r0, r4
 928 0096 FFF7FEFF 		bl	lr1_stack_rx2_join_dr_set
 929              	.LVL91:
 323:lr1mac/src/lr1mac_core.c ****     {
 930              		.loc 1 323 5 view .LVU316
 323:lr1mac/src/lr1mac_core.c ****     {
 931              		.loc 1 323 20 is_stmt 0 view .LVU317
ARM GAS  /var/folders/bq/yv49bw8j2kd6w3hsq868qv180000gn/T//ccSmIUlm.s 			page 37


 932 009a BB23     		movs	r3, #187
 933 009c DB00     		lsls	r3, r3, #3
 323:lr1mac/src/lr1mac_core.c ****     {
 934              		.loc 1 323 7 view .LVU318
 935 009e E358     		ldr	r3, [r4, r3]
 936 00a0 002B     		cmp	r3, #0
 937 00a2 01D1     		bne	.L32
 326:lr1mac/src/lr1mac_core.c ****     }
 938              		.loc 1 326 9 is_stmt 1 view .LVU319
 326:lr1mac/src/lr1mac_core.c ****     }
 939              		.loc 1 326 42 is_stmt 0 view .LVU320
 940 00a4 0B4B     		ldr	r3, .L35+36
 941 00a6 E550     		str	r5, [r4, r3]
 942              	.L32:
 329:lr1mac/src/lr1mac_core.c ****     return ( lr1mac_state );
 943              		.loc 1 329 5 is_stmt 1 view .LVU321
 329:lr1mac/src/lr1mac_core.c ****     return ( lr1mac_state );
 944              		.loc 1 329 18 is_stmt 0 view .LVU322
 945 00a8 0120     		movs	r0, #1
 946 00aa 3070     		strb	r0, [r6]
 330:lr1mac/src/lr1mac_core.c **** }
 947              		.loc 1 330 5 is_stmt 1 view .LVU323
 330:lr1mac/src/lr1mac_core.c **** }
 948              		.loc 1 330 12 is_stmt 0 view .LVU324
 949 00ac BBE7     		b	.L30
 950              	.L36:
 951 00ae C046     		.align	2
 952              	.L35:
 953 00b0 00000000 		.word	.LANCHOR0
 954 00b4 00000000 		.word	.LC2
 955 00b8 08000000 		.word	.LC4
 956 00bc 00000000 		.word	.LC39
 957 00c0 27000000 		.word	.LC8
 958 00c4 00000000 		.word	lr1_mac_obj
 959 00c8 1D000000 		.word	.LC43
 960 00cc 0C060000 		.word	1548
 961 00d0 FE050000 		.word	1534
 962 00d4 DC050000 		.word	1500
 963              		.cfi_endproc
 964              	.LFE11:
 966              		.section	.text.lr1_mac_joined_status_get,"ax",%progbits
 967              		.align	1
 968              		.global	lr1_mac_joined_status_get
 969              		.syntax unified
 970              		.code	16
 971              		.thumb_func
 972              		.fpu softvfp
 974              	lr1_mac_joined_status_get:
 975              	.LFB12:
 337:lr1mac/src/lr1mac_core.c ****     join_status_t status = NOT_JOINED;
 976              		.loc 1 337 1 is_stmt 1 view -0
 977              		.cfi_startproc
 978              		@ args = 0, pretend = 0, frame = 0
 979              		@ frame_needed = 0, uses_anonymous_args = 0
 980              		@ link register save eliminated.
 338:lr1mac/src/lr1mac_core.c ****     status               = lr1_mac_obj.join_status;
 981              		.loc 1 338 5 view .LVU326
ARM GAS  /var/folders/bq/yv49bw8j2kd6w3hsq868qv180000gn/T//ccSmIUlm.s 			page 38


 982              	.LVL92:
 339:lr1mac/src/lr1mac_core.c ****     return ( status );
 983              		.loc 1 339 5 view .LVU327
 340:lr1mac/src/lr1mac_core.c **** }
 984              		.loc 1 340 5 view .LVU328
 340:lr1mac/src/lr1mac_core.c **** }
 985              		.loc 1 340 12 is_stmt 0 view .LVU329
 986 0000 014A     		ldr	r2, .L38
 987 0002 024B     		ldr	r3, .L38+4
 341:lr1mac/src/lr1mac_core.c **** /**************************************************/
 988              		.loc 1 341 1 view .LVU330
 989              		@ sp needed
 340:lr1mac/src/lr1mac_core.c **** }
 990              		.loc 1 340 12 view .LVU331
 991 0004 D05C     		ldrb	r0, [r2, r3]
 341:lr1mac/src/lr1mac_core.c **** /**************************************************/
 992              		.loc 1 341 1 view .LVU332
 993 0006 7047     		bx	lr
 994              	.L39:
 995              		.align	2
 996              	.L38:
 997 0008 00000000 		.word	lr1_mac_obj
 998 000c FE050000 		.word	1534
 999              		.cfi_endproc
 1000              	.LFE12:
 1002              		.section	.text.lr1mac_core_join_status_clear,"ax",%progbits
 1003              		.align	1
 1004              		.global	lr1mac_core_join_status_clear
 1005              		.syntax unified
 1006              		.code	16
 1007              		.thumb_func
 1008              		.fpu softvfp
 1010              	lr1mac_core_join_status_clear:
 1011              	.LFB13:
 347:lr1mac/src/lr1mac_core.c ****     lr1_mac_obj.join_status = NOT_JOINED;
 1012              		.loc 1 347 1 is_stmt 1 view -0
 1013              		.cfi_startproc
 1014              		@ args = 0, pretend = 0, frame = 0
 1015              		@ frame_needed = 0, uses_anonymous_args = 0
 348:lr1mac/src/lr1mac_core.c ****     smtc_real_join_snapshot_channel_mask_init( &lr1_mac_obj );
 1016              		.loc 1 348 5 view .LVU334
 348:lr1mac/src/lr1mac_core.c ****     smtc_real_join_snapshot_channel_mask_init( &lr1_mac_obj );
 1017              		.loc 1 348 29 is_stmt 0 view .LVU335
 1018 0000 0022     		movs	r2, #0
 347:lr1mac/src/lr1mac_core.c ****     lr1_mac_obj.join_status = NOT_JOINED;
 1019              		.loc 1 347 1 view .LVU336
 1020 0002 10B5     		push	{r4, lr}
 1021              		.cfi_def_cfa_offset 8
 1022              		.cfi_offset 4, -8
 1023              		.cfi_offset 14, -4
 348:lr1mac/src/lr1mac_core.c ****     smtc_real_join_snapshot_channel_mask_init( &lr1_mac_obj );
 1024              		.loc 1 348 29 view .LVU337
 1025 0004 0248     		ldr	r0, .L41
 1026 0006 034B     		ldr	r3, .L41+4
 350:lr1mac/src/lr1mac_core.c **** 
 1027              		.loc 1 350 1 view .LVU338
 1028              		@ sp needed
ARM GAS  /var/folders/bq/yv49bw8j2kd6w3hsq868qv180000gn/T//ccSmIUlm.s 			page 39


 348:lr1mac/src/lr1mac_core.c ****     smtc_real_join_snapshot_channel_mask_init( &lr1_mac_obj );
 1029              		.loc 1 348 29 view .LVU339
 1030 0008 C254     		strb	r2, [r0, r3]
 349:lr1mac/src/lr1mac_core.c **** }
 1031              		.loc 1 349 5 is_stmt 1 view .LVU340
 1032 000a FFF7FEFF 		bl	smtc_real_join_snapshot_channel_mask_init
 1033              	.LVL93:
 350:lr1mac/src/lr1mac_core.c **** 
 1034              		.loc 1 350 1 is_stmt 0 view .LVU341
 1035 000e 10BD     		pop	{r4, pc}
 1036              	.L42:
 1037              		.align	2
 1038              	.L41:
 1039 0010 00000000 		.word	lr1_mac_obj
 1040 0014 FE050000 		.word	1534
 1041              		.cfi_endproc
 1042              	.LFE13:
 1044              		.section	.text.lr1mac_core_new_join,"ax",%progbits
 1045              		.align	1
 1046              		.global	lr1mac_core_new_join
 1047              		.syntax unified
 1048              		.code	16
 1049              		.thumb_func
 1050              		.fpu softvfp
 1052              	lr1mac_core_new_join:
 1053              	.LFB14:
 357:lr1mac/src/lr1mac_core.c ****     lr1_mac_obj.join_status = NOT_JOINED;
 1054              		.loc 1 357 1 is_stmt 1 view -0
 1055              		.cfi_startproc
 1056              		@ args = 0, pretend = 0, frame = 0
 1057              		@ frame_needed = 0, uses_anonymous_args = 0
 1058              		@ link register save eliminated.
 358:lr1mac/src/lr1mac_core.c **** }
 1059              		.loc 1 358 5 view .LVU343
 358:lr1mac/src/lr1mac_core.c **** }
 1060              		.loc 1 358 29 is_stmt 0 view .LVU344
 1061 0000 0021     		movs	r1, #0
 1062 0002 024A     		ldr	r2, .L44
 1063 0004 024B     		ldr	r3, .L44+4
 359:lr1mac/src/lr1mac_core.c **** /**************************************************/
 1064              		.loc 1 359 1 view .LVU345
 1065              		@ sp needed
 358:lr1mac/src/lr1mac_core.c **** }
 1066              		.loc 1 358 29 view .LVU346
 1067 0006 D154     		strb	r1, [r2, r3]
 359:lr1mac/src/lr1mac_core.c **** /**************************************************/
 1068              		.loc 1 359 1 view .LVU347
 1069 0008 7047     		bx	lr
 1070              	.L45:
 1071 000a C046     		.align	2
 1072              	.L44:
 1073 000c 00000000 		.word	lr1_mac_obj
 1074 0010 FE050000 		.word	1534
 1075              		.cfi_endproc
 1076              	.LFE14:
 1078              		.section	.text.lr1mac_core_payload_receive,"ax",%progbits
 1079              		.align	1
ARM GAS  /var/folders/bq/yv49bw8j2kd6w3hsq868qv180000gn/T//ccSmIUlm.s 			page 40


 1080              		.global	lr1mac_core_payload_receive
 1081              		.syntax unified
 1082              		.code	16
 1083              		.thumb_func
 1084              		.fpu softvfp
 1086              	lr1mac_core_payload_receive:
 1087              	.LVL94:
 1088              	.LFB17:
 439:lr1mac/src/lr1mac_core.c ****     status_lorawan_t status = OKLORAWAN;
 1089              		.loc 1 439 1 is_stmt 1 view -0
 1090              		.cfi_startproc
 1091              		@ args = 0, pretend = 0, frame = 0
 1092              		@ frame_needed = 0, uses_anonymous_args = 0
 440:lr1mac/src/lr1mac_core.c ****     if( lr1_mac_obj.available_app_packet == NO_LORA_RXPACKET_AVAILABLE )
 1093              		.loc 1 440 5 view .LVU349
 441:lr1mac/src/lr1mac_core.c ****     {
 1094              		.loc 1 441 5 view .LVU350
 439:lr1mac/src/lr1mac_core.c ****     status_lorawan_t status = OKLORAWAN;
 1095              		.loc 1 439 1 is_stmt 0 view .LVU351
 1096 0000 70B5     		push	{r4, r5, r6, lr}
 1097              		.cfi_def_cfa_offset 16
 1098              		.cfi_offset 4, -16
 1099              		.cfi_offset 5, -12
 1100              		.cfi_offset 6, -8
 1101              		.cfi_offset 14, -4
 441:lr1mac/src/lr1mac_core.c ****     {
 1102              		.loc 1 441 20 view .LVU352
 1103 0002 0C4C     		ldr	r4, .L49
 1104 0004 0C4D     		ldr	r5, .L49+4
 439:lr1mac/src/lr1mac_core.c ****     status_lorawan_t status = OKLORAWAN;
 1105              		.loc 1 439 1 view .LVU353
 1106 0006 0300     		movs	r3, r0
 1107 0008 0800     		movs	r0, r1
 1108              	.LVL95:
 441:lr1mac/src/lr1mac_core.c ****     {
 1109              		.loc 1 441 7 view .LVU354
 1110 000a 615D     		ldrb	r1, [r4, r5]
 1111              	.LVL96:
 441:lr1mac/src/lr1mac_core.c ****     {
 1112              		.loc 1 441 7 view .LVU355
 1113 000c 0029     		cmp	r1, #0
 1114 000e 0DD0     		beq	.L48
 447:lr1mac/src/lr1mac_core.c ****         *user_rx_port        = lr1_mac_obj.rx_fport;
 1115              		.loc 1 447 9 is_stmt 1 view .LVU356
 447:lr1mac/src/lr1mac_core.c ****         *user_rx_port        = lr1_mac_obj.rx_fport;
 1116              		.loc 1 447 43 is_stmt 0 view .LVU357
 1117 0010 0A49     		ldr	r1, .L49+8
 1118 0012 665C     		ldrb	r6, [r4, r1]
 447:lr1mac/src/lr1mac_core.c ****         *user_rx_port        = lr1_mac_obj.rx_fport;
 1119              		.loc 1 447 30 view .LVU358
 1120 0014 1670     		strb	r6, [r2]
 448:lr1mac/src/lr1mac_core.c ****         memcpy( user_rx_payload, lr1_mac_obj.rx_payload, lr1_mac_obj.rx_payload_size );
 1121              		.loc 1 448 9 is_stmt 1 view .LVU359
 448:lr1mac/src/lr1mac_core.c ****         memcpy( user_rx_payload, lr1_mac_obj.rx_payload, lr1_mac_obj.rx_payload_size );
 1122              		.loc 1 448 43 is_stmt 0 view .LVU360
 1123 0016 A222     		movs	r2, #162
 1124              	.LVL97:
ARM GAS  /var/folders/bq/yv49bw8j2kd6w3hsq868qv180000gn/T//ccSmIUlm.s 			page 41


 448:lr1mac/src/lr1mac_core.c ****         memcpy( user_rx_payload, lr1_mac_obj.rx_payload, lr1_mac_obj.rx_payload_size );
 1125              		.loc 1 448 43 view .LVU361
 1126 0018 9200     		lsls	r2, r2, #2
 1127 001a A25C     		ldrb	r2, [r4, r2]
 448:lr1mac/src/lr1mac_core.c ****         memcpy( user_rx_payload, lr1_mac_obj.rx_payload, lr1_mac_obj.rx_payload_size );
 1128              		.loc 1 448 30 view .LVU362
 1129 001c 1A70     		strb	r2, [r3]
 449:lr1mac/src/lr1mac_core.c ****         lr1_mac_obj.available_app_packet = NO_LORA_RXPACKET_AVAILABLE;
 1130              		.loc 1 449 9 is_stmt 1 view .LVU363
 1131 001e 625C     		ldrb	r2, [r4, r1]
 1132 0020 0749     		ldr	r1, .L49+12
 1133 0022 FFF7FEFF 		bl	memcpy
 1134              	.LVL98:
 450:lr1mac/src/lr1mac_core.c ****     }
 1135              		.loc 1 450 9 view .LVU364
 450:lr1mac/src/lr1mac_core.c ****     }
 1136              		.loc 1 450 42 is_stmt 0 view .LVU365
 1137 0026 0020     		movs	r0, #0
 1138 0028 6055     		strb	r0, [r4, r5]
 1139              	.L47:
 1140              	.LVL99:
 452:lr1mac/src/lr1mac_core.c **** }
 1141              		.loc 1 452 5 is_stmt 1 view .LVU366
 453:lr1mac/src/lr1mac_core.c **** 
 1142              		.loc 1 453 1 is_stmt 0 view .LVU367
 1143              		@ sp needed
 1144 002a 70BD     		pop	{r4, r5, r6, pc}
 1145              	.LVL100:
 1146              	.L48:
 443:lr1mac/src/lr1mac_core.c ****     }
 1147              		.loc 1 443 16 view .LVU368
 1148 002c 0120     		movs	r0, #1
 1149              	.LVL101:
 443:lr1mac/src/lr1mac_core.c ****     }
 1150              		.loc 1 443 16 view .LVU369
 1151 002e 4042     		rsbs	r0, r0, #0
 1152 0030 FBE7     		b	.L47
 1153              	.L50:
 1154 0032 C046     		.align	2
 1155              	.L49:
 1156 0034 00000000 		.word	lr1_mac_obj
 1157 0038 9F030000 		.word	927
 1158 003c 9E020000 		.word	670
 1159 0040 9F020000 		.word	lr1_mac_obj+671
 1160              		.cfi_endproc
 1161              	.LFE17:
 1163              		.section	.text.lr1mac_core_dr_strategy_set,"ax",%progbits
 1164              		.align	1
 1165              		.global	lr1mac_core_dr_strategy_set
 1166              		.syntax unified
 1167              		.code	16
 1168              		.thumb_func
 1169              		.fpu softvfp
 1171              	lr1mac_core_dr_strategy_set:
 1172              	.LVL102:
 1173              	.LFB18:
 460:lr1mac/src/lr1mac_core.c ****     lr1_mac_obj.adr_mode_select = adr_mode_select;
ARM GAS  /var/folders/bq/yv49bw8j2kd6w3hsq868qv180000gn/T//ccSmIUlm.s 			page 42


 1174              		.loc 1 460 1 is_stmt 1 view -0
 1175              		.cfi_startproc
 1176              		@ args = 0, pretend = 0, frame = 0
 1177              		@ frame_needed = 0, uses_anonymous_args = 0
 461:lr1mac/src/lr1mac_core.c ****     smtc_real_dr_distribution_set( &lr1_mac_obj, adr_mode_select );
 1178              		.loc 1 461 5 view .LVU371
 460:lr1mac/src/lr1mac_core.c ****     lr1_mac_obj.adr_mode_select = adr_mode_select;
 1179              		.loc 1 460 1 is_stmt 0 view .LVU372
 1180 0000 10B5     		push	{r4, lr}
 1181              		.cfi_def_cfa_offset 8
 1182              		.cfi_offset 4, -8
 1183              		.cfi_offset 14, -4
 461:lr1mac/src/lr1mac_core.c ****     smtc_real_dr_distribution_set( &lr1_mac_obj, adr_mode_select );
 1184              		.loc 1 461 33 view .LVU373
 1185 0002 054B     		ldr	r3, .L52
 1186 0004 054C     		ldr	r4, .L52+4
 460:lr1mac/src/lr1mac_core.c ****     lr1_mac_obj.adr_mode_select = adr_mode_select;
 1187              		.loc 1 460 1 view .LVU374
 1188 0006 0100     		movs	r1, r0
 461:lr1mac/src/lr1mac_core.c ****     smtc_real_dr_distribution_set( &lr1_mac_obj, adr_mode_select );
 1189              		.loc 1 461 33 view .LVU375
 1190 0008 E054     		strb	r0, [r4, r3]
 462:lr1mac/src/lr1mac_core.c ****     smtc_real_next_dr_get( &lr1_mac_obj );
 1191              		.loc 1 462 5 is_stmt 1 view .LVU376
 1192 000a 2000     		movs	r0, r4
 1193              	.LVL103:
 462:lr1mac/src/lr1mac_core.c ****     smtc_real_next_dr_get( &lr1_mac_obj );
 1194              		.loc 1 462 5 is_stmt 0 view .LVU377
 1195 000c FFF7FEFF 		bl	smtc_real_dr_distribution_set
 1196              	.LVL104:
 463:lr1mac/src/lr1mac_core.c **** }
 1197              		.loc 1 463 5 is_stmt 1 view .LVU378
 1198 0010 2000     		movs	r0, r4
 1199 0012 FFF7FEFF 		bl	smtc_real_next_dr_get
 1200              	.LVL105:
 464:lr1mac/src/lr1mac_core.c **** /**************************************************/
 1201              		.loc 1 464 1 is_stmt 0 view .LVU379
 1202              		@ sp needed
 1203 0016 10BD     		pop	{r4, pc}
 1204              	.L53:
 1205              		.align	2
 1206              	.L52:
 1207 0018 CE050000 		.word	1486
 1208 001c 00000000 		.word	lr1_mac_obj
 1209              		.cfi_endproc
 1210              	.LFE18:
 1212              		.section	.text.lr1mac_core_dr_strategy_get,"ax",%progbits
 1213              		.align	1
 1214              		.global	lr1mac_core_dr_strategy_get
 1215              		.syntax unified
 1216              		.code	16
 1217              		.thumb_func
 1218              		.fpu softvfp
 1220              	lr1mac_core_dr_strategy_get:
 1221              	.LFB19:
 470:lr1mac/src/lr1mac_core.c ****     return ( lr1_mac_obj.adr_mode_select );
 1222              		.loc 1 470 1 is_stmt 1 view -0
ARM GAS  /var/folders/bq/yv49bw8j2kd6w3hsq868qv180000gn/T//ccSmIUlm.s 			page 43


 1223              		.cfi_startproc
 1224              		@ args = 0, pretend = 0, frame = 0
 1225              		@ frame_needed = 0, uses_anonymous_args = 0
 1226              		@ link register save eliminated.
 471:lr1mac/src/lr1mac_core.c **** }
 1227              		.loc 1 471 5 view .LVU381
 471:lr1mac/src/lr1mac_core.c **** }
 1228              		.loc 1 471 25 is_stmt 0 view .LVU382
 1229 0000 014A     		ldr	r2, .L55
 1230 0002 024B     		ldr	r3, .L55+4
 472:lr1mac/src/lr1mac_core.c **** /*************************************************************/
 1231              		.loc 1 472 1 view .LVU383
 1232              		@ sp needed
 471:lr1mac/src/lr1mac_core.c **** }
 1233              		.loc 1 471 25 view .LVU384
 1234 0004 D05C     		ldrb	r0, [r2, r3]
 472:lr1mac/src/lr1mac_core.c **** /*************************************************************/
 1235              		.loc 1 472 1 view .LVU385
 1236 0006 7047     		bx	lr
 1237              	.L56:
 1238              		.align	2
 1239              	.L55:
 1240 0008 00000000 		.word	lr1_mac_obj
 1241 000c CE050000 		.word	1486
 1242              		.cfi_endproc
 1243              	.LFE19:
 1245              		.section	.text.lr1mac_core_dr_custom_set,"ax",%progbits
 1246              		.align	1
 1247              		.global	lr1mac_core_dr_custom_set
 1248              		.syntax unified
 1249              		.code	16
 1250              		.thumb_func
 1251              		.fpu softvfp
 1253              	lr1mac_core_dr_custom_set:
 1254              	.LVL106:
 1255              	.LFB20:
 478:lr1mac/src/lr1mac_core.c ****     lr1_mac_obj.adr_custom = DataRateCustom;
 1256              		.loc 1 478 1 is_stmt 1 view -0
 1257              		.cfi_startproc
 1258              		@ args = 0, pretend = 0, frame = 0
 1259              		@ frame_needed = 0, uses_anonymous_args = 0
 1260              		@ link register save eliminated.
 479:lr1mac/src/lr1mac_core.c **** }
 1261              		.loc 1 479 5 view .LVU387
 479:lr1mac/src/lr1mac_core.c **** }
 1262              		.loc 1 479 28 is_stmt 0 view .LVU388
 1263 0000 BA23     		movs	r3, #186
 1264 0002 024A     		ldr	r2, .L58
 1265 0004 DB00     		lsls	r3, r3, #3
 480:lr1mac/src/lr1mac_core.c **** /**************************************************/
 1266              		.loc 1 480 1 view .LVU389
 1267              		@ sp needed
 479:lr1mac/src/lr1mac_core.c **** }
 1268              		.loc 1 479 28 view .LVU390
 1269 0006 D050     		str	r0, [r2, r3]
 480:lr1mac/src/lr1mac_core.c **** /**************************************************/
 1270              		.loc 1 480 1 view .LVU391
ARM GAS  /var/folders/bq/yv49bw8j2kd6w3hsq868qv180000gn/T//ccSmIUlm.s 			page 44


 1271 0008 7047     		bx	lr
 1272              	.L59:
 1273 000a C046     		.align	2
 1274              	.L58:
 1275 000c 00000000 		.word	lr1_mac_obj
 1276              		.cfi_endproc
 1277              	.LFE20:
 1279              		.section	.text.lr1mac_core_devaddr_get,"ax",%progbits
 1280              		.align	1
 1281              		.global	lr1mac_core_devaddr_get
 1282              		.syntax unified
 1283              		.code	16
 1284              		.thumb_func
 1285              		.fpu softvfp
 1287              	lr1mac_core_devaddr_get:
 1288              	.LFB21:
 486:lr1mac/src/lr1mac_core.c ****     return ( lr1_mac_obj.dev_addr );
 1289              		.loc 1 486 1 is_stmt 1 view -0
 1290              		.cfi_startproc
 1291              		@ args = 0, pretend = 0, frame = 0
 1292              		@ frame_needed = 0, uses_anonymous_args = 0
 1293              		@ link register save eliminated.
 487:lr1mac/src/lr1mac_core.c **** }
 1294              		.loc 1 487 5 view .LVU393
 487:lr1mac/src/lr1mac_core.c **** }
 1295              		.loc 1 487 25 is_stmt 0 view .LVU394
 1296 0000 014B     		ldr	r3, .L61
 488:lr1mac/src/lr1mac_core.c **** 
 1297              		.loc 1 488 1 view .LVU395
 1298              		@ sp needed
 487:lr1mac/src/lr1mac_core.c **** }
 1299              		.loc 1 487 25 view .LVU396
 1300 0002 D86A     		ldr	r0, [r3, #44]
 488:lr1mac/src/lr1mac_core.c **** 
 1301              		.loc 1 488 1 view .LVU397
 1302 0004 7047     		bx	lr
 1303              	.L62:
 1304 0006 C046     		.align	2
 1305              	.L61:
 1306 0008 00000000 		.word	lr1_mac_obj
 1307              		.cfi_endproc
 1308              	.LFE21:
 1310              		.section	.text.lr1mac_core_deveui_get,"ax",%progbits
 1311              		.align	1
 1312              		.global	lr1mac_core_deveui_get
 1313              		.syntax unified
 1314              		.code	16
 1315              		.thumb_func
 1316              		.fpu softvfp
 1318              	lr1mac_core_deveui_get:
 1319              	.LVL107:
 1320              	.LFB22:
 495:lr1mac/src/lr1mac_core.c ****     memcpy( DevEui, lr1_mac_obj.dev_eui, 8 );
 1321              		.loc 1 495 1 is_stmt 1 view -0
 1322              		.cfi_startproc
 1323              		@ args = 0, pretend = 0, frame = 0
 1324              		@ frame_needed = 0, uses_anonymous_args = 0
ARM GAS  /var/folders/bq/yv49bw8j2kd6w3hsq868qv180000gn/T//ccSmIUlm.s 			page 45


 496:lr1mac/src/lr1mac_core.c **** }
 1325              		.loc 1 496 5 view .LVU399
 495:lr1mac/src/lr1mac_core.c ****     memcpy( DevEui, lr1_mac_obj.dev_eui, 8 );
 1326              		.loc 1 495 1 is_stmt 0 view .LVU400
 1327 0000 10B5     		push	{r4, lr}
 1328              		.cfi_def_cfa_offset 8
 1329              		.cfi_offset 4, -8
 1330              		.cfi_offset 14, -4
 496:lr1mac/src/lr1mac_core.c **** }
 1331              		.loc 1 496 5 view .LVU401
 1332 0002 0822     		movs	r2, #8
 1333 0004 0149     		ldr	r1, .L64
 1334 0006 FFF7FEFF 		bl	memcpy
 1335              	.LVL108:
 497:lr1mac/src/lr1mac_core.c **** 
 1336              		.loc 1 497 1 view .LVU402
 1337              		@ sp needed
 1338 000a 10BD     		pop	{r4, pc}
 1339              	.L65:
 1340              		.align	2
 1341              	.L64:
 1342 000c 60000000 		.word	lr1_mac_obj+96
 1343              		.cfi_endproc
 1344              	.LFE22:
 1346              		.section	.text.lr1mac_core_deveui_set,"ax",%progbits
 1347              		.align	1
 1348              		.global	lr1mac_core_deveui_set
 1349              		.syntax unified
 1350              		.code	16
 1351              		.thumb_func
 1352              		.fpu softvfp
 1354              	lr1mac_core_deveui_set:
 1355              	.LVL109:
 1356              	.LFB23:
 504:lr1mac/src/lr1mac_core.c ****     memcpy( lr1_mac_obj.dev_eui, DevEui, 8 );
 1357              		.loc 1 504 1 is_stmt 1 view -0
 1358              		.cfi_startproc
 1359              		@ args = 0, pretend = 0, frame = 0
 1360              		@ frame_needed = 0, uses_anonymous_args = 0
 505:lr1mac/src/lr1mac_core.c **** }
 1361              		.loc 1 505 5 view .LVU404
 504:lr1mac/src/lr1mac_core.c ****     memcpy( lr1_mac_obj.dev_eui, DevEui, 8 );
 1362              		.loc 1 504 1 is_stmt 0 view .LVU405
 1363 0000 10B5     		push	{r4, lr}
 1364              		.cfi_def_cfa_offset 8
 1365              		.cfi_offset 4, -8
 1366              		.cfi_offset 14, -4
 504:lr1mac/src/lr1mac_core.c ****     memcpy( lr1_mac_obj.dev_eui, DevEui, 8 );
 1367              		.loc 1 504 1 view .LVU406
 1368 0002 0100     		movs	r1, r0
 505:lr1mac/src/lr1mac_core.c **** }
 1369              		.loc 1 505 5 view .LVU407
 1370 0004 0822     		movs	r2, #8
 1371 0006 0248     		ldr	r0, .L67
 1372              	.LVL110:
 505:lr1mac/src/lr1mac_core.c **** }
 1373              		.loc 1 505 5 view .LVU408
ARM GAS  /var/folders/bq/yv49bw8j2kd6w3hsq868qv180000gn/T//ccSmIUlm.s 			page 46


 1374 0008 FFF7FEFF 		bl	memcpy
 1375              	.LVL111:
 506:lr1mac/src/lr1mac_core.c **** 
 1376              		.loc 1 506 1 view .LVU409
 1377              		@ sp needed
 1378 000c 10BD     		pop	{r4, pc}
 1379              	.L68:
 1380 000e C046     		.align	2
 1381              	.L67:
 1382 0010 60000000 		.word	lr1_mac_obj+96
 1383              		.cfi_endproc
 1384              	.LFE23:
 1386              		.section	.text.lr1mac_core_app_key_set,"ax",%progbits
 1387              		.align	1
 1388              		.global	lr1mac_core_app_key_set
 1389              		.syntax unified
 1390              		.code	16
 1391              		.thumb_func
 1392              		.fpu softvfp
 1394              	lr1mac_core_app_key_set:
 1395              	.LVL112:
 1396              	.LFB24:
 513:lr1mac/src/lr1mac_core.c ****     memcpy( lr1_mac_obj.app_key, AppKey, 16 );
 1397              		.loc 1 513 1 is_stmt 1 view -0
 1398              		.cfi_startproc
 1399              		@ args = 0, pretend = 0, frame = 0
 1400              		@ frame_needed = 0, uses_anonymous_args = 0
 514:lr1mac/src/lr1mac_core.c **** }
 1401              		.loc 1 514 5 view .LVU411
 513:lr1mac/src/lr1mac_core.c ****     memcpy( lr1_mac_obj.app_key, AppKey, 16 );
 1402              		.loc 1 513 1 is_stmt 0 view .LVU412
 1403 0000 10B5     		push	{r4, lr}
 1404              		.cfi_def_cfa_offset 8
 1405              		.cfi_offset 4, -8
 1406              		.cfi_offset 14, -4
 513:lr1mac/src/lr1mac_core.c ****     memcpy( lr1_mac_obj.app_key, AppKey, 16 );
 1407              		.loc 1 513 1 view .LVU413
 1408 0002 0100     		movs	r1, r0
 514:lr1mac/src/lr1mac_core.c **** }
 1409              		.loc 1 514 5 view .LVU414
 1410 0004 1022     		movs	r2, #16
 1411 0006 0248     		ldr	r0, .L70
 1412              	.LVL113:
 514:lr1mac/src/lr1mac_core.c **** }
 1413              		.loc 1 514 5 view .LVU415
 1414 0008 FFF7FEFF 		bl	memcpy
 1415              	.LVL114:
 515:lr1mac/src/lr1mac_core.c **** 
 1416              		.loc 1 515 1 view .LVU416
 1417              		@ sp needed
 1418 000c 10BD     		pop	{r4, pc}
 1419              	.L71:
 1420 000e C046     		.align	2
 1421              	.L70:
 1422 0010 50000000 		.word	lr1_mac_obj+80
 1423              		.cfi_endproc
 1424              	.LFE24:
ARM GAS  /var/folders/bq/yv49bw8j2kd6w3hsq868qv180000gn/T//ccSmIUlm.s 			page 47


 1426              		.section	.text.lr1mac_core_appeui_key_get,"ax",%progbits
 1427              		.align	1
 1428              		.global	lr1mac_core_appeui_key_get
 1429              		.syntax unified
 1430              		.code	16
 1431              		.thumb_func
 1432              		.fpu softvfp
 1434              	lr1mac_core_appeui_key_get:
 1435              	.LVL115:
 1436              	.LFB25:
 522:lr1mac/src/lr1mac_core.c ****     memcpy( AppEui, lr1_mac_obj.app_eui, 8 );
 1437              		.loc 1 522 1 is_stmt 1 view -0
 1438              		.cfi_startproc
 1439              		@ args = 0, pretend = 0, frame = 0
 1440              		@ frame_needed = 0, uses_anonymous_args = 0
 523:lr1mac/src/lr1mac_core.c **** }
 1441              		.loc 1 523 5 view .LVU418
 522:lr1mac/src/lr1mac_core.c ****     memcpy( AppEui, lr1_mac_obj.app_eui, 8 );
 1442              		.loc 1 522 1 is_stmt 0 view .LVU419
 1443 0000 10B5     		push	{r4, lr}
 1444              		.cfi_def_cfa_offset 8
 1445              		.cfi_offset 4, -8
 1446              		.cfi_offset 14, -4
 523:lr1mac/src/lr1mac_core.c **** }
 1447              		.loc 1 523 5 view .LVU420
 1448 0002 0822     		movs	r2, #8
 1449 0004 0149     		ldr	r1, .L73
 1450 0006 FFF7FEFF 		bl	memcpy
 1451              	.LVL116:
 524:lr1mac/src/lr1mac_core.c **** 
 1452              		.loc 1 524 1 view .LVU421
 1453              		@ sp needed
 1454 000a 10BD     		pop	{r4, pc}
 1455              	.L74:
 1456              		.align	2
 1457              	.L73:
 1458 000c 68000000 		.word	lr1_mac_obj+104
 1459              		.cfi_endproc
 1460              	.LFE25:
 1462              		.section	.text.lr1mac_core_appeui_key_set,"ax",%progbits
 1463              		.align	1
 1464              		.global	lr1mac_core_appeui_key_set
 1465              		.syntax unified
 1466              		.code	16
 1467              		.thumb_func
 1468              		.fpu softvfp
 1470              	lr1mac_core_appeui_key_set:
 1471              	.LVL117:
 1472              	.LFB26:
 531:lr1mac/src/lr1mac_core.c ****     memcpy( lr1_mac_obj.app_eui, AppEui, 8 );
 1473              		.loc 1 531 1 is_stmt 1 view -0
 1474              		.cfi_startproc
 1475              		@ args = 0, pretend = 0, frame = 0
 1476              		@ frame_needed = 0, uses_anonymous_args = 0
 532:lr1mac/src/lr1mac_core.c **** }
 1477              		.loc 1 532 5 view .LVU423
 531:lr1mac/src/lr1mac_core.c ****     memcpy( lr1_mac_obj.app_eui, AppEui, 8 );
ARM GAS  /var/folders/bq/yv49bw8j2kd6w3hsq868qv180000gn/T//ccSmIUlm.s 			page 48


 1478              		.loc 1 531 1 is_stmt 0 view .LVU424
 1479 0000 10B5     		push	{r4, lr}
 1480              		.cfi_def_cfa_offset 8
 1481              		.cfi_offset 4, -8
 1482              		.cfi_offset 14, -4
 531:lr1mac/src/lr1mac_core.c ****     memcpy( lr1_mac_obj.app_eui, AppEui, 8 );
 1483              		.loc 1 531 1 view .LVU425
 1484 0002 0100     		movs	r1, r0
 532:lr1mac/src/lr1mac_core.c **** }
 1485              		.loc 1 532 5 view .LVU426
 1486 0004 0822     		movs	r2, #8
 1487 0006 0248     		ldr	r0, .L76
 1488              	.LVL118:
 532:lr1mac/src/lr1mac_core.c **** }
 1489              		.loc 1 532 5 view .LVU427
 1490 0008 FFF7FEFF 		bl	memcpy
 1491              	.LVL119:
 533:lr1mac/src/lr1mac_core.c **** 
 1492              		.loc 1 533 1 view .LVU428
 1493              		@ sp needed
 1494 000c 10BD     		pop	{r4, pc}
 1495              	.L77:
 1496 000e C046     		.align	2
 1497              	.L76:
 1498 0010 68000000 		.word	lr1_mac_obj+104
 1499              		.cfi_endproc
 1500              	.LFE26:
 1502              		.section	.text.lr1mac_core_next_power_get,"ax",%progbits
 1503              		.align	1
 1504              		.global	lr1mac_core_next_power_get
 1505              		.syntax unified
 1506              		.code	16
 1507              		.thumb_func
 1508              		.fpu softvfp
 1510              	lr1mac_core_next_power_get:
 1511              	.LFB27:
 540:lr1mac/src/lr1mac_core.c ****     return ( lr1_mac_obj.tx_power );
 1512              		.loc 1 540 1 is_stmt 1 view -0
 1513              		.cfi_startproc
 1514              		@ args = 0, pretend = 0, frame = 0
 1515              		@ frame_needed = 0, uses_anonymous_args = 0
 1516              		@ link register save eliminated.
 541:lr1mac/src/lr1mac_core.c **** }
 1517              		.loc 1 541 5 view .LVU430
 541:lr1mac/src/lr1mac_core.c **** }
 1518              		.loc 1 541 25 is_stmt 0 view .LVU431
 1519 0000 014B     		ldr	r3, .L79
 542:lr1mac/src/lr1mac_core.c **** 
 1520              		.loc 1 542 1 view .LVU432
 1521              		@ sp needed
 541:lr1mac/src/lr1mac_core.c **** }
 1522              		.loc 1 541 25 view .LVU433
 1523 0002 187A     		ldrb	r0, [r3, #8]
 542:lr1mac/src/lr1mac_core.c **** 
 1524              		.loc 1 542 1 view .LVU434
 1525 0004 7047     		bx	lr
 1526              	.L80:
ARM GAS  /var/folders/bq/yv49bw8j2kd6w3hsq868qv180000gn/T//ccSmIUlm.s 			page 49


 1527 0006 C046     		.align	2
 1528              	.L79:
 1529 0008 00000000 		.word	lr1_mac_obj
 1530              		.cfi_endproc
 1531              	.LFE27:
 1533              		.section	.text.lr1mac_core_state_get,"ax",%progbits
 1534              		.align	1
 1535              		.global	lr1mac_core_state_get
 1536              		.syntax unified
 1537              		.code	16
 1538              		.thumb_func
 1539              		.fpu softvfp
 1541              	lr1mac_core_state_get:
 1542              	.LFB28:
 549:lr1mac/src/lr1mac_core.c ****     return ( lr1mac_state );
 1543              		.loc 1 549 1 is_stmt 1 view -0
 1544              		.cfi_startproc
 1545              		@ args = 0, pretend = 0, frame = 0
 1546              		@ frame_needed = 0, uses_anonymous_args = 0
 1547              		@ link register save eliminated.
 550:lr1mac/src/lr1mac_core.c **** }
 1548              		.loc 1 550 5 view .LVU436
 550:lr1mac/src/lr1mac_core.c **** }
 1549              		.loc 1 550 12 is_stmt 0 view .LVU437
 1550 0000 014B     		ldr	r3, .L82
 551:lr1mac/src/lr1mac_core.c **** 
 1551              		.loc 1 551 1 view .LVU438
 1552              		@ sp needed
 550:lr1mac/src/lr1mac_core.c **** }
 1553              		.loc 1 550 12 view .LVU439
 1554 0002 1878     		ldrb	r0, [r3]
 551:lr1mac/src/lr1mac_core.c **** 
 1555              		.loc 1 551 1 view .LVU440
 1556 0004 7047     		bx	lr
 1557              	.L83:
 1558 0006 C046     		.align	2
 1559              	.L82:
 1560 0008 00000000 		.word	.LANCHOR0
 1561              		.cfi_endproc
 1562              	.LFE28:
 1564              		.section	.text.lr1mac_core_context_save,"ax",%progbits
 1565              		.align	1
 1566              		.global	lr1mac_core_context_save
 1567              		.syntax unified
 1568              		.code	16
 1569              		.thumb_func
 1570              		.fpu softvfp
 1572              	lr1mac_core_context_save:
 1573              	.LFB29:
 558:lr1mac/src/lr1mac_core.c ****     smtc_real_memory_save( &lr1_mac_obj );
 1574              		.loc 1 558 1 is_stmt 1 view -0
 1575              		.cfi_startproc
 1576              		@ args = 0, pretend = 0, frame = 0
 1577              		@ frame_needed = 0, uses_anonymous_args = 0
 559:lr1mac/src/lr1mac_core.c **** }
 1578              		.loc 1 559 5 view .LVU442
 558:lr1mac/src/lr1mac_core.c ****     smtc_real_memory_save( &lr1_mac_obj );
ARM GAS  /var/folders/bq/yv49bw8j2kd6w3hsq868qv180000gn/T//ccSmIUlm.s 			page 50


 1579              		.loc 1 558 1 is_stmt 0 view .LVU443
 1580 0000 10B5     		push	{r4, lr}
 1581              		.cfi_def_cfa_offset 8
 1582              		.cfi_offset 4, -8
 1583              		.cfi_offset 14, -4
 559:lr1mac/src/lr1mac_core.c **** }
 1584              		.loc 1 559 5 view .LVU444
 1585 0002 0248     		ldr	r0, .L85
 1586 0004 FFF7FEFF 		bl	smtc_real_memory_save
 1587              	.LVL120:
 560:lr1mac/src/lr1mac_core.c **** /**************************************************/
 1588              		.loc 1 560 1 view .LVU445
 1589              		@ sp needed
 1590 0008 10BD     		pop	{r4, pc}
 1591              	.L86:
 1592 000a C046     		.align	2
 1593              	.L85:
 1594 000c 00000000 		.word	lr1_mac_obj
 1595              		.cfi_endproc
 1596              	.LFE29:
 1598              		.section	.text.lr1mac_core_keys_set,"ax",%progbits
 1599              		.align	1
 1600              		.global	lr1mac_core_keys_set
 1601              		.syntax unified
 1602              		.code	16
 1603              		.thumb_func
 1604              		.fpu softvfp
 1606              	lr1mac_core_keys_set:
 1607              	.LFB30:
 566:lr1mac/src/lr1mac_core.c ****     memcpy( lr1_mac_obj.app_skey, LoRaWanKeys.LoRaMacAppSKey, 16 );
 1608              		.loc 1 566 1 is_stmt 1 view -0
 1609              		.cfi_startproc
 1610              		@ args = 28, pretend = 16, frame = 0
 1611              		@ frame_needed = 0, uses_anonymous_args = 0
 567:lr1mac/src/lr1mac_core.c ****     memcpy( lr1_mac_obj.nwk_skey, LoRaWanKeys.LoRaMacNwkSKey, 16 );
 1612              		.loc 1 567 5 view .LVU447
 566:lr1mac/src/lr1mac_core.c ****     memcpy( lr1_mac_obj.app_skey, LoRaWanKeys.LoRaMacAppSKey, 16 );
 1613              		.loc 1 566 1 is_stmt 0 view .LVU448
 1614 0000 84B0     		sub	sp, sp, #16
 1615              		.cfi_def_cfa_offset 16
 1616 0002 10B5     		push	{r4, lr}
 1617              		.cfi_def_cfa_offset 24
 1618              		.cfi_offset 4, -24
 1619              		.cfi_offset 14, -20
 566:lr1mac/src/lr1mac_core.c ****     memcpy( lr1_mac_obj.app_skey, LoRaWanKeys.LoRaMacAppSKey, 16 );
 1620              		.loc 1 566 1 view .LVU449
 1621 0004 0290     		str	r0, [sp, #8]
 1622 0006 0492     		str	r2, [sp, #16]
 567:lr1mac/src/lr1mac_core.c ****     memcpy( lr1_mac_obj.nwk_skey, LoRaWanKeys.LoRaMacNwkSKey, 16 );
 1623              		.loc 1 567 5 view .LVU450
 1624 0008 1448     		ldr	r0, .L88
 1625 000a 1022     		movs	r2, #16
 566:lr1mac/src/lr1mac_core.c ****     memcpy( lr1_mac_obj.app_skey, LoRaWanKeys.LoRaMacAppSKey, 16 );
 1626              		.loc 1 566 1 view .LVU451
 1627 000c 0593     		str	r3, [sp, #20]
 1628 000e 0391     		str	r1, [sp, #12]
 567:lr1mac/src/lr1mac_core.c ****     memcpy( lr1_mac_obj.nwk_skey, LoRaWanKeys.LoRaMacNwkSKey, 16 );
ARM GAS  /var/folders/bq/yv49bw8j2kd6w3hsq868qv180000gn/T//ccSmIUlm.s 			page 51


 1629              		.loc 1 567 5 view .LVU452
 1630 0010 FFF7FEFF 		bl	memcpy
 1631              	.LVL121:
 568:lr1mac/src/lr1mac_core.c ****     memcpy( lr1_mac_obj.app_key, LoRaWanKeys.LoRaMacAppKey, 16 );
 1632              		.loc 1 568 5 is_stmt 1 view .LVU453
 1633 0014 1022     		movs	r2, #16
 1634 0016 0299     		ldr	r1, [sp, #8]
 1635 0018 1148     		ldr	r0, .L88+4
 1636 001a FFF7FEFF 		bl	memcpy
 1637              	.LVL122:
 569:lr1mac/src/lr1mac_core.c ****     memcpy( lr1_mac_obj.dev_eui, LoRaWanKeys.DevEui, 8 );
 1638              		.loc 1 569 5 view .LVU454
 1639 001e 1022     		movs	r2, #16
 1640 0020 0499     		ldr	r1, [sp, #16]
 1641 0022 1048     		ldr	r0, .L88+8
 1642 0024 FFF7FEFF 		bl	memcpy
 1643              	.LVL123:
 570:lr1mac/src/lr1mac_core.c ****     memcpy( lr1_mac_obj.app_eui, LoRaWanKeys.AppEui, 8 );
 1644              		.loc 1 570 5 view .LVU455
 1645 0028 0822     		movs	r2, #8
 1646 002a 0699     		ldr	r1, [sp, #24]
 1647 002c 0E48     		ldr	r0, .L88+12
 1648 002e FFF7FEFF 		bl	memcpy
 1649              	.LVL124:
 571:lr1mac/src/lr1mac_core.c ****     lr1_mac_obj.otaa_device = LoRaWanKeys.otaaDevice;
 1650              		.loc 1 571 5 view .LVU456
 1651 0032 0822     		movs	r2, #8
 1652 0034 0599     		ldr	r1, [sp, #20]
 1653 0036 0D48     		ldr	r0, .L88+16
 1654 0038 FFF7FEFF 		bl	memcpy
 1655              	.LVL125:
 572:lr1mac/src/lr1mac_core.c ****     lr1_mac_obj.dev_addr    = LoRaWanKeys.LoRaDevAddr;
 1656              		.loc 1 572 5 view .LVU457
 572:lr1mac/src/lr1mac_core.c ****     lr1_mac_obj.dev_addr    = LoRaWanKeys.LoRaDevAddr;
 1657              		.loc 1 572 42 is_stmt 0 view .LVU458
 1658 003c 02AB     		add	r3, sp, #8
 1659 003e 1B7E     		ldrb	r3, [r3, #24]
 572:lr1mac/src/lr1mac_core.c ****     lr1_mac_obj.dev_addr    = LoRaWanKeys.LoRaDevAddr;
 1660              		.loc 1 572 29 view .LVU459
 1661 0040 0B48     		ldr	r0, .L88+20
 572:lr1mac/src/lr1mac_core.c ****     lr1_mac_obj.dev_addr    = LoRaWanKeys.LoRaDevAddr;
 1662              		.loc 1 572 42 view .LVU460
 1663 0042 5A1E     		subs	r2, r3, #1
 1664 0044 9341     		sbcs	r3, r3, r2
 572:lr1mac/src/lr1mac_core.c ****     lr1_mac_obj.dev_addr    = LoRaWanKeys.LoRaDevAddr;
 1665              		.loc 1 572 29 view .LVU461
 1666 0046 0200     		movs	r2, r0
 1667 0048 7032     		adds	r2, r2, #112
 1668 004a 1370     		strb	r3, [r2]
 573:lr1mac/src/lr1mac_core.c **** 
 1669              		.loc 1 573 5 is_stmt 1 view .LVU462
 573:lr1mac/src/lr1mac_core.c **** 
 1670              		.loc 1 573 29 is_stmt 0 view .LVU463
 1671 004c 079B     		ldr	r3, [sp, #28]
 576:lr1mac/src/lr1mac_core.c **** /**************************************************/
 1672              		.loc 1 576 1 view .LVU464
 1673              		@ sp needed
ARM GAS  /var/folders/bq/yv49bw8j2kd6w3hsq868qv180000gn/T//ccSmIUlm.s 			page 52


 573:lr1mac/src/lr1mac_core.c **** 
 1674              		.loc 1 573 29 view .LVU465
 1675 004e C362     		str	r3, [r0, #44]
 575:lr1mac/src/lr1mac_core.c **** }
 1676              		.loc 1 575 5 is_stmt 1 view .LVU466
 1677 0050 FFF7FEFF 		bl	smtc_real_memory_save
 1678              	.LVL126:
 576:lr1mac/src/lr1mac_core.c **** /**************************************************/
 1679              		.loc 1 576 1 is_stmt 0 view .LVU467
 1680 0054 10BC     		pop	{r4}
 1681 0056 08BC     		pop	{r3}
 1682 0058 04B0     		add	sp, sp, #16
 1683 005a 1847     		bx	r3
 1684              	.L89:
 1685              		.align	2
 1686              	.L88:
 1687 005c 40000000 		.word	lr1_mac_obj+64
 1688 0060 30000000 		.word	lr1_mac_obj+48
 1689 0064 50000000 		.word	lr1_mac_obj+80
 1690 0068 60000000 		.word	lr1_mac_obj+96
 1691 006c 68000000 		.word	lr1_mac_obj+104
 1692 0070 00000000 		.word	lr1_mac_obj
 1693              		.cfi_endproc
 1694              	.LFE30:
 1696              		.section	.text.lr1mac_core_next_max_payload_length_get,"ax",%progbits
 1697              		.align	1
 1698              		.global	lr1mac_core_next_max_payload_length_get
 1699              		.syntax unified
 1700              		.code	16
 1701              		.thumb_func
 1702              		.fpu softvfp
 1704              	lr1mac_core_next_max_payload_length_get:
 1705              	.LFB31:
 582:lr1mac/src/lr1mac_core.c ****     return ( smtc_real_max_payload_size_get( &lr1_mac_obj, lr1_mac_obj.tx_data_rate ) -
 1706              		.loc 1 582 1 is_stmt 1 view -0
 1707              		.cfi_startproc
 1708              		@ args = 0, pretend = 0, frame = 0
 1709              		@ frame_needed = 0, uses_anonymous_args = 0
 583:lr1mac/src/lr1mac_core.c ****              lr1_mac_obj.tx_fopts_current_length - 8 );
 1710              		.loc 1 583 5 view .LVU469
 582:lr1mac/src/lr1mac_core.c ****     return ( smtc_real_max_payload_size_get( &lr1_mac_obj, lr1_mac_obj.tx_data_rate ) -
 1711              		.loc 1 582 1 is_stmt 0 view .LVU470
 1712 0000 10B5     		push	{r4, lr}
 1713              		.cfi_def_cfa_offset 8
 1714              		.cfi_offset 4, -8
 1715              		.cfi_offset 14, -4
 583:lr1mac/src/lr1mac_core.c ****              lr1_mac_obj.tx_fopts_current_length - 8 );
 1716              		.loc 1 583 14 view .LVU471
 1717 0002 054C     		ldr	r4, .L91
 585:lr1mac/src/lr1mac_core.c **** 
 1718              		.loc 1 585 1 view .LVU472
 1719              		@ sp needed
 583:lr1mac/src/lr1mac_core.c ****              lr1_mac_obj.tx_fopts_current_length - 8 );
 1720              		.loc 1 583 14 view .LVU473
 1721 0004 2000     		movs	r0, r4
 1722 0006 A179     		ldrb	r1, [r4, #6]
 1723 0008 FFF7FEFF 		bl	smtc_real_max_payload_size_get
ARM GAS  /var/folders/bq/yv49bw8j2kd6w3hsq868qv180000gn/T//ccSmIUlm.s 			page 53


 1724              	.LVL127:
 584:lr1mac/src/lr1mac_core.c **** }
 1725              		.loc 1 584 25 view .LVU474
 1726 000c 9E23     		movs	r3, #158
 1727 000e 9B00     		lsls	r3, r3, #2
 1728 0010 E35C     		ldrb	r3, [r4, r3]
 583:lr1mac/src/lr1mac_core.c ****              lr1_mac_obj.tx_fopts_current_length - 8 );
 1729              		.loc 1 583 87 view .LVU475
 1730 0012 C01A     		subs	r0, r0, r3
 584:lr1mac/src/lr1mac_core.c **** }
 1731              		.loc 1 584 50 view .LVU476
 1732 0014 0838     		subs	r0, r0, #8
 585:lr1mac/src/lr1mac_core.c **** 
 1733              		.loc 1 585 1 view .LVU477
 1734 0016 10BD     		pop	{r4, pc}
 1735              	.L92:
 1736              		.align	2
 1737              	.L91:
 1738 0018 00000000 		.word	lr1_mac_obj
 1739              		.cfi_endproc
 1740              	.LFE31:
 1742              		.section	.text.lr1mac_core_next_dr_get,"ax",%progbits
 1743              		.align	1
 1744              		.global	lr1mac_core_next_dr_get
 1745              		.syntax unified
 1746              		.code	16
 1747              		.thumb_func
 1748              		.fpu softvfp
 1750              	lr1mac_core_next_dr_get:
 1751              	.LFB32:
 592:lr1mac/src/lr1mac_core.c ****     return ( lr1_mac_obj.tx_data_rate );
 1752              		.loc 1 592 1 is_stmt 1 view -0
 1753              		.cfi_startproc
 1754              		@ args = 0, pretend = 0, frame = 0
 1755              		@ frame_needed = 0, uses_anonymous_args = 0
 1756              		@ link register save eliminated.
 593:lr1mac/src/lr1mac_core.c **** }
 1757              		.loc 1 593 5 view .LVU479
 593:lr1mac/src/lr1mac_core.c **** }
 1758              		.loc 1 593 25 is_stmt 0 view .LVU480
 1759 0000 014B     		ldr	r3, .L94
 594:lr1mac/src/lr1mac_core.c **** 
 1760              		.loc 1 594 1 view .LVU481
 1761              		@ sp needed
 593:lr1mac/src/lr1mac_core.c **** }
 1762              		.loc 1 593 25 view .LVU482
 1763 0002 9879     		ldrb	r0, [r3, #6]
 594:lr1mac/src/lr1mac_core.c **** 
 1764              		.loc 1 594 1 view .LVU483
 1765 0004 7047     		bx	lr
 1766              	.L95:
 1767 0006 C046     		.align	2
 1768              	.L94:
 1769 0008 00000000 		.word	lr1_mac_obj
 1770              		.cfi_endproc
 1771              	.LFE32:
 1773              		.section	.text.lr1mac_core_next_frequency_get,"ax",%progbits
ARM GAS  /var/folders/bq/yv49bw8j2kd6w3hsq868qv180000gn/T//ccSmIUlm.s 			page 54


 1774              		.align	1
 1775              		.global	lr1mac_core_next_frequency_get
 1776              		.syntax unified
 1777              		.code	16
 1778              		.thumb_func
 1779              		.fpu softvfp
 1781              	lr1mac_core_next_frequency_get:
 1782              	.LFB33:
 597:lr1mac/src/lr1mac_core.c ****     return ( lr1_mac_obj.tx_frequency );
 1783              		.loc 1 597 1 is_stmt 1 view -0
 1784              		.cfi_startproc
 1785              		@ args = 0, pretend = 0, frame = 0
 1786              		@ frame_needed = 0, uses_anonymous_args = 0
 1787              		@ link register save eliminated.
 598:lr1mac/src/lr1mac_core.c **** }
 1788              		.loc 1 598 5 view .LVU485
 598:lr1mac/src/lr1mac_core.c **** }
 1789              		.loc 1 598 25 is_stmt 0 view .LVU486
 1790 0000 014A     		ldr	r2, .L97
 1791 0002 024B     		ldr	r3, .L97+4
 599:lr1mac/src/lr1mac_core.c **** 
 1792              		.loc 1 599 1 view .LVU487
 1793              		@ sp needed
 598:lr1mac/src/lr1mac_core.c **** }
 1794              		.loc 1 598 25 view .LVU488
 1795 0004 D058     		ldr	r0, [r2, r3]
 599:lr1mac/src/lr1mac_core.c **** 
 1796              		.loc 1 599 1 view .LVU489
 1797 0006 7047     		bx	lr
 1798              	.L98:
 1799              		.align	2
 1800              	.L97:
 1801 0008 00000000 		.word	lr1_mac_obj
 1802 000c E4050000 		.word	1508
 1803              		.cfi_endproc
 1804              	.LFE33:
 1806              		.section	.text.lr1mac_core_factory_reset,"ax",%progbits
 1807              		.align	1
 1808              		.global	lr1mac_core_factory_reset
 1809              		.syntax unified
 1810              		.code	16
 1811              		.thumb_func
 1812              		.fpu softvfp
 1814              	lr1mac_core_factory_reset:
 1815              	.LFB34:
 602:lr1mac/src/lr1mac_core.c ****     smtc_real_bad_crc_memory_set( &lr1_mac_obj );
 1816              		.loc 1 602 1 is_stmt 1 view -0
 1817              		.cfi_startproc
 1818              		@ args = 0, pretend = 0, frame = 0
 1819              		@ frame_needed = 0, uses_anonymous_args = 0
 603:lr1mac/src/lr1mac_core.c **** }
 1820              		.loc 1 603 5 view .LVU491
 602:lr1mac/src/lr1mac_core.c ****     smtc_real_bad_crc_memory_set( &lr1_mac_obj );
 1821              		.loc 1 602 1 is_stmt 0 view .LVU492
 1822 0000 10B5     		push	{r4, lr}
 1823              		.cfi_def_cfa_offset 8
 1824              		.cfi_offset 4, -8
ARM GAS  /var/folders/bq/yv49bw8j2kd6w3hsq868qv180000gn/T//ccSmIUlm.s 			page 55


 1825              		.cfi_offset 14, -4
 603:lr1mac/src/lr1mac_core.c **** }
 1826              		.loc 1 603 5 view .LVU493
 1827 0002 0248     		ldr	r0, .L100
 1828 0004 FFF7FEFF 		bl	smtc_real_bad_crc_memory_set
 1829              	.LVL128:
 604:lr1mac/src/lr1mac_core.c **** 
 1830              		.loc 1 604 1 view .LVU494
 1831              		@ sp needed
 1832 0008 10BD     		pop	{r4, pc}
 1833              	.L101:
 1834 000a C046     		.align	2
 1835              	.L100:
 1836 000c 00000000 		.word	lr1_mac_obj
 1837              		.cfi_endproc
 1838              	.LFE34:
 1840              		.section	.text.lr1mac_core_is_otaa_device,"ax",%progbits
 1841              		.align	1
 1842              		.global	lr1mac_core_is_otaa_device
 1843              		.syntax unified
 1844              		.code	16
 1845              		.thumb_func
 1846              		.fpu softvfp
 1848              	lr1mac_core_is_otaa_device:
 1849              	.LFB35:
 607:lr1mac/src/lr1mac_core.c ****     return ( type_otaa_abp_t ) lr1_mac_obj.otaa_device;
 1850              		.loc 1 607 1 is_stmt 1 view -0
 1851              		.cfi_startproc
 1852              		@ args = 0, pretend = 0, frame = 0
 1853              		@ frame_needed = 0, uses_anonymous_args = 0
 1854              		@ link register save eliminated.
 608:lr1mac/src/lr1mac_core.c **** }
 1855              		.loc 1 608 5 view .LVU496
 608:lr1mac/src/lr1mac_core.c **** }
 1856              		.loc 1 608 43 is_stmt 0 view .LVU497
 1857 0000 014B     		ldr	r3, .L103
 609:lr1mac/src/lr1mac_core.c **** 
 1858              		.loc 1 609 1 view .LVU498
 1859              		@ sp needed
 608:lr1mac/src/lr1mac_core.c **** }
 1860              		.loc 1 608 12 view .LVU499
 1861 0002 7033     		adds	r3, r3, #112
 1862 0004 1878     		ldrb	r0, [r3]
 609:lr1mac/src/lr1mac_core.c **** 
 1863              		.loc 1 609 1 view .LVU500
 1864 0006 7047     		bx	lr
 1865              	.L104:
 1866              		.align	2
 1867              	.L103:
 1868 0008 00000000 		.word	lr1_mac_obj
 1869              		.cfi_endproc
 1870              	.LFE35:
 1872              		.section	.text.lr1mac_core_otaa_set,"ax",%progbits
 1873              		.align	1
 1874              		.global	lr1mac_core_otaa_set
 1875              		.syntax unified
 1876              		.code	16
ARM GAS  /var/folders/bq/yv49bw8j2kd6w3hsq868qv180000gn/T//ccSmIUlm.s 			page 56


 1877              		.thumb_func
 1878              		.fpu softvfp
 1880              	lr1mac_core_otaa_set:
 1881              	.LVL129:
 1882              	.LFB36:
 612:lr1mac/src/lr1mac_core.c ****     lr1_mac_obj.otaa_device = deviceType;
 1883              		.loc 1 612 1 is_stmt 1 view -0
 1884              		.cfi_startproc
 1885              		@ args = 0, pretend = 0, frame = 0
 1886              		@ frame_needed = 0, uses_anonymous_args = 0
 1887              		@ link register save eliminated.
 613:lr1mac/src/lr1mac_core.c **** }
 1888              		.loc 1 613 5 view .LVU502
 613:lr1mac/src/lr1mac_core.c **** }
 1889              		.loc 1 613 29 is_stmt 0 view .LVU503
 1890 0000 431E     		subs	r3, r0, #1
 1891 0002 9841     		sbcs	r0, r0, r3
 1892              	.LVL130:
 613:lr1mac/src/lr1mac_core.c **** }
 1893              		.loc 1 613 29 view .LVU504
 1894 0004 014B     		ldr	r3, .L106
 614:lr1mac/src/lr1mac_core.c **** radio_planner_t* lr1mac_core_rp_get( void )
 1895              		.loc 1 614 1 view .LVU505
 1896              		@ sp needed
 613:lr1mac/src/lr1mac_core.c **** }
 1897              		.loc 1 613 29 view .LVU506
 1898 0006 7033     		adds	r3, r3, #112
 1899 0008 1870     		strb	r0, [r3]
 614:lr1mac/src/lr1mac_core.c **** radio_planner_t* lr1mac_core_rp_get( void )
 1900              		.loc 1 614 1 view .LVU507
 1901 000a 7047     		bx	lr
 1902              	.L107:
 1903              		.align	2
 1904              	.L106:
 1905 000c 00000000 		.word	lr1_mac_obj
 1906              		.cfi_endproc
 1907              	.LFE36:
 1909              		.section	.text.lr1mac_core_rp_get,"ax",%progbits
 1910              		.align	1
 1911              		.global	lr1mac_core_rp_get
 1912              		.syntax unified
 1913              		.code	16
 1914              		.thumb_func
 1915              		.fpu softvfp
 1917              	lr1mac_core_rp_get:
 1918              	.LFB37:
 616:lr1mac/src/lr1mac_core.c ****     return lr1_mac_obj.rp;
 1919              		.loc 1 616 1 is_stmt 1 view -0
 1920              		.cfi_startproc
 1921              		@ args = 0, pretend = 0, frame = 0
 1922              		@ frame_needed = 0, uses_anonymous_args = 0
 1923              		@ link register save eliminated.
 617:lr1mac/src/lr1mac_core.c **** }
 1924              		.loc 1 617 5 view .LVU509
 617:lr1mac/src/lr1mac_core.c **** }
 1925              		.loc 1 617 23 is_stmt 0 view .LVU510
 1926 0000 014A     		ldr	r2, .L109
ARM GAS  /var/folders/bq/yv49bw8j2kd6w3hsq868qv180000gn/T//ccSmIUlm.s 			page 57


 1927 0002 024B     		ldr	r3, .L109+4
 618:lr1mac/src/lr1mac_core.c **** int8_t lr1mac_core_tx_power_offset_get( void )
 1928              		.loc 1 618 1 view .LVU511
 1929              		@ sp needed
 617:lr1mac/src/lr1mac_core.c **** }
 1930              		.loc 1 617 23 view .LVU512
 1931 0004 D058     		ldr	r0, [r2, r3]
 618:lr1mac/src/lr1mac_core.c **** int8_t lr1mac_core_tx_power_offset_get( void )
 1932              		.loc 1 618 1 view .LVU513
 1933 0006 7047     		bx	lr
 1934              	.L110:
 1935              		.align	2
 1936              	.L109:
 1937 0008 00000000 		.word	lr1_mac_obj
 1938 000c F4050000 		.word	1524
 1939              		.cfi_endproc
 1940              	.LFE37:
 1942              		.section	.text.lr1mac_core_tx_power_offset_get,"ax",%progbits
 1943              		.align	1
 1944              		.global	lr1mac_core_tx_power_offset_get
 1945              		.syntax unified
 1946              		.code	16
 1947              		.thumb_func
 1948              		.fpu softvfp
 1950              	lr1mac_core_tx_power_offset_get:
 1951              	.LFB38:
 620:lr1mac/src/lr1mac_core.c ****     return lr1_mac_obj.tx_power_offset;
 1952              		.loc 1 620 1 is_stmt 1 view -0
 1953              		.cfi_startproc
 1954              		@ args = 0, pretend = 0, frame = 0
 1955              		@ frame_needed = 0, uses_anonymous_args = 0
 1956              		@ link register save eliminated.
 621:lr1mac/src/lr1mac_core.c **** }
 1957              		.loc 1 621 5 view .LVU515
 621:lr1mac/src/lr1mac_core.c **** }
 1958              		.loc 1 621 23 is_stmt 0 view .LVU516
 1959 0000 0920     		movs	r0, #9
 1960 0002 014B     		ldr	r3, .L112
 622:lr1mac/src/lr1mac_core.c **** void lr1mac_core_tx_power_offset_set( int8_t power_off )
 1961              		.loc 1 622 1 view .LVU517
 1962              		@ sp needed
 621:lr1mac/src/lr1mac_core.c **** }
 1963              		.loc 1 621 23 view .LVU518
 1964 0004 1856     		ldrsb	r0, [r3, r0]
 622:lr1mac/src/lr1mac_core.c **** void lr1mac_core_tx_power_offset_set( int8_t power_off )
 1965              		.loc 1 622 1 view .LVU519
 1966 0006 7047     		bx	lr
 1967              	.L113:
 1968              		.align	2
 1969              	.L112:
 1970 0008 00000000 		.word	lr1_mac_obj
 1971              		.cfi_endproc
 1972              	.LFE38:
 1974              		.section	.text.lr1mac_core_tx_power_offset_set,"ax",%progbits
 1975              		.align	1
 1976              		.global	lr1mac_core_tx_power_offset_set
 1977              		.syntax unified
ARM GAS  /var/folders/bq/yv49bw8j2kd6w3hsq868qv180000gn/T//ccSmIUlm.s 			page 58


 1978              		.code	16
 1979              		.thumb_func
 1980              		.fpu softvfp
 1982              	lr1mac_core_tx_power_offset_set:
 1983              	.LVL131:
 1984              	.LFB39:
 624:lr1mac/src/lr1mac_core.c ****     lr1_mac_obj.tx_power_offset = power_off;
 1985              		.loc 1 624 1 is_stmt 1 view -0
 1986              		.cfi_startproc
 1987              		@ args = 0, pretend = 0, frame = 0
 1988              		@ frame_needed = 0, uses_anonymous_args = 0
 1989              		@ link register save eliminated.
 625:lr1mac/src/lr1mac_core.c **** }
 1990              		.loc 1 625 5 view .LVU521
 625:lr1mac/src/lr1mac_core.c **** }
 1991              		.loc 1 625 33 is_stmt 0 view .LVU522
 1992 0000 014B     		ldr	r3, .L115
 626:lr1mac/src/lr1mac_core.c **** 
 1993              		.loc 1 626 1 view .LVU523
 1994              		@ sp needed
 625:lr1mac/src/lr1mac_core.c **** }
 1995              		.loc 1 625 33 view .LVU524
 1996 0002 5872     		strb	r0, [r3, #9]
 626:lr1mac/src/lr1mac_core.c **** 
 1997              		.loc 1 626 1 view .LVU525
 1998 0004 7047     		bx	lr
 1999              	.L116:
 2000 0006 C046     		.align	2
 2001              	.L115:
 2002 0008 00000000 		.word	lr1_mac_obj
 2003              		.cfi_endproc
 2004              	.LFE39:
 2006              		.section	.text.lr1mac_core_nb_reset_get,"ax",%progbits
 2007              		.align	1
 2008              		.global	lr1mac_core_nb_reset_get
 2009              		.syntax unified
 2010              		.code	16
 2011              		.thumb_func
 2012              		.fpu softvfp
 2014              	lr1mac_core_nb_reset_get:
 2015              	.LFB40:
 629:lr1mac/src/lr1mac_core.c ****     return lr1_mac_obj.nb_of_reset;
 2016              		.loc 1 629 1 is_stmt 1 view -0
 2017              		.cfi_startproc
 2018              		@ args = 0, pretend = 0, frame = 0
 2019              		@ frame_needed = 0, uses_anonymous_args = 0
 2020              		@ link register save eliminated.
 630:lr1mac/src/lr1mac_core.c **** }
 2021              		.loc 1 630 5 view .LVU527
 630:lr1mac/src/lr1mac_core.c **** }
 2022              		.loc 1 630 23 is_stmt 0 view .LVU528
 2023 0000 014B     		ldr	r3, .L118
 631:lr1mac/src/lr1mac_core.c **** 
 2024              		.loc 1 631 1 view .LVU529
 2025              		@ sp needed
 630:lr1mac/src/lr1mac_core.c **** }
 2026              		.loc 1 630 23 view .LVU530
ARM GAS  /var/folders/bq/yv49bw8j2kd6w3hsq868qv180000gn/T//ccSmIUlm.s 			page 59


 2027 0002 9888     		ldrh	r0, [r3, #4]
 631:lr1mac/src/lr1mac_core.c **** 
 2028              		.loc 1 631 1 view .LVU531
 2029 0004 7047     		bx	lr
 2030              	.L119:
 2031 0006 C046     		.align	2
 2032              	.L118:
 2033 0008 00000000 		.word	lr1_mac_obj
 2034              		.cfi_endproc
 2035              	.LFE40:
 2037              		.section	.text.lr1mac_core_devnonce_get,"ax",%progbits
 2038              		.align	1
 2039              		.global	lr1mac_core_devnonce_get
 2040              		.syntax unified
 2041              		.code	16
 2042              		.thumb_func
 2043              		.fpu softvfp
 2045              	lr1mac_core_devnonce_get:
 2046              	.LFB41:
 634:lr1mac/src/lr1mac_core.c ****     return lr1_mac_obj.dev_nonce;
 2047              		.loc 1 634 1 is_stmt 1 view -0
 2048              		.cfi_startproc
 2049              		@ args = 0, pretend = 0, frame = 0
 2050              		@ frame_needed = 0, uses_anonymous_args = 0
 2051              		@ link register save eliminated.
 635:lr1mac/src/lr1mac_core.c **** }
 2052              		.loc 1 635 5 view .LVU533
 635:lr1mac/src/lr1mac_core.c **** }
 2053              		.loc 1 635 23 is_stmt 0 view .LVU534
 2054 0000 EA23     		movs	r3, #234
 2055 0002 024A     		ldr	r2, .L121
 2056 0004 9B00     		lsls	r3, r3, #2
 2057 0006 D05A     		ldrh	r0, [r2, r3]
 636:lr1mac/src/lr1mac_core.c **** 
 2058              		.loc 1 636 1 view .LVU535
 2059              		@ sp needed
 2060 0008 7047     		bx	lr
 2061              	.L122:
 2062 000a C046     		.align	2
 2063              	.L121:
 2064 000c 00000000 		.word	lr1_mac_obj
 2065              		.cfi_endproc
 2066              	.LFE41:
 2068              		.section	.text.lr1mac_core_last_snr_get,"ax",%progbits
 2069              		.align	1
 2070              		.global	lr1mac_core_last_snr_get
 2071              		.syntax unified
 2072              		.code	16
 2073              		.thumb_func
 2074              		.fpu softvfp
 2076              	lr1mac_core_last_snr_get:
 2077              	.LFB42:
 639:lr1mac/src/lr1mac_core.c ****     return lr1_mac_obj.rx_snr;
 2078              		.loc 1 639 1 is_stmt 1 view -0
 2079              		.cfi_startproc
 2080              		@ args = 0, pretend = 0, frame = 0
 2081              		@ frame_needed = 0, uses_anonymous_args = 0
ARM GAS  /var/folders/bq/yv49bw8j2kd6w3hsq868qv180000gn/T//ccSmIUlm.s 			page 60


 2082              		@ link register save eliminated.
 640:lr1mac/src/lr1mac_core.c **** }
 2083              		.loc 1 640 5 view .LVU537
 640:lr1mac/src/lr1mac_core.c **** }
 2084              		.loc 1 640 23 is_stmt 0 view .LVU538
 2085 0000 C023     		movs	r3, #192
 2086 0002 024A     		ldr	r2, .L124
 2087 0004 DB00     		lsls	r3, r3, #3
 2088 0006 D05E     		ldrsh	r0, [r2, r3]
 641:lr1mac/src/lr1mac_core.c **** 
 2089              		.loc 1 641 1 view .LVU539
 2090              		@ sp needed
 2091 0008 7047     		bx	lr
 2092              	.L125:
 2093 000a C046     		.align	2
 2094              	.L124:
 2095 000c 00000000 		.word	lr1_mac_obj
 2096              		.cfi_endproc
 2097              	.LFE42:
 2099              		.section	.text.lr1mac_core_last_rssi_get,"ax",%progbits
 2100              		.align	1
 2101              		.global	lr1mac_core_last_rssi_get
 2102              		.syntax unified
 2103              		.code	16
 2104              		.thumb_func
 2105              		.fpu softvfp
 2107              	lr1mac_core_last_rssi_get:
 2108              	.LFB43:
 644:lr1mac/src/lr1mac_core.c ****     return lr1_mac_obj.rx_rssi;
 2109              		.loc 1 644 1 is_stmt 1 view -0
 2110              		.cfi_startproc
 2111              		@ args = 0, pretend = 0, frame = 0
 2112              		@ frame_needed = 0, uses_anonymous_args = 0
 2113              		@ link register save eliminated.
 645:lr1mac/src/lr1mac_core.c **** }
 2114              		.loc 1 645 5 view .LVU541
 645:lr1mac/src/lr1mac_core.c **** }
 2115              		.loc 1 645 23 is_stmt 0 view .LVU542
 2116 0000 014A     		ldr	r2, .L127
 2117 0002 024B     		ldr	r3, .L127+4
 646:lr1mac/src/lr1mac_core.c **** 
 2118              		.loc 1 646 1 view .LVU543
 2119              		@ sp needed
 645:lr1mac/src/lr1mac_core.c **** }
 2120              		.loc 1 645 23 view .LVU544
 2121 0004 D05E     		ldrsh	r0, [r2, r3]
 646:lr1mac/src/lr1mac_core.c **** 
 2122              		.loc 1 646 1 view .LVU545
 2123 0006 7047     		bx	lr
 2124              	.L128:
 2125              		.align	2
 2126              	.L127:
 2127 0008 00000000 		.word	lr1_mac_obj
 2128 000c 02060000 		.word	1538
 2129              		.cfi_endproc
 2130              	.LFE43:
 2132              		.section	.rodata.lr1mac_core_min_dr_get.str1.1,"aMS",%progbits,1
ARM GAS  /var/folders/bq/yv49bw8j2kd6w3hsq868qv180000gn/T//ccSmIUlm.s 			page 61


 2133              	.LC86:
 2134 0000 4D696E20 		.ascii	"Min DataRate = %d\012\000"
 2134      44617461 
 2134      52617465 
 2134      203D2025 
 2134      640A00
 2135              		.section	.text.lr1mac_core_min_dr_get,"ax",%progbits
 2136              		.align	1
 2137              		.global	lr1mac_core_min_dr_get
 2138              		.syntax unified
 2139              		.code	16
 2140              		.thumb_func
 2141              		.fpu softvfp
 2143              	lr1mac_core_min_dr_get:
 2144              	.LFB44:
 649:lr1mac/src/lr1mac_core.c ****     uint8_t tmp = lr1_stack_mac_min_dr_get( &lr1_mac_obj );
 2145              		.loc 1 649 1 is_stmt 1 view -0
 2146              		.cfi_startproc
 2147              		@ args = 0, pretend = 0, frame = 0
 2148              		@ frame_needed = 0, uses_anonymous_args = 0
 650:lr1mac/src/lr1mac_core.c ****     BSP_DBG_TRACE_PRINTF( "Min DataRate = %d\n", tmp );
 2149              		.loc 1 650 5 view .LVU547
 649:lr1mac/src/lr1mac_core.c ****     uint8_t tmp = lr1_stack_mac_min_dr_get( &lr1_mac_obj );
 2150              		.loc 1 649 1 is_stmt 0 view .LVU548
 2151 0000 10B5     		push	{r4, lr}
 2152              		.cfi_def_cfa_offset 8
 2153              		.cfi_offset 4, -8
 2154              		.cfi_offset 14, -4
 650:lr1mac/src/lr1mac_core.c ****     BSP_DBG_TRACE_PRINTF( "Min DataRate = %d\n", tmp );
 2155              		.loc 1 650 19 view .LVU549
 2156 0002 0548     		ldr	r0, .L130
 2157 0004 FFF7FEFF 		bl	lr1_stack_mac_min_dr_get
 2158              	.LVL132:
 2159 0008 0400     		movs	r4, r0
 2160              	.LVL133:
 651:lr1mac/src/lr1mac_core.c ****     return ( tmp );
 2161              		.loc 1 651 5 is_stmt 1 view .LVU550
 2162 000a 0100     		movs	r1, r0
 2163 000c 0348     		ldr	r0, .L130+4
 2164              	.LVL134:
 651:lr1mac/src/lr1mac_core.c ****     return ( tmp );
 2165              		.loc 1 651 5 is_stmt 0 view .LVU551
 2166 000e FFF7FEFF 		bl	bsp_trace_print
 2167              	.LVL135:
 652:lr1mac/src/lr1mac_core.c **** }
 2168              		.loc 1 652 5 is_stmt 1 view .LVU552
 653:lr1mac/src/lr1mac_core.c **** uint8_t lr1mac_core_max_dr_get( void )
 2169              		.loc 1 653 1 is_stmt 0 view .LVU553
 2170              		@ sp needed
 2171 0012 2000     		movs	r0, r4
 2172 0014 10BD     		pop	{r4, pc}
 2173              	.L131:
 2174 0016 C046     		.align	2
 2175              	.L130:
 2176 0018 00000000 		.word	lr1_mac_obj
 2177 001c 00000000 		.word	.LC86
 2178              		.cfi_endproc
ARM GAS  /var/folders/bq/yv49bw8j2kd6w3hsq868qv180000gn/T//ccSmIUlm.s 			page 62


 2179              	.LFE44:
 2181              		.section	.rodata.lr1mac_core_max_dr_get.str1.1,"aMS",%progbits,1
 2182              	.LC89:
 2183 0000 4D617820 		.ascii	"Max DataRate = %d\012\000"
 2183      44617461 
 2183      52617465 
 2183      203D2025 
 2183      640A00
 2184              		.section	.text.lr1mac_core_max_dr_get,"ax",%progbits
 2185              		.align	1
 2186              		.global	lr1mac_core_max_dr_get
 2187              		.syntax unified
 2188              		.code	16
 2189              		.thumb_func
 2190              		.fpu softvfp
 2192              	lr1mac_core_max_dr_get:
 2193              	.LFB45:
 655:lr1mac/src/lr1mac_core.c ****     uint8_t tmp = lr1_stack_mac_max_dr_get( &lr1_mac_obj );
 2194              		.loc 1 655 1 is_stmt 1 view -0
 2195              		.cfi_startproc
 2196              		@ args = 0, pretend = 0, frame = 0
 2197              		@ frame_needed = 0, uses_anonymous_args = 0
 656:lr1mac/src/lr1mac_core.c ****     BSP_DBG_TRACE_PRINTF( "Max DataRate = %d\n", tmp );
 2198              		.loc 1 656 5 view .LVU555
 655:lr1mac/src/lr1mac_core.c ****     uint8_t tmp = lr1_stack_mac_max_dr_get( &lr1_mac_obj );
 2199              		.loc 1 655 1 is_stmt 0 view .LVU556
 2200 0000 10B5     		push	{r4, lr}
 2201              		.cfi_def_cfa_offset 8
 2202              		.cfi_offset 4, -8
 2203              		.cfi_offset 14, -4
 656:lr1mac/src/lr1mac_core.c ****     BSP_DBG_TRACE_PRINTF( "Max DataRate = %d\n", tmp );
 2204              		.loc 1 656 19 view .LVU557
 2205 0002 0548     		ldr	r0, .L133
 2206 0004 FFF7FEFF 		bl	lr1_stack_mac_max_dr_get
 2207              	.LVL136:
 2208 0008 0400     		movs	r4, r0
 2209              	.LVL137:
 657:lr1mac/src/lr1mac_core.c ****     return ( tmp );
 2210              		.loc 1 657 5 is_stmt 1 view .LVU558
 2211 000a 0100     		movs	r1, r0
 2212 000c 0348     		ldr	r0, .L133+4
 2213              	.LVL138:
 657:lr1mac/src/lr1mac_core.c ****     return ( tmp );
 2214              		.loc 1 657 5 is_stmt 0 view .LVU559
 2215 000e FFF7FEFF 		bl	bsp_trace_print
 2216              	.LVL139:
 658:lr1mac/src/lr1mac_core.c **** }
 2217              		.loc 1 658 5 is_stmt 1 view .LVU560
 659:lr1mac/src/lr1mac_core.c **** 
 2218              		.loc 1 659 1 is_stmt 0 view .LVU561
 2219              		@ sp needed
 2220 0012 2000     		movs	r0, r4
 2221 0014 10BD     		pop	{r4, pc}
 2222              	.L134:
 2223 0016 C046     		.align	2
 2224              	.L133:
 2225 0018 00000000 		.word	lr1_mac_obj
ARM GAS  /var/folders/bq/yv49bw8j2kd6w3hsq868qv180000gn/T//ccSmIUlm.s 			page 63


 2226 001c 00000000 		.word	.LC89
 2227              		.cfi_endproc
 2228              	.LFE45:
 2230              		.section	.text.lr1mac_core_apps_key_get,"ax",%progbits
 2231              		.align	1
 2232              		.global	lr1mac_core_apps_key_get
 2233              		.syntax unified
 2234              		.code	16
 2235              		.thumb_func
 2236              		.fpu softvfp
 2238              	lr1mac_core_apps_key_get:
 2239              	.LVL140:
 2240              	.LFB46:
 662:lr1mac/src/lr1mac_core.c ****     memcpy( key, lr1_mac_obj.app_skey, 16 );
 2241              		.loc 1 662 1 is_stmt 1 view -0
 2242              		.cfi_startproc
 2243              		@ args = 0, pretend = 0, frame = 0
 2244              		@ frame_needed = 0, uses_anonymous_args = 0
 663:lr1mac/src/lr1mac_core.c **** }
 2245              		.loc 1 663 5 view .LVU563
 662:lr1mac/src/lr1mac_core.c ****     memcpy( key, lr1_mac_obj.app_skey, 16 );
 2246              		.loc 1 662 1 is_stmt 0 view .LVU564
 2247 0000 10B5     		push	{r4, lr}
 2248              		.cfi_def_cfa_offset 8
 2249              		.cfi_offset 4, -8
 2250              		.cfi_offset 14, -4
 663:lr1mac/src/lr1mac_core.c **** }
 2251              		.loc 1 663 5 view .LVU565
 2252 0002 1022     		movs	r2, #16
 2253 0004 0149     		ldr	r1, .L136
 2254 0006 FFF7FEFF 		bl	memcpy
 2255              	.LVL141:
 664:lr1mac/src/lr1mac_core.c **** 
 2256              		.loc 1 664 1 view .LVU566
 2257              		@ sp needed
 2258 000a 10BD     		pop	{r4, pc}
 2259              	.L137:
 2260              		.align	2
 2261              	.L136:
 2262 000c 40000000 		.word	lr1_mac_obj+64
 2263              		.cfi_endproc
 2264              	.LFE46:
 2266              		.section	.text.lr1mac_core_context_load,"ax",%progbits
 2267              		.align	1
 2268              		.global	lr1mac_core_context_load
 2269              		.syntax unified
 2270              		.code	16
 2271              		.thumb_func
 2272              		.fpu softvfp
 2274              	lr1mac_core_context_load:
 2275              	.LFB47:
 667:lr1mac/src/lr1mac_core.c ****     return smtc_real_memory_load( &lr1_mac_obj );
 2276              		.loc 1 667 1 is_stmt 1 view -0
 2277              		.cfi_startproc
 2278              		@ args = 0, pretend = 0, frame = 0
 2279              		@ frame_needed = 0, uses_anonymous_args = 0
 668:lr1mac/src/lr1mac_core.c **** }
ARM GAS  /var/folders/bq/yv49bw8j2kd6w3hsq868qv180000gn/T//ccSmIUlm.s 			page 64


 2280              		.loc 1 668 5 view .LVU568
 667:lr1mac/src/lr1mac_core.c ****     return smtc_real_memory_load( &lr1_mac_obj );
 2281              		.loc 1 667 1 is_stmt 0 view .LVU569
 2282 0000 10B5     		push	{r4, lr}
 2283              		.cfi_def_cfa_offset 8
 2284              		.cfi_offset 4, -8
 2285              		.cfi_offset 14, -4
 668:lr1mac/src/lr1mac_core.c **** }
 2286              		.loc 1 668 12 view .LVU570
 2287 0002 0248     		ldr	r0, .L139
 2288 0004 FFF7FEFF 		bl	smtc_real_memory_load
 2289              	.LVL142:
 669:lr1mac/src/lr1mac_core.c **** receive_win_t lr1mac_core_rx_window_get( void )
 2290              		.loc 1 669 1 view .LVU571
 2291              		@ sp needed
 2292 0008 10BD     		pop	{r4, pc}
 2293              	.L140:
 2294 000a C046     		.align	2
 2295              	.L139:
 2296 000c 00000000 		.word	lr1_mac_obj
 2297              		.cfi_endproc
 2298              	.LFE47:
 2300              		.section	.text.lr1mac_core_rx_window_get,"ax",%progbits
 2301              		.align	1
 2302              		.global	lr1mac_core_rx_window_get
 2303              		.syntax unified
 2304              		.code	16
 2305              		.thumb_func
 2306              		.fpu softvfp
 2308              	lr1mac_core_rx_window_get:
 2309              	.LFB48:
 671:lr1mac/src/lr1mac_core.c ****     return ( receive_window_type );
 2310              		.loc 1 671 1 is_stmt 1 view -0
 2311              		.cfi_startproc
 2312              		@ args = 0, pretend = 0, frame = 0
 2313              		@ frame_needed = 0, uses_anonymous_args = 0
 2314              		@ link register save eliminated.
 672:lr1mac/src/lr1mac_core.c **** }
 2315              		.loc 1 672 5 view .LVU573
 672:lr1mac/src/lr1mac_core.c **** }
 2316              		.loc 1 672 12 is_stmt 0 view .LVU574
 2317 0000 014B     		ldr	r3, .L142
 673:lr1mac/src/lr1mac_core.c **** uint32_t lr1mac_core_fcnt_up_get( void )
 2318              		.loc 1 673 1 view .LVU575
 2319              		@ sp needed
 672:lr1mac/src/lr1mac_core.c **** }
 2320              		.loc 1 672 12 view .LVU576
 2321 0002 1878     		ldrb	r0, [r3]
 673:lr1mac/src/lr1mac_core.c **** uint32_t lr1mac_core_fcnt_up_get( void )
 2322              		.loc 1 673 1 view .LVU577
 2323 0004 7047     		bx	lr
 2324              	.L143:
 2325 0006 C046     		.align	2
 2326              	.L142:
 2327 0008 00000000 		.word	.LANCHOR1
 2328              		.cfi_endproc
 2329              	.LFE48:
ARM GAS  /var/folders/bq/yv49bw8j2kd6w3hsq868qv180000gn/T//ccSmIUlm.s 			page 65


 2331              		.section	.text.lr1mac_core_fcnt_up_get,"ax",%progbits
 2332              		.align	1
 2333              		.global	lr1mac_core_fcnt_up_get
 2334              		.syntax unified
 2335              		.code	16
 2336              		.thumb_func
 2337              		.fpu softvfp
 2339              	lr1mac_core_fcnt_up_get:
 2340              	.LFB49:
 675:lr1mac/src/lr1mac_core.c ****     return ( lr1_mac_obj.fcnt_up );
 2341              		.loc 1 675 1 is_stmt 1 view -0
 2342              		.cfi_startproc
 2343              		@ args = 0, pretend = 0, frame = 0
 2344              		@ frame_needed = 0, uses_anonymous_args = 0
 2345              		@ link register save eliminated.
 676:lr1mac/src/lr1mac_core.c **** }
 2346              		.loc 1 676 5 view .LVU579
 676:lr1mac/src/lr1mac_core.c **** }
 2347              		.loc 1 676 25 is_stmt 0 view .LVU580
 2348 0000 014B     		ldr	r3, .L145
 677:lr1mac/src/lr1mac_core.c **** uint32_t lr1mac_core_next_join_time_second_get( void )
 2349              		.loc 1 677 1 view .LVU581
 2350              		@ sp needed
 676:lr1mac/src/lr1mac_core.c **** }
 2351              		.loc 1 676 25 view .LVU582
 2352 0002 586A     		ldr	r0, [r3, #36]
 677:lr1mac/src/lr1mac_core.c **** uint32_t lr1mac_core_next_join_time_second_get( void )
 2353              		.loc 1 677 1 view .LVU583
 2354 0004 7047     		bx	lr
 2355              	.L146:
 2356 0006 C046     		.align	2
 2357              	.L145:
 2358 0008 00000000 		.word	lr1_mac_obj
 2359              		.cfi_endproc
 2360              	.LFE49:
 2362              		.section	.text.lr1mac_core_next_join_time_second_get,"ax",%progbits
 2363              		.align	1
 2364              		.global	lr1mac_core_next_join_time_second_get
 2365              		.syntax unified
 2366              		.code	16
 2367              		.thumb_func
 2368              		.fpu softvfp
 2370              	lr1mac_core_next_join_time_second_get:
 2371              	.LFB50:
 679:lr1mac/src/lr1mac_core.c ****     return ( lr1_mac_obj.next_time_to_join_seconds );
 2372              		.loc 1 679 1 is_stmt 1 view -0
 2373              		.cfi_startproc
 2374              		@ args = 0, pretend = 0, frame = 0
 2375              		@ frame_needed = 0, uses_anonymous_args = 0
 2376              		@ link register save eliminated.
 680:lr1mac/src/lr1mac_core.c **** }
 2377              		.loc 1 680 5 view .LVU585
 680:lr1mac/src/lr1mac_core.c **** }
 2378              		.loc 1 680 25 is_stmt 0 view .LVU586
 2379 0000 014A     		ldr	r2, .L148
 2380 0002 024B     		ldr	r3, .L148+4
 681:lr1mac/src/lr1mac_core.c **** int32_t lr1mac_core_next_free_duty_cycle_ms_get( void )
ARM GAS  /var/folders/bq/yv49bw8j2kd6w3hsq868qv180000gn/T//ccSmIUlm.s 			page 66


 2381              		.loc 1 681 1 view .LVU587
 2382              		@ sp needed
 680:lr1mac/src/lr1mac_core.c **** }
 2383              		.loc 1 680 25 view .LVU588
 2384 0004 D058     		ldr	r0, [r2, r3]
 681:lr1mac/src/lr1mac_core.c **** int32_t lr1mac_core_next_free_duty_cycle_ms_get( void )
 2385              		.loc 1 681 1 view .LVU589
 2386 0006 7047     		bx	lr
 2387              	.L149:
 2388              		.align	2
 2389              	.L148:
 2390 0008 00000000 		.word	lr1_mac_obj
 2391 000c D4050000 		.word	1492
 2392              		.cfi_endproc
 2393              	.LFE50:
 2395              		.section	.text.lr1mac_core_next_free_duty_cycle_ms_get,"ax",%progbits
 2396              		.align	1
 2397              		.global	lr1mac_core_next_free_duty_cycle_ms_get
 2398              		.syntax unified
 2399              		.code	16
 2400              		.thumb_func
 2401              		.fpu softvfp
 2403              	lr1mac_core_next_free_duty_cycle_ms_get:
 2404              	.LFB51:
 683:lr1mac/src/lr1mac_core.c ****     int32_t nwk_dtc    = lr1_stack_network_next_free_duty_cycle_ms_get( &lr1_mac_obj );
 2405              		.loc 1 683 1 is_stmt 1 view -0
 2406              		.cfi_startproc
 2407              		@ args = 0, pretend = 0, frame = 0
 2408              		@ frame_needed = 0, uses_anonymous_args = 0
 684:lr1mac/src/lr1mac_core.c ****     int32_t region_dtc = smtc_real_next_free_duty_cycle_ms_get( &lr1_mac_obj );
 2409              		.loc 1 684 5 view .LVU591
 683:lr1mac/src/lr1mac_core.c ****     int32_t nwk_dtc    = lr1_stack_network_next_free_duty_cycle_ms_get( &lr1_mac_obj );
 2410              		.loc 1 683 1 is_stmt 0 view .LVU592
 2411 0000 70B5     		push	{r4, r5, r6, lr}
 2412              		.cfi_def_cfa_offset 16
 2413              		.cfi_offset 4, -16
 2414              		.cfi_offset 5, -12
 2415              		.cfi_offset 6, -8
 2416              		.cfi_offset 14, -4
 684:lr1mac/src/lr1mac_core.c ****     int32_t region_dtc = smtc_real_next_free_duty_cycle_ms_get( &lr1_mac_obj );
 2417              		.loc 1 684 26 view .LVU593
 2418 0002 074D     		ldr	r5, .L152
 2419 0004 2800     		movs	r0, r5
 2420 0006 FFF7FEFF 		bl	lr1_stack_network_next_free_duty_cycle_ms_get
 2421              	.LVL143:
 2422 000a 0400     		movs	r4, r0
 2423              	.LVL144:
 685:lr1mac/src/lr1mac_core.c **** 
 2424              		.loc 1 685 5 is_stmt 1 view .LVU594
 685:lr1mac/src/lr1mac_core.c **** 
 2425              		.loc 1 685 26 is_stmt 0 view .LVU595
 2426 000c 2800     		movs	r0, r5
 2427              	.LVL145:
 685:lr1mac/src/lr1mac_core.c **** 
 2428              		.loc 1 685 26 view .LVU596
 2429 000e FFF7FEFF 		bl	smtc_real_next_free_duty_cycle_ms_get
 2430              	.LVL146:
ARM GAS  /var/folders/bq/yv49bw8j2kd6w3hsq868qv180000gn/T//ccSmIUlm.s 			page 67


 2431 0012 0300     		movs	r3, r0
 2432              	.LVL147:
 687:lr1mac/src/lr1mac_core.c **** }
 2433              		.loc 1 687 5 is_stmt 1 view .LVU597
 687:lr1mac/src/lr1mac_core.c **** }
 2434              		.loc 1 687 14 is_stmt 0 view .LVU598
 2435 0014 2000     		movs	r0, r4
 2436              	.LVL148:
 687:lr1mac/src/lr1mac_core.c **** }
 2437              		.loc 1 687 14 view .LVU599
 2438 0016 9C42     		cmp	r4, r3
 2439 0018 00DA     		bge	.L151
 2440 001a 1800     		movs	r0, r3
 2441              	.L151:
 688:lr1mac/src/lr1mac_core.c **** void lr1mac_core_duty_cycle_enable_set( uint8_t enable )
 2442              		.loc 1 688 1 view .LVU600
 2443              		@ sp needed
 2444              	.LVL149:
 688:lr1mac/src/lr1mac_core.c **** void lr1mac_core_duty_cycle_enable_set( uint8_t enable )
 2445              		.loc 1 688 1 view .LVU601
 2446 001c 70BD     		pop	{r4, r5, r6, pc}
 2447              	.L153:
 2448 001e C046     		.align	2
 2449              	.L152:
 2450 0020 00000000 		.word	lr1_mac_obj
 2451              		.cfi_endproc
 2452              	.LFE51:
 2454              		.section	.rodata.lr1mac_core_payload_send.str1.1,"aMS",%progbits,1
 2455              	.LC100:
 2456 0000 5041594C 		.ascii	"PAYLOAD SIZE TOO HIGH \012\000"
 2456      4F414420 
 2456      53495A45 
 2456      20544F4F 
 2456      20484947 
 2457              	.LC105:
 2458 0018 1B5B303B 		.ascii	"\033[0;33m\000"
 2458      33336D00 
 2459              	.LC107:
 2460 0020 5741524E 		.ascii	"WARN : \000"
 2460      203A2000 
 2461              	.LC109:
 2462 0028 4E4F2043 		.ascii	"NO CHANNEL AVAILABLE\012\000"
 2462      48414E4E 
 2462      454C2041 
 2462      5641494C 
 2462      41424C45 
 2463              	.LC111:
 2464 003e 44757479 		.ascii	"Duty Cycle is full\012\000"
 2464      20437963 
 2464      6C652069 
 2464      73206675 
 2464      6C6C0A00 
 2465              		.section	.text.lr1mac_core_payload_send,"ax",%progbits
 2466              		.align	1
 2467              		.global	lr1mac_core_payload_send
 2468              		.syntax unified
 2469              		.code	16
ARM GAS  /var/folders/bq/yv49bw8j2kd6w3hsq868qv180000gn/T//ccSmIUlm.s 			page 68


 2470              		.thumb_func
 2471              		.fpu softvfp
 2473              	lr1mac_core_payload_send:
 2474              	.LVL150:
 2475              	.LFB16:
 379:lr1mac/src/lr1mac_core.c ****     status_lorawan_t status;
 2476              		.loc 1 379 1 is_stmt 1 view -0
 2477              		.cfi_startproc
 2478              		@ args = 4, pretend = 0, frame = 8
 2479              		@ frame_needed = 0, uses_anonymous_args = 0
 380:lr1mac/src/lr1mac_core.c ****     status = smtc_real_is_valid_size( &lr1_mac_obj, lr1_mac_obj.tx_data_rate, size_in );
 2480              		.loc 1 380 5 view .LVU603
 381:lr1mac/src/lr1mac_core.c ****     if( status == ERRORLORAWAN )
 2481              		.loc 1 381 5 view .LVU604
 379:lr1mac/src/lr1mac_core.c ****     status_lorawan_t status;
 2482              		.loc 1 379 1 is_stmt 0 view .LVU605
 2483 0000 F7B5     		push	{r0, r1, r2, r4, r5, r6, r7, lr}
 2484              		.cfi_def_cfa_offset 32
 2485              		.cfi_offset 0, -32
 2486              		.cfi_offset 1, -28
 2487              		.cfi_offset 2, -24
 2488              		.cfi_offset 4, -20
 2489              		.cfi_offset 5, -16
 2490              		.cfi_offset 6, -12
 2491              		.cfi_offset 7, -8
 2492              		.cfi_offset 14, -4
 381:lr1mac/src/lr1mac_core.c ****     if( status == ERRORLORAWAN )
 2493              		.loc 1 381 14 view .LVU606
 2494 0002 374C     		ldr	r4, .L163
 379:lr1mac/src/lr1mac_core.c ****     status_lorawan_t status;
 2495              		.loc 1 379 1 view .LVU607
 2496 0004 0090     		str	r0, [sp]
 2497 0006 0191     		str	r1, [sp, #4]
 381:lr1mac/src/lr1mac_core.c ****     if( status == ERRORLORAWAN )
 2498              		.loc 1 381 14 view .LVU608
 2499 0008 2000     		movs	r0, r4
 2500              	.LVL151:
 381:lr1mac/src/lr1mac_core.c ****     if( status == ERRORLORAWAN )
 2501              		.loc 1 381 14 view .LVU609
 2502 000a A179     		ldrb	r1, [r4, #6]
 2503              	.LVL152:
 379:lr1mac/src/lr1mac_core.c ****     status_lorawan_t status;
 2504              		.loc 1 379 1 view .LVU610
 2505 000c 1E00     		movs	r6, r3
 2506 000e 1500     		movs	r5, r2
 381:lr1mac/src/lr1mac_core.c ****     if( status == ERRORLORAWAN )
 2507              		.loc 1 381 14 view .LVU611
 2508 0010 FFF7FEFF 		bl	smtc_real_is_valid_size
 2509              	.LVL153:
 382:lr1mac/src/lr1mac_core.c ****     {
 2510              		.loc 1 382 5 is_stmt 1 view .LVU612
 382:lr1mac/src/lr1mac_core.c ****     {
 2511              		.loc 1 382 7 is_stmt 0 view .LVU613
 2512 0014 431C     		adds	r3, r0, #1
 2513 0016 0DD1     		bne	.L155
 384:lr1mac/src/lr1mac_core.c ****         return ( LWPSTATE_INVALID );
 2514              		.loc 1 384 9 is_stmt 1 view .LVU614
ARM GAS  /var/folders/bq/yv49bw8j2kd6w3hsq868qv180000gn/T//ccSmIUlm.s 			page 69


 384:lr1mac/src/lr1mac_core.c ****         return ( LWPSTATE_INVALID );
 2515              		.loc 1 384 9 view .LVU615
 2516 0018 3248     		ldr	r0, .L163+4
 2517              	.LVL154:
 384:lr1mac/src/lr1mac_core.c ****         return ( LWPSTATE_INVALID );
 2518              		.loc 1 384 9 is_stmt 0 view .LVU616
 2519 001a FFF7FEFF 		bl	bsp_trace_print
 2520              	.LVL155:
 384:lr1mac/src/lr1mac_core.c ****         return ( LWPSTATE_INVALID );
 2521              		.loc 1 384 9 is_stmt 1 view .LVU617
 2522 001e 3248     		ldr	r0, .L163+8
 2523 0020 FFF7FEFF 		bl	bsp_trace_print
 2524              	.LVL156:
 384:lr1mac/src/lr1mac_core.c ****         return ( LWPSTATE_INVALID );
 2525              		.loc 1 384 9 view .LVU618
 2526 0024 3148     		ldr	r0, .L163+12
 2527 0026 FFF7FEFF 		bl	bsp_trace_print
 2528              	.LVL157:
 384:lr1mac/src/lr1mac_core.c ****         return ( LWPSTATE_INVALID );
 2529              		.loc 1 384 9 view .LVU619
 2530 002a 3148     		ldr	r0, .L163+16
 2531 002c FFF7FEFF 		bl	bsp_trace_print
 2532              	.LVL158:
 384:lr1mac/src/lr1mac_core.c ****         return ( LWPSTATE_INVALID );
 2533              		.loc 1 384 9 view .LVU620
 384:lr1mac/src/lr1mac_core.c ****         return ( LWPSTATE_INVALID );
 2534              		.loc 1 384 58 view .LVU621
 385:lr1mac/src/lr1mac_core.c ****     }
 2535              		.loc 1 385 9 view .LVU622
 385:lr1mac/src/lr1mac_core.c ****     }
 2536              		.loc 1 385 16 is_stmt 0 view .LVU623
 2537 0030 0720     		movs	r0, #7
 2538              	.L156:
 432:lr1mac/src/lr1mac_core.c **** 
 2539              		.loc 1 432 1 view .LVU624
 2540              		@ sp needed
 2541 0032 FEBD     		pop	{r1, r2, r3, r4, r5, r6, r7, pc}
 2542              	.LVL159:
 2543              	.L155:
 395:lr1mac/src/lr1mac_core.c ****     {
 2544              		.loc 1 395 5 is_stmt 1 view .LVU625
 395:lr1mac/src/lr1mac_core.c ****     {
 2545              		.loc 1 395 22 is_stmt 0 view .LVU626
 2546 0034 2F4F     		ldr	r7, .L163+20
 395:lr1mac/src/lr1mac_core.c ****     {
 2547              		.loc 1 395 7 view .LVU627
 2548 0036 3B78     		ldrb	r3, [r7]
 2549 0038 002B     		cmp	r3, #0
 2550 003a 0DD0     		beq	.L157
 397:lr1mac/src/lr1mac_core.c ****         return ( LWPSTATE_ERROR );
 2551              		.loc 1 397 9 is_stmt 1 view .LVU628
 397:lr1mac/src/lr1mac_core.c ****         return ( LWPSTATE_ERROR );
 2552              		.loc 1 397 9 view .LVU629
 2553 003c 2948     		ldr	r0, .L163+4
 2554              	.LVL160:
 397:lr1mac/src/lr1mac_core.c ****         return ( LWPSTATE_ERROR );
 2555              		.loc 1 397 9 is_stmt 0 view .LVU630
ARM GAS  /var/folders/bq/yv49bw8j2kd6w3hsq868qv180000gn/T//ccSmIUlm.s 			page 70


 2556 003e FFF7FEFF 		bl	bsp_trace_print
 2557              	.LVL161:
 397:lr1mac/src/lr1mac_core.c ****         return ( LWPSTATE_ERROR );
 2558              		.loc 1 397 9 is_stmt 1 view .LVU631
 2559 0042 2948     		ldr	r0, .L163+8
 2560 0044 FFF7FEFF 		bl	bsp_trace_print
 2561              	.LVL162:
 397:lr1mac/src/lr1mac_core.c ****         return ( LWPSTATE_ERROR );
 2562              		.loc 1 397 9 view .LVU632
 2563 0048 2B48     		ldr	r0, .L163+24
 2564 004a FFF7FEFF 		bl	bsp_trace_print
 2565              	.LVL163:
 397:lr1mac/src/lr1mac_core.c ****         return ( LWPSTATE_ERROR );
 2566              		.loc 1 397 9 view .LVU633
 2567 004e 2848     		ldr	r0, .L163+16
 2568 0050 FFF7FEFF 		bl	bsp_trace_print
 2569              	.LVL164:
 397:lr1mac/src/lr1mac_core.c ****         return ( LWPSTATE_ERROR );
 2570              		.loc 1 397 9 view .LVU634
 397:lr1mac/src/lr1mac_core.c ****         return ( LWPSTATE_ERROR );
 2571              		.loc 1 397 63 view .LVU635
 398:lr1mac/src/lr1mac_core.c ****     }
 2572              		.loc 1 398 9 view .LVU636
 398:lr1mac/src/lr1mac_core.c ****     }
 2573              		.loc 1 398 16 is_stmt 0 view .LVU637
 2574 0054 0820     		movs	r0, #8
 2575 0056 ECE7     		b	.L156
 2576              	.LVL165:
 2577              	.L157:
 401:lr1mac/src/lr1mac_core.c ****     if( smtc_real_next_channel_get( &lr1_mac_obj ) != OKLORAWAN )
 2578              		.loc 1 401 5 is_stmt 1 view .LVU638
 2579 0058 2000     		movs	r0, r4
 2580              	.LVL166:
 401:lr1mac/src/lr1mac_core.c ****     if( smtc_real_next_channel_get( &lr1_mac_obj ) != OKLORAWAN )
 2581              		.loc 1 401 5 is_stmt 0 view .LVU639
 2582 005a FFF7FEFF 		bl	smtc_real_duty_cycle_update
 2583              	.LVL167:
 402:lr1mac/src/lr1mac_core.c ****     {
 2584              		.loc 1 402 5 is_stmt 1 view .LVU640
 402:lr1mac/src/lr1mac_core.c ****     {
 2585              		.loc 1 402 9 is_stmt 0 view .LVU641
 2586 005e 2000     		movs	r0, r4
 2587 0060 FFF7FEFF 		bl	smtc_real_next_channel_get
 2588              	.LVL168:
 402:lr1mac/src/lr1mac_core.c ****     {
 2589              		.loc 1 402 7 view .LVU642
 2590 0064 0028     		cmp	r0, #0
 2591 0066 0DD0     		beq	.L158
 404:lr1mac/src/lr1mac_core.c ****         return ( LWPSTATE_DUTY_CYCLE_FULL );
 2592              		.loc 1 404 9 is_stmt 1 view .LVU643
 404:lr1mac/src/lr1mac_core.c ****         return ( LWPSTATE_DUTY_CYCLE_FULL );
 2593              		.loc 1 404 9 view .LVU644
 2594 0068 2448     		ldr	r0, .L163+28
 2595 006a FFF7FEFF 		bl	bsp_trace_print
 2596              	.LVL169:
 404:lr1mac/src/lr1mac_core.c ****         return ( LWPSTATE_DUTY_CYCLE_FULL );
 2597              		.loc 1 404 9 view .LVU645
ARM GAS  /var/folders/bq/yv49bw8j2kd6w3hsq868qv180000gn/T//ccSmIUlm.s 			page 71


 2598 006e 2448     		ldr	r0, .L163+32
 2599 0070 FFF7FEFF 		bl	bsp_trace_print
 2600              	.LVL170:
 404:lr1mac/src/lr1mac_core.c ****         return ( LWPSTATE_DUTY_CYCLE_FULL );
 2601              		.loc 1 404 9 view .LVU646
 2602 0074 2348     		ldr	r0, .L163+36
 2603              	.L162:
 410:lr1mac/src/lr1mac_core.c ****         return ( LWPSTATE_DUTY_CYCLE_FULL );
 2604              		.loc 1 410 9 is_stmt 0 view .LVU647
 2605 0076 FFF7FEFF 		bl	bsp_trace_print
 2606              	.LVL171:
 410:lr1mac/src/lr1mac_core.c ****         return ( LWPSTATE_DUTY_CYCLE_FULL );
 2607              		.loc 1 410 9 is_stmt 1 view .LVU648
 2608 007a 1D48     		ldr	r0, .L163+16
 2609 007c FFF7FEFF 		bl	bsp_trace_print
 2610              	.LVL172:
 410:lr1mac/src/lr1mac_core.c ****         return ( LWPSTATE_DUTY_CYCLE_FULL );
 2611              		.loc 1 410 9 view .LVU649
 410:lr1mac/src/lr1mac_core.c ****         return ( LWPSTATE_DUTY_CYCLE_FULL );
 2612              		.loc 1 410 56 view .LVU650
 411:lr1mac/src/lr1mac_core.c ****     }
 2613              		.loc 1 411 9 view .LVU651
 411:lr1mac/src/lr1mac_core.c ****     }
 2614              		.loc 1 411 16 is_stmt 0 view .LVU652
 2615 0080 0920     		movs	r0, #9
 2616 0082 D6E7     		b	.L156
 2617              	.L158:
 408:lr1mac/src/lr1mac_core.c ****     {
 2618              		.loc 1 408 5 is_stmt 1 view .LVU653
 408:lr1mac/src/lr1mac_core.c ****     {
 2619              		.loc 1 408 9 is_stmt 0 view .LVU654
 2620 0084 FFF7FEFF 		bl	lr1mac_core_next_free_duty_cycle_ms_get
 2621              	.LVL173:
 408:lr1mac/src/lr1mac_core.c ****     {
 2622              		.loc 1 408 7 view .LVU655
 2623 0088 0028     		cmp	r0, #0
 2624 008a 07DD     		ble	.L159
 410:lr1mac/src/lr1mac_core.c ****         return ( LWPSTATE_DUTY_CYCLE_FULL );
 2625              		.loc 1 410 9 is_stmt 1 view .LVU656
 410:lr1mac/src/lr1mac_core.c ****         return ( LWPSTATE_DUTY_CYCLE_FULL );
 2626              		.loc 1 410 9 view .LVU657
 2627 008c 1B48     		ldr	r0, .L163+28
 2628 008e FFF7FEFF 		bl	bsp_trace_print
 2629              	.LVL174:
 410:lr1mac/src/lr1mac_core.c ****         return ( LWPSTATE_DUTY_CYCLE_FULL );
 2630              		.loc 1 410 9 view .LVU658
 2631 0092 1B48     		ldr	r0, .L163+32
 2632 0094 FFF7FEFF 		bl	bsp_trace_print
 2633              	.LVL175:
 410:lr1mac/src/lr1mac_core.c ****         return ( LWPSTATE_DUTY_CYCLE_FULL );
 2634              		.loc 1 410 9 view .LVU659
 2635 0098 1B48     		ldr	r0, .L163+40
 2636 009a ECE7     		b	.L162
 2637              	.L159:
 414:lr1mac/src/lr1mac_core.c ****     lr1_mac_obj.rtc_target_timer_ms = target_time_ms;
 2638              		.loc 1 414 5 view .LVU660
 414:lr1mac/src/lr1mac_core.c ****     lr1_mac_obj.rtc_target_timer_ms = target_time_ms;
ARM GAS  /var/folders/bq/yv49bw8j2kd6w3hsq868qv180000gn/T//ccSmIUlm.s 			page 72


 2639              		.loc 1 414 39 is_stmt 0 view .LVU661
 2640 009c FFF7FEFF 		bl	bsp_rtc_get_time_s
 2641              	.LVL176:
 414:lr1mac/src/lr1mac_core.c ****     lr1_mac_obj.rtc_target_timer_ms = target_time_ms;
 2642              		.loc 1 414 37 view .LVU662
 2643 00a0 1A4B     		ldr	r3, .L163+44
 415:lr1mac/src/lr1mac_core.c ****     copy_user_payload( data_in, size_in );
 2644              		.loc 1 415 37 view .LVU663
 2645 00a2 089A     		ldr	r2, [sp, #32]
 414:lr1mac/src/lr1mac_core.c ****     lr1_mac_obj.rtc_target_timer_ms = target_time_ms;
 2646              		.loc 1 414 37 view .LVU664
 2647 00a4 E050     		str	r0, [r4, r3]
 415:lr1mac/src/lr1mac_core.c ****     copy_user_payload( data_in, size_in );
 2648              		.loc 1 415 5 is_stmt 1 view .LVU665
 415:lr1mac/src/lr1mac_core.c ****     copy_user_payload( data_in, size_in );
 2649              		.loc 1 415 37 is_stmt 0 view .LVU666
 2650 00a6 0C33     		adds	r3, r3, #12
 2651 00a8 E250     		str	r2, [r4, r3]
 416:lr1mac/src/lr1mac_core.c ****     lr1_mac_obj.app_payload_size = size_in;
 2652              		.loc 1 416 5 is_stmt 1 view .LVU667
 2653              	.LVL177:
 2654              	.LBB21:
 2655              	.LBI21:
 756:lr1mac/src/lr1mac_core.c **** {
 2656              		.loc 1 756 13 view .LVU668
 2657              	.LBB22:
 759:lr1mac/src/lr1mac_core.c **** }
 2658              		.loc 1 759 2 view .LVU669
 2659 00aa 0199     		ldr	r1, [sp, #4]
 2660 00ac 2A00     		movs	r2, r5
 2661 00ae 1848     		ldr	r0, .L163+48
 2662 00b0 FFF7FEFF 		bl	memcpy
 2663              	.LVL178:
 759:lr1mac/src/lr1mac_core.c **** }
 2664              		.loc 1 759 2 is_stmt 0 view .LVU670
 2665              	.LBE22:
 2666              	.LBE21:
 417:lr1mac/src/lr1mac_core.c ****     lr1_mac_obj.tx_fport         = fport;
 2667              		.loc 1 417 5 is_stmt 1 view .LVU671
 417:lr1mac/src/lr1mac_core.c ****     lr1_mac_obj.tx_fport         = fport;
 2668              		.loc 1 417 34 is_stmt 0 view .LVU672
 2669 00b4 2300     		movs	r3, r4
 2670 00b6 7633     		adds	r3, r3, #118
 2671 00b8 1D70     		strb	r5, [r3]
 418:lr1mac/src/lr1mac_core.c ****     lr1_mac_obj.tx_mtype         = packet_type;
 2672              		.loc 1 418 5 is_stmt 1 view .LVU673
 418:lr1mac/src/lr1mac_core.c ****     lr1_mac_obj.tx_mtype         = packet_type;
 2673              		.loc 1 418 34 is_stmt 0 view .LVU674
 2674 00ba 2300     		movs	r3, r4
 2675 00bc 009A     		ldr	r2, [sp]
 2676 00be 7133     		adds	r3, r3, #113
 2677 00c0 1A70     		strb	r2, [r3]
 419:lr1mac/src/lr1mac_core.c ****     lr1_stack_mac_tx_frame_build( &lr1_mac_obj );
 2678              		.loc 1 419 5 is_stmt 1 view .LVU675
 419:lr1mac/src/lr1mac_core.c ****     lr1_stack_mac_tx_frame_build( &lr1_mac_obj );
 2679              		.loc 1 419 34 is_stmt 0 view .LVU676
 2680 00c2 2300     		movs	r3, r4
ARM GAS  /var/folders/bq/yv49bw8j2kd6w3hsq868qv180000gn/T//ccSmIUlm.s 			page 73


 420:lr1mac/src/lr1mac_core.c **** //    lr1_stack_mac_tx_frame_encrypt( &lr1_mac_obj );
 2681              		.loc 1 420 5 view .LVU677
 2682 00c4 2000     		movs	r0, r4
 419:lr1mac/src/lr1mac_core.c ****     lr1_stack_mac_tx_frame_build( &lr1_mac_obj );
 2683              		.loc 1 419 34 view .LVU678
 2684 00c6 7233     		adds	r3, r3, #114
 2685 00c8 1E70     		strb	r6, [r3]
 420:lr1mac/src/lr1mac_core.c **** //    lr1_stack_mac_tx_frame_encrypt( &lr1_mac_obj );
 2686              		.loc 1 420 5 is_stmt 1 view .LVU679
 2687 00ca FFF7FEFF 		bl	lr1_stack_mac_tx_frame_build
 2688              	.LVL179:
 422:lr1mac/src/lr1mac_core.c ****     {
 2689              		.loc 1 422 5 view .LVU680
 424:lr1mac/src/lr1mac_core.c ****     }
 2690              		.loc 1 424 34 is_stmt 0 view .LVU681
 2691 00ce 0323     		movs	r3, #3
 422:lr1mac/src/lr1mac_core.c ****     {
 2692              		.loc 1 422 7 view .LVU682
 2693 00d0 042E     		cmp	r6, #4
 2694 00d2 00D0     		beq	.L160
 428:lr1mac/src/lr1mac_core.c ****     }
 2695              		.loc 1 428 9 is_stmt 1 view .LVU683
 428:lr1mac/src/lr1mac_core.c ****     }
 2696              		.loc 1 428 47 is_stmt 0 view .LVU684
 2697 00d4 237B     		ldrb	r3, [r4, #12]
 2698              	.L160:
 430:lr1mac/src/lr1mac_core.c ****     return ( lr1mac_state );
 2699              		.loc 1 430 18 view .LVU685
 2700 00d6 0120     		movs	r0, #1
 2701 00d8 6373     		strb	r3, [r4, #13]
 430:lr1mac/src/lr1mac_core.c ****     return ( lr1mac_state );
 2702              		.loc 1 430 5 is_stmt 1 view .LVU686
 430:lr1mac/src/lr1mac_core.c ****     return ( lr1mac_state );
 2703              		.loc 1 430 18 is_stmt 0 view .LVU687
 2704 00da 3870     		strb	r0, [r7]
 431:lr1mac/src/lr1mac_core.c **** }
 2705              		.loc 1 431 5 is_stmt 1 view .LVU688
 431:lr1mac/src/lr1mac_core.c **** }
 2706              		.loc 1 431 12 is_stmt 0 view .LVU689
 2707 00dc A9E7     		b	.L156
 2708              	.L164:
 2709 00de C046     		.align	2
 2710              	.L163:
 2711 00e0 00000000 		.word	lr1_mac_obj
 2712 00e4 00000000 		.word	.LC2
 2713 00e8 08000000 		.word	.LC4
 2714 00ec 00000000 		.word	.LC100
 2715 00f0 27000000 		.word	.LC8
 2716 00f4 00000000 		.word	.LANCHOR0
 2717 00f8 00000000 		.word	.LC39
 2718 00fc 18000000 		.word	.LC105
 2719 0100 20000000 		.word	.LC107
 2720 0104 28000000 		.word	.LC109
 2721 0108 3E000000 		.word	.LC111
 2722 010c 0C060000 		.word	1548
 2723 0110 78000000 		.word	lr1_mac_obj+120
 2724              		.cfi_endproc
ARM GAS  /var/folders/bq/yv49bw8j2kd6w3hsq868qv180000gn/T//ccSmIUlm.s 			page 74


 2725              	.LFE16:
 2727              		.section	.text.lr1mac_core_payload_send_at_time,"ax",%progbits
 2728              		.align	1
 2729              		.global	lr1mac_core_payload_send_at_time
 2730              		.syntax unified
 2731              		.code	16
 2732              		.thumb_func
 2733              		.fpu softvfp
 2735              	lr1mac_core_payload_send_at_time:
 2736              	.LVL180:
 2737              	.LFB15:
 366:lr1mac/src/lr1mac_core.c ****     lr1mac_states_t status;
 2738              		.loc 1 366 1 is_stmt 1 view -0
 2739              		.cfi_startproc
 2740              		@ args = 4, pretend = 0, frame = 0
 2741              		@ frame_needed = 0, uses_anonymous_args = 0
 367:lr1mac/src/lr1mac_core.c ****     status = lr1mac_core_payload_send( fport, data_in, size_in, packet_type, target_time_ms );
 2742              		.loc 1 367 5 view .LVU691
 368:lr1mac/src/lr1mac_core.c ****     if( status == LWPSTATE_SEND )
 2743              		.loc 1 368 5 view .LVU692
 366:lr1mac/src/lr1mac_core.c ****     lr1mac_states_t status;
 2744              		.loc 1 366 1 is_stmt 0 view .LVU693
 2745 0000 13B5     		push	{r0, r1, r4, lr}
 2746              		.cfi_def_cfa_offset 16
 2747              		.cfi_offset 0, -16
 2748              		.cfi_offset 1, -12
 2749              		.cfi_offset 4, -8
 2750              		.cfi_offset 14, -4
 368:lr1mac/src/lr1mac_core.c ****     if( status == LWPSTATE_SEND )
 2751              		.loc 1 368 14 view .LVU694
 2752 0002 049C     		ldr	r4, [sp, #16]
 2753 0004 0094     		str	r4, [sp]
 2754 0006 FFF7FEFF 		bl	lr1mac_core_payload_send
 2755              	.LVL181:
 369:lr1mac/src/lr1mac_core.c ****     {
 2756              		.loc 1 369 5 is_stmt 1 view .LVU695
 369:lr1mac/src/lr1mac_core.c ****     {
 2757              		.loc 1 369 7 is_stmt 0 view .LVU696
 2758 000a 0128     		cmp	r0, #1
 2759 000c 03D1     		bne	.L166
 371:lr1mac/src/lr1mac_core.c ****         lr1_mac_obj.nb_trans_cpt = 1;  // Overwrite nb_trans_cpt, when downlink is At Time, repetit
 2760              		.loc 1 371 9 is_stmt 1 view .LVU697
 371:lr1mac/src/lr1mac_core.c ****         lr1_mac_obj.nb_trans_cpt = 1;  // Overwrite nb_trans_cpt, when downlink is At Time, repetit
 2761              		.loc 1 371 34 is_stmt 0 view .LVU698
 2762 000e 024B     		ldr	r3, .L167
 2763 0010 024A     		ldr	r2, .L167+4
 372:lr1mac/src/lr1mac_core.c ****     }
 2764              		.loc 1 372 34 view .LVU699
 2765 0012 5873     		strb	r0, [r3, #13]
 371:lr1mac/src/lr1mac_core.c ****         lr1_mac_obj.nb_trans_cpt = 1;  // Overwrite nb_trans_cpt, when downlink is At Time, repetit
 2766              		.loc 1 371 34 view .LVU700
 2767 0014 9854     		strb	r0, [r3, r2]
 372:lr1mac/src/lr1mac_core.c ****     }
 2768              		.loc 1 372 9 is_stmt 1 view .LVU701
 2769              	.L166:
 374:lr1mac/src/lr1mac_core.c **** }
 2770              		.loc 1 374 5 view .LVU702
ARM GAS  /var/folders/bq/yv49bw8j2kd6w3hsq868qv180000gn/T//ccSmIUlm.s 			page 75


 375:lr1mac/src/lr1mac_core.c **** 
 2771              		.loc 1 375 1 is_stmt 0 view .LVU703
 2772              		@ sp needed
 2773 0016 16BD     		pop	{r1, r2, r4, pc}
 2774              	.L168:
 2775              		.align	2
 2776              	.L167:
 2777 0018 00000000 		.word	lr1_mac_obj
 2778 001c 1C060000 		.word	1564
 2779              		.cfi_endproc
 2780              	.LFE15:
 2782              		.section	.text.lr1mac_core_duty_cycle_enable_set,"ax",%progbits
 2783              		.align	1
 2784              		.global	lr1mac_core_duty_cycle_enable_set
 2785              		.syntax unified
 2786              		.code	16
 2787              		.thumb_func
 2788              		.fpu softvfp
 2790              	lr1mac_core_duty_cycle_enable_set:
 2791              	.LVL182:
 2792              	.LFB52:
 690:lr1mac/src/lr1mac_core.c ****     smtc_real_duty_cycle_enable_set( &lr1_mac_obj, enable );
 2793              		.loc 1 690 1 is_stmt 1 view -0
 2794              		.cfi_startproc
 2795              		@ args = 0, pretend = 0, frame = 0
 2796              		@ frame_needed = 0, uses_anonymous_args = 0
 691:lr1mac/src/lr1mac_core.c **** }
 2797              		.loc 1 691 5 view .LVU705
 690:lr1mac/src/lr1mac_core.c ****     smtc_real_duty_cycle_enable_set( &lr1_mac_obj, enable );
 2798              		.loc 1 690 1 is_stmt 0 view .LVU706
 2799 0000 10B5     		push	{r4, lr}
 2800              		.cfi_def_cfa_offset 8
 2801              		.cfi_offset 4, -8
 2802              		.cfi_offset 14, -4
 690:lr1mac/src/lr1mac_core.c ****     smtc_real_duty_cycle_enable_set( &lr1_mac_obj, enable );
 2803              		.loc 1 690 1 view .LVU707
 2804 0002 0100     		movs	r1, r0
 691:lr1mac/src/lr1mac_core.c **** }
 2805              		.loc 1 691 5 view .LVU708
 2806 0004 0148     		ldr	r0, .L170
 2807              	.LVL183:
 691:lr1mac/src/lr1mac_core.c **** }
 2808              		.loc 1 691 5 view .LVU709
 2809 0006 FFF7FEFF 		bl	smtc_real_duty_cycle_enable_set
 2810              	.LVL184:
 692:lr1mac/src/lr1mac_core.c **** 
 2811              		.loc 1 692 1 view .LVU710
 2812              		@ sp needed
 2813 000a 10BD     		pop	{r4, pc}
 2814              	.L171:
 2815              		.align	2
 2816              	.L170:
 2817 000c 00000000 		.word	lr1_mac_obj
 2818              		.cfi_endproc
 2819              	.LFE52:
 2821              		.section	.text.r1mac_core_version_get,"ax",%progbits
 2822              		.align	1
ARM GAS  /var/folders/bq/yv49bw8j2kd6w3hsq868qv180000gn/T//ccSmIUlm.s 			page 76


 2823              		.global	r1mac_core_version_get
 2824              		.syntax unified
 2825              		.code	16
 2826              		.thumb_func
 2827              		.fpu softvfp
 2829              	r1mac_core_version_get:
 2830              	.LFB53:
 695:lr1mac/src/lr1mac_core.c ****     return ( LR1MAC_PROTOCOL_VERSION );
 2831              		.loc 1 695 1 is_stmt 1 view -0
 2832              		.cfi_startproc
 2833              		@ args = 0, pretend = 0, frame = 0
 2834              		@ frame_needed = 0, uses_anonymous_args = 0
 2835              		@ link register save eliminated.
 696:lr1mac/src/lr1mac_core.c **** }
 2836              		.loc 1 696 5 view .LVU712
 697:lr1mac/src/lr1mac_core.c **** 
 2837              		.loc 1 697 1 is_stmt 0 view .LVU713
 2838 0000 0048     		ldr	r0, .L173
 2839              		@ sp needed
 2840 0002 7047     		bx	lr
 2841              	.L174:
 2842              		.align	2
 2843              	.L173:
 2844 0004 00030100 		.word	66304
 2845              		.cfi_endproc
 2846              	.LFE53:
 2848              		.section	.text.lr1mac_core_rx_ack_bit_get,"ax",%progbits
 2849              		.align	1
 2850              		.global	lr1mac_core_rx_ack_bit_get
 2851              		.syntax unified
 2852              		.code	16
 2853              		.thumb_func
 2854              		.fpu softvfp
 2856              	lr1mac_core_rx_ack_bit_get:
 2857              	.LFB54:
 706:lr1mac/src/lr1mac_core.c ****     return ( lr1_mac_obj.rx_ack_bit );
 2858              		.loc 1 706 1 is_stmt 1 view -0
 2859              		.cfi_startproc
 2860              		@ args = 0, pretend = 0, frame = 0
 2861              		@ frame_needed = 0, uses_anonymous_args = 0
 2862              		@ link register save eliminated.
 707:lr1mac/src/lr1mac_core.c **** }
 2863              		.loc 1 707 5 view .LVU715
 707:lr1mac/src/lr1mac_core.c **** }
 2864              		.loc 1 707 25 is_stmt 0 view .LVU716
 2865 0000 A323     		movs	r3, #163
 2866 0002 024A     		ldr	r2, .L176
 2867 0004 9B00     		lsls	r3, r3, #2
 2868 0006 D05C     		ldrb	r0, [r2, r3]
 708:lr1mac/src/lr1mac_core.c **** 
 2869              		.loc 1 708 1 view .LVU717
 2870              		@ sp needed
 2871 0008 7047     		bx	lr
 2872              	.L177:
 2873 000a C046     		.align	2
 2874              	.L176:
 2875 000c 00000000 		.word	lr1_mac_obj
ARM GAS  /var/folders/bq/yv49bw8j2kd6w3hsq868qv180000gn/T//ccSmIUlm.s 			page 77


 2876              		.cfi_endproc
 2877              	.LFE54:
 2879              		.section	.text.lr1mac_core_stack_mac_get,"ax",%progbits
 2880              		.align	1
 2881              		.global	lr1mac_core_stack_mac_get
 2882              		.syntax unified
 2883              		.code	16
 2884              		.thumb_func
 2885              		.fpu softvfp
 2887              	lr1mac_core_stack_mac_get:
 2888              	.LFB55:
 711:lr1mac/src/lr1mac_core.c ****     return &lr1_mac_obj;
 2889              		.loc 1 711 1 is_stmt 1 view -0
 2890              		.cfi_startproc
 2891              		@ args = 0, pretend = 0, frame = 0
 2892              		@ frame_needed = 0, uses_anonymous_args = 0
 2893              		@ link register save eliminated.
 712:lr1mac/src/lr1mac_core.c **** }
 2894              		.loc 1 712 5 view .LVU719
 713:lr1mac/src/lr1mac_core.c **** 
 2895              		.loc 1 713 1 is_stmt 0 view .LVU720
 2896 0000 0048     		ldr	r0, .L179
 2897              		@ sp needed
 2898 0002 7047     		bx	lr
 2899              	.L180:
 2900              		.align	2
 2901              	.L179:
 2902 0004 00000000 		.word	lr1_mac_obj
 2903              		.cfi_endproc
 2904              	.LFE55:
 2906              		.section	.rodata.lr1mac_core_is_supported_region.str1.1,"aMS",%progbits,1
 2907              	.LC123:
 2908 0000 496E7661 		.ascii	"Invalid Region 0x%02x\012\000"
 2908      6C696420 
 2908      52656769 
 2908      6F6E2030 
 2908      78253032 
 2909              		.section	.text.lr1mac_core_is_supported_region,"ax",%progbits
 2910              		.align	1
 2911              		.global	lr1mac_core_is_supported_region
 2912              		.syntax unified
 2913              		.code	16
 2914              		.thumb_func
 2915              		.fpu softvfp
 2917              	lr1mac_core_is_supported_region:
 2918              	.LVL185:
 2919              	.LFB56:
 716:lr1mac/src/lr1mac_core.c ****     uint8_t is_valid_region = false;
 2920              		.loc 1 716 1 is_stmt 1 view -0
 2921              		.cfi_startproc
 2922              		@ args = 0, pretend = 0, frame = 0
 2923              		@ frame_needed = 0, uses_anonymous_args = 0
 717:lr1mac/src/lr1mac_core.c ****     for( uint8_t i = 0; i < SMTC_REAL_REGION_LIST_LENGTH; i++ )
 2924              		.loc 1 717 5 view .LVU722
 718:lr1mac/src/lr1mac_core.c ****     {
 2925              		.loc 1 718 5 view .LVU723
 2926              	.LBB27:
ARM GAS  /var/folders/bq/yv49bw8j2kd6w3hsq868qv180000gn/T//ccSmIUlm.s 			page 78


 718:lr1mac/src/lr1mac_core.c ****     {
 2927              		.loc 1 718 10 view .LVU724
 718:lr1mac/src/lr1mac_core.c ****     {
 2928              		.loc 1 718 25 view .LVU725
 720:lr1mac/src/lr1mac_core.c ****         {
 2929              		.loc 1 720 9 view .LVU726
 2930              	.LBE27:
 716:lr1mac/src/lr1mac_core.c ****     uint8_t is_valid_region = false;
 2931              		.loc 1 716 1 is_stmt 0 view .LVU727
 2932 0000 10B5     		push	{r4, lr}
 2933              		.cfi_def_cfa_offset 8
 2934              		.cfi_offset 4, -8
 2935              		.cfi_offset 14, -4
 716:lr1mac/src/lr1mac_core.c ****     uint8_t is_valid_region = false;
 2936              		.loc 1 716 1 view .LVU728
 2937 0002 0400     		movs	r4, r0
 732:lr1mac/src/lr1mac_core.c **** }
 2938              		.loc 1 732 12 view .LVU729
 2939 0004 0020     		movs	r0, #0
 2940              	.LVL186:
 2941              	.LBB28:
 720:lr1mac/src/lr1mac_core.c ****         {
 2942              		.loc 1 720 11 view .LVU730
 2943 0006 062C     		cmp	r4, #6
 2944 0008 0ED0     		beq	.L184
 2945              	.LVL187:
 718:lr1mac/src/lr1mac_core.c ****     {
 2946              		.loc 1 718 25 is_stmt 1 view .LVU731
 718:lr1mac/src/lr1mac_core.c ****     {
 2947              		.loc 1 718 25 is_stmt 0 view .LVU732
 2948              	.LBE28:
 727:lr1mac/src/lr1mac_core.c ****     {
 2949              		.loc 1 727 5 is_stmt 1 view .LVU733
 2950              	.LBB29:
 2951              	.LBI29:
 715:lr1mac/src/lr1mac_core.c **** {
 2952              		.loc 1 715 18 view .LVU734
 2953              	.LBB30:
 729:lr1mac/src/lr1mac_core.c ****         return ERRORLORAWAN;
 2954              		.loc 1 729 9 view .LVU735
 729:lr1mac/src/lr1mac_core.c ****         return ERRORLORAWAN;
 2955              		.loc 1 729 9 view .LVU736
 2956 000a 0848     		ldr	r0, .L185
 2957 000c FFF7FEFF 		bl	bsp_trace_print
 2958              	.LVL188:
 729:lr1mac/src/lr1mac_core.c ****         return ERRORLORAWAN;
 2959              		.loc 1 729 9 view .LVU737
 2960 0010 0748     		ldr	r0, .L185+4
 2961 0012 FFF7FEFF 		bl	bsp_trace_print
 2962              	.LVL189:
 729:lr1mac/src/lr1mac_core.c ****         return ERRORLORAWAN;
 2963              		.loc 1 729 9 view .LVU738
 2964 0016 2100     		movs	r1, r4
 2965 0018 0648     		ldr	r0, .L185+8
 2966 001a FFF7FEFF 		bl	bsp_trace_print
 2967              	.LVL190:
 729:lr1mac/src/lr1mac_core.c ****         return ERRORLORAWAN;
ARM GAS  /var/folders/bq/yv49bw8j2kd6w3hsq868qv180000gn/T//ccSmIUlm.s 			page 79


 2968              		.loc 1 729 9 view .LVU739
 2969 001e 0648     		ldr	r0, .L185+12
 2970 0020 FFF7FEFF 		bl	bsp_trace_print
 2971              	.LVL191:
 729:lr1mac/src/lr1mac_core.c ****         return ERRORLORAWAN;
 2972              		.loc 1 729 9 view .LVU740
 729:lr1mac/src/lr1mac_core.c ****         return ERRORLORAWAN;
 2973              		.loc 1 729 70 view .LVU741
 730:lr1mac/src/lr1mac_core.c ****     }
 2974              		.loc 1 730 9 view .LVU742
 729:lr1mac/src/lr1mac_core.c ****         return ERRORLORAWAN;
 2975              		.loc 1 729 9 is_stmt 0 view .LVU743
 2976 0024 0120     		movs	r0, #1
 2977 0026 4042     		rsbs	r0, r0, #0
 2978              	.LVL192:
 2979              	.L184:
 729:lr1mac/src/lr1mac_core.c ****         return ERRORLORAWAN;
 2980              		.loc 1 729 9 view .LVU744
 2981              	.LBE30:
 2982              	.LBE29:
 733:lr1mac/src/lr1mac_core.c **** 
 2983              		.loc 1 733 1 view .LVU745
 2984              		@ sp needed
 2985 0028 10BD     		pop	{r4, pc}
 2986              	.L186:
 2987 002a C046     		.align	2
 2988              	.L185:
 2989 002c 00000000 		.word	.LC2
 2990 0030 08000000 		.word	.LC4
 2991 0034 00000000 		.word	.LC123
 2992 0038 27000000 		.word	.LC8
 2993              		.cfi_endproc
 2994              	.LFE56:
 2996              		.section	.rodata.lr1mac_core_init.str1.1,"aMS",%progbits,1
 2997              	.LC133:
 2998 0000 20526567 		.ascii	" Region = %s\012\000"
 2998      696F6E20 
 2998      3D202573 
 2998      0A00
 2999              		.section	.text.lr1mac_core_init,"ax",%progbits
 3000              		.align	1
 3001              		.global	lr1mac_core_init
 3002              		.syntax unified
 3003              		.code	16
 3004              		.thumb_func
 3005              		.fpu softvfp
 3007              	lr1mac_core_init:
 3008              	.LVL193:
 3009              	.LFB9:
  76:lr1mac/src/lr1mac_core.c ****     lr1_stack_mac_init( &lr1_mac_obj, lorawan_keys, smtc_region );
 3010              		.loc 1 76 1 is_stmt 1 view -0
 3011              		.cfi_startproc
 3012              		@ args = 0, pretend = 0, frame = 0
 3013              		@ frame_needed = 0, uses_anonymous_args = 0
  77:lr1mac/src/lr1mac_core.c **** 
 3014              		.loc 1 77 5 view .LVU747
  76:lr1mac/src/lr1mac_core.c ****     lr1_stack_mac_init( &lr1_mac_obj, lorawan_keys, smtc_region );
ARM GAS  /var/folders/bq/yv49bw8j2kd6w3hsq868qv180000gn/T//ccSmIUlm.s 			page 80


 3015              		.loc 1 76 1 is_stmt 0 view .LVU748
 3016 0000 70B5     		push	{r4, r5, r6, lr}
 3017              		.cfi_def_cfa_offset 16
 3018              		.cfi_offset 4, -16
 3019              		.cfi_offset 5, -12
 3020              		.cfi_offset 6, -8
 3021              		.cfi_offset 14, -4
  77:lr1mac/src/lr1mac_core.c **** 
 3022              		.loc 1 77 5 view .LVU749
 3023 0002 264C     		ldr	r4, .L190
  76:lr1mac/src/lr1mac_core.c ****     lr1_stack_mac_init( &lr1_mac_obj, lorawan_keys, smtc_region );
 3024              		.loc 1 76 1 view .LVU750
 3025 0004 0600     		movs	r6, r0
  77:lr1mac/src/lr1mac_core.c **** 
 3026              		.loc 1 77 5 view .LVU751
 3027 0006 2000     		movs	r0, r4
 3028              	.LVL194:
  76:lr1mac/src/lr1mac_core.c ****     lr1_stack_mac_init( &lr1_mac_obj, lorawan_keys, smtc_region );
 3029              		.loc 1 76 1 view .LVU752
 3030 0008 0D00     		movs	r5, r1
  77:lr1mac/src/lr1mac_core.c **** 
 3031              		.loc 1 77 5 view .LVU753
 3032 000a FFF7FEFF 		bl	lr1_stack_mac_init
 3033              	.LVL195:
  79:lr1mac/src/lr1mac_core.c **** 
 3034              		.loc 1 79 5 is_stmt 1 view .LVU754
  79:lr1mac/src/lr1mac_core.c **** 
 3035              		.loc 1 79 31 is_stmt 0 view .LVU755
 3036 000e FFF7FEFF 		bl	lr1mac_core_context_load
 3037              	.LVL196:
  81:lr1mac/src/lr1mac_core.c ****     {
 3038              		.loc 1 81 5 is_stmt 1 view .LVU756
  81:lr1mac/src/lr1mac_core.c ****     {
 3039              		.loc 1 81 7 is_stmt 0 view .LVU757
 3040 0012 0028     		cmp	r0, #0
 3041 0014 03D1     		bne	.L188
  84:lr1mac/src/lr1mac_core.c ****     }
 3042              		.loc 1 84 9 is_stmt 1 view .LVU758
  84:lr1mac/src/lr1mac_core.c ****     }
 3043              		.loc 1 84 18 is_stmt 0 view .LVU759
 3044 0016 2368     		ldr	r3, [r4]
 3045 0018 1879     		ldrb	r0, [r3, #4]
 3046              	.LVL197:
  84:lr1mac/src/lr1mac_core.c ****     }
 3047              		.loc 1 84 18 view .LVU760
 3048 001a FFF7FEFF 		bl	lr1mac_core_is_supported_region
 3049              	.LVL198:
 3050              	.L188:
  87:lr1mac/src/lr1mac_core.c ****     {
 3051              		.loc 1 87 5 is_stmt 1 view .LVU761
  87:lr1mac/src/lr1mac_core.c ****     {
 3052              		.loc 1 87 7 is_stmt 0 view .LVU762
 3053 001e 431C     		adds	r3, r0, #1
 3054 0020 27D1     		bne	.L189
  89:lr1mac/src/lr1mac_core.c ****         memcpy( lr1_mac_obj.nwk_skey, lorawan_keys->LoRaMacNwkSKey, 16 );
 3055              		.loc 1 89 9 is_stmt 1 view .LVU763
 3056 0022 1022     		movs	r2, #16
ARM GAS  /var/folders/bq/yv49bw8j2kd6w3hsq868qv180000gn/T//ccSmIUlm.s 			page 81


 3057 0024 6968     		ldr	r1, [r5, #4]
 3058 0026 1E48     		ldr	r0, .L190+4
 3059              	.LVL199:
  89:lr1mac/src/lr1mac_core.c ****         memcpy( lr1_mac_obj.nwk_skey, lorawan_keys->LoRaMacNwkSKey, 16 );
 3060              		.loc 1 89 9 is_stmt 0 view .LVU764
 3061 0028 FFF7FEFF 		bl	memcpy
 3062              	.LVL200:
  90:lr1mac/src/lr1mac_core.c ****         memcpy( lr1_mac_obj.app_key, lorawan_keys->LoRaMacAppKey, 16 );
 3063              		.loc 1 90 9 is_stmt 1 view .LVU765
 3064 002c 1022     		movs	r2, #16
 3065 002e 2968     		ldr	r1, [r5]
 3066 0030 1C48     		ldr	r0, .L190+8
 3067 0032 FFF7FEFF 		bl	memcpy
 3068              	.LVL201:
  91:lr1mac/src/lr1mac_core.c ****         memcpy( lr1_mac_obj.dev_eui, lorawan_keys->DevEui, 8 );
 3069              		.loc 1 91 9 view .LVU766
 3070 0036 1022     		movs	r2, #16
 3071 0038 A968     		ldr	r1, [r5, #8]
 3072 003a 1B48     		ldr	r0, .L190+12
 3073 003c FFF7FEFF 		bl	memcpy
 3074              	.LVL202:
  92:lr1mac/src/lr1mac_core.c ****         memcpy( lr1_mac_obj.app_eui, lorawan_keys->AppEui, 8 );
 3075              		.loc 1 92 9 view .LVU767
 3076 0040 0822     		movs	r2, #8
 3077 0042 2969     		ldr	r1, [r5, #16]
 3078 0044 1948     		ldr	r0, .L190+16
 3079 0046 FFF7FEFF 		bl	memcpy
 3080              	.LVL203:
  93:lr1mac/src/lr1mac_core.c ****         lr1_mac_obj.dev_nonce         = 0;
 3081              		.loc 1 93 9 view .LVU768
 3082 004a 0822     		movs	r2, #8
 3083 004c E968     		ldr	r1, [r5, #12]
 3084 004e 1848     		ldr	r0, .L190+20
 3085 0050 FFF7FEFF 		bl	memcpy
 3086              	.LVL204:
  94:lr1mac/src/lr1mac_core.c ****         lr1_mac_obj.adr_custom        = BSP_USER_DR_DISTRIBUTION_PARAMETERS;  // (dr0 only)
 3087              		.loc 1 94 9 view .LVU769
  94:lr1mac/src/lr1mac_core.c ****         lr1_mac_obj.adr_custom        = BSP_USER_DR_DISTRIBUTION_PARAMETERS;  // (dr0 only)
 3088              		.loc 1 94 39 is_stmt 0 view .LVU770
 3089 0054 EA22     		movs	r2, #234
 3090 0056 0023     		movs	r3, #0
 3091 0058 9200     		lsls	r2, r2, #2
 3092 005a A352     		strh	r3, [r4, r2]
  95:lr1mac/src/lr1mac_core.c ****         lr1_mac_obj.nb_of_reset       = 0;
 3093              		.loc 1 95 9 is_stmt 1 view .LVU771
  95:lr1mac/src/lr1mac_core.c ****         lr1_mac_obj.nb_of_reset       = 0;
 3094              		.loc 1 95 39 is_stmt 0 view .LVU772
 3095 005c 8021     		movs	r1, #128
 3096 005e BA22     		movs	r2, #186
 3097 0060 4905     		lsls	r1, r1, #21
 3098 0062 D200     		lsls	r2, r2, #3
 3099 0064 A150     		str	r1, [r4, r2]
  96:lr1mac/src/lr1mac_core.c ****         lr1_mac_obj.real->region_type = ( smtc_real_region_types_t ) smtc_real_region_list[0];
 3100              		.loc 1 96 9 is_stmt 1 view .LVU773
  97:lr1mac/src/lr1mac_core.c ****         lr1mac_core_context_save( );
 3101              		.loc 1 97 39 is_stmt 0 view .LVU774
 3102 0066 2268     		ldr	r2, [r4]
ARM GAS  /var/folders/bq/yv49bw8j2kd6w3hsq868qv180000gn/T//ccSmIUlm.s 			page 82


  96:lr1mac/src/lr1mac_core.c ****         lr1_mac_obj.real->region_type = ( smtc_real_region_types_t ) smtc_real_region_list[0];
 3103              		.loc 1 96 39 view .LVU775
 3104 0068 A380     		strh	r3, [r4, #4]
  97:lr1mac/src/lr1mac_core.c ****         lr1mac_core_context_save( );
 3105              		.loc 1 97 9 is_stmt 1 view .LVU776
  97:lr1mac/src/lr1mac_core.c ****         lr1mac_core_context_save( );
 3106              		.loc 1 97 39 is_stmt 0 view .LVU777
 3107 006a 0633     		adds	r3, r3, #6
 3108 006c 1371     		strb	r3, [r2, #4]
  98:lr1mac/src/lr1mac_core.c ****     }
 3109              		.loc 1 98 9 is_stmt 1 view .LVU778
 3110 006e FFF7FEFF 		bl	lr1mac_core_context_save
 3111              	.LVL205:
 3112              	.L189:
 100:lr1mac/src/lr1mac_core.c ****     BSP_DBG_TRACE_PRINTF( " Region = %s\n", smtc_real_region_list_str[lr1_mac_obj.real->region_type
 3113              		.loc 1 100 5 view .LVU779
 3114 0072 2000     		movs	r0, r4
 3115 0074 FFF7FEFF 		bl	smtc_real_init
 3116              	.LVL206:
 101:lr1mac/src/lr1mac_core.c **** 
 3117              		.loc 1 101 5 view .LVU780
 3118 0078 2368     		ldr	r3, [r4]
 3119 007a 0E4A     		ldr	r2, .L190+24
 3120 007c 1B79     		ldrb	r3, [r3, #4]
 3121 007e 0E48     		ldr	r0, .L190+28
 3122 0080 9B00     		lsls	r3, r3, #2
 3123 0082 9958     		ldr	r1, [r3, r2]
 3124 0084 FFF7FEFF 		bl	bsp_trace_print
 3125              	.LVL207:
 103:lr1mac/src/lr1mac_core.c **** 
 3126              		.loc 1 103 5 view .LVU781
 103:lr1mac/src/lr1mac_core.c **** 
 3127              		.loc 1 103 20 is_stmt 0 view .LVU782
 3128 0088 0C4B     		ldr	r3, .L190+32
 105:lr1mac/src/lr1mac_core.c **** }
 3129              		.loc 1 105 5 view .LVU783
 3130 008a 3000     		movs	r0, r6
 103:lr1mac/src/lr1mac_core.c **** 
 3131              		.loc 1 103 20 view .LVU784
 3132 008c E650     		str	r6, [r4, r3]
 105:lr1mac/src/lr1mac_core.c **** }
 3133              		.loc 1 105 5 is_stmt 1 view .LVU785
 3134 008e 0021     		movs	r1, #0
 3135 0090 2300     		movs	r3, r4
 3136 0092 0B4A     		ldr	r2, .L190+36
 3137 0094 FFF7FEFF 		bl	rp_hook_init
 3138              	.LVL208:
 106:lr1mac/src/lr1mac_core.c **** 
 3139              		.loc 1 106 1 is_stmt 0 view .LVU786
 3140              		@ sp needed
 3141              	.LVL209:
 3142              	.LVL210:
 106:lr1mac/src/lr1mac_core.c **** 
 3143              		.loc 1 106 1 view .LVU787
 3144 0098 70BD     		pop	{r4, r5, r6, pc}
 3145              	.L191:
 3146 009a C046     		.align	2
ARM GAS  /var/folders/bq/yv49bw8j2kd6w3hsq868qv180000gn/T//ccSmIUlm.s 			page 83


 3147              	.L190:
 3148 009c 00000000 		.word	lr1_mac_obj
 3149 00a0 40000000 		.word	lr1_mac_obj+64
 3150 00a4 30000000 		.word	lr1_mac_obj+48
 3151 00a8 50000000 		.word	lr1_mac_obj+80
 3152 00ac 60000000 		.word	lr1_mac_obj+96
 3153 00b0 68000000 		.word	lr1_mac_obj+104
 3154 00b4 00000000 		.word	.LANCHOR3
 3155 00b8 00000000 		.word	.LC133
 3156 00bc F4050000 		.word	1524
 3157 00c0 00000000 		.word	lr1_stack_mac_rp_callback
 3158              		.cfi_endproc
 3159              	.LFE9:
 3161              		.section	.text.lr1mac_core_get_region,"ax",%progbits
 3162              		.align	1
 3163              		.global	lr1mac_core_get_region
 3164              		.syntax unified
 3165              		.code	16
 3166              		.thumb_func
 3167              		.fpu softvfp
 3169              	lr1mac_core_get_region:
 3170              	.LFB57:
 736:lr1mac/src/lr1mac_core.c ****     return lr1_mac_obj.real->region_type;
 3171              		.loc 1 736 1 is_stmt 1 view -0
 3172              		.cfi_startproc
 3173              		@ args = 0, pretend = 0, frame = 0
 3174              		@ frame_needed = 0, uses_anonymous_args = 0
 3175              		@ link register save eliminated.
 737:lr1mac/src/lr1mac_core.c **** }
 3176              		.loc 1 737 5 view .LVU789
 737:lr1mac/src/lr1mac_core.c **** }
 3177              		.loc 1 737 23 is_stmt 0 view .LVU790
 3178 0000 014B     		ldr	r3, .L193
 738:lr1mac/src/lr1mac_core.c **** 
 3179              		.loc 1 738 1 view .LVU791
 3180              		@ sp needed
 737:lr1mac/src/lr1mac_core.c **** }
 3181              		.loc 1 737 28 view .LVU792
 3182 0002 1B68     		ldr	r3, [r3]
 3183 0004 1879     		ldrb	r0, [r3, #4]
 738:lr1mac/src/lr1mac_core.c **** 
 3184              		.loc 1 738 1 view .LVU793
 3185 0006 7047     		bx	lr
 3186              	.L194:
 3187              		.align	2
 3188              	.L193:
 3189 0008 00000000 		.word	lr1_mac_obj
 3190              		.cfi_endproc
 3191              	.LFE57:
 3193              		.section	.text.lr1mac_core_set_region,"ax",%progbits
 3194              		.align	1
 3195              		.global	lr1mac_core_set_region
 3196              		.syntax unified
 3197              		.code	16
 3198              		.thumb_func
 3199              		.fpu softvfp
 3201              	lr1mac_core_set_region:
ARM GAS  /var/folders/bq/yv49bw8j2kd6w3hsq868qv180000gn/T//ccSmIUlm.s 			page 84


 3202              	.LVL211:
 3203              	.LFB58:
 741:lr1mac/src/lr1mac_core.c ****     if( lr1mac_core_is_supported_region( region_type ) == OKLORAWAN )
 3204              		.loc 1 741 1 is_stmt 1 view -0
 3205              		.cfi_startproc
 3206              		@ args = 0, pretend = 0, frame = 0
 3207              		@ frame_needed = 0, uses_anonymous_args = 0
 742:lr1mac/src/lr1mac_core.c ****     {
 3208              		.loc 1 742 5 view .LVU795
 741:lr1mac/src/lr1mac_core.c ****     if( lr1mac_core_is_supported_region( region_type ) == OKLORAWAN )
 3209              		.loc 1 741 1 is_stmt 0 view .LVU796
 3210 0000 70B5     		push	{r4, r5, r6, lr}
 3211              		.cfi_def_cfa_offset 16
 3212              		.cfi_offset 4, -16
 3213              		.cfi_offset 5, -12
 3214              		.cfi_offset 6, -8
 3215              		.cfi_offset 14, -4
 741:lr1mac/src/lr1mac_core.c ****     if( lr1mac_core_is_supported_region( region_type ) == OKLORAWAN )
 3216              		.loc 1 741 1 view .LVU797
 3217 0002 0500     		movs	r5, r0
 742:lr1mac/src/lr1mac_core.c ****     {
 3218              		.loc 1 742 9 view .LVU798
 3219 0004 FFF7FEFF 		bl	lr1mac_core_is_supported_region
 3220              	.LVL212:
 742:lr1mac/src/lr1mac_core.c ****     {
 3221              		.loc 1 742 9 view .LVU799
 3222 0008 041E     		subs	r4, r0, #0
 742:lr1mac/src/lr1mac_core.c ****     {
 3223              		.loc 1 742 7 view .LVU800
 3224 000a 06D1     		bne	.L197
 744:lr1mac/src/lr1mac_core.c ****         lr1mac_core_context_save( );
 3225              		.loc 1 744 9 is_stmt 1 view .LVU801
 744:lr1mac/src/lr1mac_core.c ****         lr1mac_core_context_save( );
 3226              		.loc 1 744 20 is_stmt 0 view .LVU802
 3227 000c 044B     		ldr	r3, .L198
 744:lr1mac/src/lr1mac_core.c ****         lr1mac_core_context_save( );
 3228              		.loc 1 744 39 view .LVU803
 3229 000e 1B68     		ldr	r3, [r3]
 3230 0010 1D71     		strb	r5, [r3, #4]
 745:lr1mac/src/lr1mac_core.c ****         return OKLORAWAN;
 3231              		.loc 1 745 9 is_stmt 1 view .LVU804
 3232 0012 FFF7FEFF 		bl	lr1mac_core_context_save
 3233              	.LVL213:
 746:lr1mac/src/lr1mac_core.c ****     }
 3234              		.loc 1 746 9 view .LVU805
 3235              	.L196:
 749:lr1mac/src/lr1mac_core.c **** 
 3236              		.loc 1 749 1 is_stmt 0 view .LVU806
 3237 0016 2000     		movs	r0, r4
 3238              		@ sp needed
 3239 0018 70BD     		pop	{r4, r5, r6, pc}
 3240              	.L197:
 748:lr1mac/src/lr1mac_core.c **** }
 3241              		.loc 1 748 12 view .LVU807
 3242 001a 0124     		movs	r4, #1
 3243 001c 6442     		rsbs	r4, r4, #0
 3244 001e FAE7     		b	.L196
ARM GAS  /var/folders/bq/yv49bw8j2kd6w3hsq868qv180000gn/T//ccSmIUlm.s 			page 85


 3245              	.L199:
 3246              		.align	2
 3247              	.L198:
 3248 0020 00000000 		.word	lr1_mac_obj
 3249              		.cfi_endproc
 3250              	.LFE58:
 3252              		.section	.rodata.str1.1,"aMS",%progbits,1
 3253              	.LC138:
 3254 0000 57573247 		.ascii	"WW2G4\000"
 3254      3400
 3255              		.section	.bss.lr1_mac_obj,"aw",%nobits
 3256              		.align	2
 3259              	lr1_mac_obj:
 3260 0000 00000000 		.space	1568
 3260      00000000 
 3260      00000000 
 3260      00000000 
 3260      00000000 
 3261              		.section	.bss.lr1mac_state,"aw",%nobits
 3262              		.set	.LANCHOR0,. + 0
 3265              	lr1mac_state:
 3266 0000 00       		.space	1
 3267              		.section	.bss.receive_window_type,"aw",%nobits
 3268              		.set	.LANCHOR1,. + 0
 3271              	receive_window_type:
 3272 0000 00       		.space	1
 3273              		.section	.bss.valid_rx_packet,"aw",%nobits
 3274              		.set	.LANCHOR2,. + 0
 3277              	valid_rx_packet:
 3278 0000 00       		.space	1
 3279              		.section	.rodata.smtc_real_region_list_str,"a"
 3280              		.align	2
 3281              		.set	.LANCHOR3,. + 0
 3284              	smtc_real_region_list_str:
 3285 0000 00000000 		.space	24
 3285      00000000 
 3285      00000000 
 3285      00000000 
 3285      00000000 
 3286 0018 00000000 		.word	.LC138
 3287              		.text
 3288              	.Letext0:
 3289              		.file 2 "/Applications/STM32CubeIDE.app/Contents/Eclipse/plugins/com.st.stm32cube.ide.mcu.external
 3290              		.file 3 "/Applications/STM32CubeIDE.app/Contents/Eclipse/plugins/com.st.stm32cube.ide.mcu.external
 3291              		.file 4 "/Applications/STM32CubeIDE.app/Contents/Eclipse/plugins/com.st.stm32cube.ide.mcu.external
 3292              		.file 5 "/Applications/STM32CubeIDE.app/Contents/Eclipse/plugins/com.st.stm32cube.ide.mcu.external
 3293              		.file 6 "/Applications/STM32CubeIDE.app/Contents/Eclipse/plugins/com.st.stm32cube.ide.mcu.external
 3294              		.file 7 "/Applications/STM32CubeIDE.app/Contents/Eclipse/plugins/com.st.stm32cube.ide.mcu.external
 3295              		.file 8 "smtc_ral/src/ral_defs.h"
 3296              		.file 9 "lr1mac/src/lr1mac_defs.h"
 3297              		.file 10 "radio_planner/src/radio_planner_types.h"
 3298              		.file 11 "radio_planner/src/radio_planner_stats.h"
 3299              		.file 12 "radio_planner/src/radio_planner.h"
 3300              		.file 13 "lr1mac/src/smtc_real/src/smtc_real_defs.h"
 3301              		.file 14 "lr1mac/src/lr1_stack_mac_layer.h"
 3302              		.file 15 "lr1mac/src/smtc_real/src/smtc_real_defs_str.h"
 3303              		.file 16 "lr1mac/src/smtc_real/src/smtc_real.h"
ARM GAS  /var/folders/bq/yv49bw8j2kd6w3hsq868qv180000gn/T//ccSmIUlm.s 			page 86


 3304              		.file 17 "/Applications/STM32CubeIDE.app/Contents/Eclipse/plugins/com.st.stm32cube.ide.mcu.externa
 3305              		.file 18 "smtc_bsp/smtc_bsp_mcu.h"
 3306              		.file 19 "smtc_bsp/smtc_bsp_rtc.h"
 3307              		.file 20 "smtc_bsp/smtc_bsp_rng.h"
ARM GAS  /var/folders/bq/yv49bw8j2kd6w3hsq868qv180000gn/T//ccSmIUlm.s 			page 87

