ARM GAS  /var/folders/bq/yv49bw8j2kd6w3hsq868qv180000gn/T//ccEK2k0g.s 			page 1


   1              		.cpu cortex-m0plus
   2              		.eabi_attribute 23, 1
   3              		.eabi_attribute 24, 1
   4              		.eabi_attribute 25, 1
   5              		.eabi_attribute 26, 1
   6              		.eabi_attribute 30, 4
   7              		.eabi_attribute 34, 0
   8              		.eabi_attribute 18, 4
   9              		.file	"modem_context.c"
  10              		.text
  11              	.Ltext0:
  12              		.cfi_sections	.debug_frame
  13              		.section	.text.modem_event_init,"ax",%progbits
  14              		.align	1
  15              		.global	modem_event_init
  16              		.arch armv6s-m
  17              		.syntax unified
  18              		.code	16
  19              		.thumb_func
  20              		.fpu softvfp
  22              	modem_event_init:
  23              	.LFB11:
  24              		.file 1 "smtc_modem_core/device_management/modem_context.c"
   1:smtc_modem_core/device_management/modem_context.c **** /*!
   2:smtc_modem_core/device_management/modem_context.c ****  * \file      modem_context.c
   3:smtc_modem_core/device_management/modem_context.c ****  *
   4:smtc_modem_core/device_management/modem_context.c ****  * \brief     share functions + context of the soft modem .
   5:smtc_modem_core/device_management/modem_context.c ****  *
   6:smtc_modem_core/device_management/modem_context.c ****  * Revised BSD License
   7:smtc_modem_core/device_management/modem_context.c ****  * Copyright Semtech Corporation 2020. All rights reserved.
   8:smtc_modem_core/device_management/modem_context.c ****  *
   9:smtc_modem_core/device_management/modem_context.c ****  * Redistribution and use in source and binary forms, with or without
  10:smtc_modem_core/device_management/modem_context.c ****  * modification, are permitted provided that the following conditions are met:
  11:smtc_modem_core/device_management/modem_context.c ****  *     * Redistributions of source code must retain the above copyright
  12:smtc_modem_core/device_management/modem_context.c ****  *       notice, this list of conditions and the following disclaimer.
  13:smtc_modem_core/device_management/modem_context.c ****  *     * Redistributions in binary form must reproduce the above copyright
  14:smtc_modem_core/device_management/modem_context.c ****  *       notice, this list of conditions and the following disclaimer in the
  15:smtc_modem_core/device_management/modem_context.c ****  *       documentation and/or other materials provided with the distribution.
  16:smtc_modem_core/device_management/modem_context.c ****  *     * Neither the name of the Semtech corporation nor the
  17:smtc_modem_core/device_management/modem_context.c ****  *       names of its contributors may be used to endorse or promote products
  18:smtc_modem_core/device_management/modem_context.c ****  *       derived from this software without specific prior written permission.
  19:smtc_modem_core/device_management/modem_context.c ****  *
  20:smtc_modem_core/device_management/modem_context.c ****  * THIS SOFTWARE IS PROVIDED BY THE COPYRIGHT HOLDERS AND CONTRIBUTORS "AS IS"
  21:smtc_modem_core/device_management/modem_context.c ****  * AND ANY EXPRESS OR IMPLIED WARRANTIES, INCLUDING, BUT NOT LIMITED TO, THE
  22:smtc_modem_core/device_management/modem_context.c ****  * IMPLIED WARRANTIES OF MERCHANTABILITY AND FITNESS FOR A PARTICULAR PURPOSE
  23:smtc_modem_core/device_management/modem_context.c ****  * ARE DISCLAIMED. IN NO EVENT SHALL SEMTECH CORPORATION BE LIABLE FOR ANY DIRECT,
  24:smtc_modem_core/device_management/modem_context.c ****  * INDIRECT, INCIDENTAL, SPECIAL, EXEMPLARY, OR CONSEQUENTIAL DAMAGES
  25:smtc_modem_core/device_management/modem_context.c ****  * (INCLUDING, BUT NOT LIMITED TO, PROCUREMENT OF SUBSTITUTE GOODS OR SERVICES;
  26:smtc_modem_core/device_management/modem_context.c ****  * LOSS OF USE, DATA, OR PROFITS; OR BUSINESS INTERRUPTION) HOWEVER CAUSED AND
  27:smtc_modem_core/device_management/modem_context.c ****  * ON ANY THEORY OF LIABILITY, WHETHER IN CONTRACT, STRICT LIABILITY, OR TORT
  28:smtc_modem_core/device_management/modem_context.c ****  * (INCLUDING NEGLIGENCE OR OTHERWISE) ARISING IN ANY WAY OUT OF THE USE OF THIS
  29:smtc_modem_core/device_management/modem_context.c ****  * SOFTWARE, EVEN IF ADVISED OF THE POSSIBILITY OF SUCH DAMAGE.
  30:smtc_modem_core/device_management/modem_context.c ****  */
  31:smtc_modem_core/device_management/modem_context.c **** 
  32:smtc_modem_core/device_management/modem_context.c **** /*
  33:smtc_modem_core/device_management/modem_context.c ****  * -----------------------------------------------------------------------------
  34:smtc_modem_core/device_management/modem_context.c ****  * --- DEPENDENCIES ------------------------------------------------------------
ARM GAS  /var/folders/bq/yv49bw8j2kd6w3hsq868qv180000gn/T//ccEK2k0g.s 			page 2


  35:smtc_modem_core/device_management/modem_context.c ****  */
  36:smtc_modem_core/device_management/modem_context.c **** #include <stdint.h>   // C99 types
  37:smtc_modem_core/device_management/modem_context.c **** #include <stdbool.h>  // bool type
  38:smtc_modem_core/device_management/modem_context.c **** 
  39:smtc_modem_core/device_management/modem_context.c **** #include "modem_context.h"
  40:smtc_modem_core/device_management/modem_context.c **** #include "smtc_bsp.h"
  41:smtc_modem_core/device_management/modem_context.c **** #include "smtc_real.h"
  42:smtc_modem_core/device_management/modem_context.c **** #include "device_management_defs.h"
  43:smtc_modem_core/device_management/modem_context.c **** #include "lorawan_api.h"
  44:smtc_modem_core/device_management/modem_context.c **** #include "modem_utilities.h"  // for crc
  45:smtc_modem_core/device_management/modem_context.c **** #include "modem_api.h"
  46:smtc_modem_core/device_management/modem_context.c **** 
  47:smtc_modem_core/device_management/modem_context.c **** /*
  48:smtc_modem_core/device_management/modem_context.c ****  * -----------------------------------------------------------------------------
  49:smtc_modem_core/device_management/modem_context.c ****  * --- PRIVATE VARIABLES -------------------------------------------------------
  50:smtc_modem_core/device_management/modem_context.c ****  */
  51:smtc_modem_core/device_management/modem_context.c **** 
  52:smtc_modem_core/device_management/modem_context.c **** static uint8_t                modem_status         = 0;
  53:smtc_modem_core/device_management/modem_context.c **** static uint8_t                modem_dm_interval    = DEFAULT_DM_REPORTING_INTERVAL;
  54:smtc_modem_core/device_management/modem_context.c **** static uint8_t                modem_dm_port        = DEFAULT_DM_PORT;
  55:smtc_modem_core/device_management/modem_context.c **** static uint8_t                modem_appstatus[8]   = { 0 };
  56:smtc_modem_core/device_management/modem_context.c **** static modem_class_t          modem_dm_class       = MODEM_CLASS_A;
  57:smtc_modem_core/device_management/modem_context.c **** static e_modem_suspend_t      is_modem_suspend     = MODEM_NOT_SUSPEND;
  58:smtc_modem_core/device_management/modem_context.c **** static uint32_t               modem_start_time     = 0;
  59:smtc_modem_core/device_management/modem_context.c **** static uint8_t                modem_dm_upload_sctr = 0;
  60:smtc_modem_core/device_management/modem_context.c **** static e_modem_upload_state_t modem_upload_state   = MODEM_UPLOAD_NOT_INIT;
  61:smtc_modem_core/device_management/modem_context.c **** static s_modem_stream_t       modem_stream_state   = {  //
  62:smtc_modem_core/device_management/modem_context.c ****     .port       = DEFAULT_DM_PORT,              //
  63:smtc_modem_core/device_management/modem_context.c ****     .state      = MODEM_STREAM_NOT_INIT,        //
  64:smtc_modem_core/device_management/modem_context.c ****     .encryption = false
  65:smtc_modem_core/device_management/modem_context.c **** };
  66:smtc_modem_core/device_management/modem_context.c **** 
  67:smtc_modem_core/device_management/modem_context.c **** static uint32_t dm_info_bitfield_periodic       = DEFAULT_DM_REPORTING_FIELDS;  // context for peri
  68:smtc_modem_core/device_management/modem_context.c **** static uint32_t dm_info_bitfield_now            = 0;                            // User GetInfo
  69:smtc_modem_core/device_management/modem_context.c **** static uint8_t  tag_number                      = 0;
  70:smtc_modem_core/device_management/modem_context.c **** static uint8_t  tag_number_now                  = 0;
  71:smtc_modem_core/device_management/modem_context.c **** static uint8_t  number_of_muted_day             = 0;
  72:smtc_modem_core/device_management/modem_context.c **** static s_dm_retrieve_pending_dl_t dm_pending_dl = { .up_count = 0, .up_delay = 0 };
  73:smtc_modem_core/device_management/modem_context.c **** static uint32_t                   user_alarm    = 0;
  74:smtc_modem_core/device_management/modem_context.c **** 
  75:smtc_modem_core/device_management/modem_context.c **** static uint8_t asynchronous_msgnumber = 0;
  76:smtc_modem_core/device_management/modem_context.c **** 
  77:smtc_modem_core/device_management/modem_context.c **** static uint8_t modem_event_count[RSP_NUMBER];
  78:smtc_modem_core/device_management/modem_context.c **** static uint8_t modem_event_status[RSP_NUMBER];
  79:smtc_modem_core/device_management/modem_context.c **** static uint8_t asynch_msg[RSP_NUMBER];
  80:smtc_modem_core/device_management/modem_context.c **** 
  81:smtc_modem_core/device_management/modem_context.c **** static s_modem_dwn_t modem_dwn_pkt;
  82:smtc_modem_core/device_management/modem_context.c **** static bool          is_modem_reset_requested = false;
  83:smtc_modem_core/device_management/modem_context.c **** static bool          is_modem_charge_loaded   = false;
  84:smtc_modem_core/device_management/modem_context.c **** static uint32_t      modem_charge_offset      = 0;
  85:smtc_modem_core/device_management/modem_context.c **** 
  86:smtc_modem_core/device_management/modem_context.c **** /*
  87:smtc_modem_core/device_management/modem_context.c ****  * -----------------------------------------------------------------------------
  88:smtc_modem_core/device_management/modem_context.c ****  * --- PRIVATE FUNCTIONS DEFINITION --------------------------------------------
  89:smtc_modem_core/device_management/modem_context.c ****  */
  90:smtc_modem_core/device_management/modem_context.c **** 
  91:smtc_modem_core/device_management/modem_context.c **** /*!
ARM GAS  /var/folders/bq/yv49bw8j2kd6w3hsq868qv180000gn/T//ccEK2k0g.s 			page 3


  92:smtc_modem_core/device_management/modem_context.c ****  * \brief   convert requested DM bytes fields to bitfield
  93:smtc_modem_core/device_management/modem_context.c ****  *
  94:smtc_modem_core/device_management/modem_context.c ****  * \param [in]  requested_info_list     Array of bytes with requested DM code in
  95:smtc_modem_core/device_management/modem_context.c ****  * each bytes \param [in]  len                     Number of byte that composed
  96:smtc_modem_core/device_management/modem_context.c ****  * requested_info_list \param [in]  bitfields *             Returned bitfield
  97:smtc_modem_core/device_management/modem_context.c ****  * \param [out] e_set_error_t             Return SET_OK in case of failure, else
  98:smtc_modem_core/device_management/modem_context.c ****  * false
  99:smtc_modem_core/device_management/modem_context.c ****  */
 100:smtc_modem_core/device_management/modem_context.c **** static e_set_error_t convert_requested_dm_info_bytes_to_bitfield( uint8_t* requested_info_list, uin
 101:smtc_modem_core/device_management/modem_context.c ****                                                                   uint32_t* bitfields )
 102:smtc_modem_core/device_management/modem_context.c **** {
 103:smtc_modem_core/device_management/modem_context.c ****     e_set_error_t ret = SET_OK;
 104:smtc_modem_core/device_management/modem_context.c ****     for( uint8_t i = 0; i < len; i++ )
 105:smtc_modem_core/device_management/modem_context.c ****     {
 106:smtc_modem_core/device_management/modem_context.c ****         // Ignore DM status with variable length and forbiden fields
 107:smtc_modem_core/device_management/modem_context.c ****         if( ( requested_info_list[i] == e_inf_crashlog ) || ( requested_info_list[i] == e_inf_uploa
 108:smtc_modem_core/device_management/modem_context.c ****             ( requested_info_list[i] == e_inf_stream ) || ( requested_info_list[i] == e_inf_alcsync
 109:smtc_modem_core/device_management/modem_context.c ****             ( requested_info_list[i] == e_inf_rfu_0 ) || ( requested_info_list[i] == e_inf_rfu_1 ) 
 110:smtc_modem_core/device_management/modem_context.c ****             ( requested_info_list[i] >= e_inf_max ) )
 111:smtc_modem_core/device_management/modem_context.c ****         {
 112:smtc_modem_core/device_management/modem_context.c ****             ret = SET_ERROR;
 113:smtc_modem_core/device_management/modem_context.c ****             BSP_DBG_TRACE_ERROR( "invalid DM info code (0x%02x)\n", requested_info_list[i] );
 114:smtc_modem_core/device_management/modem_context.c ****             return ret;
 115:smtc_modem_core/device_management/modem_context.c ****         }
 116:smtc_modem_core/device_management/modem_context.c ****     }
 117:smtc_modem_core/device_management/modem_context.c ****     // Reset bitfield
 118:smtc_modem_core/device_management/modem_context.c ****     *bitfields = 0;
 119:smtc_modem_core/device_management/modem_context.c ****     for( uint8_t i = 0; i < len; i++ )
 120:smtc_modem_core/device_management/modem_context.c ****     {
 121:smtc_modem_core/device_management/modem_context.c ****         *bitfields |= ( 1 << requested_info_list[i] );
 122:smtc_modem_core/device_management/modem_context.c ****     }
 123:smtc_modem_core/device_management/modem_context.c ****     return ret;
 124:smtc_modem_core/device_management/modem_context.c **** }
 125:smtc_modem_core/device_management/modem_context.c **** 
 126:smtc_modem_core/device_management/modem_context.c **** /*!
 127:smtc_modem_core/device_management/modem_context.c ****  * \brief   Check if the biggest requested DM status field can be inserted
 128:smtc_modem_core/device_management/modem_context.c ****  *          in the payload in regard of the max payload size requested
 129:smtc_modem_core/device_management/modem_context.c ****  *
 130:smtc_modem_core/device_management/modem_context.c ****  * \param [in]  info_requested              Requested bitfield
 131:smtc_modem_core/device_management/modem_context.c ****  * \param [in]  max_size                    Max size of the payload
 132:smtc_modem_core/device_management/modem_context.c ****  * \param [out] e_dm_cmd_length_valid       Return valid or not
 133:smtc_modem_core/device_management/modem_context.c ****  */
 134:smtc_modem_core/device_management/modem_context.c **** static e_dm_cmd_length_valid check_dm_status_max_size( uint32_t info_requested, uint8_t max_size )
 135:smtc_modem_core/device_management/modem_context.c **** {
 136:smtc_modem_core/device_management/modem_context.c ****     for( uint8_t i = 0; i < e_inf_max; i++ )
 137:smtc_modem_core/device_management/modem_context.c ****     {
 138:smtc_modem_core/device_management/modem_context.c ****         if( ( info_requested & ( 1 << i ) ) )
 139:smtc_modem_core/device_management/modem_context.c ****         {
 140:smtc_modem_core/device_management/modem_context.c ****             if( max_size < dm_info_field_sz[i] )
 141:smtc_modem_core/device_management/modem_context.c ****             {
 142:smtc_modem_core/device_management/modem_context.c ****                 BSP_DBG_TRACE_ERROR(
 143:smtc_modem_core/device_management/modem_context.c ****                     "max_size must be greater than the smallest requested "
 144:smtc_modem_core/device_management/modem_context.c ****                     "information\n" );
 145:smtc_modem_core/device_management/modem_context.c ****                 return DM_CMD_LENGTH_NOT_VALID;
 146:smtc_modem_core/device_management/modem_context.c ****             }
 147:smtc_modem_core/device_management/modem_context.c ****         }
 148:smtc_modem_core/device_management/modem_context.c ****     }
ARM GAS  /var/folders/bq/yv49bw8j2kd6w3hsq868qv180000gn/T//ccEK2k0g.s 			page 4


 149:smtc_modem_core/device_management/modem_context.c ****     return DM_CMD_LENGTH_VALID;
 150:smtc_modem_core/device_management/modem_context.c **** }
 151:smtc_modem_core/device_management/modem_context.c **** 
 152:smtc_modem_core/device_management/modem_context.c **** /*
 153:smtc_modem_core/device_management/modem_context.c ****  * -----------------------------------------------------------------------------
 154:smtc_modem_core/device_management/modem_context.c ****  * --- PUBLIC FUNCTIONS DEFINITION ---------------------------------------------
 155:smtc_modem_core/device_management/modem_context.c ****  */
 156:smtc_modem_core/device_management/modem_context.c **** 
 157:smtc_modem_core/device_management/modem_context.c **** void modem_event_init( void )
 158:smtc_modem_core/device_management/modem_context.c **** {
  25              		.loc 1 158 1 view -0
  26              		.cfi_startproc
  27              		@ args = 0, pretend = 0, frame = 0
  28              		@ frame_needed = 0, uses_anonymous_args = 0
  29              		@ link register save eliminated.
 159:smtc_modem_core/device_management/modem_context.c ****     for( int i = 0; i < RSP_NUMBER; i++ )
  30              		.loc 1 159 5 view .LVU1
  31              	.LBB36:
  32              		.loc 1 159 10 view .LVU2
  33              	.LVL0:
  34              		.loc 1 159 21 view .LVU3
  35              		.loc 1 159 14 is_stmt 0 view .LVU4
  36 0000 0023     		movs	r3, #0
  37              	.LBB37:
  38              	.LBB38:
 160:smtc_modem_core/device_management/modem_context.c ****     {
 161:smtc_modem_core/device_management/modem_context.c ****         set_modem_event_count( ( modem_rsp_event_t ) i, 0 );
 162:smtc_modem_core/device_management/modem_context.c ****         set_modem_event_status( ( modem_rsp_event_t ) i, 0 );
 163:smtc_modem_core/device_management/modem_context.c ****     }
 164:smtc_modem_core/device_management/modem_context.c **** }
 165:smtc_modem_core/device_management/modem_context.c **** 
 166:smtc_modem_core/device_management/modem_context.c **** uint8_t get_modem_event_count( modem_rsp_event_t event_type )
 167:smtc_modem_core/device_management/modem_context.c **** {
 168:smtc_modem_core/device_management/modem_context.c ****     if( event_type >= RSP_NUMBER )
 169:smtc_modem_core/device_management/modem_context.c ****     {
 170:smtc_modem_core/device_management/modem_context.c ****         bsp_mcu_panic( );
 171:smtc_modem_core/device_management/modem_context.c ****     }
 172:smtc_modem_core/device_management/modem_context.c **** 
 173:smtc_modem_core/device_management/modem_context.c ****     return ( modem_event_count[event_type] );
 174:smtc_modem_core/device_management/modem_context.c **** }
 175:smtc_modem_core/device_management/modem_context.c **** 
 176:smtc_modem_core/device_management/modem_context.c **** void set_modem_event_count( modem_rsp_event_t event_type, uint8_t value )
 177:smtc_modem_core/device_management/modem_context.c **** {
 178:smtc_modem_core/device_management/modem_context.c ****     if( event_type < RSP_NUMBER )
 179:smtc_modem_core/device_management/modem_context.c ****     {
 180:smtc_modem_core/device_management/modem_context.c ****         modem_event_count[event_type] = value;
  39              		.loc 1 180 39 view .LVU5
  40 0002 1A00     		movs	r2, r3
  41 0004 0348     		ldr	r0, .L4
  42              	.LBE38:
  43              	.LBE37:
  44              	.LBB40:
  45              	.LBB41:
 181:smtc_modem_core/device_management/modem_context.c ****     }
 182:smtc_modem_core/device_management/modem_context.c **** }
 183:smtc_modem_core/device_management/modem_context.c **** 
 184:smtc_modem_core/device_management/modem_context.c **** void increment_modem_event_count( modem_rsp_event_t event_type )
ARM GAS  /var/folders/bq/yv49bw8j2kd6w3hsq868qv180000gn/T//ccEK2k0g.s 			page 5


 185:smtc_modem_core/device_management/modem_context.c **** {
 186:smtc_modem_core/device_management/modem_context.c ****     if( event_type < RSP_NUMBER )
 187:smtc_modem_core/device_management/modem_context.c ****     {
 188:smtc_modem_core/device_management/modem_context.c ****         if( modem_event_count[event_type] < 255 )
 189:smtc_modem_core/device_management/modem_context.c ****         {
 190:smtc_modem_core/device_management/modem_context.c ****             modem_event_count[event_type]++;
 191:smtc_modem_core/device_management/modem_context.c ****         }
 192:smtc_modem_core/device_management/modem_context.c ****     }
 193:smtc_modem_core/device_management/modem_context.c **** }
 194:smtc_modem_core/device_management/modem_context.c **** 
 195:smtc_modem_core/device_management/modem_context.c **** uint8_t get_modem_event_status( modem_rsp_event_t event_type )
 196:smtc_modem_core/device_management/modem_context.c **** {
 197:smtc_modem_core/device_management/modem_context.c ****     if( event_type >= RSP_NUMBER )
 198:smtc_modem_core/device_management/modem_context.c ****     {
 199:smtc_modem_core/device_management/modem_context.c ****         bsp_mcu_panic( );
 200:smtc_modem_core/device_management/modem_context.c ****     }
 201:smtc_modem_core/device_management/modem_context.c ****     return ( modem_event_status[event_type] );
 202:smtc_modem_core/device_management/modem_context.c **** }
 203:smtc_modem_core/device_management/modem_context.c **** 
 204:smtc_modem_core/device_management/modem_context.c **** void set_modem_event_status( modem_rsp_event_t event_type, uint8_t status )
 205:smtc_modem_core/device_management/modem_context.c **** {
 206:smtc_modem_core/device_management/modem_context.c ****     if( event_type < RSP_NUMBER )
 207:smtc_modem_core/device_management/modem_context.c ****     {
 208:smtc_modem_core/device_management/modem_context.c ****         modem_event_status[event_type] = status;
  46              		.loc 1 208 40 view .LVU6
  47 0006 0449     		ldr	r1, .L4+4
  48              	.LVL1:
  49              	.L2:
  50              		.loc 1 208 40 view .LVU7
  51              	.LBE41:
  52              	.LBE40:
 161:smtc_modem_core/device_management/modem_context.c ****         set_modem_event_status( ( modem_rsp_event_t ) i, 0 );
  53              		.loc 1 161 9 is_stmt 1 discriminator 3 view .LVU8
  54              	.LBB43:
  55              	.LBI37:
 176:smtc_modem_core/device_management/modem_context.c **** {
  56              		.loc 1 176 6 discriminator 3 view .LVU9
  57              	.LBB39:
 178:smtc_modem_core/device_management/modem_context.c ****     {
  58              		.loc 1 178 5 discriminator 3 view .LVU10
 180:smtc_modem_core/device_management/modem_context.c ****     }
  59              		.loc 1 180 9 discriminator 3 view .LVU11
 180:smtc_modem_core/device_management/modem_context.c ****     }
  60              		.loc 1 180 39 is_stmt 0 discriminator 3 view .LVU12
  61 0008 1A54     		strb	r2, [r3, r0]
  62              	.LVL2:
 180:smtc_modem_core/device_management/modem_context.c ****     }
  63              		.loc 1 180 39 discriminator 3 view .LVU13
  64              	.LBE39:
  65              	.LBE43:
 162:smtc_modem_core/device_management/modem_context.c ****     }
  66              		.loc 1 162 9 is_stmt 1 discriminator 3 view .LVU14
  67              	.LBB44:
  68              	.LBI40:
 204:smtc_modem_core/device_management/modem_context.c **** {
  69              		.loc 1 204 6 discriminator 3 view .LVU15
  70              	.LBB42:
ARM GAS  /var/folders/bq/yv49bw8j2kd6w3hsq868qv180000gn/T//ccEK2k0g.s 			page 6


 206:smtc_modem_core/device_management/modem_context.c ****     {
  71              		.loc 1 206 5 discriminator 3 view .LVU16
  72              		.loc 1 208 9 discriminator 3 view .LVU17
  73              		.loc 1 208 40 is_stmt 0 discriminator 3 view .LVU18
  74 000a 5A54     		strb	r2, [r3, r1]
  75              	.LVL3:
  76              		.loc 1 208 40 discriminator 3 view .LVU19
  77              	.LBE42:
  78              	.LBE44:
 159:smtc_modem_core/device_management/modem_context.c ****     {
  79              		.loc 1 159 37 is_stmt 1 discriminator 3 view .LVU20
 159:smtc_modem_core/device_management/modem_context.c ****     {
  80              		.loc 1 159 38 is_stmt 0 discriminator 3 view .LVU21
  81 000c 0133     		adds	r3, r3, #1
  82              	.LVL4:
 159:smtc_modem_core/device_management/modem_context.c ****     {
  83              		.loc 1 159 21 is_stmt 1 discriminator 3 view .LVU22
 159:smtc_modem_core/device_management/modem_context.c ****     {
  84              		.loc 1 159 5 is_stmt 0 discriminator 3 view .LVU23
  85 000e 0B2B     		cmp	r3, #11
  86 0010 FAD1     		bne	.L2
  87              	.LBE36:
 164:smtc_modem_core/device_management/modem_context.c **** 
  88              		.loc 1 164 1 view .LVU24
  89              		@ sp needed
  90 0012 7047     		bx	lr
  91              	.L5:
  92              		.align	2
  93              	.L4:
  94 0014 00000000 		.word	.LANCHOR0
  95 0018 00000000 		.word	.LANCHOR1
  96              		.cfi_endproc
  97              	.LFE11:
  99              		.section	.text.get_modem_event_count,"ax",%progbits
 100              		.align	1
 101              		.global	get_modem_event_count
 102              		.syntax unified
 103              		.code	16
 104              		.thumb_func
 105              		.fpu softvfp
 107              	get_modem_event_count:
 108              	.LVL5:
 109              	.LFB12:
 167:smtc_modem_core/device_management/modem_context.c ****     if( event_type >= RSP_NUMBER )
 110              		.loc 1 167 1 is_stmt 1 view -0
 111              		.cfi_startproc
 112              		@ args = 0, pretend = 0, frame = 0
 113              		@ frame_needed = 0, uses_anonymous_args = 0
 168:smtc_modem_core/device_management/modem_context.c ****     {
 114              		.loc 1 168 5 view .LVU26
 167:smtc_modem_core/device_management/modem_context.c ****     if( event_type >= RSP_NUMBER )
 115              		.loc 1 167 1 is_stmt 0 view .LVU27
 116 0000 10B5     		push	{r4, lr}
 117              		.cfi_def_cfa_offset 8
 118              		.cfi_offset 4, -8
 119              		.cfi_offset 14, -4
 167:smtc_modem_core/device_management/modem_context.c ****     if( event_type >= RSP_NUMBER )
ARM GAS  /var/folders/bq/yv49bw8j2kd6w3hsq868qv180000gn/T//ccEK2k0g.s 			page 7


 120              		.loc 1 167 1 view .LVU28
 121 0002 0400     		movs	r4, r0
 168:smtc_modem_core/device_management/modem_context.c ****     {
 122              		.loc 1 168 7 view .LVU29
 123 0004 0A28     		cmp	r0, #10
 124 0006 01D9     		bls	.L7
 170:smtc_modem_core/device_management/modem_context.c ****     }
 125              		.loc 1 170 9 is_stmt 1 view .LVU30
 126 0008 FFF7FEFF 		bl	bsp_mcu_panic
 127              	.LVL6:
 128              	.L7:
 173:smtc_modem_core/device_management/modem_context.c **** }
 129              		.loc 1 173 5 view .LVU31
 173:smtc_modem_core/device_management/modem_context.c **** }
 130              		.loc 1 173 31 is_stmt 0 view .LVU32
 131 000c 014B     		ldr	r3, .L8
 174:smtc_modem_core/device_management/modem_context.c **** 
 132              		.loc 1 174 1 view .LVU33
 133              		@ sp needed
 173:smtc_modem_core/device_management/modem_context.c **** }
 134              		.loc 1 173 31 view .LVU34
 135 000e 185D     		ldrb	r0, [r3, r4]
 174:smtc_modem_core/device_management/modem_context.c **** 
 136              		.loc 1 174 1 view .LVU35
 137 0010 10BD     		pop	{r4, pc}
 138              	.L9:
 139 0012 C046     		.align	2
 140              	.L8:
 141 0014 00000000 		.word	.LANCHOR0
 142              		.cfi_endproc
 143              	.LFE12:
 145              		.section	.text.set_modem_event_count,"ax",%progbits
 146              		.align	1
 147              		.global	set_modem_event_count
 148              		.syntax unified
 149              		.code	16
 150              		.thumb_func
 151              		.fpu softvfp
 153              	set_modem_event_count:
 154              	.LVL7:
 155              	.LFB13:
 177:smtc_modem_core/device_management/modem_context.c ****     if( event_type < RSP_NUMBER )
 156              		.loc 1 177 1 is_stmt 1 view -0
 157              		.cfi_startproc
 158              		@ args = 0, pretend = 0, frame = 0
 159              		@ frame_needed = 0, uses_anonymous_args = 0
 160              		@ link register save eliminated.
 178:smtc_modem_core/device_management/modem_context.c ****     {
 161              		.loc 1 178 5 view .LVU37
 178:smtc_modem_core/device_management/modem_context.c ****     {
 162              		.loc 1 178 7 is_stmt 0 view .LVU38
 163 0000 0A28     		cmp	r0, #10
 164 0002 01D8     		bhi	.L10
 180:smtc_modem_core/device_management/modem_context.c ****     }
 165              		.loc 1 180 9 is_stmt 1 view .LVU39
 180:smtc_modem_core/device_management/modem_context.c ****     }
 166              		.loc 1 180 39 is_stmt 0 view .LVU40
ARM GAS  /var/folders/bq/yv49bw8j2kd6w3hsq868qv180000gn/T//ccEK2k0g.s 			page 8


 167 0004 014B     		ldr	r3, .L12
 168 0006 1954     		strb	r1, [r3, r0]
 169              	.L10:
 182:smtc_modem_core/device_management/modem_context.c **** 
 170              		.loc 1 182 1 view .LVU41
 171              		@ sp needed
 172 0008 7047     		bx	lr
 173              	.L13:
 174 000a C046     		.align	2
 175              	.L12:
 176 000c 00000000 		.word	.LANCHOR0
 177              		.cfi_endproc
 178              	.LFE13:
 180              		.section	.text.increment_modem_event_count,"ax",%progbits
 181              		.align	1
 182              		.global	increment_modem_event_count
 183              		.syntax unified
 184              		.code	16
 185              		.thumb_func
 186              		.fpu softvfp
 188              	increment_modem_event_count:
 189              	.LVL8:
 190              	.LFB14:
 185:smtc_modem_core/device_management/modem_context.c ****     if( event_type < RSP_NUMBER )
 191              		.loc 1 185 1 is_stmt 1 view -0
 192              		.cfi_startproc
 193              		@ args = 0, pretend = 0, frame = 0
 194              		@ frame_needed = 0, uses_anonymous_args = 0
 195              		@ link register save eliminated.
 186:smtc_modem_core/device_management/modem_context.c ****     {
 196              		.loc 1 186 5 view .LVU43
 186:smtc_modem_core/device_management/modem_context.c ****     {
 197              		.loc 1 186 7 is_stmt 0 view .LVU44
 198 0000 0A28     		cmp	r0, #10
 199 0002 05D8     		bhi	.L14
 200              	.LVL9:
 201              	.LBB47:
 202              	.LBI47:
 184:smtc_modem_core/device_management/modem_context.c **** {
 203              		.loc 1 184 6 is_stmt 1 view .LVU45
 204              	.LBB48:
 188:smtc_modem_core/device_management/modem_context.c ****         {
 205              		.loc 1 188 9 view .LVU46
 188:smtc_modem_core/device_management/modem_context.c ****         {
 206              		.loc 1 188 30 is_stmt 0 view .LVU47
 207 0004 034A     		ldr	r2, .L19
 208 0006 135C     		ldrb	r3, [r2, r0]
 188:smtc_modem_core/device_management/modem_context.c ****         {
 209              		.loc 1 188 11 view .LVU48
 210 0008 FF2B     		cmp	r3, #255
 211 000a 01D0     		beq	.L14
 190:smtc_modem_core/device_management/modem_context.c ****         }
 212              		.loc 1 190 13 is_stmt 1 view .LVU49
 190:smtc_modem_core/device_management/modem_context.c ****         }
 213              		.loc 1 190 42 is_stmt 0 view .LVU50
 214 000c 0133     		adds	r3, r3, #1
 215 000e 1354     		strb	r3, [r2, r0]
ARM GAS  /var/folders/bq/yv49bw8j2kd6w3hsq868qv180000gn/T//ccEK2k0g.s 			page 9


 216              	.LVL10:
 217              	.L14:
 190:smtc_modem_core/device_management/modem_context.c ****         }
 218              		.loc 1 190 42 view .LVU51
 219              	.LBE48:
 220              	.LBE47:
 193:smtc_modem_core/device_management/modem_context.c **** 
 221              		.loc 1 193 1 view .LVU52
 222              		@ sp needed
 223 0010 7047     		bx	lr
 224              	.L20:
 225 0012 C046     		.align	2
 226              	.L19:
 227 0014 00000000 		.word	.LANCHOR0
 228              		.cfi_endproc
 229              	.LFE14:
 231              		.section	.text.get_modem_event_status,"ax",%progbits
 232              		.align	1
 233              		.global	get_modem_event_status
 234              		.syntax unified
 235              		.code	16
 236              		.thumb_func
 237              		.fpu softvfp
 239              	get_modem_event_status:
 240              	.LVL11:
 241              	.LFB15:
 196:smtc_modem_core/device_management/modem_context.c ****     if( event_type >= RSP_NUMBER )
 242              		.loc 1 196 1 is_stmt 1 view -0
 243              		.cfi_startproc
 244              		@ args = 0, pretend = 0, frame = 0
 245              		@ frame_needed = 0, uses_anonymous_args = 0
 197:smtc_modem_core/device_management/modem_context.c ****     {
 246              		.loc 1 197 5 view .LVU54
 196:smtc_modem_core/device_management/modem_context.c ****     if( event_type >= RSP_NUMBER )
 247              		.loc 1 196 1 is_stmt 0 view .LVU55
 248 0000 10B5     		push	{r4, lr}
 249              		.cfi_def_cfa_offset 8
 250              		.cfi_offset 4, -8
 251              		.cfi_offset 14, -4
 196:smtc_modem_core/device_management/modem_context.c ****     if( event_type >= RSP_NUMBER )
 252              		.loc 1 196 1 view .LVU56
 253 0002 0400     		movs	r4, r0
 197:smtc_modem_core/device_management/modem_context.c ****     {
 254              		.loc 1 197 7 view .LVU57
 255 0004 0A28     		cmp	r0, #10
 256 0006 01D9     		bls	.L22
 199:smtc_modem_core/device_management/modem_context.c ****     }
 257              		.loc 1 199 9 is_stmt 1 view .LVU58
 258 0008 FFF7FEFF 		bl	bsp_mcu_panic
 259              	.LVL12:
 260              	.L22:
 201:smtc_modem_core/device_management/modem_context.c **** }
 261              		.loc 1 201 5 view .LVU59
 201:smtc_modem_core/device_management/modem_context.c **** }
 262              		.loc 1 201 32 is_stmt 0 view .LVU60
 263 000c 014B     		ldr	r3, .L23
 202:smtc_modem_core/device_management/modem_context.c **** 
ARM GAS  /var/folders/bq/yv49bw8j2kd6w3hsq868qv180000gn/T//ccEK2k0g.s 			page 10


 264              		.loc 1 202 1 view .LVU61
 265              		@ sp needed
 201:smtc_modem_core/device_management/modem_context.c **** }
 266              		.loc 1 201 32 view .LVU62
 267 000e 185D     		ldrb	r0, [r3, r4]
 202:smtc_modem_core/device_management/modem_context.c **** 
 268              		.loc 1 202 1 view .LVU63
 269 0010 10BD     		pop	{r4, pc}
 270              	.L24:
 271 0012 C046     		.align	2
 272              	.L23:
 273 0014 00000000 		.word	.LANCHOR1
 274              		.cfi_endproc
 275              	.LFE15:
 277              		.section	.text.set_modem_event_status,"ax",%progbits
 278              		.align	1
 279              		.global	set_modem_event_status
 280              		.syntax unified
 281              		.code	16
 282              		.thumb_func
 283              		.fpu softvfp
 285              	set_modem_event_status:
 286              	.LVL13:
 287              	.LFB16:
 205:smtc_modem_core/device_management/modem_context.c ****     if( event_type < RSP_NUMBER )
 288              		.loc 1 205 1 is_stmt 1 view -0
 289              		.cfi_startproc
 290              		@ args = 0, pretend = 0, frame = 0
 291              		@ frame_needed = 0, uses_anonymous_args = 0
 292              		@ link register save eliminated.
 206:smtc_modem_core/device_management/modem_context.c ****     {
 293              		.loc 1 206 5 view .LVU65
 206:smtc_modem_core/device_management/modem_context.c ****     {
 294              		.loc 1 206 7 is_stmt 0 view .LVU66
 295 0000 0A28     		cmp	r0, #10
 296 0002 01D8     		bhi	.L25
 297              		.loc 1 208 9 is_stmt 1 view .LVU67
 298              		.loc 1 208 40 is_stmt 0 view .LVU68
 299 0004 014B     		ldr	r3, .L27
 300 0006 1954     		strb	r1, [r3, r0]
 301              	.L25:
 209:smtc_modem_core/device_management/modem_context.c ****     }
 210:smtc_modem_core/device_management/modem_context.c **** }
 302              		.loc 1 210 1 view .LVU69
 303              		@ sp needed
 304 0008 7047     		bx	lr
 305              	.L28:
 306 000a C046     		.align	2
 307              	.L27:
 308 000c 00000000 		.word	.LANCHOR1
 309              		.cfi_endproc
 310              	.LFE16:
 312              		.section	.text.decrement_asynchronous_msgnumber,"ax",%progbits
 313              		.align	1
 314              		.global	decrement_asynchronous_msgnumber
 315              		.syntax unified
 316              		.code	16
ARM GAS  /var/folders/bq/yv49bw8j2kd6w3hsq868qv180000gn/T//ccEK2k0g.s 			page 11


 317              		.thumb_func
 318              		.fpu softvfp
 320              	decrement_asynchronous_msgnumber:
 321              	.LFB17:
 211:smtc_modem_core/device_management/modem_context.c **** 
 212:smtc_modem_core/device_management/modem_context.c **** void decrement_asynchronous_msgnumber( void )
 213:smtc_modem_core/device_management/modem_context.c **** {
 322              		.loc 1 213 1 is_stmt 1 view -0
 323              		.cfi_startproc
 324              		@ args = 0, pretend = 0, frame = 0
 325              		@ frame_needed = 0, uses_anonymous_args = 0
 326              		@ link register save eliminated.
 214:smtc_modem_core/device_management/modem_context.c ****     if( asynchronous_msgnumber > 0 )
 327              		.loc 1 214 5 view .LVU71
 328              		.loc 1 214 32 is_stmt 0 view .LVU72
 329 0000 034A     		ldr	r2, .L34
 330 0002 1378     		ldrb	r3, [r2]
 331              		.loc 1 214 7 view .LVU73
 332 0004 002B     		cmp	r3, #0
 333 0006 01D0     		beq	.L30
 215:smtc_modem_core/device_management/modem_context.c ****     {
 216:smtc_modem_core/device_management/modem_context.c ****         asynchronous_msgnumber--;
 334              		.loc 1 216 9 is_stmt 1 view .LVU74
 335              		.loc 1 216 31 is_stmt 0 view .LVU75
 336 0008 013B     		subs	r3, r3, #1
 337 000a DBB2     		uxtb	r3, r3
 338              	.L30:
 217:smtc_modem_core/device_management/modem_context.c ****     }
 218:smtc_modem_core/device_management/modem_context.c ****     else
 219:smtc_modem_core/device_management/modem_context.c ****     {
 220:smtc_modem_core/device_management/modem_context.c ****         asynchronous_msgnumber = 0;
 221:smtc_modem_core/device_management/modem_context.c ****     }
 222:smtc_modem_core/device_management/modem_context.c **** }
 339              		.loc 1 222 1 view .LVU76
 340              		@ sp needed
 341 000c 1370     		strb	r3, [r2]
 342 000e 7047     		bx	lr
 343              	.L35:
 344              		.align	2
 345              	.L34:
 346 0010 00000000 		.word	.LANCHOR2
 347              		.cfi_endproc
 348              	.LFE17:
 350              		.section	.text.get_asynchronous_msgnumber,"ax",%progbits
 351              		.align	1
 352              		.global	get_asynchronous_msgnumber
 353              		.syntax unified
 354              		.code	16
 355              		.thumb_func
 356              		.fpu softvfp
 358              	get_asynchronous_msgnumber:
 359              	.LFB18:
 223:smtc_modem_core/device_management/modem_context.c **** 
 224:smtc_modem_core/device_management/modem_context.c **** uint8_t get_asynchronous_msgnumber( void )
 225:smtc_modem_core/device_management/modem_context.c **** {
 360              		.loc 1 225 1 is_stmt 1 view -0
 361              		.cfi_startproc
ARM GAS  /var/folders/bq/yv49bw8j2kd6w3hsq868qv180000gn/T//ccEK2k0g.s 			page 12


 362              		@ args = 0, pretend = 0, frame = 0
 363              		@ frame_needed = 0, uses_anonymous_args = 0
 364              		@ link register save eliminated.
 226:smtc_modem_core/device_management/modem_context.c ****     return ( asynchronous_msgnumber );
 365              		.loc 1 226 5 view .LVU78
 366              		.loc 1 226 12 is_stmt 0 view .LVU79
 367 0000 014B     		ldr	r3, .L37
 227:smtc_modem_core/device_management/modem_context.c **** }
 368              		.loc 1 227 1 view .LVU80
 369              		@ sp needed
 226:smtc_modem_core/device_management/modem_context.c ****     return ( asynchronous_msgnumber );
 370              		.loc 1 226 12 view .LVU81
 371 0002 1878     		ldrb	r0, [r3]
 372              		.loc 1 227 1 view .LVU82
 373 0004 7047     		bx	lr
 374              	.L38:
 375 0006 C046     		.align	2
 376              	.L37:
 377 0008 00000000 		.word	.LANCHOR2
 378              		.cfi_endproc
 379              	.LFE18:
 381              		.section	.rodata.increment_asynchronous_msgnumber.str1.1,"aMS",%progbits,1
 382              	.LC10:
 383 0000 1B5B303B 		.ascii	"\033[0;31m\000"
 383      33316D00 
 384              	.LC12:
 385 0008 4552524F 		.ascii	"ERROR: \000"
 385      523A2000 
 386              	.LC14:
 387 0010 204D6F64 		.ascii	" Modem reach the max number of asynch message\000"
 387      656D2072 
 387      65616368 
 387      20746865 
 387      206D6178 
 388              	.LC16:
 389 003e 1B5B306D 		.ascii	"\033[0m\000"
 389      00
 390              	.LC19:
 391 0043 1B5B303B 		.ascii	"\033[0;32m\000"
 391      33326D00 
 392              	.LC21:
 393 004b 494E464F 		.ascii	"INFO : \000"
 393      203A2000 
 394              	.LC23:
 395 0053 696E6372 		.ascii	"increment event RSP_JOINED\012\000"
 395      656D656E 
 395      74206576 
 395      656E7420 
 395      5253505F 
 396              	.LC25:
 397 006f 696E6372 		.ascii	"increment event RSP_ALARM\012\000"
 397      656D656E 
 397      74206576 
 397      656E7420 
 397      5253505F 
 398              	.LC27:
 399 008a 696E6372 		.ascii	"increment event RSP_DOWNDATA\012\000"
ARM GAS  /var/folders/bq/yv49bw8j2kd6w3hsq868qv180000gn/T//ccEK2k0g.s 			page 13


 399      656D656E 
 399      74206576 
 399      656E7420 
 399      5253505F 
 400              	.LC30:
 401 00a8 6576656E 		.ascii	"event count tx done = %d\012\000"
 401      7420636F 
 401      756E7420 
 401      74782064 
 401      6F6E6520 
 402              	.LC32:
 403 00c2 696E6372 		.ascii	"increment event RSP_FILEDONE\012\000"
 403      656D656E 
 403      74206576 
 403      656E7420 
 403      5253505F 
 404              	.LC34:
 405 00e0 696E6372 		.ascii	"increment event RSP_STREAMDONE\012\000"
 405      656D656E 
 405      74206576 
 405      656E7420 
 405      5253505F 
 406              	.LC36:
 407 0100 696E6372 		.ascii	"increment event RSP_SETCONF\012\000"
 407      656D656E 
 407      74206576 
 407      656E7420 
 407      5253505F 
 408              	.LC38:
 409 011d 696E6372 		.ascii	"increment event RSP_MUTE\012\000"
 409      656D656E 
 409      74206576 
 409      656E7420 
 409      5253505F 
 410              		.section	.text.increment_asynchronous_msgnumber,"ax",%progbits
 411              		.align	1
 412              		.global	increment_asynchronous_msgnumber
 413              		.syntax unified
 414              		.code	16
 415              		.thumb_func
 416              		.fpu softvfp
 418              	increment_asynchronous_msgnumber:
 419              	.LVL14:
 420              	.LFB19:
 228:smtc_modem_core/device_management/modem_context.c **** 
 229:smtc_modem_core/device_management/modem_context.c **** void increment_asynchronous_msgnumber( modem_rsp_event_t event_type, uint8_t status )
 230:smtc_modem_core/device_management/modem_context.c **** {
 421              		.loc 1 230 1 is_stmt 1 view -0
 422              		.cfi_startproc
 423              		@ args = 0, pretend = 0, frame = 0
 424              		@ frame_needed = 0, uses_anonymous_args = 0
 231:smtc_modem_core/device_management/modem_context.c ****     // Next condition should never append because only one asynch msg by type of message
 232:smtc_modem_core/device_management/modem_context.c ****     if( asynchronous_msgnumber > RSP_NUMBER )
 425              		.loc 1 232 5 view .LVU84
 230:smtc_modem_core/device_management/modem_context.c ****     // Next condition should never append because only one asynch msg by type of message
 426              		.loc 1 230 1 is_stmt 0 view .LVU85
 427 0000 F8B5     		push	{r3, r4, r5, r6, r7, lr}
ARM GAS  /var/folders/bq/yv49bw8j2kd6w3hsq868qv180000gn/T//ccEK2k0g.s 			page 14


 428              		.cfi_def_cfa_offset 24
 429              		.cfi_offset 3, -24
 430              		.cfi_offset 4, -20
 431              		.cfi_offset 5, -16
 432              		.cfi_offset 6, -12
 433              		.cfi_offset 7, -8
 434              		.cfi_offset 14, -4
 435              		.loc 1 232 32 view .LVU86
 436 0002 3C4F     		ldr	r7, .L55
 230:smtc_modem_core/device_management/modem_context.c ****     // Next condition should never append because only one asynch msg by type of message
 437              		.loc 1 230 1 view .LVU87
 438 0004 0400     		movs	r4, r0
 439              		.loc 1 232 7 view .LVU88
 440 0006 3B78     		ldrb	r3, [r7]
 230:smtc_modem_core/device_management/modem_context.c ****     // Next condition should never append because only one asynch msg by type of message
 441              		.loc 1 230 1 view .LVU89
 442 0008 0D00     		movs	r5, r1
 443              		.loc 1 232 7 view .LVU90
 444 000a 0B2B     		cmp	r3, #11
 445 000c 0CD9     		bls	.L40
 233:smtc_modem_core/device_management/modem_context.c ****     {
 234:smtc_modem_core/device_management/modem_context.c ****         BSP_DBG_TRACE_ERROR( " Modem reach the max number of asynch message" );
 446              		.loc 1 234 9 is_stmt 1 view .LVU91
 447              		.loc 1 234 9 view .LVU92
 448 000e 3A48     		ldr	r0, .L55+4
 449              	.LVL15:
 450              		.loc 1 234 9 is_stmt 0 view .LVU93
 451 0010 FFF7FEFF 		bl	bsp_trace_print
 452              	.LVL16:
 453              		.loc 1 234 9 is_stmt 1 view .LVU94
 454 0014 3948     		ldr	r0, .L55+8
 455 0016 FFF7FEFF 		bl	bsp_trace_print
 456              	.LVL17:
 457              		.loc 1 234 9 view .LVU95
 458 001a 3948     		ldr	r0, .L55+12
 459 001c FFF7FEFF 		bl	bsp_trace_print
 460              	.LVL18:
 461              		.loc 1 234 9 view .LVU96
 462 0020 3848     		ldr	r0, .L55+16
 463 0022 FFF7FEFF 		bl	bsp_trace_print
 464              	.LVL19:
 465              		.loc 1 234 9 view .LVU97
 466              		.loc 1 234 79 view .LVU98
 235:smtc_modem_core/device_management/modem_context.c ****         return;
 467              		.loc 1 235 9 view .LVU99
 468              	.L39:
 236:smtc_modem_core/device_management/modem_context.c ****     }
 237:smtc_modem_core/device_management/modem_context.c ****     uint8_t tmp;
 238:smtc_modem_core/device_management/modem_context.c ****     tmp = get_modem_event_count( event_type );
 239:smtc_modem_core/device_management/modem_context.c ****     if( tmp == 0 )
 240:smtc_modem_core/device_management/modem_context.c ****     {
 241:smtc_modem_core/device_management/modem_context.c ****         asynchronous_msgnumber++;
 242:smtc_modem_core/device_management/modem_context.c ****     }
 243:smtc_modem_core/device_management/modem_context.c **** 
 244:smtc_modem_core/device_management/modem_context.c ****     increment_modem_event_count( event_type );
 245:smtc_modem_core/device_management/modem_context.c ****     set_modem_event_status( event_type, status );
 246:smtc_modem_core/device_management/modem_context.c **** 
ARM GAS  /var/folders/bq/yv49bw8j2kd6w3hsq868qv180000gn/T//ccEK2k0g.s 			page 15


 247:smtc_modem_core/device_management/modem_context.c ****     switch( event_type )
 248:smtc_modem_core/device_management/modem_context.c ****     {
 249:smtc_modem_core/device_management/modem_context.c ****     case RSP_JOINED:
 250:smtc_modem_core/device_management/modem_context.c ****         BSP_DBG_TRACE_INFO( "increment event RSP_JOINED\n" );
 251:smtc_modem_core/device_management/modem_context.c ****         break;
 252:smtc_modem_core/device_management/modem_context.c ****     case RSP_ALARM:
 253:smtc_modem_core/device_management/modem_context.c ****         BSP_DBG_TRACE_INFO( "increment event RSP_ALARM\n" );
 254:smtc_modem_core/device_management/modem_context.c ****         break;
 255:smtc_modem_core/device_management/modem_context.c ****     case RSP_DOWNDATA:
 256:smtc_modem_core/device_management/modem_context.c ****         BSP_DBG_TRACE_INFO( "increment event RSP_DOWNDATA\n" );
 257:smtc_modem_core/device_management/modem_context.c ****         break;
 258:smtc_modem_core/device_management/modem_context.c ****     case RSP_TXDONE:
 259:smtc_modem_core/device_management/modem_context.c ****         BSP_DBG_TRACE_INFO( "event count tx done = %d\n", get_modem_event_count( RSP_TXDONE ) );
 260:smtc_modem_core/device_management/modem_context.c ****         break;
 261:smtc_modem_core/device_management/modem_context.c ****     case RSP_FILEDONE:
 262:smtc_modem_core/device_management/modem_context.c ****         BSP_DBG_TRACE_INFO( "increment event RSP_FILEDONE\n" );
 263:smtc_modem_core/device_management/modem_context.c ****         break;
 264:smtc_modem_core/device_management/modem_context.c ****     case RSP_STREAMDONE:
 265:smtc_modem_core/device_management/modem_context.c ****         BSP_DBG_TRACE_INFO( "increment event RSP_STREAMDONE\n" );
 266:smtc_modem_core/device_management/modem_context.c ****         break;
 267:smtc_modem_core/device_management/modem_context.c ****     case RSP_SETCONF:
 268:smtc_modem_core/device_management/modem_context.c ****         BSP_DBG_TRACE_INFO( "increment event RSP_SETCONF\n" );
 269:smtc_modem_core/device_management/modem_context.c ****         break;
 270:smtc_modem_core/device_management/modem_context.c ****     case RSP_MUTE:
 271:smtc_modem_core/device_management/modem_context.c ****         BSP_DBG_TRACE_INFO( "increment event RSP_MUTE\n" );
 272:smtc_modem_core/device_management/modem_context.c ****         break;
 273:smtc_modem_core/device_management/modem_context.c ****     default:
 274:smtc_modem_core/device_management/modem_context.c **** 
 275:smtc_modem_core/device_management/modem_context.c ****         break;
 276:smtc_modem_core/device_management/modem_context.c ****     }
 277:smtc_modem_core/device_management/modem_context.c ****     asynch_msg[asynchronous_msgnumber] = event_type;
 278:smtc_modem_core/device_management/modem_context.c **** }
 469              		.loc 1 278 1 is_stmt 0 view .LVU100
 470              		@ sp needed
 471 0026 F8BD     		pop	{r3, r4, r5, r6, r7, pc}
 472              	.LVL20:
 473              	.L40:
 474              	.LBB55:
 475              	.LBI55:
 229:smtc_modem_core/device_management/modem_context.c **** {
 476              		.loc 1 229 6 is_stmt 1 view .LVU101
 477              	.LBB56:
 237:smtc_modem_core/device_management/modem_context.c ****     tmp = get_modem_event_count( event_type );
 478              		.loc 1 237 5 view .LVU102
 238:smtc_modem_core/device_management/modem_context.c ****     if( tmp == 0 )
 479              		.loc 1 238 5 view .LVU103
 238:smtc_modem_core/device_management/modem_context.c ****     if( tmp == 0 )
 480              		.loc 1 238 11 is_stmt 0 view .LVU104
 481 0028 FFF7FEFF 		bl	get_modem_event_count
 482              	.LVL21:
 239:smtc_modem_core/device_management/modem_context.c ****     {
 483              		.loc 1 239 5 is_stmt 1 view .LVU105
 239:smtc_modem_core/device_management/modem_context.c ****     {
 484              		.loc 1 239 7 is_stmt 0 view .LVU106
 485 002c 0028     		cmp	r0, #0
 486 002e 02D1     		bne	.L42
 241:smtc_modem_core/device_management/modem_context.c ****     }
ARM GAS  /var/folders/bq/yv49bw8j2kd6w3hsq868qv180000gn/T//ccEK2k0g.s 			page 16


 487              		.loc 1 241 9 is_stmt 1 view .LVU107
 241:smtc_modem_core/device_management/modem_context.c ****     }
 488              		.loc 1 241 31 is_stmt 0 view .LVU108
 489 0030 3B78     		ldrb	r3, [r7]
 490 0032 0133     		adds	r3, r3, #1
 491 0034 3B70     		strb	r3, [r7]
 492              	.L42:
 244:smtc_modem_core/device_management/modem_context.c ****     set_modem_event_status( event_type, status );
 493              		.loc 1 244 5 is_stmt 1 view .LVU109
 494 0036 2000     		movs	r0, r4
 495              	.LVL22:
 244:smtc_modem_core/device_management/modem_context.c ****     set_modem_event_status( event_type, status );
 496              		.loc 1 244 5 is_stmt 0 view .LVU110
 497 0038 FFF7FEFF 		bl	increment_modem_event_count
 498              	.LVL23:
 245:smtc_modem_core/device_management/modem_context.c **** 
 499              		.loc 1 245 5 is_stmt 1 view .LVU111
 500              	.LBB57:
 501              	.LBI57:
 204:smtc_modem_core/device_management/modem_context.c **** {
 502              		.loc 1 204 6 view .LVU112
 503              	.LBB58:
 206:smtc_modem_core/device_management/modem_context.c ****     {
 504              		.loc 1 206 5 view .LVU113
 206:smtc_modem_core/device_management/modem_context.c ****     {
 505              		.loc 1 206 7 is_stmt 0 view .LVU114
 506 003c 0A2C     		cmp	r4, #10
 507 003e 35D8     		bhi	.L43
 208:smtc_modem_core/device_management/modem_context.c ****     }
 508              		.loc 1 208 9 is_stmt 1 view .LVU115
 208:smtc_modem_core/device_management/modem_context.c ****     }
 509              		.loc 1 208 40 is_stmt 0 view .LVU116
 510 0040 314B     		ldr	r3, .L55+20
 511 0042 601E     		subs	r0, r4, #1
 512 0044 1D55     		strb	r5, [r3, r4]
 513              	.LVL24:
 208:smtc_modem_core/device_management/modem_context.c ****     }
 514              		.loc 1 208 40 view .LVU117
 515              	.LBE58:
 516              	.LBE57:
 247:smtc_modem_core/device_management/modem_context.c ****     {
 517              		.loc 1 247 5 is_stmt 1 view .LVU118
 518 0046 0728     		cmp	r0, #7
 519 0048 30D8     		bhi	.L43
 247:smtc_modem_core/device_management/modem_context.c ****     {
 520              		.loc 1 247 5 is_stmt 0 view .LVU119
 521 004a 2E4D     		ldr	r5, .L55+16
 522              	.LVL25:
 247:smtc_modem_core/device_management/modem_context.c ****     {
 523              		.loc 1 247 5 view .LVU120
 524 004c 2F4B     		ldr	r3, .L55+24
 525              	.LVL26:
 247:smtc_modem_core/device_management/modem_context.c ****     {
 526              		.loc 1 247 5 view .LVU121
 527 004e 304E     		ldr	r6, .L55+28
 528 0050 FFF7FEFF 		bl	__gnu_thumb1_case_uqi
 529              	.L45:
ARM GAS  /var/folders/bq/yv49bw8j2kd6w3hsq868qv180000gn/T//ccEK2k0g.s 			page 17


 530 0054 0E       		.byte	(.L52-.L45)/2
 531 0055 04       		.byte	(.L51-.L45)/2
 532 0056 1E       		.byte	(.L50-.L45)/2
 533 0057 16       		.byte	(.L49-.L45)/2
 534 0058 30       		.byte	(.L48-.L45)/2
 535 0059 40       		.byte	(.L47-.L45)/2
 536 005a 48       		.byte	(.L46-.L45)/2
 537 005b 38       		.byte	(.L44-.L45)/2
 538              		.p2align 1
 539              	.L51:
 250:smtc_modem_core/device_management/modem_context.c ****         break;
 540              		.loc 1 250 9 is_stmt 1 view .LVU122
 250:smtc_modem_core/device_management/modem_context.c ****         break;
 541              		.loc 1 250 9 view .LVU123
 542 005c 1800     		movs	r0, r3
 543 005e FFF7FEFF 		bl	bsp_trace_print
 544              	.LVL27:
 250:smtc_modem_core/device_management/modem_context.c ****         break;
 545              		.loc 1 250 9 view .LVU124
 546 0062 3000     		movs	r0, r6
 547 0064 FFF7FEFF 		bl	bsp_trace_print
 548              	.LVL28:
 250:smtc_modem_core/device_management/modem_context.c ****         break;
 549              		.loc 1 250 9 view .LVU125
 550 0068 2A48     		ldr	r0, .L55+32
 551              	.L53:
 271:smtc_modem_core/device_management/modem_context.c ****         break;
 552              		.loc 1 271 9 is_stmt 0 view .LVU126
 553 006a FFF7FEFF 		bl	bsp_trace_print
 554              	.LVL29:
 555 006e 1AE0     		b	.L54
 556              	.LVL30:
 557              	.L52:
 253:smtc_modem_core/device_management/modem_context.c ****         break;
 558              		.loc 1 253 9 is_stmt 1 view .LVU127
 253:smtc_modem_core/device_management/modem_context.c ****         break;
 559              		.loc 1 253 9 view .LVU128
 560 0070 1800     		movs	r0, r3
 561 0072 FFF7FEFF 		bl	bsp_trace_print
 562              	.LVL31:
 253:smtc_modem_core/device_management/modem_context.c ****         break;
 563              		.loc 1 253 9 view .LVU129
 564 0076 3000     		movs	r0, r6
 565 0078 FFF7FEFF 		bl	bsp_trace_print
 566              	.LVL32:
 253:smtc_modem_core/device_management/modem_context.c ****         break;
 567              		.loc 1 253 9 view .LVU130
 568 007c 2648     		ldr	r0, .L55+36
 569 007e F4E7     		b	.L53
 570              	.LVL33:
 571              	.L49:
 256:smtc_modem_core/device_management/modem_context.c ****         break;
 572              		.loc 1 256 9 view .LVU131
 256:smtc_modem_core/device_management/modem_context.c ****         break;
 573              		.loc 1 256 9 view .LVU132
 574 0080 1800     		movs	r0, r3
 575 0082 FFF7FEFF 		bl	bsp_trace_print
ARM GAS  /var/folders/bq/yv49bw8j2kd6w3hsq868qv180000gn/T//ccEK2k0g.s 			page 18


 576              	.LVL34:
 256:smtc_modem_core/device_management/modem_context.c ****         break;
 577              		.loc 1 256 9 view .LVU133
 578 0086 3000     		movs	r0, r6
 579 0088 FFF7FEFF 		bl	bsp_trace_print
 580              	.LVL35:
 256:smtc_modem_core/device_management/modem_context.c ****         break;
 581              		.loc 1 256 9 view .LVU134
 582 008c 2348     		ldr	r0, .L55+40
 583 008e ECE7     		b	.L53
 584              	.LVL36:
 585              	.L50:
 259:smtc_modem_core/device_management/modem_context.c ****         break;
 586              		.loc 1 259 9 view .LVU135
 259:smtc_modem_core/device_management/modem_context.c ****         break;
 587              		.loc 1 259 9 view .LVU136
 588 0090 1800     		movs	r0, r3
 589 0092 FFF7FEFF 		bl	bsp_trace_print
 590              	.LVL37:
 259:smtc_modem_core/device_management/modem_context.c ****         break;
 591              		.loc 1 259 9 view .LVU137
 592 0096 3000     		movs	r0, r6
 593 0098 FFF7FEFF 		bl	bsp_trace_print
 594              	.LVL38:
 259:smtc_modem_core/device_management/modem_context.c ****         break;
 595              		.loc 1 259 9 view .LVU138
 596              	.LBB59:
 597              	.LBI59:
 166:smtc_modem_core/device_management/modem_context.c **** {
 598              		.loc 1 166 9 view .LVU139
 599              	.LBB60:
 168:smtc_modem_core/device_management/modem_context.c ****     {
 600              		.loc 1 168 5 view .LVU140
 173:smtc_modem_core/device_management/modem_context.c **** }
 601              		.loc 1 173 5 view .LVU141
 173:smtc_modem_core/device_management/modem_context.c **** }
 602              		.loc 1 173 31 is_stmt 0 view .LVU142
 603 009c 204B     		ldr	r3, .L55+44
 604              	.LBE60:
 605              	.LBE59:
 259:smtc_modem_core/device_management/modem_context.c ****         break;
 606              		.loc 1 259 9 view .LVU143
 607 009e 2148     		ldr	r0, .L55+48
 608 00a0 D978     		ldrb	r1, [r3, #3]
 609 00a2 FFF7FEFF 		bl	bsp_trace_print
 610              	.LVL39:
 259:smtc_modem_core/device_management/modem_context.c ****         break;
 611              		.loc 1 259 9 is_stmt 1 view .LVU144
 612              	.L54:
 271:smtc_modem_core/device_management/modem_context.c ****         break;
 613              		.loc 1 271 9 view .LVU145
 614 00a6 2800     		movs	r0, r5
 615 00a8 FFF7FEFF 		bl	bsp_trace_print
 616              	.LVL40:
 271:smtc_modem_core/device_management/modem_context.c ****         break;
 617              		.loc 1 271 9 view .LVU146
 271:smtc_modem_core/device_management/modem_context.c ****         break;
ARM GAS  /var/folders/bq/yv49bw8j2kd6w3hsq868qv180000gn/T//ccEK2k0g.s 			page 19


 618              		.loc 1 271 59 view .LVU147
 272:smtc_modem_core/device_management/modem_context.c ****     default:
 619              		.loc 1 272 9 view .LVU148
 620              	.L43:
 277:smtc_modem_core/device_management/modem_context.c **** }
 621              		.loc 1 277 5 view .LVU149
 277:smtc_modem_core/device_management/modem_context.c **** }
 622              		.loc 1 277 15 is_stmt 0 view .LVU150
 623 00ac 3B78     		ldrb	r3, [r7]
 277:smtc_modem_core/device_management/modem_context.c **** }
 624              		.loc 1 277 40 view .LVU151
 625 00ae 1E4A     		ldr	r2, .L55+52
 626 00b0 D454     		strb	r4, [r2, r3]
 627              	.LVL41:
 277:smtc_modem_core/device_management/modem_context.c **** }
 628              		.loc 1 277 40 view .LVU152
 629 00b2 B8E7     		b	.L39
 630              	.LVL42:
 631              	.L48:
 262:smtc_modem_core/device_management/modem_context.c ****         break;
 632              		.loc 1 262 9 is_stmt 1 view .LVU153
 262:smtc_modem_core/device_management/modem_context.c ****         break;
 633              		.loc 1 262 9 view .LVU154
 634 00b4 1800     		movs	r0, r3
 635 00b6 FFF7FEFF 		bl	bsp_trace_print
 636              	.LVL43:
 262:smtc_modem_core/device_management/modem_context.c ****         break;
 637              		.loc 1 262 9 view .LVU155
 638 00ba 3000     		movs	r0, r6
 639 00bc FFF7FEFF 		bl	bsp_trace_print
 640              	.LVL44:
 262:smtc_modem_core/device_management/modem_context.c ****         break;
 641              		.loc 1 262 9 view .LVU156
 642 00c0 1A48     		ldr	r0, .L55+56
 643 00c2 D2E7     		b	.L53
 644              	.LVL45:
 645              	.L44:
 265:smtc_modem_core/device_management/modem_context.c ****         break;
 646              		.loc 1 265 9 view .LVU157
 265:smtc_modem_core/device_management/modem_context.c ****         break;
 647              		.loc 1 265 9 view .LVU158
 648 00c4 1800     		movs	r0, r3
 649 00c6 FFF7FEFF 		bl	bsp_trace_print
 650              	.LVL46:
 265:smtc_modem_core/device_management/modem_context.c ****         break;
 651              		.loc 1 265 9 view .LVU159
 652 00ca 3000     		movs	r0, r6
 653 00cc FFF7FEFF 		bl	bsp_trace_print
 654              	.LVL47:
 265:smtc_modem_core/device_management/modem_context.c ****         break;
 655              		.loc 1 265 9 view .LVU160
 656 00d0 1748     		ldr	r0, .L55+60
 657 00d2 CAE7     		b	.L53
 658              	.LVL48:
 659              	.L47:
 268:smtc_modem_core/device_management/modem_context.c ****         break;
 660              		.loc 1 268 9 view .LVU161
ARM GAS  /var/folders/bq/yv49bw8j2kd6w3hsq868qv180000gn/T//ccEK2k0g.s 			page 20


 268:smtc_modem_core/device_management/modem_context.c ****         break;
 661              		.loc 1 268 9 view .LVU162
 662 00d4 1800     		movs	r0, r3
 663 00d6 FFF7FEFF 		bl	bsp_trace_print
 664              	.LVL49:
 268:smtc_modem_core/device_management/modem_context.c ****         break;
 665              		.loc 1 268 9 view .LVU163
 666 00da 3000     		movs	r0, r6
 667 00dc FFF7FEFF 		bl	bsp_trace_print
 668              	.LVL50:
 268:smtc_modem_core/device_management/modem_context.c ****         break;
 669              		.loc 1 268 9 view .LVU164
 670 00e0 1448     		ldr	r0, .L55+64
 671 00e2 C2E7     		b	.L53
 672              	.LVL51:
 673              	.L46:
 271:smtc_modem_core/device_management/modem_context.c ****         break;
 674              		.loc 1 271 9 view .LVU165
 271:smtc_modem_core/device_management/modem_context.c ****         break;
 675              		.loc 1 271 9 view .LVU166
 676 00e4 1800     		movs	r0, r3
 677 00e6 FFF7FEFF 		bl	bsp_trace_print
 678              	.LVL52:
 271:smtc_modem_core/device_management/modem_context.c ****         break;
 679              		.loc 1 271 9 view .LVU167
 680 00ea 3000     		movs	r0, r6
 681 00ec FFF7FEFF 		bl	bsp_trace_print
 682              	.LVL53:
 271:smtc_modem_core/device_management/modem_context.c ****         break;
 683              		.loc 1 271 9 view .LVU168
 684 00f0 1148     		ldr	r0, .L55+68
 685 00f2 BAE7     		b	.L53
 686              	.L56:
 687              		.align	2
 688              	.L55:
 689 00f4 00000000 		.word	.LANCHOR2
 690 00f8 00000000 		.word	.LC10
 691 00fc 08000000 		.word	.LC12
 692 0100 10000000 		.word	.LC14
 693 0104 3E000000 		.word	.LC16
 694 0108 00000000 		.word	.LANCHOR1
 695 010c 43000000 		.word	.LC19
 696 0110 4B000000 		.word	.LC21
 697 0114 53000000 		.word	.LC23
 698 0118 6F000000 		.word	.LC25
 699 011c 8A000000 		.word	.LC27
 700 0120 00000000 		.word	.LANCHOR0
 701 0124 A8000000 		.word	.LC30
 702 0128 00000000 		.word	.LANCHOR3
 703 012c C2000000 		.word	.LC32
 704 0130 E0000000 		.word	.LC34
 705 0134 00010000 		.word	.LC36
 706 0138 1D010000 		.word	.LC38
 707              	.LBE56:
 708              	.LBE55:
 709              		.cfi_endproc
 710              	.LFE19:
ARM GAS  /var/folders/bq/yv49bw8j2kd6w3hsq868qv180000gn/T//ccEK2k0g.s 			page 21


 712              		.section	.text.get_last_msg_event,"ax",%progbits
 713              		.align	1
 714              		.global	get_last_msg_event
 715              		.syntax unified
 716              		.code	16
 717              		.thumb_func
 718              		.fpu softvfp
 720              	get_last_msg_event:
 721              	.LFB20:
 279:smtc_modem_core/device_management/modem_context.c **** 
 280:smtc_modem_core/device_management/modem_context.c **** modem_rsp_event_t get_last_msg_event( void )
 281:smtc_modem_core/device_management/modem_context.c **** {
 722              		.loc 1 281 1 view -0
 723              		.cfi_startproc
 724              		@ args = 0, pretend = 0, frame = 0
 725              		@ frame_needed = 0, uses_anonymous_args = 0
 726              		@ link register save eliminated.
 282:smtc_modem_core/device_management/modem_context.c ****     return ( modem_rsp_event_t ) asynch_msg[asynchronous_msgnumber];
 727              		.loc 1 282 5 view .LVU170
 728              		.loc 1 282 12 is_stmt 0 view .LVU171
 729 0000 024B     		ldr	r3, .L58
 730 0002 034A     		ldr	r2, .L58+4
 731 0004 1B78     		ldrb	r3, [r3]
 283:smtc_modem_core/device_management/modem_context.c **** }
 732              		.loc 1 283 1 view .LVU172
 733              		@ sp needed
 282:smtc_modem_core/device_management/modem_context.c ****     return ( modem_rsp_event_t ) asynch_msg[asynchronous_msgnumber];
 734              		.loc 1 282 12 view .LVU173
 735 0006 D05C     		ldrb	r0, [r2, r3]
 736              		.loc 1 283 1 view .LVU174
 737 0008 7047     		bx	lr
 738              	.L59:
 739 000a C046     		.align	2
 740              	.L58:
 741 000c 00000000 		.word	.LANCHOR2
 742 0010 00000000 		.word	.LANCHOR3
 743              		.cfi_endproc
 744              	.LFE20:
 746              		.section	.text.get_modem_uptime_s,"ax",%progbits
 747              		.align	1
 748              		.global	get_modem_uptime_s
 749              		.syntax unified
 750              		.code	16
 751              		.thumb_func
 752              		.fpu softvfp
 754              	get_modem_uptime_s:
 755              	.LFB21:
 284:smtc_modem_core/device_management/modem_context.c **** 
 285:smtc_modem_core/device_management/modem_context.c **** uint32_t get_modem_uptime_s( void )
 286:smtc_modem_core/device_management/modem_context.c **** {
 756              		.loc 1 286 1 is_stmt 1 view -0
 757              		.cfi_startproc
 758              		@ args = 0, pretend = 0, frame = 0
 759              		@ frame_needed = 0, uses_anonymous_args = 0
 287:smtc_modem_core/device_management/modem_context.c ****     return ( bsp_rtc_get_time_s( ) - modem_start_time );
 760              		.loc 1 287 5 view .LVU176
 286:smtc_modem_core/device_management/modem_context.c ****     return ( bsp_rtc_get_time_s( ) - modem_start_time );
ARM GAS  /var/folders/bq/yv49bw8j2kd6w3hsq868qv180000gn/T//ccEK2k0g.s 			page 22


 761              		.loc 1 286 1 is_stmt 0 view .LVU177
 762 0000 10B5     		push	{r4, lr}
 763              		.cfi_def_cfa_offset 8
 764              		.cfi_offset 4, -8
 765              		.cfi_offset 14, -4
 766              		.loc 1 287 14 view .LVU178
 767 0002 FFF7FEFF 		bl	bsp_rtc_get_time_s
 768              	.LVL54:
 769              		.loc 1 287 36 view .LVU179
 770 0006 024B     		ldr	r3, .L61
 288:smtc_modem_core/device_management/modem_context.c **** }
 771              		.loc 1 288 1 view .LVU180
 772              		@ sp needed
 287:smtc_modem_core/device_management/modem_context.c ****     return ( bsp_rtc_get_time_s( ) - modem_start_time );
 773              		.loc 1 287 36 view .LVU181
 774 0008 1B68     		ldr	r3, [r3]
 775 000a C01A     		subs	r0, r0, r3
 776              		.loc 1 288 1 view .LVU182
 777 000c 10BD     		pop	{r4, pc}
 778              	.L62:
 779 000e C046     		.align	2
 780              	.L61:
 781 0010 00000000 		.word	.LANCHOR4
 782              		.cfi_endproc
 783              	.LFE21:
 785              		.section	.text.set_modem_start_time_s,"ax",%progbits
 786              		.align	1
 787              		.global	set_modem_start_time_s
 788              		.syntax unified
 789              		.code	16
 790              		.thumb_func
 791              		.fpu softvfp
 793              	set_modem_start_time_s:
 794              	.LVL55:
 795              	.LFB22:
 289:smtc_modem_core/device_management/modem_context.c **** 
 290:smtc_modem_core/device_management/modem_context.c **** void set_modem_start_time_s( uint32_t time )
 291:smtc_modem_core/device_management/modem_context.c **** {
 796              		.loc 1 291 1 is_stmt 1 view -0
 797              		.cfi_startproc
 798              		@ args = 0, pretend = 0, frame = 0
 799              		@ frame_needed = 0, uses_anonymous_args = 0
 800              		@ link register save eliminated.
 292:smtc_modem_core/device_management/modem_context.c ****     static bool was_set = false;
 801              		.loc 1 292 5 view .LVU184
 293:smtc_modem_core/device_management/modem_context.c ****     if( !was_set )
 802              		.loc 1 293 5 view .LVU185
 803              		.loc 1 293 9 is_stmt 0 view .LVU186
 804 0000 044B     		ldr	r3, .L65
 805              		.loc 1 293 7 view .LVU187
 806 0002 1A78     		ldrb	r2, [r3]
 807 0004 002A     		cmp	r2, #0
 808 0006 03D1     		bne	.L63
 294:smtc_modem_core/device_management/modem_context.c ****     {
 295:smtc_modem_core/device_management/modem_context.c ****         was_set          = true;
 809              		.loc 1 295 9 is_stmt 1 view .LVU188
 810              		.loc 1 295 26 is_stmt 0 view .LVU189
ARM GAS  /var/folders/bq/yv49bw8j2kd6w3hsq868qv180000gn/T//ccEK2k0g.s 			page 23


 811 0008 0132     		adds	r2, r2, #1
 812 000a 1A70     		strb	r2, [r3]
 296:smtc_modem_core/device_management/modem_context.c ****         modem_start_time = time;
 813              		.loc 1 296 9 is_stmt 1 view .LVU190
 814              		.loc 1 296 26 is_stmt 0 view .LVU191
 815 000c 024B     		ldr	r3, .L65+4
 816 000e 1860     		str	r0, [r3]
 817              	.L63:
 297:smtc_modem_core/device_management/modem_context.c ****     }
 298:smtc_modem_core/device_management/modem_context.c **** }
 818              		.loc 1 298 1 view .LVU192
 819              		@ sp needed
 820 0010 7047     		bx	lr
 821              	.L66:
 822 0012 C046     		.align	2
 823              	.L65:
 824 0014 00000000 		.word	.LANCHOR5
 825 0018 00000000 		.word	.LANCHOR4
 826              		.cfi_endproc
 827              	.LFE22:
 829              		.section	.text.get_modem_dm_interval,"ax",%progbits
 830              		.align	1
 831              		.global	get_modem_dm_interval
 832              		.syntax unified
 833              		.code	16
 834              		.thumb_func
 835              		.fpu softvfp
 837              	get_modem_dm_interval:
 838              	.LFB24:
 299:smtc_modem_core/device_management/modem_context.c **** 
 300:smtc_modem_core/device_management/modem_context.c **** e_set_error_t set_modem_dm_interval( uint8_t interval )
 301:smtc_modem_core/device_management/modem_context.c **** {
 302:smtc_modem_core/device_management/modem_context.c ****     if( modem_dm_interval != interval )
 303:smtc_modem_core/device_management/modem_context.c ****     {
 304:smtc_modem_core/device_management/modem_context.c ****         modem_dm_interval = interval;
 305:smtc_modem_core/device_management/modem_context.c ****         modem_store_context( );
 306:smtc_modem_core/device_management/modem_context.c ****     }
 307:smtc_modem_core/device_management/modem_context.c **** 
 308:smtc_modem_core/device_management/modem_context.c ****     return ( SET_OK );
 309:smtc_modem_core/device_management/modem_context.c **** }
 310:smtc_modem_core/device_management/modem_context.c **** uint8_t get_modem_dm_interval( void )
 311:smtc_modem_core/device_management/modem_context.c **** {
 839              		.loc 1 311 1 is_stmt 1 view -0
 840              		.cfi_startproc
 841              		@ args = 0, pretend = 0, frame = 0
 842              		@ frame_needed = 0, uses_anonymous_args = 0
 843              		@ link register save eliminated.
 312:smtc_modem_core/device_management/modem_context.c ****     return ( modem_dm_interval );
 844              		.loc 1 312 5 view .LVU194
 845              		.loc 1 312 12 is_stmt 0 view .LVU195
 846 0000 014B     		ldr	r3, .L68
 313:smtc_modem_core/device_management/modem_context.c **** }
 847              		.loc 1 313 1 view .LVU196
 848              		@ sp needed
 312:smtc_modem_core/device_management/modem_context.c ****     return ( modem_dm_interval );
 849              		.loc 1 312 12 view .LVU197
 850 0002 1878     		ldrb	r0, [r3]
ARM GAS  /var/folders/bq/yv49bw8j2kd6w3hsq868qv180000gn/T//ccEK2k0g.s 			page 24


 851              		.loc 1 313 1 view .LVU198
 852 0004 7047     		bx	lr
 853              	.L69:
 854 0006 C046     		.align	2
 855              	.L68:
 856 0008 00000000 		.word	.LANCHOR6
 857              		.cfi_endproc
 858              	.LFE24:
 860              		.section	.text.get_modem_dm_interval_second,"ax",%progbits
 861              		.align	1
 862              		.global	get_modem_dm_interval_second
 863              		.syntax unified
 864              		.code	16
 865              		.thumb_func
 866              		.fpu softvfp
 868              	get_modem_dm_interval_second:
 869              	.LFB25:
 314:smtc_modem_core/device_management/modem_context.c **** uint32_t get_modem_dm_interval_second( void )
 315:smtc_modem_core/device_management/modem_context.c **** {
 870              		.loc 1 315 1 is_stmt 1 view -0
 871              		.cfi_startproc
 872              		@ args = 0, pretend = 0, frame = 0
 873              		@ frame_needed = 0, uses_anonymous_args = 0
 874              		@ link register save eliminated.
 316:smtc_modem_core/device_management/modem_context.c ****     uint8_t  dm_interval = get_modem_dm_interval( );
 875              		.loc 1 316 5 view .LVU200
 876              	.LBB61:
 877              	.LBI61:
 310:smtc_modem_core/device_management/modem_context.c **** {
 878              		.loc 1 310 9 view .LVU201
 879              	.LBB62:
 312:smtc_modem_core/device_management/modem_context.c **** }
 880              		.loc 1 312 5 view .LVU202
 881 0000 3F22     		movs	r2, #63
 312:smtc_modem_core/device_management/modem_context.c **** }
 882              		.loc 1 312 12 is_stmt 0 view .LVU203
 883 0002 094B     		ldr	r3, .L76
 884 0004 1878     		ldrb	r0, [r3]
 885              	.LVL56:
 312:smtc_modem_core/device_management/modem_context.c **** }
 886              		.loc 1 312 12 view .LVU204
 887              	.LBE62:
 888              	.LBE61:
 317:smtc_modem_core/device_management/modem_context.c ****     uint32_t temp;
 889              		.loc 1 317 5 is_stmt 1 view .LVU205
 318:smtc_modem_core/device_management/modem_context.c ****     switch( ( dm_interval >> 6 ) & 0x03 )
 890              		.loc 1 318 5 view .LVU206
 891              		.loc 1 318 34 is_stmt 0 view .LVU207
 892 0006 8309     		lsrs	r3, r0, #6
 893 0008 1040     		ands	r0, r2
 894              	.LVL57:
 895              		.loc 1 318 5 view .LVU208
 896 000a 022B     		cmp	r3, #2
 897 000c 06D0     		beq	.L71
 898 000e 032B     		cmp	r3, #3
 899 0010 07D0     		beq	.L72
 900 0012 012B     		cmp	r3, #1
ARM GAS  /var/folders/bq/yv49bw8j2kd6w3hsq868qv180000gn/T//ccEK2k0g.s 			page 25


 901 0014 01D1     		bne	.L70
 319:smtc_modem_core/device_management/modem_context.c ****     {
 320:smtc_modem_core/device_management/modem_context.c ****     case DM_INTERVAL_UNIT_SEC:
 321:smtc_modem_core/device_management/modem_context.c ****         temp = ( dm_interval & 0x3F );
 322:smtc_modem_core/device_management/modem_context.c ****         break;
 323:smtc_modem_core/device_management/modem_context.c ****     case DM_INTERVAL_UNIT_DAY:
 324:smtc_modem_core/device_management/modem_context.c ****         temp = ( dm_interval & 0x3F ) * 3600 * 24;
 902              		.loc 1 324 9 is_stmt 1 view .LVU209
 903              		.loc 1 324 46 is_stmt 0 view .LVU210
 904 0016 054B     		ldr	r3, .L76+4
 905              	.L75:
 325:smtc_modem_core/device_management/modem_context.c ****         break;
 326:smtc_modem_core/device_management/modem_context.c ****     case DM_INTERVAL_UNIT_HOUR:
 327:smtc_modem_core/device_management/modem_context.c ****         temp = ( dm_interval & 0x3F ) * 3600;
 328:smtc_modem_core/device_management/modem_context.c ****         break;
 329:smtc_modem_core/device_management/modem_context.c ****     case DM_INTERVAL_UNIT_MIN:
 330:smtc_modem_core/device_management/modem_context.c ****         temp = ( dm_interval & 0x3F ) * 60;
 906              		.loc 1 330 39 view .LVU211
 907 0018 5843     		muls	r0, r3
 908              	.LVL58:
 331:smtc_modem_core/device_management/modem_context.c ****         break;
 909              		.loc 1 331 9 is_stmt 1 view .LVU212
 332:smtc_modem_core/device_management/modem_context.c ****     default:  // never reach
 333:smtc_modem_core/device_management/modem_context.c ****         BSP_DBG_TRACE_ERROR( "in get_modem_dm_interval_second \n" );
 334:smtc_modem_core/device_management/modem_context.c ****         bsp_mcu_panic( );
 335:smtc_modem_core/device_management/modem_context.c ****         break;
 336:smtc_modem_core/device_management/modem_context.c ****     }
 337:smtc_modem_core/device_management/modem_context.c ****     return temp;
 910              		.loc 1 337 5 view .LVU213
 911              	.L70:
 338:smtc_modem_core/device_management/modem_context.c **** }
 912              		.loc 1 338 1 is_stmt 0 view .LVU214
 913              		@ sp needed
 914 001a 7047     		bx	lr
 915              	.L71:
 327:smtc_modem_core/device_management/modem_context.c ****         break;
 916              		.loc 1 327 9 is_stmt 1 view .LVU215
 327:smtc_modem_core/device_management/modem_context.c ****         break;
 917              		.loc 1 327 39 is_stmt 0 view .LVU216
 918 001c E123     		movs	r3, #225
 919 001e 1B01     		lsls	r3, r3, #4
 920 0020 FAE7     		b	.L75
 921              	.L72:
 330:smtc_modem_core/device_management/modem_context.c ****         break;
 922              		.loc 1 330 9 is_stmt 1 view .LVU217
 330:smtc_modem_core/device_management/modem_context.c ****         break;
 923              		.loc 1 330 39 is_stmt 0 view .LVU218
 924 0022 3C23     		movs	r3, #60
 925 0024 F8E7     		b	.L75
 926              	.L77:
 927 0026 C046     		.align	2
 928              	.L76:
 929 0028 00000000 		.word	.LANCHOR6
 930 002c 80510100 		.word	86400
 931              		.cfi_endproc
 932              	.LFE25:
 934              		.section	.rodata.set_modem_class.str1.1,"aMS",%progbits,1
ARM GAS  /var/folders/bq/yv49bw8j2kd6w3hsq868qv180000gn/T//ccEK2k0g.s 			page 26


 935              	.LC50:
 936 0000 6D6F6465 		.ascii	"modem class invalid\000"
 936      6D20636C 
 936      61737320 
 936      696E7661 
 936      6C696400 
 937              		.section	.text.set_modem_class,"ax",%progbits
 938              		.align	1
 939              		.global	set_modem_class
 940              		.syntax unified
 941              		.code	16
 942              		.thumb_func
 943              		.fpu softvfp
 945              	set_modem_class:
 946              	.LVL59:
 947              	.LFB26:
 339:smtc_modem_core/device_management/modem_context.c **** 
 340:smtc_modem_core/device_management/modem_context.c **** e_set_error_t set_modem_class( modem_class_t LoRaWAN_class )
 341:smtc_modem_core/device_management/modem_context.c **** {
 948              		.loc 1 341 1 is_stmt 1 view -0
 949              		.cfi_startproc
 950              		@ args = 0, pretend = 0, frame = 0
 951              		@ frame_needed = 0, uses_anonymous_args = 0
 342:smtc_modem_core/device_management/modem_context.c ****     if( LoRaWAN_class != MODEM_CLASS_A )
 952              		.loc 1 342 5 view .LVU220
 341:smtc_modem_core/device_management/modem_context.c ****     if( LoRaWAN_class != MODEM_CLASS_A )
 953              		.loc 1 341 1 is_stmt 0 view .LVU221
 954 0000 10B5     		push	{r4, lr}
 955              		.cfi_def_cfa_offset 8
 956              		.cfi_offset 4, -8
 957              		.cfi_offset 14, -4
 958              		.loc 1 342 7 view .LVU222
 959 0002 0028     		cmp	r0, #0
 960 0004 0DD0     		beq	.L79
 343:smtc_modem_core/device_management/modem_context.c ****     {
 344:smtc_modem_core/device_management/modem_context.c ****         BSP_DBG_TRACE_ERROR( "modem class invalid" );
 961              		.loc 1 344 9 is_stmt 1 view .LVU223
 962              		.loc 1 344 9 view .LVU224
 963 0006 0948     		ldr	r0, .L81
 964              	.LVL60:
 965              		.loc 1 344 9 is_stmt 0 view .LVU225
 966 0008 FFF7FEFF 		bl	bsp_trace_print
 967              	.LVL61:
 968              		.loc 1 344 9 is_stmt 1 view .LVU226
 969 000c 0848     		ldr	r0, .L81+4
 970 000e FFF7FEFF 		bl	bsp_trace_print
 971              	.LVL62:
 972              		.loc 1 344 9 view .LVU227
 973 0012 0848     		ldr	r0, .L81+8
 974 0014 FFF7FEFF 		bl	bsp_trace_print
 975              	.LVL63:
 976              		.loc 1 344 9 view .LVU228
 977 0018 0748     		ldr	r0, .L81+12
 978 001a FFF7FEFF 		bl	bsp_trace_print
 979              	.LVL64:
 980              		.loc 1 344 9 view .LVU229
 981              		.loc 1 344 53 view .LVU230
ARM GAS  /var/folders/bq/yv49bw8j2kd6w3hsq868qv180000gn/T//ccEK2k0g.s 			page 27


 345:smtc_modem_core/device_management/modem_context.c ****         return ( SET_ERROR );
 982              		.loc 1 345 9 view .LVU231
 983              		.loc 1 345 16 is_stmt 0 view .LVU232
 984 001e 0020     		movs	r0, #0
 985              	.L80:
 346:smtc_modem_core/device_management/modem_context.c ****     }
 347:smtc_modem_core/device_management/modem_context.c ****     else
 348:smtc_modem_core/device_management/modem_context.c ****     {
 349:smtc_modem_core/device_management/modem_context.c ****         modem_dm_class = LoRaWAN_class;
 350:smtc_modem_core/device_management/modem_context.c ****         return ( SET_OK );
 351:smtc_modem_core/device_management/modem_context.c ****     }
 352:smtc_modem_core/device_management/modem_context.c **** }
 986              		.loc 1 352 1 view .LVU233
 987              		@ sp needed
 988 0020 10BD     		pop	{r4, pc}
 989              	.LVL65:
 990              	.L79:
 349:smtc_modem_core/device_management/modem_context.c ****         return ( SET_OK );
 991              		.loc 1 349 9 is_stmt 1 view .LVU234
 349:smtc_modem_core/device_management/modem_context.c ****         return ( SET_OK );
 992              		.loc 1 349 24 is_stmt 0 view .LVU235
 993 0022 064B     		ldr	r3, .L81+16
 994 0024 1870     		strb	r0, [r3]
 350:smtc_modem_core/device_management/modem_context.c ****     }
 995              		.loc 1 350 9 is_stmt 1 view .LVU236
 350:smtc_modem_core/device_management/modem_context.c ****     }
 996              		.loc 1 350 16 is_stmt 0 view .LVU237
 997 0026 0120     		movs	r0, #1
 998              	.LVL66:
 350:smtc_modem_core/device_management/modem_context.c ****     }
 999              		.loc 1 350 16 view .LVU238
 1000 0028 FAE7     		b	.L80
 1001              	.L82:
 1002 002a C046     		.align	2
 1003              	.L81:
 1004 002c 00000000 		.word	.LC10
 1005 0030 08000000 		.word	.LC12
 1006 0034 00000000 		.word	.LC50
 1007 0038 3E000000 		.word	.LC16
 1008 003c 00000000 		.word	.LANCHOR7
 1009              		.cfi_endproc
 1010              	.LFE26:
 1012              		.section	.text.get_modem_class,"ax",%progbits
 1013              		.align	1
 1014              		.global	get_modem_class
 1015              		.syntax unified
 1016              		.code	16
 1017              		.thumb_func
 1018              		.fpu softvfp
 1020              	get_modem_class:
 1021              	.LFB27:
 353:smtc_modem_core/device_management/modem_context.c **** 
 354:smtc_modem_core/device_management/modem_context.c **** modem_class_t get_modem_class( void )
 355:smtc_modem_core/device_management/modem_context.c **** {
 1022              		.loc 1 355 1 is_stmt 1 view -0
 1023              		.cfi_startproc
 1024              		@ args = 0, pretend = 0, frame = 0
ARM GAS  /var/folders/bq/yv49bw8j2kd6w3hsq868qv180000gn/T//ccEK2k0g.s 			page 28


 1025              		@ frame_needed = 0, uses_anonymous_args = 0
 1026              		@ link register save eliminated.
 356:smtc_modem_core/device_management/modem_context.c ****     return ( modem_dm_class );
 1027              		.loc 1 356 5 view .LVU240
 1028              		.loc 1 356 12 is_stmt 0 view .LVU241
 1029 0000 014B     		ldr	r3, .L84
 357:smtc_modem_core/device_management/modem_context.c **** }
 1030              		.loc 1 357 1 view .LVU242
 1031              		@ sp needed
 356:smtc_modem_core/device_management/modem_context.c ****     return ( modem_dm_class );
 1032              		.loc 1 356 12 view .LVU243
 1033 0002 1878     		ldrb	r0, [r3]
 1034              		.loc 1 357 1 view .LVU244
 1035 0004 7047     		bx	lr
 1036              	.L85:
 1037 0006 C046     		.align	2
 1038              	.L84:
 1039 0008 00000000 		.word	.LANCHOR7
 1040              		.cfi_endproc
 1041              	.LFE27:
 1043              		.section	.text.get_modem_dm_port,"ax",%progbits
 1044              		.align	1
 1045              		.global	get_modem_dm_port
 1046              		.syntax unified
 1047              		.code	16
 1048              		.thumb_func
 1049              		.fpu softvfp
 1051              	get_modem_dm_port:
 1052              	.LFB29:
 358:smtc_modem_core/device_management/modem_context.c **** 
 359:smtc_modem_core/device_management/modem_context.c **** e_set_error_t set_modem_dm_port( uint8_t port )
 360:smtc_modem_core/device_management/modem_context.c **** {
 361:smtc_modem_core/device_management/modem_context.c ****     if( ( port == 0 ) || ( port >= 224 ) )
 362:smtc_modem_core/device_management/modem_context.c ****     {
 363:smtc_modem_core/device_management/modem_context.c ****         BSP_DBG_TRACE_ERROR( "modem port invalid\n" );
 364:smtc_modem_core/device_management/modem_context.c ****         return ( SET_ERROR );
 365:smtc_modem_core/device_management/modem_context.c ****     }
 366:smtc_modem_core/device_management/modem_context.c ****     else
 367:smtc_modem_core/device_management/modem_context.c ****     {
 368:smtc_modem_core/device_management/modem_context.c ****         if( modem_dm_port != port )
 369:smtc_modem_core/device_management/modem_context.c ****         {
 370:smtc_modem_core/device_management/modem_context.c ****             modem_dm_port = port;
 371:smtc_modem_core/device_management/modem_context.c ****             modem_store_context( );
 372:smtc_modem_core/device_management/modem_context.c ****         }
 373:smtc_modem_core/device_management/modem_context.c ****         return ( SET_OK );
 374:smtc_modem_core/device_management/modem_context.c ****     }
 375:smtc_modem_core/device_management/modem_context.c **** }
 376:smtc_modem_core/device_management/modem_context.c **** 
 377:smtc_modem_core/device_management/modem_context.c **** uint8_t get_modem_dm_port( void )
 378:smtc_modem_core/device_management/modem_context.c **** {
 1053              		.loc 1 378 1 is_stmt 1 view -0
 1054              		.cfi_startproc
 1055              		@ args = 0, pretend = 0, frame = 0
 1056              		@ frame_needed = 0, uses_anonymous_args = 0
 1057              		@ link register save eliminated.
 379:smtc_modem_core/device_management/modem_context.c ****     return ( modem_dm_port );
 1058              		.loc 1 379 5 view .LVU246
ARM GAS  /var/folders/bq/yv49bw8j2kd6w3hsq868qv180000gn/T//ccEK2k0g.s 			page 29


 1059              		.loc 1 379 12 is_stmt 0 view .LVU247
 1060 0000 014B     		ldr	r3, .L87
 380:smtc_modem_core/device_management/modem_context.c **** }
 1061              		.loc 1 380 1 view .LVU248
 1062              		@ sp needed
 379:smtc_modem_core/device_management/modem_context.c ****     return ( modem_dm_port );
 1063              		.loc 1 379 12 view .LVU249
 1064 0002 1878     		ldrb	r0, [r3]
 1065              		.loc 1 380 1 view .LVU250
 1066 0004 7047     		bx	lr
 1067              	.L88:
 1068 0006 C046     		.align	2
 1069              	.L87:
 1070 0008 00000000 		.word	.LANCHOR8
 1071              		.cfi_endproc
 1072              	.LFE29:
 1074              		.section	.rodata.get_modem_adr.str1.1,"aMS",%progbits,1
 1075              	.LC58:
 1076 0000 756E6B6E 		.ascii	"unknown default case : get_modem_adr \012\000"
 1076      6F776E20 
 1076      64656661 
 1076      756C7420 
 1076      63617365 
 1077              		.section	.text.get_modem_adr,"ax",%progbits
 1078              		.align	1
 1079              		.global	get_modem_adr
 1080              		.syntax unified
 1081              		.code	16
 1082              		.thumb_func
 1083              		.fpu softvfp
 1085              	get_modem_adr:
 1086              	.LFB30:
 381:smtc_modem_core/device_management/modem_context.c **** 
 382:smtc_modem_core/device_management/modem_context.c **** dr_strategy_t get_modem_adr( void )
 383:smtc_modem_core/device_management/modem_context.c **** {
 1087              		.loc 1 383 1 is_stmt 1 view -0
 1088              		.cfi_startproc
 1089              		@ args = 0, pretend = 0, frame = 0
 1090              		@ frame_needed = 0, uses_anonymous_args = 0
 384:smtc_modem_core/device_management/modem_context.c ****     uint8_t user_dr = ( uint8_t )( lorawan_api_dr_strategy_get( ) );
 1091              		.loc 1 384 5 view .LVU252
 383:smtc_modem_core/device_management/modem_context.c ****     uint8_t user_dr = ( uint8_t )( lorawan_api_dr_strategy_get( ) );
 1092              		.loc 1 383 1 is_stmt 0 view .LVU253
 1093 0000 10B5     		push	{r4, lr}
 1094              		.cfi_def_cfa_offset 8
 1095              		.cfi_offset 4, -8
 1096              		.cfi_offset 14, -4
 1097              		.loc 1 384 36 view .LVU254
 1098 0002 FFF7FEFF 		bl	lorawan_api_dr_strategy_get
 1099              	.LVL67:
 385:smtc_modem_core/device_management/modem_context.c ****     if( user_dr > USER_DR_DISTRIBUTION )
 1100              		.loc 1 385 5 is_stmt 1 view .LVU255
 1101              		.loc 1 385 7 is_stmt 0 view .LVU256
 1102 0006 0328     		cmp	r0, #3
 1103 0008 0ED9     		bls	.L90
 1104              	.LBB65:
 1105              	.LBI65:
ARM GAS  /var/folders/bq/yv49bw8j2kd6w3hsq868qv180000gn/T//ccEK2k0g.s 			page 30


 382:smtc_modem_core/device_management/modem_context.c **** {
 1106              		.loc 1 382 15 is_stmt 1 view .LVU257
 1107              	.LBB66:
 386:smtc_modem_core/device_management/modem_context.c ****     {
 387:smtc_modem_core/device_management/modem_context.c ****         BSP_DBG_TRACE_ERROR( "unknown default case : get_modem_adr \n" );
 1108              		.loc 1 387 9 view .LVU258
 1109              		.loc 1 387 9 view .LVU259
 1110 000a 0848     		ldr	r0, .L91
 1111              	.LVL68:
 1112              		.loc 1 387 9 is_stmt 0 view .LVU260
 1113 000c FFF7FEFF 		bl	bsp_trace_print
 1114              	.LVL69:
 1115              		.loc 1 387 9 is_stmt 1 view .LVU261
 1116 0010 0748     		ldr	r0, .L91+4
 1117 0012 FFF7FEFF 		bl	bsp_trace_print
 1118              	.LVL70:
 1119              		.loc 1 387 9 view .LVU262
 1120 0016 0748     		ldr	r0, .L91+8
 1121 0018 FFF7FEFF 		bl	bsp_trace_print
 1122              	.LVL71:
 1123              		.loc 1 387 9 view .LVU263
 1124 001c 0648     		ldr	r0, .L91+12
 1125 001e FFF7FEFF 		bl	bsp_trace_print
 1126              	.LVL72:
 1127              		.loc 1 387 9 view .LVU264
 1128              		.loc 1 387 73 view .LVU265
 388:smtc_modem_core/device_management/modem_context.c ****         bsp_mcu_panic( );
 1129              		.loc 1 388 9 view .LVU266
 1130 0022 FFF7FEFF 		bl	bsp_mcu_panic
 1131              	.LVL73:
 389:smtc_modem_core/device_management/modem_context.c ****         return 0;  // not reached
 1132              		.loc 1 389 9 view .LVU267
 388:smtc_modem_core/device_management/modem_context.c ****         bsp_mcu_panic( );
 1133              		.loc 1 388 9 is_stmt 0 view .LVU268
 1134 0026 0020     		movs	r0, #0
 1135              	.L90:
 1136              	.LBE66:
 1137              	.LBE65:
 390:smtc_modem_core/device_management/modem_context.c ****     }
 391:smtc_modem_core/device_management/modem_context.c ****     else
 392:smtc_modem_core/device_management/modem_context.c ****     {
 393:smtc_modem_core/device_management/modem_context.c ****         return ( dr_strategy_t ) user_dr;
 394:smtc_modem_core/device_management/modem_context.c ****     }
 395:smtc_modem_core/device_management/modem_context.c **** }
 1138              		.loc 1 395 1 view .LVU269
 1139              		@ sp needed
 1140 0028 10BD     		pop	{r4, pc}
 1141              	.L92:
 1142 002a C046     		.align	2
 1143              	.L91:
 1144 002c 00000000 		.word	.LC10
 1145 0030 08000000 		.word	.LC12
 1146 0034 00000000 		.word	.LC58
 1147 0038 3E000000 		.word	.LC16
 1148              		.cfi_endproc
 1149              	.LFE30:
 1151              		.section	.text.get_modem_region,"ax",%progbits
ARM GAS  /var/folders/bq/yv49bw8j2kd6w3hsq868qv180000gn/T//ccEK2k0g.s 			page 31


 1152              		.align	1
 1153              		.global	get_modem_region
 1154              		.syntax unified
 1155              		.code	16
 1156              		.thumb_func
 1157              		.fpu softvfp
 1159              	get_modem_region:
 1160              	.LFB31:
 396:smtc_modem_core/device_management/modem_context.c **** 
 397:smtc_modem_core/device_management/modem_context.c **** uint8_t get_modem_region( void )
 398:smtc_modem_core/device_management/modem_context.c **** {
 1161              		.loc 1 398 1 is_stmt 1 view -0
 1162              		.cfi_startproc
 1163              		@ args = 0, pretend = 0, frame = 0
 1164              		@ frame_needed = 0, uses_anonymous_args = 0
 399:smtc_modem_core/device_management/modem_context.c ****     return lorawan_api_get_region( );
 1165              		.loc 1 399 5 view .LVU271
 398:smtc_modem_core/device_management/modem_context.c ****     return lorawan_api_get_region( );
 1166              		.loc 1 398 1 is_stmt 0 view .LVU272
 1167 0000 10B5     		push	{r4, lr}
 1168              		.cfi_def_cfa_offset 8
 1169              		.cfi_offset 4, -8
 1170              		.cfi_offset 14, -4
 1171              		.loc 1 399 12 view .LVU273
 1172 0002 FFF7FEFF 		bl	lorawan_api_get_region
 1173              	.LVL74:
 400:smtc_modem_core/device_management/modem_context.c **** }
 1174              		.loc 1 400 1 view .LVU274
 1175              		@ sp needed
 1176 0006 10BD     		pop	{r4, pc}
 1177              		.cfi_endproc
 1178              	.LFE31:
 1180              		.section	.text.set_modem_region,"ax",%progbits
 1181              		.align	1
 1182              		.global	set_modem_region
 1183              		.syntax unified
 1184              		.code	16
 1185              		.thumb_func
 1186              		.fpu softvfp
 1188              	set_modem_region:
 1189              	.LVL75:
 1190              	.LFB32:
 401:smtc_modem_core/device_management/modem_context.c **** 
 402:smtc_modem_core/device_management/modem_context.c **** e_set_error_t set_modem_region( uint8_t region )
 403:smtc_modem_core/device_management/modem_context.c **** {
 1191              		.loc 1 403 1 is_stmt 1 view -0
 1192              		.cfi_startproc
 1193              		@ args = 0, pretend = 0, frame = 0
 1194              		@ frame_needed = 0, uses_anonymous_args = 0
 404:smtc_modem_core/device_management/modem_context.c ****     if( lorawan_api_set_region( ( smtc_real_region_types_t ) region ) != OKLORAWAN )
 1195              		.loc 1 404 5 view .LVU276
 403:smtc_modem_core/device_management/modem_context.c ****     if( lorawan_api_set_region( ( smtc_real_region_types_t ) region ) != OKLORAWAN )
 1196              		.loc 1 403 1 is_stmt 0 view .LVU277
 1197 0000 10B5     		push	{r4, lr}
 1198              		.cfi_def_cfa_offset 8
 1199              		.cfi_offset 4, -8
 1200              		.cfi_offset 14, -4
ARM GAS  /var/folders/bq/yv49bw8j2kd6w3hsq868qv180000gn/T//ccEK2k0g.s 			page 32


 1201              		.loc 1 404 9 view .LVU278
 1202 0002 FFF7FEFF 		bl	lorawan_api_set_region
 1203              	.LVL76:
 1204              		.loc 1 404 7 view .LVU279
 1205 0006 4342     		rsbs	r3, r0, #0
 1206 0008 5841     		adcs	r0, r0, r3
 405:smtc_modem_core/device_management/modem_context.c ****     {
 406:smtc_modem_core/device_management/modem_context.c ****         return SET_ERROR;
 407:smtc_modem_core/device_management/modem_context.c ****     }
 408:smtc_modem_core/device_management/modem_context.c ****     return SET_OK;
 409:smtc_modem_core/device_management/modem_context.c **** }
 1207              		.loc 1 409 1 view .LVU280
 1208              		@ sp needed
 1209 000a C0B2     		uxtb	r0, r0
 1210 000c 10BD     		pop	{r4, pc}
 1211              		.cfi_endproc
 1212              	.LFE32:
 1214              		.section	.text.set_modem_appstatus,"ax",%progbits
 1215              		.align	1
 1216              		.global	set_modem_appstatus
 1217              		.syntax unified
 1218              		.code	16
 1219              		.thumb_func
 1220              		.fpu softvfp
 1222              	set_modem_appstatus:
 1223              	.LVL77:
 1224              	.LFB34:
 410:smtc_modem_core/device_management/modem_context.c **** 
 411:smtc_modem_core/device_management/modem_context.c **** eModemJoinState_t get_join_state( void )
 412:smtc_modem_core/device_management/modem_context.c **** {
 413:smtc_modem_core/device_management/modem_context.c ****     eModemJoinState_t joinstate;
 414:smtc_modem_core/device_management/modem_context.c ****     if( get_modem_status_joining( ) == true )
 415:smtc_modem_core/device_management/modem_context.c ****     {
 416:smtc_modem_core/device_management/modem_context.c ****         joinstate = MODEM_JOIN_ONGOING;
 417:smtc_modem_core/device_management/modem_context.c ****     }
 418:smtc_modem_core/device_management/modem_context.c ****     else if( lorawan_api_isjoined( ) == NOT_JOINED )
 419:smtc_modem_core/device_management/modem_context.c ****     {
 420:smtc_modem_core/device_management/modem_context.c ****         joinstate = MODEM_NOT_JOINED;
 421:smtc_modem_core/device_management/modem_context.c ****     }
 422:smtc_modem_core/device_management/modem_context.c ****     else
 423:smtc_modem_core/device_management/modem_context.c ****     {
 424:smtc_modem_core/device_management/modem_context.c ****         joinstate = MODEM_JOINED;
 425:smtc_modem_core/device_management/modem_context.c ****     }
 426:smtc_modem_core/device_management/modem_context.c ****     return ( joinstate );
 427:smtc_modem_core/device_management/modem_context.c **** }
 428:smtc_modem_core/device_management/modem_context.c **** 
 429:smtc_modem_core/device_management/modem_context.c **** void set_modem_appstatus( uint8_t* app_status )
 430:smtc_modem_core/device_management/modem_context.c **** {
 1225              		.loc 1 430 1 is_stmt 1 view -0
 1226              		.cfi_startproc
 1227              		@ args = 0, pretend = 0, frame = 0
 1228              		@ frame_needed = 0, uses_anonymous_args = 0
 431:smtc_modem_core/device_management/modem_context.c ****     memcpy( modem_appstatus, app_status, dm_info_field_sz[e_inf_appstatus] );
 1229              		.loc 1 431 5 view .LVU282
 430:smtc_modem_core/device_management/modem_context.c ****     memcpy( modem_appstatus, app_status, dm_info_field_sz[e_inf_appstatus] );
 1230              		.loc 1 430 1 is_stmt 0 view .LVU283
 1231 0000 10B5     		push	{r4, lr}
ARM GAS  /var/folders/bq/yv49bw8j2kd6w3hsq868qv180000gn/T//ccEK2k0g.s 			page 33


 1232              		.cfi_def_cfa_offset 8
 1233              		.cfi_offset 4, -8
 1234              		.cfi_offset 14, -4
 430:smtc_modem_core/device_management/modem_context.c ****     memcpy( modem_appstatus, app_status, dm_info_field_sz[e_inf_appstatus] );
 1235              		.loc 1 430 1 view .LVU284
 1236 0002 0100     		movs	r1, r0
 1237              		.loc 1 431 5 view .LVU285
 1238 0004 0822     		movs	r2, #8
 1239 0006 0248     		ldr	r0, .L96
 1240              	.LVL78:
 1241              		.loc 1 431 5 view .LVU286
 1242 0008 FFF7FEFF 		bl	memcpy
 1243              	.LVL79:
 432:smtc_modem_core/device_management/modem_context.c **** }
 1244              		.loc 1 432 1 view .LVU287
 1245              		@ sp needed
 1246 000c 10BD     		pop	{r4, pc}
 1247              	.L97:
 1248 000e C046     		.align	2
 1249              	.L96:
 1250 0010 00000000 		.word	.LANCHOR9
 1251              		.cfi_endproc
 1252              	.LFE34:
 1254              		.section	.text.get_modem_appstatus,"ax",%progbits
 1255              		.align	1
 1256              		.global	get_modem_appstatus
 1257              		.syntax unified
 1258              		.code	16
 1259              		.thumb_func
 1260              		.fpu softvfp
 1262              	get_modem_appstatus:
 1263              	.LVL80:
 1264              	.LFB35:
 433:smtc_modem_core/device_management/modem_context.c **** 
 434:smtc_modem_core/device_management/modem_context.c **** void get_modem_appstatus( uint8_t* app_status )
 435:smtc_modem_core/device_management/modem_context.c **** {
 1265              		.loc 1 435 1 is_stmt 1 view -0
 1266              		.cfi_startproc
 1267              		@ args = 0, pretend = 0, frame = 0
 1268              		@ frame_needed = 0, uses_anonymous_args = 0
 436:smtc_modem_core/device_management/modem_context.c ****     memcpy( app_status, modem_appstatus, dm_info_field_sz[e_inf_appstatus] );
 1269              		.loc 1 436 5 view .LVU289
 435:smtc_modem_core/device_management/modem_context.c ****     memcpy( app_status, modem_appstatus, dm_info_field_sz[e_inf_appstatus] );
 1270              		.loc 1 435 1 is_stmt 0 view .LVU290
 1271 0000 10B5     		push	{r4, lr}
 1272              		.cfi_def_cfa_offset 8
 1273              		.cfi_offset 4, -8
 1274              		.cfi_offset 14, -4
 1275              		.loc 1 436 5 view .LVU291
 1276 0002 0822     		movs	r2, #8
 1277 0004 0149     		ldr	r1, .L99
 1278 0006 FFF7FEFF 		bl	memcpy
 1279              	.LVL81:
 437:smtc_modem_core/device_management/modem_context.c **** }
 1280              		.loc 1 437 1 view .LVU292
 1281              		@ sp needed
 1282 000a 10BD     		pop	{r4, pc}
ARM GAS  /var/folders/bq/yv49bw8j2kd6w3hsq868qv180000gn/T//ccEK2k0g.s 			page 34


 1283              	.L100:
 1284              		.align	2
 1285              	.L99:
 1286 000c 00000000 		.word	.LANCHOR9
 1287              		.cfi_endproc
 1288              	.LFE35:
 1290              		.section	.text.modem_supervisor_add_task_dm_status_now,"ax",%progbits
 1291              		.align	1
 1292              		.global	modem_supervisor_add_task_dm_status_now
 1293              		.syntax unified
 1294              		.code	16
 1295              		.thumb_func
 1296              		.fpu softvfp
 1298              	modem_supervisor_add_task_dm_status_now:
 1299              	.LFB38:
 438:smtc_modem_core/device_management/modem_context.c **** 
 439:smtc_modem_core/device_management/modem_context.c **** void modem_supervisor_add_task_join( void )
 440:smtc_modem_core/device_management/modem_context.c **** {
 441:smtc_modem_core/device_management/modem_context.c ****     smodem_task task_join;
 442:smtc_modem_core/device_management/modem_context.c ****     task_join.id       = JOIN_TASK;
 443:smtc_modem_core/device_management/modem_context.c ****     task_join.priority = TASK_HIGH_PRIORITY;
 444:smtc_modem_core/device_management/modem_context.c **** #ifdef TEST_BYPASS_JOIN_DUTY_CYCLE
 445:smtc_modem_core/device_management/modem_context.c ****     task_join.time_to_execute_s = bsp_rng_get_random_in_range( 0, 5 );
 446:smtc_modem_core/device_management/modem_context.c **** #else
 447:smtc_modem_core/device_management/modem_context.c ****     task_join.time_to_execute_s = lorawan_api_next_join_time_second_get( ) + bsp_rng_get_random_in_
 448:smtc_modem_core/device_management/modem_context.c **** #endif
 449:smtc_modem_core/device_management/modem_context.c ****     BSP_DBG_TRACE_PRINTF( " Start a New join at %ld seconds \n", task_join.time_to_execute_s );
 450:smtc_modem_core/device_management/modem_context.c ****     set_modem_status_joining( true );
 451:smtc_modem_core/device_management/modem_context.c ****     modem_supervisor_add_task( &task_join );
 452:smtc_modem_core/device_management/modem_context.c **** }
 453:smtc_modem_core/device_management/modem_context.c **** 
 454:smtc_modem_core/device_management/modem_context.c **** void modem_supervisor_add_task_dm_status( uint32_t next_execute )
 455:smtc_modem_core/device_management/modem_context.c **** {
 456:smtc_modem_core/device_management/modem_context.c ****     smodem_task task_dm;
 457:smtc_modem_core/device_management/modem_context.c ****     task_dm.id                = DM_TASK;
 458:smtc_modem_core/device_management/modem_context.c ****     task_dm.priority          = TASK_LOW_PRIORITY;
 459:smtc_modem_core/device_management/modem_context.c ****     task_dm.PacketType        = UNCONF_DATA_UP;
 460:smtc_modem_core/device_management/modem_context.c ****     task_dm.time_to_execute_s = bsp_rtc_get_time_s( ) + next_execute;
 461:smtc_modem_core/device_management/modem_context.c ****     if( get_join_state( ) == MODEM_JOINED )
 462:smtc_modem_core/device_management/modem_context.c ****     {
 463:smtc_modem_core/device_management/modem_context.c ****         modem_supervisor_add_task( &task_dm );
 464:smtc_modem_core/device_management/modem_context.c ****     }
 465:smtc_modem_core/device_management/modem_context.c **** }
 466:smtc_modem_core/device_management/modem_context.c **** 
 467:smtc_modem_core/device_management/modem_context.c **** void modem_supervisor_add_task_dm_status_now( void )
 468:smtc_modem_core/device_management/modem_context.c **** {
 1300              		.loc 1 468 1 is_stmt 1 view -0
 1301              		.cfi_startproc
 1302              		@ args = 0, pretend = 0, frame = 24
 1303              		@ frame_needed = 0, uses_anonymous_args = 0
 469:smtc_modem_core/device_management/modem_context.c ****     smodem_task task_dm;
 1304              		.loc 1 469 5 view .LVU294
 470:smtc_modem_core/device_management/modem_context.c ****     task_dm.id         = DM_TASK_NOW;
 1305              		.loc 1 470 5 view .LVU295
 1306              		.loc 1 470 24 is_stmt 0 view .LVU296
 1307 0000 0423     		movs	r3, #4
 468:smtc_modem_core/device_management/modem_context.c ****     smodem_task task_dm;
ARM GAS  /var/folders/bq/yv49bw8j2kd6w3hsq868qv180000gn/T//ccEK2k0g.s 			page 35


 1308              		.loc 1 468 1 view .LVU297
 1309 0002 70B5     		push	{r4, r5, r6, lr}
 1310              		.cfi_def_cfa_offset 16
 1311              		.cfi_offset 4, -16
 1312              		.cfi_offset 5, -12
 1313              		.cfi_offset 6, -8
 1314              		.cfi_offset 14, -4
 471:smtc_modem_core/device_management/modem_context.c ****     task_dm.priority   = TASK_LOW_PRIORITY;
 472:smtc_modem_core/device_management/modem_context.c ****     task_dm.PacketType = UNCONF_DATA_UP;
 1315              		.loc 1 472 24 view .LVU298
 1316 0004 0226     		movs	r6, #2
 468:smtc_modem_core/device_management/modem_context.c ****     smodem_task task_dm;
 1317              		.loc 1 468 1 view .LVU299
 1318 0006 86B0     		sub	sp, sp, #24
 1319              		.cfi_def_cfa_offset 40
 470:smtc_modem_core/device_management/modem_context.c ****     task_dm.priority   = TASK_LOW_PRIORITY;
 1320              		.loc 1 470 24 view .LVU300
 1321 0008 01AC     		add	r4, sp, #4
 1322 000a 2370     		strb	r3, [r4]
 471:smtc_modem_core/device_management/modem_context.c ****     task_dm.priority   = TASK_LOW_PRIORITY;
 1323              		.loc 1 471 5 is_stmt 1 view .LVU301
 471:smtc_modem_core/device_management/modem_context.c ****     task_dm.priority   = TASK_LOW_PRIORITY;
 1324              		.loc 1 471 24 is_stmt 0 view .LVU302
 1325 000c 013B     		subs	r3, r3, #1
 1326 000e 2372     		strb	r3, [r4, #8]
 1327              		.loc 1 472 5 is_stmt 1 view .LVU303
 1328              		.loc 1 472 24 is_stmt 0 view .LVU304
 1329 0010 6674     		strb	r6, [r4, #17]
 473:smtc_modem_core/device_management/modem_context.c ****     task_dm.time_to_execute_s =
 1330              		.loc 1 473 5 is_stmt 1 view .LVU305
 474:smtc_modem_core/device_management/modem_context.c ****         bsp_rtc_get_time_s( ) + bsp_rng_get_random_in_range( DM_STATUS_NOW_MIN_TIME, DM_STATUS_NOW_
 1331              		.loc 1 474 9 is_stmt 0 view .LVU306
 1332 0012 FFF7FEFF 		bl	bsp_rtc_get_time_s
 1333              	.LVL82:
 1334              		.loc 1 474 33 view .LVU307
 1335 0016 0521     		movs	r1, #5
 1336              		.loc 1 474 9 view .LVU308
 1337 0018 0500     		movs	r5, r0
 1338              		.loc 1 474 33 view .LVU309
 1339 001a 3000     		movs	r0, r6
 1340 001c FFF7FEFF 		bl	bsp_rng_get_random_in_range
 1341              	.LVL83:
 1342              		.loc 1 474 31 view .LVU310
 1343 0020 2D18     		adds	r5, r5, r0
 475:smtc_modem_core/device_management/modem_context.c ****     modem_supervisor_add_task( &task_dm );
 1344              		.loc 1 475 5 view .LVU311
 1345 0022 2000     		movs	r0, r4
 473:smtc_modem_core/device_management/modem_context.c ****     task_dm.time_to_execute_s =
 1346              		.loc 1 473 31 view .LVU312
 1347 0024 6560     		str	r5, [r4, #4]
 1348              		.loc 1 475 5 is_stmt 1 view .LVU313
 1349 0026 FFF7FEFF 		bl	modem_supervisor_add_task
 1350              	.LVL84:
 476:smtc_modem_core/device_management/modem_context.c **** }
 1351              		.loc 1 476 1 is_stmt 0 view .LVU314
 1352 002a 06B0     		add	sp, sp, #24
 1353              		@ sp needed
ARM GAS  /var/folders/bq/yv49bw8j2kd6w3hsq868qv180000gn/T//ccEK2k0g.s 			page 36


 1354 002c 70BD     		pop	{r4, r5, r6, pc}
 1355              		.cfi_endproc
 1356              	.LFE38:
 1358              		.section	.text.modem_supervisor_add_task_modem_mute,"ax",%progbits
 1359              		.align	1
 1360              		.global	modem_supervisor_add_task_modem_mute
 1361              		.syntax unified
 1362              		.code	16
 1363              		.thumb_func
 1364              		.fpu softvfp
 1366              	modem_supervisor_add_task_modem_mute:
 1367              	.LFB41:
 477:smtc_modem_core/device_management/modem_context.c **** 
 478:smtc_modem_core/device_management/modem_context.c **** void modem_supervisor_add_task_alc_sync_time_req( uint32_t next_execute )
 479:smtc_modem_core/device_management/modem_context.c **** {
 480:smtc_modem_core/device_management/modem_context.c ****     smodem_task task_dm;
 481:smtc_modem_core/device_management/modem_context.c ****     task_dm.id                = ALC_SYNC_TIME_REQ_TASK;
 482:smtc_modem_core/device_management/modem_context.c ****     task_dm.priority          = TASK_HIGH_PRIORITY;
 483:smtc_modem_core/device_management/modem_context.c ****     task_dm.PacketType        = UNCONF_DATA_UP;
 484:smtc_modem_core/device_management/modem_context.c ****     task_dm.time_to_execute_s = bsp_rtc_get_time_s( ) + next_execute;
 485:smtc_modem_core/device_management/modem_context.c ****     if( get_join_state( ) == MODEM_JOINED )
 486:smtc_modem_core/device_management/modem_context.c ****     {
 487:smtc_modem_core/device_management/modem_context.c ****         modem_supervisor_add_task( &task_dm );
 488:smtc_modem_core/device_management/modem_context.c ****     }
 489:smtc_modem_core/device_management/modem_context.c **** }
 490:smtc_modem_core/device_management/modem_context.c **** 
 491:smtc_modem_core/device_management/modem_context.c **** void modem_supervisor_add_task_alc_sync_ans( uint32_t next_execute )
 492:smtc_modem_core/device_management/modem_context.c **** {
 493:smtc_modem_core/device_management/modem_context.c ****     smodem_task task_dm;
 494:smtc_modem_core/device_management/modem_context.c ****     task_dm.id                = ALC_SYNC_ANS_TASK;
 495:smtc_modem_core/device_management/modem_context.c ****     task_dm.priority          = TASK_HIGH_PRIORITY;
 496:smtc_modem_core/device_management/modem_context.c ****     task_dm.PacketType        = UNCONF_DATA_UP;
 497:smtc_modem_core/device_management/modem_context.c ****     task_dm.time_to_execute_s = bsp_rtc_get_time_s( ) + next_execute;
 498:smtc_modem_core/device_management/modem_context.c ****     if( get_join_state( ) == MODEM_JOINED )
 499:smtc_modem_core/device_management/modem_context.c ****     {
 500:smtc_modem_core/device_management/modem_context.c ****         modem_supervisor_add_task( &task_dm );
 501:smtc_modem_core/device_management/modem_context.c ****     }
 502:smtc_modem_core/device_management/modem_context.c **** }
 503:smtc_modem_core/device_management/modem_context.c **** 
 504:smtc_modem_core/device_management/modem_context.c **** void modem_supervisor_add_task_modem_mute( void )
 505:smtc_modem_core/device_management/modem_context.c **** {
 1368              		.loc 1 505 1 is_stmt 1 view -0
 1369              		.cfi_startproc
 1370              		@ args = 0, pretend = 0, frame = 24
 1371              		@ frame_needed = 0, uses_anonymous_args = 0
 506:smtc_modem_core/device_management/modem_context.c ****     smodem_task task_dm;
 1372              		.loc 1 506 5 view .LVU316
 507:smtc_modem_core/device_management/modem_context.c ****     task_dm.id                = MUTE_TASK;
 1373              		.loc 1 507 5 view .LVU317
 505:smtc_modem_core/device_management/modem_context.c ****     smodem_task task_dm;
 1374              		.loc 1 505 1 is_stmt 0 view .LVU318
 1375 0000 7FB5     		push	{r0, r1, r2, r3, r4, r5, r6, lr}
 1376              		.cfi_def_cfa_offset 32
 1377              		.cfi_offset 0, -32
 1378              		.cfi_offset 1, -28
 1379              		.cfi_offset 2, -24
 1380              		.cfi_offset 3, -20
ARM GAS  /var/folders/bq/yv49bw8j2kd6w3hsq868qv180000gn/T//ccEK2k0g.s 			page 37


 1381              		.cfi_offset 4, -16
 1382              		.cfi_offset 5, -12
 1383              		.cfi_offset 6, -8
 1384              		.cfi_offset 14, -4
 1385              		.loc 1 507 31 view .LVU319
 1386 0002 0723     		movs	r3, #7
 1387 0004 6A46     		mov	r2, sp
 1388 0006 1371     		strb	r3, [r2, #4]
 508:smtc_modem_core/device_management/modem_context.c ****     task_dm.priority          = TASK_MEDIUM_HIGH_PRIORITY;
 1389              		.loc 1 508 5 is_stmt 1 view .LVU320
 1390              		.loc 1 508 31 is_stmt 0 view .LVU321
 1391 0008 053B     		subs	r3, r3, #5
 1392 000a 1373     		strb	r3, [r2, #12]
 509:smtc_modem_core/device_management/modem_context.c ****     task_dm.time_to_execute_s = bsp_rtc_get_time_s( ) + 86400;  // Every 24h
 1393              		.loc 1 509 5 is_stmt 1 view .LVU322
 1394              		.loc 1 509 33 is_stmt 0 view .LVU323
 1395 000c FFF7FEFF 		bl	bsp_rtc_get_time_s
 1396              	.LVL85:
 1397              		.loc 1 509 55 view .LVU324
 1398 0010 034B     		ldr	r3, .L103
 1399 0012 C018     		adds	r0, r0, r3
 1400              		.loc 1 509 31 view .LVU325
 1401 0014 0290     		str	r0, [sp, #8]
 510:smtc_modem_core/device_management/modem_context.c ****     modem_supervisor_add_task( &task_dm );
 1402              		.loc 1 510 5 is_stmt 1 view .LVU326
 1403 0016 01A8     		add	r0, sp, #4
 1404 0018 FFF7FEFF 		bl	modem_supervisor_add_task
 1405              	.LVL86:
 511:smtc_modem_core/device_management/modem_context.c **** }
 1406              		.loc 1 511 1 is_stmt 0 view .LVU327
 1407 001c 07B0     		add	sp, sp, #28
 1408              		@ sp needed
 1409 001e 00BD     		pop	{pc}
 1410              	.L104:
 1411              		.align	2
 1412              	.L103:
 1413 0020 80510100 		.word	86400
 1414              		.cfi_endproc
 1415              	.LFE41:
 1417              		.section	.rodata.modem_supervisor_add_task_stream.str1.1,"aMS",%progbits,1
 1418              	.LC66:
 1419 0000 53757065 		.ascii	"Supervisor add stream task\012\000"
 1419      72766973 
 1419      6F722061 
 1419      64642073 
 1419      74726561 
 1420              		.section	.text.modem_supervisor_add_task_stream,"ax",%progbits
 1421              		.align	1
 1422              		.global	modem_supervisor_add_task_stream
 1423              		.syntax unified
 1424              		.code	16
 1425              		.thumb_func
 1426              		.fpu softvfp
 1428              	modem_supervisor_add_task_stream:
 1429              	.LFB43:
 512:smtc_modem_core/device_management/modem_context.c **** 
 513:smtc_modem_core/device_management/modem_context.c **** void modem_supervisor_add_task_retrieve_dl( uint32_t next_execute )
ARM GAS  /var/folders/bq/yv49bw8j2kd6w3hsq868qv180000gn/T//ccEK2k0g.s 			page 38


 514:smtc_modem_core/device_management/modem_context.c **** {
 515:smtc_modem_core/device_management/modem_context.c ****     BSP_DBG_TRACE_WARNING( "modem_supervisor_add_task_retrieve_dl\n" );
 516:smtc_modem_core/device_management/modem_context.c ****     smodem_task task_dm;
 517:smtc_modem_core/device_management/modem_context.c ****     task_dm.id                = RETRIEVE_DL_TASK;
 518:smtc_modem_core/device_management/modem_context.c ****     task_dm.priority          = TASK_LOW_PRIORITY;
 519:smtc_modem_core/device_management/modem_context.c ****     task_dm.PacketType        = UNCONF_DATA_UP;
 520:smtc_modem_core/device_management/modem_context.c ****     task_dm.sizeIn            = 0;
 521:smtc_modem_core/device_management/modem_context.c ****     task_dm.time_to_execute_s = bsp_rtc_get_time_s( ) + next_execute;
 522:smtc_modem_core/device_management/modem_context.c ****     if( get_join_state( ) == MODEM_JOINED )
 523:smtc_modem_core/device_management/modem_context.c ****     {
 524:smtc_modem_core/device_management/modem_context.c ****         modem_supervisor_add_task( &task_dm );
 525:smtc_modem_core/device_management/modem_context.c ****     }
 526:smtc_modem_core/device_management/modem_context.c **** }
 527:smtc_modem_core/device_management/modem_context.c **** 
 528:smtc_modem_core/device_management/modem_context.c **** void modem_supervisor_add_task_stream( void )
 529:smtc_modem_core/device_management/modem_context.c **** {
 1430              		.loc 1 529 1 is_stmt 1 view -0
 1431              		.cfi_startproc
 1432              		@ args = 0, pretend = 0, frame = 24
 1433              		@ frame_needed = 0, uses_anonymous_args = 0
 530:smtc_modem_core/device_management/modem_context.c ****     // Modem supervisor copy everything,
 531:smtc_modem_core/device_management/modem_context.c ****     // so this is safe even when it is going to be invalidated.
 532:smtc_modem_core/device_management/modem_context.c ****     smodem_task stream_task;
 1434              		.loc 1 532 5 view .LVU329
 533:smtc_modem_core/device_management/modem_context.c **** 
 534:smtc_modem_core/device_management/modem_context.c ****     stream_task.id                = STREAM_TASK;
 1435              		.loc 1 534 5 view .LVU330
 1436              		.loc 1 534 35 is_stmt 0 view .LVU331
 1437 0000 0923     		movs	r3, #9
 529:smtc_modem_core/device_management/modem_context.c ****     // Modem supervisor copy everything,
 1438              		.loc 1 529 1 view .LVU332
 1439 0002 10B5     		push	{r4, lr}
 1440              		.cfi_def_cfa_offset 8
 1441              		.cfi_offset 4, -8
 1442              		.cfi_offset 14, -4
 1443 0004 86B0     		sub	sp, sp, #24
 1444              		.cfi_def_cfa_offset 32
 1445              		.loc 1 534 35 view .LVU333
 1446 0006 01AC     		add	r4, sp, #4
 1447 0008 2370     		strb	r3, [r4]
 535:smtc_modem_core/device_management/modem_context.c ****     stream_task.time_to_execute_s = bsp_rtc_get_time_s( ) + 1;  // TODO define when to launch the t
 1448              		.loc 1 535 5 is_stmt 1 view .LVU334
 1449              		.loc 1 535 37 is_stmt 0 view .LVU335
 1450 000a FFF7FEFF 		bl	bsp_rtc_get_time_s
 1451              	.LVL87:
 536:smtc_modem_core/device_management/modem_context.c ****     stream_task.priority          = TASK_HIGH_PRIORITY;
 1452              		.loc 1 536 35 view .LVU336
 1453 000e 0123     		movs	r3, #1
 1454 0010 2372     		strb	r3, [r4, #8]
 1455              	.LBB67:
 1456              	.LBB68:
 537:smtc_modem_core/device_management/modem_context.c ****     stream_task.fPort             = modem_get_stream_port( );
 538:smtc_modem_core/device_management/modem_context.c ****     // stream_task.dataIn        not used in task
 539:smtc_modem_core/device_management/modem_context.c ****     // stream_task.sizeIn        not used in task
 540:smtc_modem_core/device_management/modem_context.c ****     // stream_task.PacketType    not used in task
 541:smtc_modem_core/device_management/modem_context.c ****     modem_supervisor_add_task( &stream_task );
 542:smtc_modem_core/device_management/modem_context.c ****     BSP_DBG_TRACE_INFO( "Supervisor add stream task\n" );
ARM GAS  /var/folders/bq/yv49bw8j2kd6w3hsq868qv180000gn/T//ccEK2k0g.s 			page 39


 543:smtc_modem_core/device_management/modem_context.c **** }
 544:smtc_modem_core/device_management/modem_context.c **** 
 545:smtc_modem_core/device_management/modem_context.c **** /*!
 546:smtc_modem_core/device_management/modem_context.c ****  * \brief   return the modem status
 547:smtc_modem_core/device_management/modem_context.c ****  * \remark
 548:smtc_modem_core/device_management/modem_context.c ****  * \param [IN] void
 549:smtc_modem_core/device_management/modem_context.c ****  * \param [OUT] modem status bit 6 : streaming in progress
 550:smtc_modem_core/device_management/modem_context.c ****  *                           bit 5 : file upload in progress
 551:smtc_modem_core/device_management/modem_context.c ****  *                           bit 4 : radio suspend
 552:smtc_modem_core/device_management/modem_context.c ****  *                           bit 3 : modem join
 553:smtc_modem_core/device_management/modem_context.c ****  *                           bit 2 : modem mute
 554:smtc_modem_core/device_management/modem_context.c ****  *                           bit 1 : reset after panic
 555:smtc_modem_core/device_management/modem_context.c ****  *                           bit 0 : reset after brownout
 556:smtc_modem_core/device_management/modem_context.c ****  * */
 557:smtc_modem_core/device_management/modem_context.c **** uint8_t get_modem_status( void )
 558:smtc_modem_core/device_management/modem_context.c **** {
 559:smtc_modem_core/device_management/modem_context.c ****     // If the stack is no more join, the modem status was not aware of the disconnection
 560:smtc_modem_core/device_management/modem_context.c ****     if( get_join_state( ) != MODEM_JOINED )
 561:smtc_modem_core/device_management/modem_context.c ****     {
 562:smtc_modem_core/device_management/modem_context.c ****         set_modem_status_modem_joined( false );
 563:smtc_modem_core/device_management/modem_context.c ****     }
 564:smtc_modem_core/device_management/modem_context.c ****     return ( modem_status );
 565:smtc_modem_core/device_management/modem_context.c **** }
 566:smtc_modem_core/device_management/modem_context.c **** 
 567:smtc_modem_core/device_management/modem_context.c **** void set_modem_status_reset_after_brownout( bool value )
 568:smtc_modem_core/device_management/modem_context.c **** {
 569:smtc_modem_core/device_management/modem_context.c ****     modem_status = ( value == true ) ? ( modem_status | ( 1 << modem_status_brownout ) )
 570:smtc_modem_core/device_management/modem_context.c ****                                      : ( modem_status & ~( 1 << modem_status_brownout ) );
 571:smtc_modem_core/device_management/modem_context.c **** }
 572:smtc_modem_core/device_management/modem_context.c **** 
 573:smtc_modem_core/device_management/modem_context.c **** void set_modem_status_reset_after_crash( bool value )
 574:smtc_modem_core/device_management/modem_context.c **** {
 575:smtc_modem_core/device_management/modem_context.c ****     modem_status = ( value == true ) ? ( modem_status | ( 1 << modem_status_crash ) )
 576:smtc_modem_core/device_management/modem_context.c ****                                      : ( modem_status & ~( 1 << modem_status_crash ) );
 577:smtc_modem_core/device_management/modem_context.c **** }
 578:smtc_modem_core/device_management/modem_context.c **** 
 579:smtc_modem_core/device_management/modem_context.c **** void set_modem_status_modem_mute( bool value )
 580:smtc_modem_core/device_management/modem_context.c **** {
 581:smtc_modem_core/device_management/modem_context.c ****     modem_status = ( value == true ) ? ( modem_status | ( 1 << modem_status_mute ) )
 582:smtc_modem_core/device_management/modem_context.c ****                                      : ( modem_status & ~( 1 << modem_status_mute ) );
 583:smtc_modem_core/device_management/modem_context.c **** }
 584:smtc_modem_core/device_management/modem_context.c **** 
 585:smtc_modem_core/device_management/modem_context.c **** void set_modem_status_modem_joined( bool value )
 586:smtc_modem_core/device_management/modem_context.c **** {
 587:smtc_modem_core/device_management/modem_context.c ****     modem_status = ( value == true ) ? ( modem_status | ( 1 << modem_status_joined ) )
 588:smtc_modem_core/device_management/modem_context.c ****                                      : ( modem_status & ~( 1 << modem_status_joined ) );
 589:smtc_modem_core/device_management/modem_context.c **** }
 590:smtc_modem_core/device_management/modem_context.c **** 
 591:smtc_modem_core/device_management/modem_context.c **** void set_modem_status_radio_suspend( bool value )
 592:smtc_modem_core/device_management/modem_context.c **** {
 593:smtc_modem_core/device_management/modem_context.c ****     modem_status = ( value == true ) ? ( modem_status | ( 1 << modem_status_suspend ) )
 594:smtc_modem_core/device_management/modem_context.c ****                                      : ( modem_status & ~( 1 << modem_status_suspend ) );
 595:smtc_modem_core/device_management/modem_context.c **** }
 596:smtc_modem_core/device_management/modem_context.c **** 
 597:smtc_modem_core/device_management/modem_context.c **** void set_modem_status_file_upload( bool value )
 598:smtc_modem_core/device_management/modem_context.c **** {
 599:smtc_modem_core/device_management/modem_context.c ****     modem_status = ( value == true ) ? ( modem_status | ( 1 << modem_status_upload ) )
ARM GAS  /var/folders/bq/yv49bw8j2kd6w3hsq868qv180000gn/T//ccEK2k0g.s 			page 40


 600:smtc_modem_core/device_management/modem_context.c ****                                      : ( modem_status & ~( 1 << modem_status_upload ) );
 601:smtc_modem_core/device_management/modem_context.c **** }
 602:smtc_modem_core/device_management/modem_context.c **** 
 603:smtc_modem_core/device_management/modem_context.c **** void set_modem_status_joining( bool value )
 604:smtc_modem_core/device_management/modem_context.c **** {
 605:smtc_modem_core/device_management/modem_context.c ****     modem_status = ( value == true ) ? ( modem_status | ( 1 << modem_status_joining ) )
 606:smtc_modem_core/device_management/modem_context.c ****                                      : ( modem_status & ~( 1 << modem_status_joining ) );
 607:smtc_modem_core/device_management/modem_context.c **** }
 608:smtc_modem_core/device_management/modem_context.c **** 
 609:smtc_modem_core/device_management/modem_context.c **** void set_modem_status_streaming( bool value )
 610:smtc_modem_core/device_management/modem_context.c **** {
 611:smtc_modem_core/device_management/modem_context.c ****     modem_status = ( value == true ) ? ( modem_status | ( 1 << modem_status_streaming ) )
 612:smtc_modem_core/device_management/modem_context.c ****                                      : ( modem_status & ~( 1 << modem_status_streaming ) );
 613:smtc_modem_core/device_management/modem_context.c **** }
 614:smtc_modem_core/device_management/modem_context.c **** 
 615:smtc_modem_core/device_management/modem_context.c **** bool get_modem_status_reset_after_crash( void )
 616:smtc_modem_core/device_management/modem_context.c **** {
 617:smtc_modem_core/device_management/modem_context.c ****     return ( ( modem_status >> modem_status_crash ) & 0x01 );
 618:smtc_modem_core/device_management/modem_context.c **** }
 619:smtc_modem_core/device_management/modem_context.c **** 
 620:smtc_modem_core/device_management/modem_context.c **** bool get_modem_status_file_upload( void )
 621:smtc_modem_core/device_management/modem_context.c **** {
 622:smtc_modem_core/device_management/modem_context.c ****     return ( ( modem_status >> modem_status_upload ) & 0x01 );
 623:smtc_modem_core/device_management/modem_context.c **** }
 624:smtc_modem_core/device_management/modem_context.c **** 
 625:smtc_modem_core/device_management/modem_context.c **** bool get_modem_status_joining( void )
 626:smtc_modem_core/device_management/modem_context.c **** {
 627:smtc_modem_core/device_management/modem_context.c ****     return ( ( modem_status >> modem_status_joining ) & 0x01 );
 628:smtc_modem_core/device_management/modem_context.c **** }
 629:smtc_modem_core/device_management/modem_context.c **** 
 630:smtc_modem_core/device_management/modem_context.c **** bool get_modem_status_streaming( void )
 631:smtc_modem_core/device_management/modem_context.c **** {
 632:smtc_modem_core/device_management/modem_context.c ****     return ( ( modem_status >> modem_status_streaming ) & 0x01 );
 633:smtc_modem_core/device_management/modem_context.c **** }
 634:smtc_modem_core/device_management/modem_context.c **** 
 635:smtc_modem_core/device_management/modem_context.c **** void reset_modem_charge( void )
 636:smtc_modem_core/device_management/modem_context.c **** {
 637:smtc_modem_core/device_management/modem_context.c ****     radio_planner_t* rp = modem_get_radio_planner( );
 638:smtc_modem_core/device_management/modem_context.c ****     rp_stats_init( &rp->stats );
 639:smtc_modem_core/device_management/modem_context.c **** }
 640:smtc_modem_core/device_management/modem_context.c **** 
 641:smtc_modem_core/device_management/modem_context.c **** uint32_t get_modem_charge_ma_s( void )
 642:smtc_modem_core/device_management/modem_context.c **** {
 643:smtc_modem_core/device_management/modem_context.c ****     radio_planner_t* rp                = modem_get_radio_planner( );
 644:smtc_modem_core/device_management/modem_context.c ****     uint32_t         total_consumption = rp->stats.tx_total_consumption_ma + rp->stats.rx_total_con
 645:smtc_modem_core/device_management/modem_context.c ****     return ( ( total_consumption / 1000 ) + modem_charge_offset );
 646:smtc_modem_core/device_management/modem_context.c **** }
 647:smtc_modem_core/device_management/modem_context.c **** 
 648:smtc_modem_core/device_management/modem_context.c **** uint32_t get_modem_charge_ma_h( void )
 649:smtc_modem_core/device_management/modem_context.c **** {
 650:smtc_modem_core/device_management/modem_context.c ****     return get_modem_charge_ma_s( ) / 3600;
 651:smtc_modem_core/device_management/modem_context.c **** }
 652:smtc_modem_core/device_management/modem_context.c **** 
 653:smtc_modem_core/device_management/modem_context.c **** uint8_t get_modem_voltage( void )
 654:smtc_modem_core/device_management/modem_context.c **** {
 655:smtc_modem_core/device_management/modem_context.c ****     return ( uint8_t ) bsp_mcu_get_mcu_voltage( );
 656:smtc_modem_core/device_management/modem_context.c **** }
ARM GAS  /var/folders/bq/yv49bw8j2kd6w3hsq868qv180000gn/T//ccEK2k0g.s 			page 41


 657:smtc_modem_core/device_management/modem_context.c **** uint8_t get_modem_temp( void )
 658:smtc_modem_core/device_management/modem_context.c **** {
 659:smtc_modem_core/device_management/modem_context.c ****     return ( uint8_t ) bsp_mcu_get_mcu_temperature( );
 660:smtc_modem_core/device_management/modem_context.c **** }
 661:smtc_modem_core/device_management/modem_context.c **** 
 662:smtc_modem_core/device_management/modem_context.c **** e_dm_cmd_length_valid dm_check_dminfo_size( e_dm_info_t cmd, uint8_t length )
 663:smtc_modem_core/device_management/modem_context.c **** {
 664:smtc_modem_core/device_management/modem_context.c ****     if( cmd >= e_inf_max )
 665:smtc_modem_core/device_management/modem_context.c ****     {
 666:smtc_modem_core/device_management/modem_context.c ****         BSP_DBG_TRACE_ERROR( "Invalid DM command\n" );
 667:smtc_modem_core/device_management/modem_context.c ****         return DM_CMD_LENGTH_NOT_VALID;
 668:smtc_modem_core/device_management/modem_context.c ****     }
 669:smtc_modem_core/device_management/modem_context.c **** 
 670:smtc_modem_core/device_management/modem_context.c ****     if( length != dm_info_field_sz[cmd] )
 671:smtc_modem_core/device_management/modem_context.c ****     {
 672:smtc_modem_core/device_management/modem_context.c ****         BSP_DBG_TRACE_ERROR( "Invalid DM command size\n" );
 673:smtc_modem_core/device_management/modem_context.c ****         return DM_CMD_LENGTH_NOT_VALID;
 674:smtc_modem_core/device_management/modem_context.c ****     }
 675:smtc_modem_core/device_management/modem_context.c **** 
 676:smtc_modem_core/device_management/modem_context.c ****     return DM_CMD_LENGTH_VALID;
 677:smtc_modem_core/device_management/modem_context.c **** }
 678:smtc_modem_core/device_management/modem_context.c **** 
 679:smtc_modem_core/device_management/modem_context.c **** e_dm_error_t dm_set_conf( e_dm_info_t tag, uint8_t* data, uint8_t length )
 680:smtc_modem_core/device_management/modem_context.c **** {
 681:smtc_modem_core/device_management/modem_context.c ****     e_dm_error_t ret = DM_OK;
 682:smtc_modem_core/device_management/modem_context.c **** 
 683:smtc_modem_core/device_management/modem_context.c ****     if( dm_check_dminfo_size( tag, length ) != DM_CMD_LENGTH_VALID )
 684:smtc_modem_core/device_management/modem_context.c ****     {
 685:smtc_modem_core/device_management/modem_context.c ****         tag = e_inf_max;
 686:smtc_modem_core/device_management/modem_context.c ****         ret = DM_ERROR;
 687:smtc_modem_core/device_management/modem_context.c ****     }
 688:smtc_modem_core/device_management/modem_context.c ****     else
 689:smtc_modem_core/device_management/modem_context.c ****     {
 690:smtc_modem_core/device_management/modem_context.c ****         switch( tag )
 691:smtc_modem_core/device_management/modem_context.c ****         {
 692:smtc_modem_core/device_management/modem_context.c ****         case e_inf_adrmode:
 693:smtc_modem_core/device_management/modem_context.c ****             lorawan_api_dr_strategy_set( ( dr_strategy_t ) data[0] );
 694:smtc_modem_core/device_management/modem_context.c ****             break;
 695:smtc_modem_core/device_management/modem_context.c ****         case e_inf_joineui:
 696:smtc_modem_core/device_management/modem_context.c ****             lorawan_api_appeui_key_set( &data[0] );
 697:smtc_modem_core/device_management/modem_context.c ****             break;
 698:smtc_modem_core/device_management/modem_context.c ****         case e_inf_interval:
 699:smtc_modem_core/device_management/modem_context.c ****             set_modem_dm_interval( data[0] );
 700:smtc_modem_core/device_management/modem_context.c ****             modem_supervisor_add_task_dm_status( get_modem_dm_interval_second( ) );
 701:smtc_modem_core/device_management/modem_context.c ****             break;
 702:smtc_modem_core/device_management/modem_context.c ****         case e_inf_region:
 703:smtc_modem_core/device_management/modem_context.c ****             set_modem_region( data[0] );
 704:smtc_modem_core/device_management/modem_context.c ****             break;
 705:smtc_modem_core/device_management/modem_context.c ****         default:
 706:smtc_modem_core/device_management/modem_context.c ****             tag = e_inf_max;
 707:smtc_modem_core/device_management/modem_context.c ****             ret = DM_ERROR;
 708:smtc_modem_core/device_management/modem_context.c ****             break;
 709:smtc_modem_core/device_management/modem_context.c ****         }
 710:smtc_modem_core/device_management/modem_context.c ****     }
 711:smtc_modem_core/device_management/modem_context.c ****     if( ret == DM_OK )
 712:smtc_modem_core/device_management/modem_context.c ****     {
 713:smtc_modem_core/device_management/modem_context.c ****         increment_asynchronous_msgnumber( RSP_SETCONF, tag );
ARM GAS  /var/folders/bq/yv49bw8j2kd6w3hsq868qv180000gn/T//ccEK2k0g.s 			page 42


 714:smtc_modem_core/device_management/modem_context.c ****     }
 715:smtc_modem_core/device_management/modem_context.c **** 
 716:smtc_modem_core/device_management/modem_context.c ****     return ret;
 717:smtc_modem_core/device_management/modem_context.c **** }
 718:smtc_modem_core/device_management/modem_context.c **** 
 719:smtc_modem_core/device_management/modem_context.c **** e_modem_mute_t get_modem_muted( void )
 720:smtc_modem_core/device_management/modem_context.c **** {
 721:smtc_modem_core/device_management/modem_context.c ****     e_modem_mute_t mute;
 722:smtc_modem_core/device_management/modem_context.c **** 
 723:smtc_modem_core/device_management/modem_context.c ****     if( number_of_muted_day == MODEM_INFINITE_MUTE )
 724:smtc_modem_core/device_management/modem_context.c ****     {
 725:smtc_modem_core/device_management/modem_context.c ****         mute = MODEM_INFINITE_MUTE;
 726:smtc_modem_core/device_management/modem_context.c ****     }
 727:smtc_modem_core/device_management/modem_context.c ****     else if( number_of_muted_day > 0 )
 728:smtc_modem_core/device_management/modem_context.c ****     {
 729:smtc_modem_core/device_management/modem_context.c ****         mute = MODEM_TEMPORARY_MUTE;
 730:smtc_modem_core/device_management/modem_context.c ****     }
 731:smtc_modem_core/device_management/modem_context.c ****     else
 732:smtc_modem_core/device_management/modem_context.c ****     {
 733:smtc_modem_core/device_management/modem_context.c ****         mute = MODEM_NOT_MUTE;
 734:smtc_modem_core/device_management/modem_context.c ****     }
 735:smtc_modem_core/device_management/modem_context.c ****     return mute;
 736:smtc_modem_core/device_management/modem_context.c **** }
 737:smtc_modem_core/device_management/modem_context.c **** 
 738:smtc_modem_core/device_management/modem_context.c **** uint8_t dm_get_number_of_days_mute( void )
 739:smtc_modem_core/device_management/modem_context.c **** {
 740:smtc_modem_core/device_management/modem_context.c ****     return number_of_muted_day;
 741:smtc_modem_core/device_management/modem_context.c **** }
 742:smtc_modem_core/device_management/modem_context.c **** 
 743:smtc_modem_core/device_management/modem_context.c **** void dm_set_number_of_days_mute( uint8_t days )
 744:smtc_modem_core/device_management/modem_context.c **** {
 745:smtc_modem_core/device_management/modem_context.c ****     BSP_DBG_TRACE_PRINTF( "MUTE for %d days\n", days );
 746:smtc_modem_core/device_management/modem_context.c ****     if( number_of_muted_day != days )
 747:smtc_modem_core/device_management/modem_context.c ****     {
 748:smtc_modem_core/device_management/modem_context.c ****         number_of_muted_day = days;
 749:smtc_modem_core/device_management/modem_context.c **** 
 750:smtc_modem_core/device_management/modem_context.c ****         if( number_of_muted_day > 0 )
 751:smtc_modem_core/device_management/modem_context.c ****         {
 752:smtc_modem_core/device_management/modem_context.c ****             set_modem_status_modem_mute( true );
 753:smtc_modem_core/device_management/modem_context.c ****         }
 754:smtc_modem_core/device_management/modem_context.c ****         else
 755:smtc_modem_core/device_management/modem_context.c ****         {
 756:smtc_modem_core/device_management/modem_context.c ****             set_modem_status_modem_mute( false );
 757:smtc_modem_core/device_management/modem_context.c ****         }
 758:smtc_modem_core/device_management/modem_context.c **** 
 759:smtc_modem_core/device_management/modem_context.c ****         modem_store_context( );
 760:smtc_modem_core/device_management/modem_context.c ****     }
 761:smtc_modem_core/device_management/modem_context.c **** }
 762:smtc_modem_core/device_management/modem_context.c **** 
 763:smtc_modem_core/device_management/modem_context.c **** uint8_t get_dm_info_tag_list( uint8_t* dm, e_dm_info_rate_t flag )
 764:smtc_modem_core/device_management/modem_context.c **** {
 765:smtc_modem_core/device_management/modem_context.c ****     uint8_t* p = dm;
 766:smtc_modem_core/device_management/modem_context.c ****     uint32_t info_req;
 767:smtc_modem_core/device_management/modem_context.c **** 
 768:smtc_modem_core/device_management/modem_context.c ****     if( flag == DM_INFO_NOW )
 769:smtc_modem_core/device_management/modem_context.c ****     {
 770:smtc_modem_core/device_management/modem_context.c ****         info_req = dm_info_bitfield_now;
ARM GAS  /var/folders/bq/yv49bw8j2kd6w3hsq868qv180000gn/T//ccEK2k0g.s 			page 43


 771:smtc_modem_core/device_management/modem_context.c ****     }
 772:smtc_modem_core/device_management/modem_context.c ****     else
 773:smtc_modem_core/device_management/modem_context.c ****     {
 774:smtc_modem_core/device_management/modem_context.c ****         info_req = dm_info_bitfield_periodic;
 775:smtc_modem_core/device_management/modem_context.c ****     }
 776:smtc_modem_core/device_management/modem_context.c **** 
 777:smtc_modem_core/device_management/modem_context.c ****     for( uint8_t i = 0; i < e_inf_max; i++ )
 778:smtc_modem_core/device_management/modem_context.c ****     {
 779:smtc_modem_core/device_management/modem_context.c ****         if( ( info_req & ( 1 << i ) ) )
 780:smtc_modem_core/device_management/modem_context.c ****         {
 781:smtc_modem_core/device_management/modem_context.c ****             *p++ = i;  // If bit is set, added id Code in payload
 782:smtc_modem_core/device_management/modem_context.c ****         }
 783:smtc_modem_core/device_management/modem_context.c ****     }
 784:smtc_modem_core/device_management/modem_context.c ****     return p - dm;
 785:smtc_modem_core/device_management/modem_context.c **** }
 786:smtc_modem_core/device_management/modem_context.c **** 
 787:smtc_modem_core/device_management/modem_context.c **** e_set_error_t set_dm_info( uint8_t* requested_info_list, uint8_t len, e_dm_info_rate_t flag )
 788:smtc_modem_core/device_management/modem_context.c **** {
 789:smtc_modem_core/device_management/modem_context.c ****     e_set_error_t ret      = SET_OK;
 790:smtc_modem_core/device_management/modem_context.c ****     uint32_t      info_req = 0;
 791:smtc_modem_core/device_management/modem_context.c **** 
 792:smtc_modem_core/device_management/modem_context.c ****     ret = convert_requested_dm_info_bytes_to_bitfield( requested_info_list, len, &info_req );
 793:smtc_modem_core/device_management/modem_context.c **** 
 794:smtc_modem_core/device_management/modem_context.c ****     if( ret == SET_OK )
 795:smtc_modem_core/device_management/modem_context.c ****     {
 796:smtc_modem_core/device_management/modem_context.c ****         if( flag == DM_INFO_NOW )
 797:smtc_modem_core/device_management/modem_context.c ****         {
 798:smtc_modem_core/device_management/modem_context.c ****             dm_info_bitfield_now = info_req;
 799:smtc_modem_core/device_management/modem_context.c ****             tag_number_now       = 0;  // Reset tag_number used by dm_status_payload to
 800:smtc_modem_core/device_management/modem_context.c ****                                        // start a report from beginning
 801:smtc_modem_core/device_management/modem_context.c ****         }
 802:smtc_modem_core/device_management/modem_context.c ****         else
 803:smtc_modem_core/device_management/modem_context.c ****         {
 804:smtc_modem_core/device_management/modem_context.c ****             if( dm_info_bitfield_periodic != info_req )
 805:smtc_modem_core/device_management/modem_context.c ****             {
 806:smtc_modem_core/device_management/modem_context.c ****                 dm_info_bitfield_periodic = info_req;
 807:smtc_modem_core/device_management/modem_context.c ****                 tag_number                = 0;  // Reset tag_number used by dm_status_payload to st
 808:smtc_modem_core/device_management/modem_context.c ****                                                 // a report from beginning
 809:smtc_modem_core/device_management/modem_context.c ****                 modem_store_context( );
 810:smtc_modem_core/device_management/modem_context.c ****             }
 811:smtc_modem_core/device_management/modem_context.c ****         }
 812:smtc_modem_core/device_management/modem_context.c ****     }
 813:smtc_modem_core/device_management/modem_context.c **** 
 814:smtc_modem_core/device_management/modem_context.c ****     return ret;
 815:smtc_modem_core/device_management/modem_context.c **** }
 816:smtc_modem_core/device_management/modem_context.c **** 
 817:smtc_modem_core/device_management/modem_context.c **** bool dm_status_payload( uint8_t* dm_uplink_message, uint8_t* dm_uplink_message_len, uint8_t max_siz
 818:smtc_modem_core/device_management/modem_context.c ****                         e_dm_info_rate_t flag )
 819:smtc_modem_core/device_management/modem_context.c **** {
 820:smtc_modem_core/device_management/modem_context.c ****     uint8_t* p_tmp = dm_uplink_message;
 821:smtc_modem_core/device_management/modem_context.c ****     uint8_t* p     = dm_uplink_message;
 822:smtc_modem_core/device_management/modem_context.c ****     uint32_t info_requested;
 823:smtc_modem_core/device_management/modem_context.c ****     uint8_t* tag     = NULL;
 824:smtc_modem_core/device_management/modem_context.c ****     bool     pending = false;
 825:smtc_modem_core/device_management/modem_context.c **** 
 826:smtc_modem_core/device_management/modem_context.c ****     // Used DM code given in parameter
 827:smtc_modem_core/device_management/modem_context.c ****     if( flag == DM_INFO_NOW )
ARM GAS  /var/folders/bq/yv49bw8j2kd6w3hsq868qv180000gn/T//ccEK2k0g.s 			page 44


 828:smtc_modem_core/device_management/modem_context.c ****     {
 829:smtc_modem_core/device_management/modem_context.c ****         info_requested = dm_info_bitfield_now;
 830:smtc_modem_core/device_management/modem_context.c ****         tag            = &tag_number_now;
 831:smtc_modem_core/device_management/modem_context.c ****         // Used DM code in context
 832:smtc_modem_core/device_management/modem_context.c ****     }
 833:smtc_modem_core/device_management/modem_context.c ****     else
 834:smtc_modem_core/device_management/modem_context.c ****     {
 835:smtc_modem_core/device_management/modem_context.c ****         info_requested = dm_info_bitfield_periodic;
 836:smtc_modem_core/device_management/modem_context.c ****         tag            = &tag_number;
 837:smtc_modem_core/device_management/modem_context.c ****     }
 838:smtc_modem_core/device_management/modem_context.c **** 
 839:smtc_modem_core/device_management/modem_context.c ****     if( check_dm_status_max_size( info_requested, max_size ) != DM_CMD_LENGTH_VALID )
 840:smtc_modem_core/device_management/modem_context.c ****     {
 841:smtc_modem_core/device_management/modem_context.c ****         *dm_uplink_message_len = 0;
 842:smtc_modem_core/device_management/modem_context.c ****         BSP_DBG_TRACE_ERROR( "check_dm_status_max_size\n" );
 843:smtc_modem_core/device_management/modem_context.c ****         return false;
 844:smtc_modem_core/device_management/modem_context.c ****     }
 845:smtc_modem_core/device_management/modem_context.c **** 
 846:smtc_modem_core/device_management/modem_context.c ****     if( *tag >= e_inf_max )
 847:smtc_modem_core/device_management/modem_context.c ****     {
 848:smtc_modem_core/device_management/modem_context.c ****         *tag = 0;
 849:smtc_modem_core/device_management/modem_context.c ****     }
 850:smtc_modem_core/device_management/modem_context.c ****     // BSP_DBG_TRACE_PRINTF("info_requested = %d \n",info_requested);
 851:smtc_modem_core/device_management/modem_context.c ****     while( ( *tag ) < e_inf_max )
 852:smtc_modem_core/device_management/modem_context.c ****     {
 853:smtc_modem_core/device_management/modem_context.c ****         // BSP_DBG_TRACE_WARNING("tag %d - %d\n",*tag, (info_requested >> *tag) & 0x01
 854:smtc_modem_core/device_management/modem_context.c ****         // );
 855:smtc_modem_core/device_management/modem_context.c ****         if( ( info_requested & ( 1 << *tag ) ) )
 856:smtc_modem_core/device_management/modem_context.c ****         {
 857:smtc_modem_core/device_management/modem_context.c ****             *p_tmp++ = *tag;  // Add id Code in payload then the value(s)
 858:smtc_modem_core/device_management/modem_context.c ****             switch( *tag )
 859:smtc_modem_core/device_management/modem_context.c ****             {
 860:smtc_modem_core/device_management/modem_context.c ****             case e_inf_status:
 861:smtc_modem_core/device_management/modem_context.c ****                 *p_tmp = get_modem_status( );
 862:smtc_modem_core/device_management/modem_context.c ****                 break;
 863:smtc_modem_core/device_management/modem_context.c ****             case e_inf_charge: {
 864:smtc_modem_core/device_management/modem_context.c ****                 uint32_t charge = get_modem_charge_ma_h( );
 865:smtc_modem_core/device_management/modem_context.c ****                 *p_tmp          = charge & 0xFF;
 866:smtc_modem_core/device_management/modem_context.c ****                 *( p_tmp + 1 )  = ( charge >> 8 ) & 0xFF;
 867:smtc_modem_core/device_management/modem_context.c ****                 break;
 868:smtc_modem_core/device_management/modem_context.c ****             }
 869:smtc_modem_core/device_management/modem_context.c ****             case e_inf_voltage:
 870:smtc_modem_core/device_management/modem_context.c ****                 *p_tmp = get_modem_voltage( );
 871:smtc_modem_core/device_management/modem_context.c ****                 break;
 872:smtc_modem_core/device_management/modem_context.c ****             case e_inf_temp:
 873:smtc_modem_core/device_management/modem_context.c ****                 *p_tmp = get_modem_temp( );
 874:smtc_modem_core/device_management/modem_context.c ****                 break;
 875:smtc_modem_core/device_management/modem_context.c ****             case e_inf_signal:
 876:smtc_modem_core/device_management/modem_context.c ****                 *p_tmp         = lorawan_api_last_rssi_get( ) + 64;  // strength of last downlink (
 877:smtc_modem_core/device_management/modem_context.c ****                 *( p_tmp + 1 ) = lorawan_api_last_snr_get( ) >> 2;   // strength of last downlink (
 878:smtc_modem_core/device_management/modem_context.c ****                 break;
 879:smtc_modem_core/device_management/modem_context.c ****             case e_inf_uptime: {
 880:smtc_modem_core/device_management/modem_context.c ****                 uint32_t time  = get_modem_uptime_s( ) / 3600;
 881:smtc_modem_core/device_management/modem_context.c ****                 *p_tmp         = time & 0xFF;
 882:smtc_modem_core/device_management/modem_context.c ****                 *( p_tmp + 1 ) = time >> 8;
 883:smtc_modem_core/device_management/modem_context.c ****             }
 884:smtc_modem_core/device_management/modem_context.c ****             break;
ARM GAS  /var/folders/bq/yv49bw8j2kd6w3hsq868qv180000gn/T//ccEK2k0g.s 			page 45


 885:smtc_modem_core/device_management/modem_context.c ****             case e_inf_rxtime: {
 886:smtc_modem_core/device_management/modem_context.c ****                 s_modem_dwn_t dwnframe = { 0 };
 887:smtc_modem_core/device_management/modem_context.c ****                 get_modem_downlink_frame( &dwnframe );
 888:smtc_modem_core/device_management/modem_context.c ****                 uint32_t time  = ( bsp_rtc_get_time_s( ) - dwnframe.timestamp ) / 3600;
 889:smtc_modem_core/device_management/modem_context.c ****                 *p_tmp         = time & 0xFF;
 890:smtc_modem_core/device_management/modem_context.c ****                 *( p_tmp + 1 ) = time >> 8;
 891:smtc_modem_core/device_management/modem_context.c ****             }
 892:smtc_modem_core/device_management/modem_context.c ****             break;
 893:smtc_modem_core/device_management/modem_context.c ****             case e_inf_firmware:
 894:smtc_modem_core/device_management/modem_context.c ****                 // return the crc value of fuota dedicated for test have to be
 895:smtc_modem_core/device_management/modem_context.c ****                 // re implement when fuota availble
 896:smtc_modem_core/device_management/modem_context.c ****                 memset( p_tmp, 0, dm_info_field_sz[*tag] );
 897:smtc_modem_core/device_management/modem_context.c ****                 break;
 898:smtc_modem_core/device_management/modem_context.c ****             case e_inf_adrmode:
 899:smtc_modem_core/device_management/modem_context.c ****                 *p_tmp = get_modem_adr( );
 900:smtc_modem_core/device_management/modem_context.c ****                 break;
 901:smtc_modem_core/device_management/modem_context.c ****             case e_inf_joineui:
 902:smtc_modem_core/device_management/modem_context.c ****                 lorawan_api_appeui_key_get( p_tmp );
 903:smtc_modem_core/device_management/modem_context.c ****                 break;
 904:smtc_modem_core/device_management/modem_context.c ****             case e_inf_interval:
 905:smtc_modem_core/device_management/modem_context.c ****                 *p_tmp = get_modem_dm_interval( );
 906:smtc_modem_core/device_management/modem_context.c ****                 break;
 907:smtc_modem_core/device_management/modem_context.c ****             case e_inf_region:
 908:smtc_modem_core/device_management/modem_context.c ****                 *p_tmp = get_modem_region( );
 909:smtc_modem_core/device_management/modem_context.c ****                 break;
 910:smtc_modem_core/device_management/modem_context.c ****             case e_inf_rfu_0:
 911:smtc_modem_core/device_management/modem_context.c ****                 // Nothing to do
 912:smtc_modem_core/device_management/modem_context.c ****                 break;
 913:smtc_modem_core/device_management/modem_context.c ****             case e_inf_rstcount:
 914:smtc_modem_core/device_management/modem_context.c ****                 *p_tmp         = lorawan_api_nb_reset_get( ) & 0xFF;
 915:smtc_modem_core/device_management/modem_context.c ****                 *( p_tmp + 1 ) = lorawan_api_nb_reset_get( ) >> 8;
 916:smtc_modem_core/device_management/modem_context.c ****                 break;
 917:smtc_modem_core/device_management/modem_context.c ****             case e_inf_deveui:
 918:smtc_modem_core/device_management/modem_context.c ****                 lorawan_api_deveui_get( p_tmp );
 919:smtc_modem_core/device_management/modem_context.c ****                 break;
 920:smtc_modem_core/device_management/modem_context.c ****             case e_inf_rfu_1:
 921:smtc_modem_core/device_management/modem_context.c ****                 // Nothing to do
 922:smtc_modem_core/device_management/modem_context.c ****                 break;
 923:smtc_modem_core/device_management/modem_context.c ****             case e_inf_session:
 924:smtc_modem_core/device_management/modem_context.c ****                 *p_tmp         = lorawan_api_devnonce_get( ) & 0xFF;
 925:smtc_modem_core/device_management/modem_context.c ****                 *( p_tmp + 1 ) = lorawan_api_devnonce_get( ) >> 8;
 926:smtc_modem_core/device_management/modem_context.c ****                 break;
 927:smtc_modem_core/device_management/modem_context.c ****             case e_inf_chipeui:
 928:smtc_modem_core/device_management/modem_context.c ****                 memset( p_tmp, 0, dm_info_field_sz[*tag] );
 929:smtc_modem_core/device_management/modem_context.c ****                 break;
 930:smtc_modem_core/device_management/modem_context.c ****             case e_inf_streampar:
 931:smtc_modem_core/device_management/modem_context.c ****                 *p_tmp         = modem_get_stream_port( );
 932:smtc_modem_core/device_management/modem_context.c ****                 *( p_tmp + 1 ) = modem_get_stream_encryption( );
 933:smtc_modem_core/device_management/modem_context.c ****                 break;
 934:smtc_modem_core/device_management/modem_context.c ****             case e_inf_appstatus:
 935:smtc_modem_core/device_management/modem_context.c ****                 get_modem_appstatus( p_tmp );
 936:smtc_modem_core/device_management/modem_context.c ****                 break;
 937:smtc_modem_core/device_management/modem_context.c ****             default:
 938:smtc_modem_core/device_management/modem_context.c ****                 BSP_DBG_TRACE_ERROR( "Construct DM payload report, unknown code 0x%02x\n", *tag );
 939:smtc_modem_core/device_management/modem_context.c ****                 break;
 940:smtc_modem_core/device_management/modem_context.c ****             }
 941:smtc_modem_core/device_management/modem_context.c **** 
ARM GAS  /var/folders/bq/yv49bw8j2kd6w3hsq868qv180000gn/T//ccEK2k0g.s 			page 46


 942:smtc_modem_core/device_management/modem_context.c ****             p_tmp += dm_info_field_sz[*tag];
 943:smtc_modem_core/device_management/modem_context.c ****             // Check if last message can be enqueued
 944:smtc_modem_core/device_management/modem_context.c ****             if( ( p_tmp - dm_uplink_message ) <= max_size )
 945:smtc_modem_core/device_management/modem_context.c ****             {
 946:smtc_modem_core/device_management/modem_context.c ****                 p = p_tmp;
 947:smtc_modem_core/device_management/modem_context.c ****             }
 948:smtc_modem_core/device_management/modem_context.c ****             else
 949:smtc_modem_core/device_management/modem_context.c ****             {
 950:smtc_modem_core/device_management/modem_context.c ****                 // last message can't be enqueued
 951:smtc_modem_core/device_management/modem_context.c ****                 pending = true;
 952:smtc_modem_core/device_management/modem_context.c ****                 break;  // break for loop
 953:smtc_modem_core/device_management/modem_context.c ****             }
 954:smtc_modem_core/device_management/modem_context.c ****         }
 955:smtc_modem_core/device_management/modem_context.c ****         ( *tag )++;
 956:smtc_modem_core/device_management/modem_context.c ****     }
 957:smtc_modem_core/device_management/modem_context.c **** 
 958:smtc_modem_core/device_management/modem_context.c ****     *dm_uplink_message_len = p - dm_uplink_message;
 959:smtc_modem_core/device_management/modem_context.c ****     return pending;
 960:smtc_modem_core/device_management/modem_context.c **** }
 961:smtc_modem_core/device_management/modem_context.c **** 
 962:smtc_modem_core/device_management/modem_context.c **** e_set_error_t set_modem_suspend( e_modem_suspend_t suspend )
 963:smtc_modem_core/device_management/modem_context.c **** {
 964:smtc_modem_core/device_management/modem_context.c ****     if( suspend > 1 )
 965:smtc_modem_core/device_management/modem_context.c ****     {
 966:smtc_modem_core/device_management/modem_context.c ****         return SET_ERROR;
 967:smtc_modem_core/device_management/modem_context.c ****     }
 968:smtc_modem_core/device_management/modem_context.c **** 
 969:smtc_modem_core/device_management/modem_context.c ****     if( suspend == MODEM_NOT_SUSPEND )
 970:smtc_modem_core/device_management/modem_context.c ****     {
 971:smtc_modem_core/device_management/modem_context.c ****         set_modem_status_radio_suspend( false );
 972:smtc_modem_core/device_management/modem_context.c ****         is_modem_suspend = MODEM_NOT_SUSPEND;
 973:smtc_modem_core/device_management/modem_context.c ****     }
 974:smtc_modem_core/device_management/modem_context.c ****     else
 975:smtc_modem_core/device_management/modem_context.c ****     {
 976:smtc_modem_core/device_management/modem_context.c ****         set_modem_status_radio_suspend( true );
 977:smtc_modem_core/device_management/modem_context.c ****         is_modem_suspend = MODEM_SUSPEND;
 978:smtc_modem_core/device_management/modem_context.c ****     }
 979:smtc_modem_core/device_management/modem_context.c ****     return SET_OK;
 980:smtc_modem_core/device_management/modem_context.c **** }
 981:smtc_modem_core/device_management/modem_context.c **** 
 982:smtc_modem_core/device_management/modem_context.c **** e_modem_suspend_t get_modem_suspend( void )
 983:smtc_modem_core/device_management/modem_context.c **** {
 984:smtc_modem_core/device_management/modem_context.c ****     return is_modem_suspend;
 985:smtc_modem_core/device_management/modem_context.c **** }
 986:smtc_modem_core/device_management/modem_context.c **** 
 987:smtc_modem_core/device_management/modem_context.c **** e_set_error_t set_modem_adr_profile( dr_strategy_t user_dr, uint8_t* adr_custom_data, uint8_t adr_c
 988:smtc_modem_core/device_management/modem_context.c **** {
 989:smtc_modem_core/device_management/modem_context.c ****     /* error case : 1) user_dr invalid
 990:smtc_modem_core/device_management/modem_context.c ****                     2) user_dr = custom but length not equal to 16
 991:smtc_modem_core/device_management/modem_context.c ****                     3) user_dr not custom but length not equal to 0*/
 992:smtc_modem_core/device_management/modem_context.c ****     if( ( user_dr >= UNKNOWN_DR ) || ( ( user_dr == USER_DR_DISTRIBUTION ) && ( adr_custom_length !
 993:smtc_modem_core/device_management/modem_context.c ****         ( ( user_dr < USER_DR_DISTRIBUTION ) && ( adr_custom_length != 0 ) ) )
 994:smtc_modem_core/device_management/modem_context.c ****     {
 995:smtc_modem_core/device_management/modem_context.c ****         BSP_DBG_TRACE_ERROR( "user_dr = %d and length = %d \n ", user_dr, adr_custom_length );
 996:smtc_modem_core/device_management/modem_context.c ****         BSP_DBG_TRACE_ERROR( "CMD_SETADRPROFILE with not valid profile\n" );
 997:smtc_modem_core/device_management/modem_context.c ****         return SET_ERROR;
 998:smtc_modem_core/device_management/modem_context.c ****     }
ARM GAS  /var/folders/bq/yv49bw8j2kd6w3hsq868qv180000gn/T//ccEK2k0g.s 			page 47


 999:smtc_modem_core/device_management/modem_context.c ****     if( user_dr == USER_DR_DISTRIBUTION )
1000:smtc_modem_core/device_management/modem_context.c ****     {
1001:smtc_modem_core/device_management/modem_context.c ****         uint8_t  MinDrTemp       = lorawan_api_min_dr_get( );
1002:smtc_modem_core/device_management/modem_context.c ****         uint8_t  MaxDrTemp       = lorawan_api_max_dr_get( );
1003:smtc_modem_core/device_management/modem_context.c ****         uint32_t adrDistribution = 0;
1004:smtc_modem_core/device_management/modem_context.c ****         for( uint8_t i = 0; i < 16; i++ )
1005:smtc_modem_core/device_management/modem_context.c ****         {
1006:smtc_modem_core/device_management/modem_context.c ****             if( ( adr_custom_data[i] < MinDrTemp ) || ( adr_custom_data[i] > MaxDrTemp ) || adr_cus
1007:smtc_modem_core/device_management/modem_context.c ****             {
1008:smtc_modem_core/device_management/modem_context.c ****                 BSP_DBG_TRACE_ERROR( "CMD_SETADRPROFILE with a bad DataRate value\n" );
1009:smtc_modem_core/device_management/modem_context.c ****                 return SET_ERROR;
1010:smtc_modem_core/device_management/modem_context.c ****             }
1011:smtc_modem_core/device_management/modem_context.c ****             if( adr_custom_data[i] == 0x00 )
1012:smtc_modem_core/device_management/modem_context.c ****             {
1013:smtc_modem_core/device_management/modem_context.c ****                 adrDistribution += ( ( ( adrDistribution & 0xF0000000 ) >> 28 ) != 0xF ) ? ( 1 << 2
1014:smtc_modem_core/device_management/modem_context.c ****             }
1015:smtc_modem_core/device_management/modem_context.c ****             else if( adr_custom_data[i] == 0x01 )
1016:smtc_modem_core/device_management/modem_context.c ****             {
1017:smtc_modem_core/device_management/modem_context.c ****                 adrDistribution += ( ( ( adrDistribution & 0x0F000000 ) >> 24 ) != 0xF ) ? ( 1 << 2
1018:smtc_modem_core/device_management/modem_context.c ****             }
1019:smtc_modem_core/device_management/modem_context.c ****             else if( adr_custom_data[i] == 0x02 )
1020:smtc_modem_core/device_management/modem_context.c ****             {
1021:smtc_modem_core/device_management/modem_context.c ****                 adrDistribution += ( ( ( adrDistribution & 0x00F00000 ) >> 20 ) != 0xF ) ? ( 1 << 2
1022:smtc_modem_core/device_management/modem_context.c ****             }
1023:smtc_modem_core/device_management/modem_context.c ****             else if( adr_custom_data[i] == 0x03 )
1024:smtc_modem_core/device_management/modem_context.c ****             {
1025:smtc_modem_core/device_management/modem_context.c ****                 adrDistribution += ( ( ( adrDistribution & 0x000F0000 ) >> 16 ) != 0xF ) ? ( 1 << 1
1026:smtc_modem_core/device_management/modem_context.c ****             }
1027:smtc_modem_core/device_management/modem_context.c ****             else if( adr_custom_data[i] == 0x04 )
1028:smtc_modem_core/device_management/modem_context.c ****             {
1029:smtc_modem_core/device_management/modem_context.c ****                 adrDistribution += ( ( ( adrDistribution & 0x0000F000 ) >> 12 ) != 0xF ) ? ( 1 << 1
1030:smtc_modem_core/device_management/modem_context.c ****             }
1031:smtc_modem_core/device_management/modem_context.c ****             else if( adr_custom_data[i] == 0x05 )
1032:smtc_modem_core/device_management/modem_context.c ****             {
1033:smtc_modem_core/device_management/modem_context.c ****                 adrDistribution += ( ( ( adrDistribution & 0x00000F00 ) >> 8 ) != 0xF ) ? ( 1 << 8 
1034:smtc_modem_core/device_management/modem_context.c ****             }
1035:smtc_modem_core/device_management/modem_context.c ****             else if( adr_custom_data[i] == 0x06 )
1036:smtc_modem_core/device_management/modem_context.c ****             {
1037:smtc_modem_core/device_management/modem_context.c ****                 adrDistribution += ( ( ( adrDistribution & 0x000000F0 ) >> 4 ) != 0xF ) ? ( 1 << 4 
1038:smtc_modem_core/device_management/modem_context.c ****             }
1039:smtc_modem_core/device_management/modem_context.c ****             else if( adr_custom_data[i] == 0x07 )
1040:smtc_modem_core/device_management/modem_context.c ****             {
1041:smtc_modem_core/device_management/modem_context.c ****                 adrDistribution += ( ( ( adrDistribution & 0x0000000F ) ) != 0xF ) ? 1 : 0;
1042:smtc_modem_core/device_management/modem_context.c ****             }
1043:smtc_modem_core/device_management/modem_context.c ****         }
1044:smtc_modem_core/device_management/modem_context.c ****         lorawan_api_dr_custom_set( adrDistribution );
1045:smtc_modem_core/device_management/modem_context.c ****     }
1046:smtc_modem_core/device_management/modem_context.c ****     lorawan_api_dr_strategy_set( user_dr );
1047:smtc_modem_core/device_management/modem_context.c **** 
1048:smtc_modem_core/device_management/modem_context.c ****     return SET_OK;
1049:smtc_modem_core/device_management/modem_context.c **** }
1050:smtc_modem_core/device_management/modem_context.c **** 
1051:smtc_modem_core/device_management/modem_context.c **** void set_modem_downlink_frame( void )
1052:smtc_modem_core/device_management/modem_context.c **** {
1053:smtc_modem_core/device_management/modem_context.c ****     lorawan_api_payload_receive( &( modem_dwn_pkt.port ), modem_dwn_pkt.data, &( modem_dwn_pkt.leng
1054:smtc_modem_core/device_management/modem_context.c ****     modem_dwn_pkt.timestamp = bsp_rtc_get_time_s( );
1055:smtc_modem_core/device_management/modem_context.c ****     modem_dwn_pkt.snr       = lorawan_api_last_snr_get( ) >> 2;
ARM GAS  /var/folders/bq/yv49bw8j2kd6w3hsq868qv180000gn/T//ccEK2k0g.s 			page 48


1056:smtc_modem_core/device_management/modem_context.c ****     modem_dwn_pkt.rssi      = lorawan_api_last_rssi_get( ) + 64;
1057:smtc_modem_core/device_management/modem_context.c ****     BSP_DBG_TRACE_ARRAY( "Downlink frame ", modem_dwn_pkt.data, modem_dwn_pkt.length );
1058:smtc_modem_core/device_management/modem_context.c ****     BSP_DBG_TRACE_PRINTF( "ModemDwnPort = %d , ", modem_dwn_pkt.port );
1059:smtc_modem_core/device_management/modem_context.c ****     BSP_DBG_TRACE_PRINTF( "ModemDwnSNR = %d , ModemDwnRssi = %d \n ", modem_dwn_pkt.snr, modem_dwn_
1060:smtc_modem_core/device_management/modem_context.c **** }
1061:smtc_modem_core/device_management/modem_context.c **** void get_modem_downlink_frame( s_modem_dwn_t* modem_dwn_in )
1062:smtc_modem_core/device_management/modem_context.c **** {
1063:smtc_modem_core/device_management/modem_context.c ****     modem_dwn_in->timestamp = modem_dwn_pkt.timestamp;
1064:smtc_modem_core/device_management/modem_context.c ****     modem_dwn_in->snr       = modem_dwn_pkt.snr;
1065:smtc_modem_core/device_management/modem_context.c ****     modem_dwn_in->rssi      = modem_dwn_pkt.rssi;
1066:smtc_modem_core/device_management/modem_context.c ****     modem_dwn_in->port      = modem_dwn_pkt.port;
1067:smtc_modem_core/device_management/modem_context.c ****     modem_dwn_in->length    = modem_dwn_pkt.length;
1068:smtc_modem_core/device_management/modem_context.c ****     memcpy( modem_dwn_in->data, modem_dwn_pkt.data, modem_dwn_pkt.length );
1069:smtc_modem_core/device_management/modem_context.c **** }
1070:smtc_modem_core/device_management/modem_context.c **** 
1071:smtc_modem_core/device_management/modem_context.c **** void set_dm_retrieve_pending_dl( uint8_t up_count, uint8_t up_delay )
1072:smtc_modem_core/device_management/modem_context.c **** {
1073:smtc_modem_core/device_management/modem_context.c ****     dm_pending_dl.up_count = up_count;
1074:smtc_modem_core/device_management/modem_context.c ****     dm_pending_dl.up_delay = up_delay;
1075:smtc_modem_core/device_management/modem_context.c **** }
1076:smtc_modem_core/device_management/modem_context.c **** 
1077:smtc_modem_core/device_management/modem_context.c **** void get_dm_retrieve_pending_dl( s_dm_retrieve_pending_dl_t* pending_dl )
1078:smtc_modem_core/device_management/modem_context.c **** {
1079:smtc_modem_core/device_management/modem_context.c ****     pending_dl->up_count = dm_pending_dl.up_count;
1080:smtc_modem_core/device_management/modem_context.c ****     pending_dl->up_delay = dm_pending_dl.up_delay;
1081:smtc_modem_core/device_management/modem_context.c **** }
1082:smtc_modem_core/device_management/modem_context.c **** 
1083:smtc_modem_core/device_management/modem_context.c **** void modem_store_context( void )
1084:smtc_modem_core/device_management/modem_context.c **** {
1085:smtc_modem_core/device_management/modem_context.c ****     uint8_t modem_context[BSP_MODEM_CONTEXT_SIZE] = { 0 };
1086:smtc_modem_core/device_management/modem_context.c ****     modem_context[0]                              = modem_dm_port;
1087:smtc_modem_core/device_management/modem_context.c ****     modem_context[1]                              = modem_dm_interval;
1088:smtc_modem_core/device_management/modem_context.c ****     modem_context[2]                              = modem_dm_upload_sctr;
1089:smtc_modem_core/device_management/modem_context.c ****     memcpy( &modem_context[3], ( uint8_t* ) ( &dm_info_bitfield_periodic ), sizeof( dm_info_bitfiel
1090:smtc_modem_core/device_management/modem_context.c ****     modem_context[7] = number_of_muted_day;
1091:smtc_modem_core/device_management/modem_context.c **** 
1092:smtc_modem_core/device_management/modem_context.c ****     uint32_t modem_charge = get_modem_charge_ma_s( );
1093:smtc_modem_core/device_management/modem_context.c ****     memcpy( &modem_context[8], ( uint8_t* ) &modem_charge, sizeof( modem_charge ) );
1094:smtc_modem_core/device_management/modem_context.c **** 
1095:smtc_modem_core/device_management/modem_context.c ****     uint32_t crctmp = crc( modem_context, BSP_MODEM_CONTEXT_SIZE - sizeof( crctmp ) );
1096:smtc_modem_core/device_management/modem_context.c ****     memcpy( &modem_context[BSP_MODEM_CONTEXT_SIZE - sizeof( crctmp )], ( uint8_t* ) &crctmp, sizeof
1097:smtc_modem_core/device_management/modem_context.c ****     BSP_DBG_TRACE_PRINTF(
1098:smtc_modem_core/device_management/modem_context.c ****         "Store a New Modem Config :\n Port = %d \n Interval = %d\n Upload_sctr = %d\n DM bitfield =
1099:smtc_modem_core/device_management/modem_context.c ****         "day = %u\n Charge = %u\n",
1100:smtc_modem_core/device_management/modem_context.c ****         modem_dm_port, modem_dm_interval, modem_dm_upload_sctr, dm_info_bitfield_periodic, number_o
1101:smtc_modem_core/device_management/modem_context.c ****         modem_charge );
1102:smtc_modem_core/device_management/modem_context.c ****     bsp_nvm_context_store( BSP_MODEM_CONTEXT_ADDR_OFFSET, modem_context, BSP_MODEM_CONTEXT_SIZE );
1103:smtc_modem_core/device_management/modem_context.c **** 
1104:smtc_modem_core/device_management/modem_context.c ****     modem_load_context( );
1105:smtc_modem_core/device_management/modem_context.c **** }
1106:smtc_modem_core/device_management/modem_context.c **** 
1107:smtc_modem_core/device_management/modem_context.c **** /*!
1108:smtc_modem_core/device_management/modem_context.c ****  * \brief    load modem context in non volatile memory
1109:smtc_modem_core/device_management/modem_context.c ****  * \remark
1110:smtc_modem_core/device_management/modem_context.c ****  * \retval void
1111:smtc_modem_core/device_management/modem_context.c ****  */
1112:smtc_modem_core/device_management/modem_context.c **** void modem_load_context( void )
ARM GAS  /var/folders/bq/yv49bw8j2kd6w3hsq868qv180000gn/T//ccEK2k0g.s 			page 49


1113:smtc_modem_core/device_management/modem_context.c **** {
1114:smtc_modem_core/device_management/modem_context.c ****     uint8_t modem_context[BSP_MODEM_CONTEXT_SIZE] = { 0 };
1115:smtc_modem_core/device_management/modem_context.c **** 
1116:smtc_modem_core/device_management/modem_context.c ****     bsp_nvm_context_restore( BSP_MODEM_CONTEXT_ADDR_OFFSET, modem_context, BSP_MODEM_CONTEXT_SIZE )
1117:smtc_modem_core/device_management/modem_context.c **** 
1118:smtc_modem_core/device_management/modem_context.c ****     uint32_t crctmp = crc( modem_context, BSP_MODEM_CONTEXT_SIZE - sizeof( crctmp ) );
1119:smtc_modem_core/device_management/modem_context.c **** 
1120:smtc_modem_core/device_management/modem_context.c ****     if( memcmp( &modem_context[BSP_MODEM_CONTEXT_SIZE - sizeof( crctmp )], ( uint8_t* ) &crctmp, si
1121:smtc_modem_core/device_management/modem_context.c ****         0 )
1122:smtc_modem_core/device_management/modem_context.c ****     {
1123:smtc_modem_core/device_management/modem_context.c ****         modem_dm_port        = modem_context[0];
1124:smtc_modem_core/device_management/modem_context.c ****         modem_dm_interval    = modem_context[1];
1125:smtc_modem_core/device_management/modem_context.c ****         modem_dm_upload_sctr = modem_context[2];
1126:smtc_modem_core/device_management/modem_context.c ****         memcpy( ( uint8_t* ) ( &dm_info_bitfield_periodic ), &modem_context[3], sizeof( dm_info_bit
1127:smtc_modem_core/device_management/modem_context.c ****         number_of_muted_day = modem_context[7];
1128:smtc_modem_core/device_management/modem_context.c **** 
1129:smtc_modem_core/device_management/modem_context.c ****         if( is_modem_charge_loaded == false )
1130:smtc_modem_core/device_management/modem_context.c ****         {
1131:smtc_modem_core/device_management/modem_context.c ****             memcpy( ( uint8_t* ) ( &modem_charge_offset ), &modem_context[8], sizeof( modem_charge_
1132:smtc_modem_core/device_management/modem_context.c ****             is_modem_charge_loaded = true;
1133:smtc_modem_core/device_management/modem_context.c ****         }
1134:smtc_modem_core/device_management/modem_context.c **** 
1135:smtc_modem_core/device_management/modem_context.c ****         BSP_DBG_TRACE_PRINTF(
1136:smtc_modem_core/device_management/modem_context.c ****             "Modem Load Config :\n Port = %d \n Interval = %d\n Upload_sctr = %d\n DM bitfield = 0x
1137:smtc_modem_core/device_management/modem_context.c ****             "day = %u\n Charge = %u\n",
1138:smtc_modem_core/device_management/modem_context.c ****             modem_dm_port, modem_dm_interval, modem_dm_upload_sctr, dm_info_bitfield_periodic, numb
1139:smtc_modem_core/device_management/modem_context.c ****             modem_charge_offset );
1140:smtc_modem_core/device_management/modem_context.c ****     }
1141:smtc_modem_core/device_management/modem_context.c ****     else
1142:smtc_modem_core/device_management/modem_context.c ****     {
1143:smtc_modem_core/device_management/modem_context.c ****         BSP_DBG_TRACE_ERROR( "Restore Modem context fail => Factory Reset Modem\n" );
1144:smtc_modem_core/device_management/modem_context.c ****         BSP_DBG_TRACE_ARRAY( " context = ", modem_context, BSP_MODEM_CONTEXT_SIZE )
1145:smtc_modem_core/device_management/modem_context.c ****         BSP_DBG_TRACE_PRINTF( " crctemp = %lx", crctmp );
1146:smtc_modem_core/device_management/modem_context.c **** 
1147:smtc_modem_core/device_management/modem_context.c ****         modem_context_factory_reset( );
1148:smtc_modem_core/device_management/modem_context.c ****     }
1149:smtc_modem_core/device_management/modem_context.c **** }
1150:smtc_modem_core/device_management/modem_context.c **** 
1151:smtc_modem_core/device_management/modem_context.c **** void modem_context_factory_reset( void )
1152:smtc_modem_core/device_management/modem_context.c **** {
1153:smtc_modem_core/device_management/modem_context.c ****     uint8_t modem_context[BSP_MODEM_CONTEXT_SIZE];
1154:smtc_modem_core/device_management/modem_context.c ****     modem_context[0] = DEFAULT_DM_PORT;
1155:smtc_modem_core/device_management/modem_context.c ****     modem_context[1] = DEFAULT_DM_REPORTING_INTERVAL;
1156:smtc_modem_core/device_management/modem_context.c ****     // upload_sctr is not reinit in the factory reset to copy sub-ghz modem behaviour
1157:smtc_modem_core/device_management/modem_context.c ****     dm_info_bitfield_periodic = DEFAULT_DM_REPORTING_FIELDS;
1158:smtc_modem_core/device_management/modem_context.c ****     memcpy( &modem_context[3], ( uint8_t* ) &dm_info_bitfield_periodic, sizeof( dm_info_bitfield_pe
1159:smtc_modem_core/device_management/modem_context.c ****     modem_context[7] = DEFAULT_DM_MUTE_DAY;
1160:smtc_modem_core/device_management/modem_context.c **** 
1161:smtc_modem_core/device_management/modem_context.c ****     uint32_t modem_charge = 0;
1162:smtc_modem_core/device_management/modem_context.c ****     memcpy( &modem_context[8], ( uint8_t* ) &modem_charge, sizeof( modem_charge ) );
1163:smtc_modem_core/device_management/modem_context.c ****     BSP_DBG_TRACE_ARRAY( "factory reset buf1", modem_context, BSP_MODEM_CONTEXT_SIZE );
1164:smtc_modem_core/device_management/modem_context.c **** 
1165:smtc_modem_core/device_management/modem_context.c ****     uint32_t crctmp = crc( modem_context, BSP_MODEM_CONTEXT_SIZE - sizeof( crctmp ) );
1166:smtc_modem_core/device_management/modem_context.c ****     memcpy( &modem_context[BSP_MODEM_CONTEXT_SIZE - sizeof( crctmp )], ( uint8_t* ) &crctmp, sizeof
1167:smtc_modem_core/device_management/modem_context.c **** 
1168:smtc_modem_core/device_management/modem_context.c ****     BSP_DBG_TRACE_ARRAY( "factory reset buf2", modem_context, BSP_MODEM_CONTEXT_SIZE );
1169:smtc_modem_core/device_management/modem_context.c **** 
ARM GAS  /var/folders/bq/yv49bw8j2kd6w3hsq868qv180000gn/T//ccEK2k0g.s 			page 50


1170:smtc_modem_core/device_management/modem_context.c ****     bsp_nvm_context_store( BSP_MODEM_CONTEXT_ADDR_OFFSET, modem_context, BSP_MODEM_CONTEXT_SIZE );
1171:smtc_modem_core/device_management/modem_context.c **** 
1172:smtc_modem_core/device_management/modem_context.c ****     is_modem_reset_requested = true;
1173:smtc_modem_core/device_management/modem_context.c ****     BSP_DBG_TRACE_INFO( "modem_context_factory_reset done\n" );
1174:smtc_modem_core/device_management/modem_context.c **** }
1175:smtc_modem_core/device_management/modem_context.c **** 
1176:smtc_modem_core/device_management/modem_context.c **** void modem_set_dm_upload_sctr( uint8_t session_counter )
1177:smtc_modem_core/device_management/modem_context.c **** {
1178:smtc_modem_core/device_management/modem_context.c ****     modem_dm_upload_sctr = session_counter & 0xf;
1179:smtc_modem_core/device_management/modem_context.c ****     modem_store_context( );
1180:smtc_modem_core/device_management/modem_context.c **** }
1181:smtc_modem_core/device_management/modem_context.c **** 
1182:smtc_modem_core/device_management/modem_context.c **** uint8_t modem_get_dm_upload_sctr( void )
1183:smtc_modem_core/device_management/modem_context.c **** {
1184:smtc_modem_core/device_management/modem_context.c ****     return ( modem_dm_upload_sctr & 0xf );
1185:smtc_modem_core/device_management/modem_context.c **** }
1186:smtc_modem_core/device_management/modem_context.c **** 
1187:smtc_modem_core/device_management/modem_context.c **** e_modem_upload_state_t modem_get_upload_state( void )
1188:smtc_modem_core/device_management/modem_context.c **** {
1189:smtc_modem_core/device_management/modem_context.c ****     return ( modem_upload_state );
1190:smtc_modem_core/device_management/modem_context.c **** }
1191:smtc_modem_core/device_management/modem_context.c **** 
1192:smtc_modem_core/device_management/modem_context.c **** void modem_set_upload_state( e_modem_upload_state_t upload_state )
1193:smtc_modem_core/device_management/modem_context.c **** {
1194:smtc_modem_core/device_management/modem_context.c ****     modem_upload_state = upload_state;
1195:smtc_modem_core/device_management/modem_context.c **** }
1196:smtc_modem_core/device_management/modem_context.c **** 
1197:smtc_modem_core/device_management/modem_context.c **** e_modem_stream_state_t modem_get_stream_state( void )
1198:smtc_modem_core/device_management/modem_context.c **** {
1199:smtc_modem_core/device_management/modem_context.c ****     return ( modem_stream_state.state );
1200:smtc_modem_core/device_management/modem_context.c **** }
1201:smtc_modem_core/device_management/modem_context.c **** 
1202:smtc_modem_core/device_management/modem_context.c **** uint8_t modem_get_stream_port( void )
1203:smtc_modem_core/device_management/modem_context.c **** {
1204:smtc_modem_core/device_management/modem_context.c ****     return ( modem_stream_state.port );
 1457              		.loc 1 1204 32 view .LVU337
 1458 0012 0B4B     		ldr	r3, .L106
 1459              	.LBE68:
 1460              	.LBE67:
 535:smtc_modem_core/device_management/modem_context.c ****     stream_task.priority          = TASK_HIGH_PRIORITY;
 1461              		.loc 1 535 59 view .LVU338
 1462 0014 0130     		adds	r0, r0, #1
 537:smtc_modem_core/device_management/modem_context.c ****     stream_task.fPort             = modem_get_stream_port( );
 1463              		.loc 1 537 35 view .LVU339
 1464 0016 1B78     		ldrb	r3, [r3]
 535:smtc_modem_core/device_management/modem_context.c ****     stream_task.priority          = TASK_HIGH_PRIORITY;
 1465              		.loc 1 535 35 view .LVU340
 1466 0018 6060     		str	r0, [r4, #4]
 536:smtc_modem_core/device_management/modem_context.c ****     stream_task.priority          = TASK_HIGH_PRIORITY;
 1467              		.loc 1 536 5 is_stmt 1 view .LVU341
 537:smtc_modem_core/device_management/modem_context.c ****     stream_task.fPort             = modem_get_stream_port( );
 1468              		.loc 1 537 5 view .LVU342
 1469              	.LBB70:
 1470              	.LBI67:
1202:smtc_modem_core/device_management/modem_context.c **** {
 1471              		.loc 1 1202 9 view .LVU343
 1472              	.LBB69:
ARM GAS  /var/folders/bq/yv49bw8j2kd6w3hsq868qv180000gn/T//ccEK2k0g.s 			page 51


 1473              		.loc 1 1204 5 view .LVU344
 1474              	.LBE69:
 1475              	.LBE70:
 541:smtc_modem_core/device_management/modem_context.c ****     BSP_DBG_TRACE_INFO( "Supervisor add stream task\n" );
 1476              		.loc 1 541 5 is_stmt 0 view .LVU345
 1477 001a 2000     		movs	r0, r4
 537:smtc_modem_core/device_management/modem_context.c ****     // stream_task.dataIn        not used in task
 1478              		.loc 1 537 35 view .LVU346
 1479 001c 6372     		strb	r3, [r4, #9]
 541:smtc_modem_core/device_management/modem_context.c ****     BSP_DBG_TRACE_INFO( "Supervisor add stream task\n" );
 1480              		.loc 1 541 5 is_stmt 1 view .LVU347
 1481 001e FFF7FEFF 		bl	modem_supervisor_add_task
 1482              	.LVL88:
 542:smtc_modem_core/device_management/modem_context.c **** }
 1483              		.loc 1 542 5 view .LVU348
 542:smtc_modem_core/device_management/modem_context.c **** }
 1484              		.loc 1 542 5 view .LVU349
 1485 0022 0848     		ldr	r0, .L106+4
 1486 0024 FFF7FEFF 		bl	bsp_trace_print
 1487              	.LVL89:
 542:smtc_modem_core/device_management/modem_context.c **** }
 1488              		.loc 1 542 5 view .LVU350
 1489 0028 0748     		ldr	r0, .L106+8
 1490 002a FFF7FEFF 		bl	bsp_trace_print
 1491              	.LVL90:
 542:smtc_modem_core/device_management/modem_context.c **** }
 1492              		.loc 1 542 5 view .LVU351
 1493 002e 0748     		ldr	r0, .L106+12
 1494 0030 FFF7FEFF 		bl	bsp_trace_print
 1495              	.LVL91:
 542:smtc_modem_core/device_management/modem_context.c **** }
 1496              		.loc 1 542 5 view .LVU352
 1497 0034 0648     		ldr	r0, .L106+16
 1498 0036 FFF7FEFF 		bl	bsp_trace_print
 1499              	.LVL92:
 542:smtc_modem_core/device_management/modem_context.c **** }
 1500              		.loc 1 542 5 view .LVU353
 542:smtc_modem_core/device_management/modem_context.c **** }
 1501              		.loc 1 542 57 view .LVU354
 543:smtc_modem_core/device_management/modem_context.c **** 
 1502              		.loc 1 543 1 is_stmt 0 view .LVU355
 1503 003a 06B0     		add	sp, sp, #24
 1504              		@ sp needed
 1505 003c 10BD     		pop	{r4, pc}
 1506              	.L107:
 1507 003e C046     		.align	2
 1508              	.L106:
 1509 0040 00000000 		.word	.LANCHOR10
 1510 0044 43000000 		.word	.LC19
 1511 0048 4B000000 		.word	.LC21
 1512 004c 00000000 		.word	.LC66
 1513 0050 3E000000 		.word	.LC16
 1514              		.cfi_endproc
 1515              	.LFE43:
 1517              		.section	.text.set_modem_status_reset_after_brownout,"ax",%progbits
 1518              		.align	1
 1519              		.global	set_modem_status_reset_after_brownout
ARM GAS  /var/folders/bq/yv49bw8j2kd6w3hsq868qv180000gn/T//ccEK2k0g.s 			page 52


 1520              		.syntax unified
 1521              		.code	16
 1522              		.thumb_func
 1523              		.fpu softvfp
 1525              	set_modem_status_reset_after_brownout:
 1526              	.LVL93:
 1527              	.LFB45:
 568:smtc_modem_core/device_management/modem_context.c ****     modem_status = ( value == true ) ? ( modem_status | ( 1 << modem_status_brownout ) )
 1528              		.loc 1 568 1 is_stmt 1 view -0
 1529              		.cfi_startproc
 1530              		@ args = 0, pretend = 0, frame = 0
 1531              		@ frame_needed = 0, uses_anonymous_args = 0
 569:smtc_modem_core/device_management/modem_context.c ****                                      : ( modem_status & ~( 1 << modem_status_brownout ) );
 1532              		.loc 1 569 5 view .LVU357
 568:smtc_modem_core/device_management/modem_context.c ****     modem_status = ( value == true ) ? ( modem_status | ( 1 << modem_status_brownout ) )
 1533              		.loc 1 568 1 is_stmt 0 view .LVU358
 1534 0000 10B5     		push	{r4, lr}
 1535              		.cfi_def_cfa_offset 8
 1536              		.cfi_offset 4, -8
 1537              		.cfi_offset 14, -4
 1538 0002 054B     		ldr	r3, .L111
 1539 0004 0124     		movs	r4, #1
 1540 0006 1978     		ldrb	r1, [r3]
 569:smtc_modem_core/device_management/modem_context.c ****                                      : ( modem_status & ~( 1 << modem_status_brownout ) );
 1541              		.loc 1 569 18 view .LVU359
 1542 0008 0A00     		movs	r2, r1
 1543 000a A243     		bics	r2, r4
 1544 000c 0028     		cmp	r0, #0
 1545 000e 01D0     		beq	.L110
 569:smtc_modem_core/device_management/modem_context.c ****                                      : ( modem_status & ~( 1 << modem_status_brownout ) );
 1546              		.loc 1 569 18 discriminator 1 view .LVU360
 1547 0010 2200     		movs	r2, r4
 1548 0012 0A43     		orrs	r2, r1
 1549              	.L110:
 571:smtc_modem_core/device_management/modem_context.c **** 
 1550              		.loc 1 571 1 discriminator 4 view .LVU361
 1551              		@ sp needed
 569:smtc_modem_core/device_management/modem_context.c ****                                      : ( modem_status & ~( 1 << modem_status_brownout ) );
 1552              		.loc 1 569 18 discriminator 4 view .LVU362
 1553 0014 1A70     		strb	r2, [r3]
 571:smtc_modem_core/device_management/modem_context.c **** 
 1554              		.loc 1 571 1 discriminator 4 view .LVU363
 1555 0016 10BD     		pop	{r4, pc}
 1556              	.L112:
 1557              		.align	2
 1558              	.L111:
 1559 0018 00000000 		.word	.LANCHOR11
 1560              		.cfi_endproc
 1561              	.LFE45:
 1563              		.section	.text.set_modem_status_reset_after_crash,"ax",%progbits
 1564              		.align	1
 1565              		.global	set_modem_status_reset_after_crash
 1566              		.syntax unified
 1567              		.code	16
 1568              		.thumb_func
 1569              		.fpu softvfp
 1571              	set_modem_status_reset_after_crash:
ARM GAS  /var/folders/bq/yv49bw8j2kd6w3hsq868qv180000gn/T//ccEK2k0g.s 			page 53


 1572              	.LVL94:
 1573              	.LFB46:
 574:smtc_modem_core/device_management/modem_context.c ****     modem_status = ( value == true ) ? ( modem_status | ( 1 << modem_status_crash ) )
 1574              		.loc 1 574 1 is_stmt 1 view -0
 1575              		.cfi_startproc
 1576              		@ args = 0, pretend = 0, frame = 0
 1577              		@ frame_needed = 0, uses_anonymous_args = 0
 575:smtc_modem_core/device_management/modem_context.c ****                                      : ( modem_status & ~( 1 << modem_status_crash ) );
 1578              		.loc 1 575 5 view .LVU365
 574:smtc_modem_core/device_management/modem_context.c ****     modem_status = ( value == true ) ? ( modem_status | ( 1 << modem_status_crash ) )
 1579              		.loc 1 574 1 is_stmt 0 view .LVU366
 1580 0000 10B5     		push	{r4, lr}
 1581              		.cfi_def_cfa_offset 8
 1582              		.cfi_offset 4, -8
 1583              		.cfi_offset 14, -4
 1584 0002 054B     		ldr	r3, .L116
 1585 0004 0224     		movs	r4, #2
 1586 0006 1978     		ldrb	r1, [r3]
 575:smtc_modem_core/device_management/modem_context.c ****                                      : ( modem_status & ~( 1 << modem_status_crash ) );
 1587              		.loc 1 575 18 view .LVU367
 1588 0008 0A00     		movs	r2, r1
 1589 000a A243     		bics	r2, r4
 1590 000c 0028     		cmp	r0, #0
 1591 000e 01D0     		beq	.L115
 575:smtc_modem_core/device_management/modem_context.c ****                                      : ( modem_status & ~( 1 << modem_status_crash ) );
 1592              		.loc 1 575 18 discriminator 1 view .LVU368
 1593 0010 2200     		movs	r2, r4
 1594 0012 0A43     		orrs	r2, r1
 1595              	.L115:
 577:smtc_modem_core/device_management/modem_context.c **** 
 1596              		.loc 1 577 1 discriminator 4 view .LVU369
 1597              		@ sp needed
 575:smtc_modem_core/device_management/modem_context.c ****                                      : ( modem_status & ~( 1 << modem_status_crash ) );
 1598              		.loc 1 575 18 discriminator 4 view .LVU370
 1599 0014 1A70     		strb	r2, [r3]
 577:smtc_modem_core/device_management/modem_context.c **** 
 1600              		.loc 1 577 1 discriminator 4 view .LVU371
 1601 0016 10BD     		pop	{r4, pc}
 1602              	.L117:
 1603              		.align	2
 1604              	.L116:
 1605 0018 00000000 		.word	.LANCHOR11
 1606              		.cfi_endproc
 1607              	.LFE46:
 1609              		.section	.text.set_modem_status_modem_mute,"ax",%progbits
 1610              		.align	1
 1611              		.global	set_modem_status_modem_mute
 1612              		.syntax unified
 1613              		.code	16
 1614              		.thumb_func
 1615              		.fpu softvfp
 1617              	set_modem_status_modem_mute:
 1618              	.LVL95:
 1619              	.LFB47:
 580:smtc_modem_core/device_management/modem_context.c ****     modem_status = ( value == true ) ? ( modem_status | ( 1 << modem_status_mute ) )
 1620              		.loc 1 580 1 is_stmt 1 view -0
 1621              		.cfi_startproc
ARM GAS  /var/folders/bq/yv49bw8j2kd6w3hsq868qv180000gn/T//ccEK2k0g.s 			page 54


 1622              		@ args = 0, pretend = 0, frame = 0
 1623              		@ frame_needed = 0, uses_anonymous_args = 0
 581:smtc_modem_core/device_management/modem_context.c ****                                      : ( modem_status & ~( 1 << modem_status_mute ) );
 1624              		.loc 1 581 5 view .LVU373
 580:smtc_modem_core/device_management/modem_context.c ****     modem_status = ( value == true ) ? ( modem_status | ( 1 << modem_status_mute ) )
 1625              		.loc 1 580 1 is_stmt 0 view .LVU374
 1626 0000 10B5     		push	{r4, lr}
 1627              		.cfi_def_cfa_offset 8
 1628              		.cfi_offset 4, -8
 1629              		.cfi_offset 14, -4
 1630 0002 054B     		ldr	r3, .L121
 1631 0004 0424     		movs	r4, #4
 1632 0006 1978     		ldrb	r1, [r3]
 581:smtc_modem_core/device_management/modem_context.c ****                                      : ( modem_status & ~( 1 << modem_status_mute ) );
 1633              		.loc 1 581 18 view .LVU375
 1634 0008 0A00     		movs	r2, r1
 1635 000a A243     		bics	r2, r4
 1636 000c 0028     		cmp	r0, #0
 1637 000e 01D0     		beq	.L120
 581:smtc_modem_core/device_management/modem_context.c ****                                      : ( modem_status & ~( 1 << modem_status_mute ) );
 1638              		.loc 1 581 18 discriminator 1 view .LVU376
 1639 0010 2200     		movs	r2, r4
 1640 0012 0A43     		orrs	r2, r1
 1641              	.L120:
 583:smtc_modem_core/device_management/modem_context.c **** 
 1642              		.loc 1 583 1 discriminator 4 view .LVU377
 1643              		@ sp needed
 581:smtc_modem_core/device_management/modem_context.c ****                                      : ( modem_status & ~( 1 << modem_status_mute ) );
 1644              		.loc 1 581 18 discriminator 4 view .LVU378
 1645 0014 1A70     		strb	r2, [r3]
 583:smtc_modem_core/device_management/modem_context.c **** 
 1646              		.loc 1 583 1 discriminator 4 view .LVU379
 1647 0016 10BD     		pop	{r4, pc}
 1648              	.L122:
 1649              		.align	2
 1650              	.L121:
 1651 0018 00000000 		.word	.LANCHOR11
 1652              		.cfi_endproc
 1653              	.LFE47:
 1655              		.section	.text.set_modem_status_modem_joined,"ax",%progbits
 1656              		.align	1
 1657              		.global	set_modem_status_modem_joined
 1658              		.syntax unified
 1659              		.code	16
 1660              		.thumb_func
 1661              		.fpu softvfp
 1663              	set_modem_status_modem_joined:
 1664              	.LVL96:
 1665              	.LFB48:
 586:smtc_modem_core/device_management/modem_context.c ****     modem_status = ( value == true ) ? ( modem_status | ( 1 << modem_status_joined ) )
 1666              		.loc 1 586 1 is_stmt 1 view -0
 1667              		.cfi_startproc
 1668              		@ args = 0, pretend = 0, frame = 0
 1669              		@ frame_needed = 0, uses_anonymous_args = 0
 587:smtc_modem_core/device_management/modem_context.c ****                                      : ( modem_status & ~( 1 << modem_status_joined ) );
 1670              		.loc 1 587 5 view .LVU381
 586:smtc_modem_core/device_management/modem_context.c ****     modem_status = ( value == true ) ? ( modem_status | ( 1 << modem_status_joined ) )
ARM GAS  /var/folders/bq/yv49bw8j2kd6w3hsq868qv180000gn/T//ccEK2k0g.s 			page 55


 1671              		.loc 1 586 1 is_stmt 0 view .LVU382
 1672 0000 10B5     		push	{r4, lr}
 1673              		.cfi_def_cfa_offset 8
 1674              		.cfi_offset 4, -8
 1675              		.cfi_offset 14, -4
 1676 0002 054B     		ldr	r3, .L126
 1677 0004 0824     		movs	r4, #8
 1678 0006 1978     		ldrb	r1, [r3]
 587:smtc_modem_core/device_management/modem_context.c ****                                      : ( modem_status & ~( 1 << modem_status_joined ) );
 1679              		.loc 1 587 18 view .LVU383
 1680 0008 0A00     		movs	r2, r1
 1681 000a A243     		bics	r2, r4
 1682 000c 0028     		cmp	r0, #0
 1683 000e 01D0     		beq	.L125
 587:smtc_modem_core/device_management/modem_context.c ****                                      : ( modem_status & ~( 1 << modem_status_joined ) );
 1684              		.loc 1 587 18 discriminator 1 view .LVU384
 1685 0010 2200     		movs	r2, r4
 1686 0012 0A43     		orrs	r2, r1
 1687              	.L125:
 589:smtc_modem_core/device_management/modem_context.c **** 
 1688              		.loc 1 589 1 discriminator 4 view .LVU385
 1689              		@ sp needed
 587:smtc_modem_core/device_management/modem_context.c ****                                      : ( modem_status & ~( 1 << modem_status_joined ) );
 1690              		.loc 1 587 18 discriminator 4 view .LVU386
 1691 0014 1A70     		strb	r2, [r3]
 589:smtc_modem_core/device_management/modem_context.c **** 
 1692              		.loc 1 589 1 discriminator 4 view .LVU387
 1693 0016 10BD     		pop	{r4, pc}
 1694              	.L127:
 1695              		.align	2
 1696              	.L126:
 1697 0018 00000000 		.word	.LANCHOR11
 1698              		.cfi_endproc
 1699              	.LFE48:
 1701              		.section	.text.set_modem_status_radio_suspend,"ax",%progbits
 1702              		.align	1
 1703              		.global	set_modem_status_radio_suspend
 1704              		.syntax unified
 1705              		.code	16
 1706              		.thumb_func
 1707              		.fpu softvfp
 1709              	set_modem_status_radio_suspend:
 1710              	.LVL97:
 1711              	.LFB49:
 592:smtc_modem_core/device_management/modem_context.c ****     modem_status = ( value == true ) ? ( modem_status | ( 1 << modem_status_suspend ) )
 1712              		.loc 1 592 1 is_stmt 1 view -0
 1713              		.cfi_startproc
 1714              		@ args = 0, pretend = 0, frame = 0
 1715              		@ frame_needed = 0, uses_anonymous_args = 0
 593:smtc_modem_core/device_management/modem_context.c ****                                      : ( modem_status & ~( 1 << modem_status_suspend ) );
 1716              		.loc 1 593 5 view .LVU389
 592:smtc_modem_core/device_management/modem_context.c ****     modem_status = ( value == true ) ? ( modem_status | ( 1 << modem_status_suspend ) )
 1717              		.loc 1 592 1 is_stmt 0 view .LVU390
 1718 0000 10B5     		push	{r4, lr}
 1719              		.cfi_def_cfa_offset 8
 1720              		.cfi_offset 4, -8
 1721              		.cfi_offset 14, -4
ARM GAS  /var/folders/bq/yv49bw8j2kd6w3hsq868qv180000gn/T//ccEK2k0g.s 			page 56


 1722 0002 054B     		ldr	r3, .L131
 1723 0004 1024     		movs	r4, #16
 1724 0006 1978     		ldrb	r1, [r3]
 593:smtc_modem_core/device_management/modem_context.c ****                                      : ( modem_status & ~( 1 << modem_status_suspend ) );
 1725              		.loc 1 593 18 view .LVU391
 1726 0008 0A00     		movs	r2, r1
 1727 000a A243     		bics	r2, r4
 1728 000c 0028     		cmp	r0, #0
 1729 000e 01D0     		beq	.L130
 593:smtc_modem_core/device_management/modem_context.c ****                                      : ( modem_status & ~( 1 << modem_status_suspend ) );
 1730              		.loc 1 593 18 discriminator 1 view .LVU392
 1731 0010 2200     		movs	r2, r4
 1732 0012 0A43     		orrs	r2, r1
 1733              	.L130:
 595:smtc_modem_core/device_management/modem_context.c **** 
 1734              		.loc 1 595 1 discriminator 4 view .LVU393
 1735              		@ sp needed
 593:smtc_modem_core/device_management/modem_context.c ****                                      : ( modem_status & ~( 1 << modem_status_suspend ) );
 1736              		.loc 1 593 18 discriminator 4 view .LVU394
 1737 0014 1A70     		strb	r2, [r3]
 595:smtc_modem_core/device_management/modem_context.c **** 
 1738              		.loc 1 595 1 discriminator 4 view .LVU395
 1739 0016 10BD     		pop	{r4, pc}
 1740              	.L132:
 1741              		.align	2
 1742              	.L131:
 1743 0018 00000000 		.word	.LANCHOR11
 1744              		.cfi_endproc
 1745              	.LFE49:
 1747              		.section	.text.set_modem_status_file_upload,"ax",%progbits
 1748              		.align	1
 1749              		.global	set_modem_status_file_upload
 1750              		.syntax unified
 1751              		.code	16
 1752              		.thumb_func
 1753              		.fpu softvfp
 1755              	set_modem_status_file_upload:
 1756              	.LVL98:
 1757              	.LFB50:
 598:smtc_modem_core/device_management/modem_context.c ****     modem_status = ( value == true ) ? ( modem_status | ( 1 << modem_status_upload ) )
 1758              		.loc 1 598 1 is_stmt 1 view -0
 1759              		.cfi_startproc
 1760              		@ args = 0, pretend = 0, frame = 0
 1761              		@ frame_needed = 0, uses_anonymous_args = 0
 599:smtc_modem_core/device_management/modem_context.c ****                                      : ( modem_status & ~( 1 << modem_status_upload ) );
 1762              		.loc 1 599 5 view .LVU397
 598:smtc_modem_core/device_management/modem_context.c ****     modem_status = ( value == true ) ? ( modem_status | ( 1 << modem_status_upload ) )
 1763              		.loc 1 598 1 is_stmt 0 view .LVU398
 1764 0000 10B5     		push	{r4, lr}
 1765              		.cfi_def_cfa_offset 8
 1766              		.cfi_offset 4, -8
 1767              		.cfi_offset 14, -4
 1768 0002 054B     		ldr	r3, .L136
 1769 0004 2024     		movs	r4, #32
 1770 0006 1978     		ldrb	r1, [r3]
 599:smtc_modem_core/device_management/modem_context.c ****                                      : ( modem_status & ~( 1 << modem_status_upload ) );
 1771              		.loc 1 599 18 view .LVU399
ARM GAS  /var/folders/bq/yv49bw8j2kd6w3hsq868qv180000gn/T//ccEK2k0g.s 			page 57


 1772 0008 0A00     		movs	r2, r1
 1773 000a A243     		bics	r2, r4
 1774 000c 0028     		cmp	r0, #0
 1775 000e 01D0     		beq	.L135
 599:smtc_modem_core/device_management/modem_context.c ****                                      : ( modem_status & ~( 1 << modem_status_upload ) );
 1776              		.loc 1 599 18 discriminator 1 view .LVU400
 1777 0010 2200     		movs	r2, r4
 1778 0012 0A43     		orrs	r2, r1
 1779              	.L135:
 601:smtc_modem_core/device_management/modem_context.c **** 
 1780              		.loc 1 601 1 discriminator 4 view .LVU401
 1781              		@ sp needed
 599:smtc_modem_core/device_management/modem_context.c ****                                      : ( modem_status & ~( 1 << modem_status_upload ) );
 1782              		.loc 1 599 18 discriminator 4 view .LVU402
 1783 0014 1A70     		strb	r2, [r3]
 601:smtc_modem_core/device_management/modem_context.c **** 
 1784              		.loc 1 601 1 discriminator 4 view .LVU403
 1785 0016 10BD     		pop	{r4, pc}
 1786              	.L137:
 1787              		.align	2
 1788              	.L136:
 1789 0018 00000000 		.word	.LANCHOR11
 1790              		.cfi_endproc
 1791              	.LFE50:
 1793              		.section	.text.set_modem_status_joining,"ax",%progbits
 1794              		.align	1
 1795              		.global	set_modem_status_joining
 1796              		.syntax unified
 1797              		.code	16
 1798              		.thumb_func
 1799              		.fpu softvfp
 1801              	set_modem_status_joining:
 1802              	.LVL99:
 1803              	.LFB51:
 604:smtc_modem_core/device_management/modem_context.c ****     modem_status = ( value == true ) ? ( modem_status | ( 1 << modem_status_joining ) )
 1804              		.loc 1 604 1 is_stmt 1 view -0
 1805              		.cfi_startproc
 1806              		@ args = 0, pretend = 0, frame = 0
 1807              		@ frame_needed = 0, uses_anonymous_args = 0
 605:smtc_modem_core/device_management/modem_context.c ****                                      : ( modem_status & ~( 1 << modem_status_joining ) );
 1808              		.loc 1 605 5 view .LVU405
 604:smtc_modem_core/device_management/modem_context.c ****     modem_status = ( value == true ) ? ( modem_status | ( 1 << modem_status_joining ) )
 1809              		.loc 1 604 1 is_stmt 0 view .LVU406
 1810 0000 10B5     		push	{r4, lr}
 1811              		.cfi_def_cfa_offset 8
 1812              		.cfi_offset 4, -8
 1813              		.cfi_offset 14, -4
 1814 0002 054B     		ldr	r3, .L141
 1815 0004 4024     		movs	r4, #64
 1816 0006 1978     		ldrb	r1, [r3]
 605:smtc_modem_core/device_management/modem_context.c ****                                      : ( modem_status & ~( 1 << modem_status_joining ) );
 1817              		.loc 1 605 18 view .LVU407
 1818 0008 0A00     		movs	r2, r1
 1819 000a A243     		bics	r2, r4
 1820 000c 0028     		cmp	r0, #0
 1821 000e 01D0     		beq	.L140
 605:smtc_modem_core/device_management/modem_context.c ****                                      : ( modem_status & ~( 1 << modem_status_joining ) );
ARM GAS  /var/folders/bq/yv49bw8j2kd6w3hsq868qv180000gn/T//ccEK2k0g.s 			page 58


 1822              		.loc 1 605 18 discriminator 1 view .LVU408
 1823 0010 2200     		movs	r2, r4
 1824 0012 0A43     		orrs	r2, r1
 1825              	.L140:
 607:smtc_modem_core/device_management/modem_context.c **** 
 1826              		.loc 1 607 1 discriminator 4 view .LVU409
 1827              		@ sp needed
 605:smtc_modem_core/device_management/modem_context.c ****                                      : ( modem_status & ~( 1 << modem_status_joining ) );
 1828              		.loc 1 605 18 discriminator 4 view .LVU410
 1829 0014 1A70     		strb	r2, [r3]
 607:smtc_modem_core/device_management/modem_context.c **** 
 1830              		.loc 1 607 1 discriminator 4 view .LVU411
 1831 0016 10BD     		pop	{r4, pc}
 1832              	.L142:
 1833              		.align	2
 1834              	.L141:
 1835 0018 00000000 		.word	.LANCHOR11
 1836              		.cfi_endproc
 1837              	.LFE51:
 1839              		.section	.rodata.modem_supervisor_add_task_join.str1.1,"aMS",%progbits,1
 1840              	.LC76:
 1841 0000 20537461 		.ascii	" Start a New join at %ld seconds \012\000"
 1841      72742061 
 1841      204E6577 
 1841      206A6F69 
 1841      6E206174 
 1842              		.section	.text.modem_supervisor_add_task_join,"ax",%progbits
 1843              		.align	1
 1844              		.global	modem_supervisor_add_task_join
 1845              		.syntax unified
 1846              		.code	16
 1847              		.thumb_func
 1848              		.fpu softvfp
 1850              	modem_supervisor_add_task_join:
 1851              	.LFB36:
 440:smtc_modem_core/device_management/modem_context.c ****     smodem_task task_join;
 1852              		.loc 1 440 1 is_stmt 1 view -0
 1853              		.cfi_startproc
 1854              		@ args = 0, pretend = 0, frame = 24
 1855              		@ frame_needed = 0, uses_anonymous_args = 0
 441:smtc_modem_core/device_management/modem_context.c ****     task_join.id       = JOIN_TASK;
 1856              		.loc 1 441 5 view .LVU413
 442:smtc_modem_core/device_management/modem_context.c ****     task_join.priority = TASK_HIGH_PRIORITY;
 1857              		.loc 1 442 5 view .LVU414
 440:smtc_modem_core/device_management/modem_context.c ****     smodem_task task_join;
 1858              		.loc 1 440 1 is_stmt 0 view .LVU415
 1859 0000 30B5     		push	{r4, r5, lr}
 1860              		.cfi_def_cfa_offset 12
 1861              		.cfi_offset 4, -12
 1862              		.cfi_offset 5, -8
 1863              		.cfi_offset 14, -4
 1864 0002 87B0     		sub	sp, sp, #28
 1865              		.cfi_def_cfa_offset 40
 442:smtc_modem_core/device_management/modem_context.c ****     task_join.priority = TASK_HIGH_PRIORITY;
 1866              		.loc 1 442 24 view .LVU416
 1867 0004 6A46     		mov	r2, sp
 1868 0006 0223     		movs	r3, #2
ARM GAS  /var/folders/bq/yv49bw8j2kd6w3hsq868qv180000gn/T//ccEK2k0g.s 			page 59


 443:smtc_modem_core/device_management/modem_context.c **** #ifdef TEST_BYPASS_JOIN_DUTY_CYCLE
 1869              		.loc 1 443 24 view .LVU417
 1870 0008 0125     		movs	r5, #1
 442:smtc_modem_core/device_management/modem_context.c ****     task_join.priority = TASK_HIGH_PRIORITY;
 1871              		.loc 1 442 24 view .LVU418
 1872 000a 1371     		strb	r3, [r2, #4]
 443:smtc_modem_core/device_management/modem_context.c **** #ifdef TEST_BYPASS_JOIN_DUTY_CYCLE
 1873              		.loc 1 443 5 is_stmt 1 view .LVU419
 443:smtc_modem_core/device_management/modem_context.c **** #ifdef TEST_BYPASS_JOIN_DUTY_CYCLE
 1874              		.loc 1 443 24 is_stmt 0 view .LVU420
 1875 000c 1573     		strb	r5, [r2, #12]
 447:smtc_modem_core/device_management/modem_context.c **** #endif
 1876              		.loc 1 447 5 is_stmt 1 view .LVU421
 447:smtc_modem_core/device_management/modem_context.c **** #endif
 1877              		.loc 1 447 35 is_stmt 0 view .LVU422
 1878 000e FFF7FEFF 		bl	lorawan_api_next_join_time_second_get
 1879              	.LVL100:
 447:smtc_modem_core/device_management/modem_context.c **** #endif
 1880              		.loc 1 447 78 view .LVU423
 1881 0012 0521     		movs	r1, #5
 447:smtc_modem_core/device_management/modem_context.c **** #endif
 1882              		.loc 1 447 35 view .LVU424
 1883 0014 0400     		movs	r4, r0
 447:smtc_modem_core/device_management/modem_context.c **** #endif
 1884              		.loc 1 447 78 view .LVU425
 1885 0016 0020     		movs	r0, #0
 1886 0018 FFF7FEFF 		bl	bsp_rng_get_random_in_range
 1887              	.LVL101:
 447:smtc_modem_core/device_management/modem_context.c **** #endif
 1888              		.loc 1 447 76 view .LVU426
 1889 001c 2118     		adds	r1, r4, r0
 449:smtc_modem_core/device_management/modem_context.c ****     set_modem_status_joining( true );
 1890              		.loc 1 449 5 view .LVU427
 1891 001e 0648     		ldr	r0, .L144
 447:smtc_modem_core/device_management/modem_context.c **** #endif
 1892              		.loc 1 447 33 view .LVU428
 1893 0020 0291     		str	r1, [sp, #8]
 449:smtc_modem_core/device_management/modem_context.c ****     set_modem_status_joining( true );
 1894              		.loc 1 449 5 is_stmt 1 view .LVU429
 1895 0022 FFF7FEFF 		bl	bsp_trace_print
 1896              	.LVL102:
 450:smtc_modem_core/device_management/modem_context.c ****     modem_supervisor_add_task( &task_join );
 1897              		.loc 1 450 5 view .LVU430
 1898 0026 2800     		movs	r0, r5
 1899 0028 FFF7FEFF 		bl	set_modem_status_joining
 1900              	.LVL103:
 451:smtc_modem_core/device_management/modem_context.c **** }
 1901              		.loc 1 451 5 view .LVU431
 1902 002c 01A8     		add	r0, sp, #4
 1903 002e FFF7FEFF 		bl	modem_supervisor_add_task
 1904              	.LVL104:
 452:smtc_modem_core/device_management/modem_context.c **** 
 1905              		.loc 1 452 1 is_stmt 0 view .LVU432
 1906 0032 07B0     		add	sp, sp, #28
 1907              		@ sp needed
 1908 0034 30BD     		pop	{r4, r5, pc}
 1909              	.L145:
ARM GAS  /var/folders/bq/yv49bw8j2kd6w3hsq868qv180000gn/T//ccEK2k0g.s 			page 60


 1910 0036 C046     		.align	2
 1911              	.L144:
 1912 0038 00000000 		.word	.LC76
 1913              		.cfi_endproc
 1914              	.LFE36:
 1916              		.section	.text.set_modem_status_streaming,"ax",%progbits
 1917              		.align	1
 1918              		.global	set_modem_status_streaming
 1919              		.syntax unified
 1920              		.code	16
 1921              		.thumb_func
 1922              		.fpu softvfp
 1924              	set_modem_status_streaming:
 1925              	.LVL105:
 1926              	.LFB52:
 610:smtc_modem_core/device_management/modem_context.c ****     modem_status = ( value == true ) ? ( modem_status | ( 1 << modem_status_streaming ) )
 1927              		.loc 1 610 1 is_stmt 1 view -0
 1928              		.cfi_startproc
 1929              		@ args = 0, pretend = 0, frame = 0
 1930              		@ frame_needed = 0, uses_anonymous_args = 0
 1931              		@ link register save eliminated.
 611:smtc_modem_core/device_management/modem_context.c ****                                      : ( modem_status & ~( 1 << modem_status_streaming ) );
 1932              		.loc 1 611 5 view .LVU434
 1933 0000 054A     		ldr	r2, .L149
 1934 0002 1378     		ldrb	r3, [r2]
 611:smtc_modem_core/device_management/modem_context.c ****                                      : ( modem_status & ~( 1 << modem_status_streaming ) );
 1935              		.loc 1 611 18 is_stmt 0 view .LVU435
 1936 0004 0028     		cmp	r0, #0
 1937 0006 03D0     		beq	.L147
 611:smtc_modem_core/device_management/modem_context.c ****                                      : ( modem_status & ~( 1 << modem_status_streaming ) );
 1938              		.loc 1 611 18 discriminator 1 view .LVU436
 1939 0008 8021     		movs	r1, #128
 1940 000a 0B43     		orrs	r3, r1
 1941              	.L148:
 613:smtc_modem_core/device_management/modem_context.c **** 
 1942              		.loc 1 613 1 discriminator 4 view .LVU437
 1943              		@ sp needed
 611:smtc_modem_core/device_management/modem_context.c ****                                      : ( modem_status & ~( 1 << modem_status_streaming ) );
 1944              		.loc 1 611 18 discriminator 4 view .LVU438
 1945 000c 1370     		strb	r3, [r2]
 613:smtc_modem_core/device_management/modem_context.c **** 
 1946              		.loc 1 613 1 discriminator 4 view .LVU439
 1947 000e 7047     		bx	lr
 1948              	.L147:
 611:smtc_modem_core/device_management/modem_context.c ****                                      : ( modem_status & ~( 1 << modem_status_streaming ) );
 1949              		.loc 1 611 18 discriminator 2 view .LVU440
 1950 0010 7F21     		movs	r1, #127
 1951 0012 0B40     		ands	r3, r1
 1952 0014 FAE7     		b	.L148
 1953              	.L150:
 1954 0016 C046     		.align	2
 1955              	.L149:
 1956 0018 00000000 		.word	.LANCHOR11
 1957              		.cfi_endproc
 1958              	.LFE52:
 1960              		.section	.text.get_modem_status_reset_after_crash,"ax",%progbits
 1961              		.align	1
ARM GAS  /var/folders/bq/yv49bw8j2kd6w3hsq868qv180000gn/T//ccEK2k0g.s 			page 61


 1962              		.global	get_modem_status_reset_after_crash
 1963              		.syntax unified
 1964              		.code	16
 1965              		.thumb_func
 1966              		.fpu softvfp
 1968              	get_modem_status_reset_after_crash:
 1969              	.LFB53:
 616:smtc_modem_core/device_management/modem_context.c ****     return ( ( modem_status >> modem_status_crash ) & 0x01 );
 1970              		.loc 1 616 1 is_stmt 1 view -0
 1971              		.cfi_startproc
 1972              		@ args = 0, pretend = 0, frame = 0
 1973              		@ frame_needed = 0, uses_anonymous_args = 0
 1974              		@ link register save eliminated.
 617:smtc_modem_core/device_management/modem_context.c **** }
 1975              		.loc 1 617 5 view .LVU442
 617:smtc_modem_core/device_management/modem_context.c **** }
 1976              		.loc 1 617 53 is_stmt 0 view .LVU443
 1977 0000 024B     		ldr	r3, .L152
 618:smtc_modem_core/device_management/modem_context.c **** 
 1978              		.loc 1 618 1 view .LVU444
 1979              		@ sp needed
 617:smtc_modem_core/device_management/modem_context.c **** }
 1980              		.loc 1 617 53 view .LVU445
 1981 0002 1878     		ldrb	r0, [r3]
 1982 0004 8007     		lsls	r0, r0, #30
 1983 0006 C00F     		lsrs	r0, r0, #31
 618:smtc_modem_core/device_management/modem_context.c **** 
 1984              		.loc 1 618 1 view .LVU446
 1985 0008 7047     		bx	lr
 1986              	.L153:
 1987 000a C046     		.align	2
 1988              	.L152:
 1989 000c 00000000 		.word	.LANCHOR11
 1990              		.cfi_endproc
 1991              	.LFE53:
 1993              		.section	.text.get_modem_status_file_upload,"ax",%progbits
 1994              		.align	1
 1995              		.global	get_modem_status_file_upload
 1996              		.syntax unified
 1997              		.code	16
 1998              		.thumb_func
 1999              		.fpu softvfp
 2001              	get_modem_status_file_upload:
 2002              	.LFB54:
 621:smtc_modem_core/device_management/modem_context.c ****     return ( ( modem_status >> modem_status_upload ) & 0x01 );
 2003              		.loc 1 621 1 is_stmt 1 view -0
 2004              		.cfi_startproc
 2005              		@ args = 0, pretend = 0, frame = 0
 2006              		@ frame_needed = 0, uses_anonymous_args = 0
 2007              		@ link register save eliminated.
 622:smtc_modem_core/device_management/modem_context.c **** }
 2008              		.loc 1 622 5 view .LVU448
 622:smtc_modem_core/device_management/modem_context.c **** }
 2009              		.loc 1 622 54 is_stmt 0 view .LVU449
 2010 0000 024B     		ldr	r3, .L155
 623:smtc_modem_core/device_management/modem_context.c **** 
 2011              		.loc 1 623 1 view .LVU450
ARM GAS  /var/folders/bq/yv49bw8j2kd6w3hsq868qv180000gn/T//ccEK2k0g.s 			page 62


 2012              		@ sp needed
 622:smtc_modem_core/device_management/modem_context.c **** }
 2013              		.loc 1 622 54 view .LVU451
 2014 0002 1878     		ldrb	r0, [r3]
 2015 0004 8006     		lsls	r0, r0, #26
 2016 0006 C00F     		lsrs	r0, r0, #31
 623:smtc_modem_core/device_management/modem_context.c **** 
 2017              		.loc 1 623 1 view .LVU452
 2018 0008 7047     		bx	lr
 2019              	.L156:
 2020 000a C046     		.align	2
 2021              	.L155:
 2022 000c 00000000 		.word	.LANCHOR11
 2023              		.cfi_endproc
 2024              	.LFE54:
 2026              		.section	.text.get_modem_status_joining,"ax",%progbits
 2027              		.align	1
 2028              		.global	get_modem_status_joining
 2029              		.syntax unified
 2030              		.code	16
 2031              		.thumb_func
 2032              		.fpu softvfp
 2034              	get_modem_status_joining:
 2035              	.LFB55:
 626:smtc_modem_core/device_management/modem_context.c ****     return ( ( modem_status >> modem_status_joining ) & 0x01 );
 2036              		.loc 1 626 1 is_stmt 1 view -0
 2037              		.cfi_startproc
 2038              		@ args = 0, pretend = 0, frame = 0
 2039              		@ frame_needed = 0, uses_anonymous_args = 0
 2040              		@ link register save eliminated.
 627:smtc_modem_core/device_management/modem_context.c **** }
 2041              		.loc 1 627 5 view .LVU454
 627:smtc_modem_core/device_management/modem_context.c **** }
 2042              		.loc 1 627 55 is_stmt 0 view .LVU455
 2043 0000 024B     		ldr	r3, .L158
 628:smtc_modem_core/device_management/modem_context.c **** 
 2044              		.loc 1 628 1 view .LVU456
 2045              		@ sp needed
 627:smtc_modem_core/device_management/modem_context.c **** }
 2046              		.loc 1 627 55 view .LVU457
 2047 0002 1878     		ldrb	r0, [r3]
 2048 0004 4006     		lsls	r0, r0, #25
 2049 0006 C00F     		lsrs	r0, r0, #31
 628:smtc_modem_core/device_management/modem_context.c **** 
 2050              		.loc 1 628 1 view .LVU458
 2051 0008 7047     		bx	lr
 2052              	.L159:
 2053 000a C046     		.align	2
 2054              	.L158:
 2055 000c 00000000 		.word	.LANCHOR11
 2056              		.cfi_endproc
 2057              	.LFE55:
 2059              		.section	.text.get_join_state,"ax",%progbits
 2060              		.align	1
 2061              		.global	get_join_state
 2062              		.syntax unified
 2063              		.code	16
ARM GAS  /var/folders/bq/yv49bw8j2kd6w3hsq868qv180000gn/T//ccEK2k0g.s 			page 63


 2064              		.thumb_func
 2065              		.fpu softvfp
 2067              	get_join_state:
 2068              	.LFB33:
 412:smtc_modem_core/device_management/modem_context.c ****     eModemJoinState_t joinstate;
 2069              		.loc 1 412 1 is_stmt 1 view -0
 2070              		.cfi_startproc
 2071              		@ args = 0, pretend = 0, frame = 0
 2072              		@ frame_needed = 0, uses_anonymous_args = 0
 413:smtc_modem_core/device_management/modem_context.c ****     if( get_modem_status_joining( ) == true )
 2073              		.loc 1 413 5 view .LVU460
 414:smtc_modem_core/device_management/modem_context.c ****     {
 2074              		.loc 1 414 5 view .LVU461
 412:smtc_modem_core/device_management/modem_context.c ****     eModemJoinState_t joinstate;
 2075              		.loc 1 412 1 is_stmt 0 view .LVU462
 2076 0000 10B5     		push	{r4, lr}
 2077              		.cfi_def_cfa_offset 8
 2078              		.cfi_offset 4, -8
 2079              		.cfi_offset 14, -4
 414:smtc_modem_core/device_management/modem_context.c ****     {
 2080              		.loc 1 414 9 view .LVU463
 2081 0002 FFF7FEFF 		bl	get_modem_status_joining
 2082              	.LVL106:
 2083 0006 0300     		movs	r3, r0
 416:smtc_modem_core/device_management/modem_context.c ****     }
 2084              		.loc 1 416 19 view .LVU464
 2085 0008 0120     		movs	r0, #1
 414:smtc_modem_core/device_management/modem_context.c ****     {
 2086              		.loc 1 414 7 view .LVU465
 2087 000a 002B     		cmp	r3, #0
 2088 000c 04D1     		bne	.L161
 2089              	.LBB73:
 2090              	.LBI73:
 411:smtc_modem_core/device_management/modem_context.c **** {
 2091              		.loc 1 411 19 is_stmt 1 view .LVU466
 2092              	.LBB74:
 418:smtc_modem_core/device_management/modem_context.c ****     {
 2093              		.loc 1 418 10 view .LVU467
 418:smtc_modem_core/device_management/modem_context.c ****     {
 2094              		.loc 1 418 14 is_stmt 0 view .LVU468
 2095 000e FFF7FEFF 		bl	lorawan_api_isjoined
 2096              	.LVL107:
 418:smtc_modem_core/device_management/modem_context.c ****     {
 2097              		.loc 1 418 12 view .LVU469
 2098 0012 0028     		cmp	r0, #0
 2099 0014 00D0     		beq	.L161
 424:smtc_modem_core/device_management/modem_context.c ****     }
 2100              		.loc 1 424 19 view .LVU470
 2101 0016 0220     		movs	r0, #2
 2102              	.L161:
 2103              	.LVL108:
 424:smtc_modem_core/device_management/modem_context.c ****     }
 2104              		.loc 1 424 19 view .LVU471
 2105              	.LBE74:
 2106              	.LBE73:
 426:smtc_modem_core/device_management/modem_context.c **** }
 2107              		.loc 1 426 5 is_stmt 1 view .LVU472
ARM GAS  /var/folders/bq/yv49bw8j2kd6w3hsq868qv180000gn/T//ccEK2k0g.s 			page 64


 427:smtc_modem_core/device_management/modem_context.c **** 
 2108              		.loc 1 427 1 is_stmt 0 view .LVU473
 2109              		@ sp needed
 2110 0018 10BD     		pop	{r4, pc}
 2111              		.cfi_endproc
 2112              	.LFE33:
 2114              		.section	.text.modem_supervisor_add_task_dm_status,"ax",%progbits
 2115              		.align	1
 2116              		.global	modem_supervisor_add_task_dm_status
 2117              		.syntax unified
 2118              		.code	16
 2119              		.thumb_func
 2120              		.fpu softvfp
 2122              	modem_supervisor_add_task_dm_status:
 2123              	.LVL109:
 2124              	.LFB37:
 455:smtc_modem_core/device_management/modem_context.c ****     smodem_task task_dm;
 2125              		.loc 1 455 1 is_stmt 1 view -0
 2126              		.cfi_startproc
 2127              		@ args = 0, pretend = 0, frame = 24
 2128              		@ frame_needed = 0, uses_anonymous_args = 0
 456:smtc_modem_core/device_management/modem_context.c ****     task_dm.id                = DM_TASK;
 2129              		.loc 1 456 5 view .LVU475
 457:smtc_modem_core/device_management/modem_context.c ****     task_dm.priority          = TASK_LOW_PRIORITY;
 2130              		.loc 1 457 5 view .LVU476
 457:smtc_modem_core/device_management/modem_context.c ****     task_dm.priority          = TASK_LOW_PRIORITY;
 2131              		.loc 1 457 31 is_stmt 0 view .LVU477
 2132 0000 0323     		movs	r3, #3
 455:smtc_modem_core/device_management/modem_context.c ****     smodem_task task_dm;
 2133              		.loc 1 455 1 view .LVU478
 2134 0002 30B5     		push	{r4, r5, lr}
 2135              		.cfi_def_cfa_offset 12
 2136              		.cfi_offset 4, -12
 2137              		.cfi_offset 5, -8
 2138              		.cfi_offset 14, -4
 2139 0004 87B0     		sub	sp, sp, #28
 2140              		.cfi_def_cfa_offset 40
 457:smtc_modem_core/device_management/modem_context.c ****     task_dm.priority          = TASK_LOW_PRIORITY;
 2141              		.loc 1 457 31 view .LVU479
 2142 0006 01AC     		add	r4, sp, #4
 2143 0008 2370     		strb	r3, [r4]
 458:smtc_modem_core/device_management/modem_context.c ****     task_dm.PacketType        = UNCONF_DATA_UP;
 2144              		.loc 1 458 5 is_stmt 1 view .LVU480
 458:smtc_modem_core/device_management/modem_context.c ****     task_dm.PacketType        = UNCONF_DATA_UP;
 2145              		.loc 1 458 31 is_stmt 0 view .LVU481
 2146 000a 2372     		strb	r3, [r4, #8]
 459:smtc_modem_core/device_management/modem_context.c ****     task_dm.time_to_execute_s = bsp_rtc_get_time_s( ) + next_execute;
 2147              		.loc 1 459 5 is_stmt 1 view .LVU482
 459:smtc_modem_core/device_management/modem_context.c ****     task_dm.time_to_execute_s = bsp_rtc_get_time_s( ) + next_execute;
 2148              		.loc 1 459 31 is_stmt 0 view .LVU483
 2149 000c 013B     		subs	r3, r3, #1
 455:smtc_modem_core/device_management/modem_context.c ****     smodem_task task_dm;
 2150              		.loc 1 455 1 view .LVU484
 2151 000e 0500     		movs	r5, r0
 459:smtc_modem_core/device_management/modem_context.c ****     task_dm.time_to_execute_s = bsp_rtc_get_time_s( ) + next_execute;
 2152              		.loc 1 459 31 view .LVU485
 2153 0010 6374     		strb	r3, [r4, #17]
ARM GAS  /var/folders/bq/yv49bw8j2kd6w3hsq868qv180000gn/T//ccEK2k0g.s 			page 65


 460:smtc_modem_core/device_management/modem_context.c ****     if( get_join_state( ) == MODEM_JOINED )
 2154              		.loc 1 460 5 is_stmt 1 view .LVU486
 460:smtc_modem_core/device_management/modem_context.c ****     if( get_join_state( ) == MODEM_JOINED )
 2155              		.loc 1 460 33 is_stmt 0 view .LVU487
 2156 0012 FFF7FEFF 		bl	bsp_rtc_get_time_s
 2157              	.LVL110:
 460:smtc_modem_core/device_management/modem_context.c ****     if( get_join_state( ) == MODEM_JOINED )
 2158              		.loc 1 460 55 view .LVU488
 2159 0016 4019     		adds	r0, r0, r5
 460:smtc_modem_core/device_management/modem_context.c ****     if( get_join_state( ) == MODEM_JOINED )
 2160              		.loc 1 460 31 view .LVU489
 2161 0018 6060     		str	r0, [r4, #4]
 461:smtc_modem_core/device_management/modem_context.c ****     {
 2162              		.loc 1 461 5 is_stmt 1 view .LVU490
 461:smtc_modem_core/device_management/modem_context.c ****     {
 2163              		.loc 1 461 9 is_stmt 0 view .LVU491
 2164 001a FFF7FEFF 		bl	get_join_state
 2165              	.LVL111:
 461:smtc_modem_core/device_management/modem_context.c ****     {
 2166              		.loc 1 461 7 view .LVU492
 2167 001e 0228     		cmp	r0, #2
 2168 0020 02D1     		bne	.L166
 463:smtc_modem_core/device_management/modem_context.c ****     }
 2169              		.loc 1 463 9 is_stmt 1 view .LVU493
 2170 0022 2000     		movs	r0, r4
 2171 0024 FFF7FEFF 		bl	modem_supervisor_add_task
 2172              	.LVL112:
 2173              	.L166:
 465:smtc_modem_core/device_management/modem_context.c **** 
 2174              		.loc 1 465 1 is_stmt 0 view .LVU494
 2175 0028 07B0     		add	sp, sp, #28
 2176              		@ sp needed
 2177              	.LVL113:
 465:smtc_modem_core/device_management/modem_context.c **** 
 2178              		.loc 1 465 1 view .LVU495
 2179 002a 30BD     		pop	{r4, r5, pc}
 2180              		.cfi_endproc
 2181              	.LFE37:
 2183              		.section	.text.modem_supervisor_add_task_alc_sync_time_req,"ax",%progbits
 2184              		.align	1
 2185              		.global	modem_supervisor_add_task_alc_sync_time_req
 2186              		.syntax unified
 2187              		.code	16
 2188              		.thumb_func
 2189              		.fpu softvfp
 2191              	modem_supervisor_add_task_alc_sync_time_req:
 2192              	.LVL114:
 2193              	.LFB39:
 479:smtc_modem_core/device_management/modem_context.c ****     smodem_task task_dm;
 2194              		.loc 1 479 1 is_stmt 1 view -0
 2195              		.cfi_startproc
 2196              		@ args = 0, pretend = 0, frame = 24
 2197              		@ frame_needed = 0, uses_anonymous_args = 0
 480:smtc_modem_core/device_management/modem_context.c ****     task_dm.id                = ALC_SYNC_TIME_REQ_TASK;
 2198              		.loc 1 480 5 view .LVU497
 481:smtc_modem_core/device_management/modem_context.c ****     task_dm.priority          = TASK_HIGH_PRIORITY;
 2199              		.loc 1 481 5 view .LVU498
ARM GAS  /var/folders/bq/yv49bw8j2kd6w3hsq868qv180000gn/T//ccEK2k0g.s 			page 66


 481:smtc_modem_core/device_management/modem_context.c ****     task_dm.priority          = TASK_HIGH_PRIORITY;
 2200              		.loc 1 481 31 is_stmt 0 view .LVU499
 2201 0000 0A23     		movs	r3, #10
 479:smtc_modem_core/device_management/modem_context.c ****     smodem_task task_dm;
 2202              		.loc 1 479 1 view .LVU500
 2203 0002 30B5     		push	{r4, r5, lr}
 2204              		.cfi_def_cfa_offset 12
 2205              		.cfi_offset 4, -12
 2206              		.cfi_offset 5, -8
 2207              		.cfi_offset 14, -4
 2208 0004 87B0     		sub	sp, sp, #28
 2209              		.cfi_def_cfa_offset 40
 481:smtc_modem_core/device_management/modem_context.c ****     task_dm.priority          = TASK_HIGH_PRIORITY;
 2210              		.loc 1 481 31 view .LVU501
 2211 0006 01AC     		add	r4, sp, #4
 2212 0008 2370     		strb	r3, [r4]
 482:smtc_modem_core/device_management/modem_context.c ****     task_dm.PacketType        = UNCONF_DATA_UP;
 2213              		.loc 1 482 5 is_stmt 1 view .LVU502
 482:smtc_modem_core/device_management/modem_context.c ****     task_dm.PacketType        = UNCONF_DATA_UP;
 2214              		.loc 1 482 31 is_stmt 0 view .LVU503
 2215 000a 093B     		subs	r3, r3, #9
 2216 000c 2372     		strb	r3, [r4, #8]
 483:smtc_modem_core/device_management/modem_context.c ****     task_dm.time_to_execute_s = bsp_rtc_get_time_s( ) + next_execute;
 2217              		.loc 1 483 5 is_stmt 1 view .LVU504
 483:smtc_modem_core/device_management/modem_context.c ****     task_dm.time_to_execute_s = bsp_rtc_get_time_s( ) + next_execute;
 2218              		.loc 1 483 31 is_stmt 0 view .LVU505
 2219 000e 0133     		adds	r3, r3, #1
 479:smtc_modem_core/device_management/modem_context.c ****     smodem_task task_dm;
 2220              		.loc 1 479 1 view .LVU506
 2221 0010 0500     		movs	r5, r0
 483:smtc_modem_core/device_management/modem_context.c ****     task_dm.time_to_execute_s = bsp_rtc_get_time_s( ) + next_execute;
 2222              		.loc 1 483 31 view .LVU507
 2223 0012 6374     		strb	r3, [r4, #17]
 484:smtc_modem_core/device_management/modem_context.c ****     if( get_join_state( ) == MODEM_JOINED )
 2224              		.loc 1 484 5 is_stmt 1 view .LVU508
 484:smtc_modem_core/device_management/modem_context.c ****     if( get_join_state( ) == MODEM_JOINED )
 2225              		.loc 1 484 33 is_stmt 0 view .LVU509
 2226 0014 FFF7FEFF 		bl	bsp_rtc_get_time_s
 2227              	.LVL115:
 484:smtc_modem_core/device_management/modem_context.c ****     if( get_join_state( ) == MODEM_JOINED )
 2228              		.loc 1 484 55 view .LVU510
 2229 0018 4019     		adds	r0, r0, r5
 484:smtc_modem_core/device_management/modem_context.c ****     if( get_join_state( ) == MODEM_JOINED )
 2230              		.loc 1 484 31 view .LVU511
 2231 001a 6060     		str	r0, [r4, #4]
 485:smtc_modem_core/device_management/modem_context.c ****     {
 2232              		.loc 1 485 5 is_stmt 1 view .LVU512
 485:smtc_modem_core/device_management/modem_context.c ****     {
 2233              		.loc 1 485 9 is_stmt 0 view .LVU513
 2234 001c FFF7FEFF 		bl	get_join_state
 2235              	.LVL116:
 485:smtc_modem_core/device_management/modem_context.c ****     {
 2236              		.loc 1 485 7 view .LVU514
 2237 0020 0228     		cmp	r0, #2
 2238 0022 02D1     		bne	.L168
 487:smtc_modem_core/device_management/modem_context.c ****     }
 2239              		.loc 1 487 9 is_stmt 1 view .LVU515
ARM GAS  /var/folders/bq/yv49bw8j2kd6w3hsq868qv180000gn/T//ccEK2k0g.s 			page 67


 2240 0024 2000     		movs	r0, r4
 2241 0026 FFF7FEFF 		bl	modem_supervisor_add_task
 2242              	.LVL117:
 2243              	.L168:
 489:smtc_modem_core/device_management/modem_context.c **** 
 2244              		.loc 1 489 1 is_stmt 0 view .LVU516
 2245 002a 07B0     		add	sp, sp, #28
 2246              		@ sp needed
 2247              	.LVL118:
 489:smtc_modem_core/device_management/modem_context.c **** 
 2248              		.loc 1 489 1 view .LVU517
 2249 002c 30BD     		pop	{r4, r5, pc}
 2250              		.cfi_endproc
 2251              	.LFE39:
 2253              		.section	.text.modem_supervisor_add_task_alc_sync_ans,"ax",%progbits
 2254              		.align	1
 2255              		.global	modem_supervisor_add_task_alc_sync_ans
 2256              		.syntax unified
 2257              		.code	16
 2258              		.thumb_func
 2259              		.fpu softvfp
 2261              	modem_supervisor_add_task_alc_sync_ans:
 2262              	.LVL119:
 2263              	.LFB40:
 492:smtc_modem_core/device_management/modem_context.c ****     smodem_task task_dm;
 2264              		.loc 1 492 1 is_stmt 1 view -0
 2265              		.cfi_startproc
 2266              		@ args = 0, pretend = 0, frame = 24
 2267              		@ frame_needed = 0, uses_anonymous_args = 0
 493:smtc_modem_core/device_management/modem_context.c ****     task_dm.id                = ALC_SYNC_ANS_TASK;
 2268              		.loc 1 493 5 view .LVU519
 494:smtc_modem_core/device_management/modem_context.c ****     task_dm.priority          = TASK_HIGH_PRIORITY;
 2269              		.loc 1 494 5 view .LVU520
 494:smtc_modem_core/device_management/modem_context.c ****     task_dm.priority          = TASK_HIGH_PRIORITY;
 2270              		.loc 1 494 31 is_stmt 0 view .LVU521
 2271 0000 0B23     		movs	r3, #11
 492:smtc_modem_core/device_management/modem_context.c ****     smodem_task task_dm;
 2272              		.loc 1 492 1 view .LVU522
 2273 0002 30B5     		push	{r4, r5, lr}
 2274              		.cfi_def_cfa_offset 12
 2275              		.cfi_offset 4, -12
 2276              		.cfi_offset 5, -8
 2277              		.cfi_offset 14, -4
 2278 0004 87B0     		sub	sp, sp, #28
 2279              		.cfi_def_cfa_offset 40
 494:smtc_modem_core/device_management/modem_context.c ****     task_dm.priority          = TASK_HIGH_PRIORITY;
 2280              		.loc 1 494 31 view .LVU523
 2281 0006 01AC     		add	r4, sp, #4
 2282 0008 2370     		strb	r3, [r4]
 495:smtc_modem_core/device_management/modem_context.c ****     task_dm.PacketType        = UNCONF_DATA_UP;
 2283              		.loc 1 495 5 is_stmt 1 view .LVU524
 495:smtc_modem_core/device_management/modem_context.c ****     task_dm.PacketType        = UNCONF_DATA_UP;
 2284              		.loc 1 495 31 is_stmt 0 view .LVU525
 2285 000a 0A3B     		subs	r3, r3, #10
 2286 000c 2372     		strb	r3, [r4, #8]
 496:smtc_modem_core/device_management/modem_context.c ****     task_dm.time_to_execute_s = bsp_rtc_get_time_s( ) + next_execute;
 2287              		.loc 1 496 5 is_stmt 1 view .LVU526
ARM GAS  /var/folders/bq/yv49bw8j2kd6w3hsq868qv180000gn/T//ccEK2k0g.s 			page 68


 496:smtc_modem_core/device_management/modem_context.c ****     task_dm.time_to_execute_s = bsp_rtc_get_time_s( ) + next_execute;
 2288              		.loc 1 496 31 is_stmt 0 view .LVU527
 2289 000e 0133     		adds	r3, r3, #1
 492:smtc_modem_core/device_management/modem_context.c ****     smodem_task task_dm;
 2290              		.loc 1 492 1 view .LVU528
 2291 0010 0500     		movs	r5, r0
 496:smtc_modem_core/device_management/modem_context.c ****     task_dm.time_to_execute_s = bsp_rtc_get_time_s( ) + next_execute;
 2292              		.loc 1 496 31 view .LVU529
 2293 0012 6374     		strb	r3, [r4, #17]
 497:smtc_modem_core/device_management/modem_context.c ****     if( get_join_state( ) == MODEM_JOINED )
 2294              		.loc 1 497 5 is_stmt 1 view .LVU530
 497:smtc_modem_core/device_management/modem_context.c ****     if( get_join_state( ) == MODEM_JOINED )
 2295              		.loc 1 497 33 is_stmt 0 view .LVU531
 2296 0014 FFF7FEFF 		bl	bsp_rtc_get_time_s
 2297              	.LVL120:
 497:smtc_modem_core/device_management/modem_context.c ****     if( get_join_state( ) == MODEM_JOINED )
 2298              		.loc 1 497 55 view .LVU532
 2299 0018 4019     		adds	r0, r0, r5
 497:smtc_modem_core/device_management/modem_context.c ****     if( get_join_state( ) == MODEM_JOINED )
 2300              		.loc 1 497 31 view .LVU533
 2301 001a 6060     		str	r0, [r4, #4]
 498:smtc_modem_core/device_management/modem_context.c ****     {
 2302              		.loc 1 498 5 is_stmt 1 view .LVU534
 498:smtc_modem_core/device_management/modem_context.c ****     {
 2303              		.loc 1 498 9 is_stmt 0 view .LVU535
 2304 001c FFF7FEFF 		bl	get_join_state
 2305              	.LVL121:
 498:smtc_modem_core/device_management/modem_context.c ****     {
 2306              		.loc 1 498 7 view .LVU536
 2307 0020 0228     		cmp	r0, #2
 2308 0022 02D1     		bne	.L170
 500:smtc_modem_core/device_management/modem_context.c ****     }
 2309              		.loc 1 500 9 is_stmt 1 view .LVU537
 2310 0024 2000     		movs	r0, r4
 2311 0026 FFF7FEFF 		bl	modem_supervisor_add_task
 2312              	.LVL122:
 2313              	.L170:
 502:smtc_modem_core/device_management/modem_context.c **** 
 2314              		.loc 1 502 1 is_stmt 0 view .LVU538
 2315 002a 07B0     		add	sp, sp, #28
 2316              		@ sp needed
 2317              	.LVL123:
 502:smtc_modem_core/device_management/modem_context.c **** 
 2318              		.loc 1 502 1 view .LVU539
 2319 002c 30BD     		pop	{r4, r5, pc}
 2320              		.cfi_endproc
 2321              	.LFE40:
 2323              		.section	.rodata.modem_supervisor_add_task_retrieve_dl.str1.1,"aMS",%progbits,1
 2324              	.LC82:
 2325 0000 1B5B303B 		.ascii	"\033[0;33m\000"
 2325      33336D00 
 2326              	.LC84:
 2327 0008 5741524E 		.ascii	"WARN : \000"
 2327      203A2000 
 2328              	.LC86:
 2329 0010 6D6F6465 		.ascii	"modem_supervisor_add_task_retrieve_dl\012\000"
 2329      6D5F7375 
ARM GAS  /var/folders/bq/yv49bw8j2kd6w3hsq868qv180000gn/T//ccEK2k0g.s 			page 69


 2329      70657276 
 2329      69736F72 
 2329      5F616464 
 2330              		.section	.text.modem_supervisor_add_task_retrieve_dl,"ax",%progbits
 2331              		.align	1
 2332              		.global	modem_supervisor_add_task_retrieve_dl
 2333              		.syntax unified
 2334              		.code	16
 2335              		.thumb_func
 2336              		.fpu softvfp
 2338              	modem_supervisor_add_task_retrieve_dl:
 2339              	.LVL124:
 2340              	.LFB42:
 514:smtc_modem_core/device_management/modem_context.c ****     BSP_DBG_TRACE_WARNING( "modem_supervisor_add_task_retrieve_dl\n" );
 2341              		.loc 1 514 1 is_stmt 1 view -0
 2342              		.cfi_startproc
 2343              		@ args = 0, pretend = 0, frame = 24
 2344              		@ frame_needed = 0, uses_anonymous_args = 0
 515:smtc_modem_core/device_management/modem_context.c ****     smodem_task task_dm;
 2345              		.loc 1 515 5 view .LVU541
 515:smtc_modem_core/device_management/modem_context.c ****     smodem_task task_dm;
 2346              		.loc 1 515 5 view .LVU542
 514:smtc_modem_core/device_management/modem_context.c ****     BSP_DBG_TRACE_WARNING( "modem_supervisor_add_task_retrieve_dl\n" );
 2347              		.loc 1 514 1 is_stmt 0 view .LVU543
 2348 0000 30B5     		push	{r4, r5, lr}
 2349              		.cfi_def_cfa_offset 12
 2350              		.cfi_offset 4, -12
 2351              		.cfi_offset 5, -8
 2352              		.cfi_offset 14, -4
 2353 0002 0500     		movs	r5, r0
 2354 0004 87B0     		sub	sp, sp, #28
 2355              		.cfi_def_cfa_offset 40
 515:smtc_modem_core/device_management/modem_context.c ****     smodem_task task_dm;
 2356              		.loc 1 515 5 view .LVU544
 2357 0006 1048     		ldr	r0, .L174
 2358              	.LVL125:
 515:smtc_modem_core/device_management/modem_context.c ****     smodem_task task_dm;
 2359              		.loc 1 515 5 view .LVU545
 2360 0008 FFF7FEFF 		bl	bsp_trace_print
 2361              	.LVL126:
 515:smtc_modem_core/device_management/modem_context.c ****     smodem_task task_dm;
 2362              		.loc 1 515 5 is_stmt 1 view .LVU546
 2363 000c 0F48     		ldr	r0, .L174+4
 2364 000e FFF7FEFF 		bl	bsp_trace_print
 2365              	.LVL127:
 515:smtc_modem_core/device_management/modem_context.c ****     smodem_task task_dm;
 2366              		.loc 1 515 5 view .LVU547
 2367 0012 0F48     		ldr	r0, .L174+8
 2368 0014 FFF7FEFF 		bl	bsp_trace_print
 2369              	.LVL128:
 515:smtc_modem_core/device_management/modem_context.c ****     smodem_task task_dm;
 2370              		.loc 1 515 5 view .LVU548
 2371 0018 0E48     		ldr	r0, .L174+12
 2372 001a FFF7FEFF 		bl	bsp_trace_print
 2373              	.LVL129:
 515:smtc_modem_core/device_management/modem_context.c ****     smodem_task task_dm;
 2374              		.loc 1 515 5 view .LVU549
ARM GAS  /var/folders/bq/yv49bw8j2kd6w3hsq868qv180000gn/T//ccEK2k0g.s 			page 70


 515:smtc_modem_core/device_management/modem_context.c ****     smodem_task task_dm;
 2375              		.loc 1 515 71 view .LVU550
 516:smtc_modem_core/device_management/modem_context.c ****     task_dm.id                = RETRIEVE_DL_TASK;
 2376              		.loc 1 516 5 view .LVU551
 517:smtc_modem_core/device_management/modem_context.c ****     task_dm.priority          = TASK_LOW_PRIORITY;
 2377              		.loc 1 517 5 view .LVU552
 517:smtc_modem_core/device_management/modem_context.c ****     task_dm.priority          = TASK_LOW_PRIORITY;
 2378              		.loc 1 517 31 is_stmt 0 view .LVU553
 2379 001e 0823     		movs	r3, #8
 2380 0020 01AC     		add	r4, sp, #4
 2381 0022 2370     		strb	r3, [r4]
 518:smtc_modem_core/device_management/modem_context.c ****     task_dm.PacketType        = UNCONF_DATA_UP;
 2382              		.loc 1 518 5 is_stmt 1 view .LVU554
 518:smtc_modem_core/device_management/modem_context.c ****     task_dm.PacketType        = UNCONF_DATA_UP;
 2383              		.loc 1 518 31 is_stmt 0 view .LVU555
 2384 0024 053B     		subs	r3, r3, #5
 2385 0026 2372     		strb	r3, [r4, #8]
 519:smtc_modem_core/device_management/modem_context.c ****     task_dm.sizeIn            = 0;
 2386              		.loc 1 519 5 is_stmt 1 view .LVU556
 520:smtc_modem_core/device_management/modem_context.c ****     task_dm.time_to_execute_s = bsp_rtc_get_time_s( ) + next_execute;
 2387              		.loc 1 520 5 view .LVU557
 520:smtc_modem_core/device_management/modem_context.c ****     task_dm.time_to_execute_s = bsp_rtc_get_time_s( ) + next_execute;
 2388              		.loc 1 520 31 is_stmt 0 view .LVU558
 2389 0028 FE33     		adds	r3, r3, #254
 2390 002a FF33     		adds	r3, r3, #255
 2391 002c 2382     		strh	r3, [r4, #16]
 521:smtc_modem_core/device_management/modem_context.c ****     if( get_join_state( ) == MODEM_JOINED )
 2392              		.loc 1 521 5 is_stmt 1 view .LVU559
 521:smtc_modem_core/device_management/modem_context.c ****     if( get_join_state( ) == MODEM_JOINED )
 2393              		.loc 1 521 33 is_stmt 0 view .LVU560
 2394 002e FFF7FEFF 		bl	bsp_rtc_get_time_s
 2395              	.LVL130:
 521:smtc_modem_core/device_management/modem_context.c ****     if( get_join_state( ) == MODEM_JOINED )
 2396              		.loc 1 521 55 view .LVU561
 2397 0032 4019     		adds	r0, r0, r5
 521:smtc_modem_core/device_management/modem_context.c ****     if( get_join_state( ) == MODEM_JOINED )
 2398              		.loc 1 521 31 view .LVU562
 2399 0034 6060     		str	r0, [r4, #4]
 522:smtc_modem_core/device_management/modem_context.c ****     {
 2400              		.loc 1 522 5 is_stmt 1 view .LVU563
 522:smtc_modem_core/device_management/modem_context.c ****     {
 2401              		.loc 1 522 9 is_stmt 0 view .LVU564
 2402 0036 FFF7FEFF 		bl	get_join_state
 2403              	.LVL131:
 522:smtc_modem_core/device_management/modem_context.c ****     {
 2404              		.loc 1 522 7 view .LVU565
 2405 003a 0228     		cmp	r0, #2
 2406 003c 02D1     		bne	.L172
 524:smtc_modem_core/device_management/modem_context.c ****     }
 2407              		.loc 1 524 9 is_stmt 1 view .LVU566
 2408 003e 2000     		movs	r0, r4
 2409 0040 FFF7FEFF 		bl	modem_supervisor_add_task
 2410              	.LVL132:
 2411              	.L172:
 526:smtc_modem_core/device_management/modem_context.c **** 
 2412              		.loc 1 526 1 is_stmt 0 view .LVU567
 2413 0044 07B0     		add	sp, sp, #28
ARM GAS  /var/folders/bq/yv49bw8j2kd6w3hsq868qv180000gn/T//ccEK2k0g.s 			page 71


 2414              		@ sp needed
 2415              	.LVL133:
 526:smtc_modem_core/device_management/modem_context.c **** 
 2416              		.loc 1 526 1 view .LVU568
 2417 0046 30BD     		pop	{r4, r5, pc}
 2418              	.L175:
 2419              		.align	2
 2420              	.L174:
 2421 0048 00000000 		.word	.LC82
 2422 004c 08000000 		.word	.LC84
 2423 0050 10000000 		.word	.LC86
 2424 0054 3E000000 		.word	.LC16
 2425              		.cfi_endproc
 2426              	.LFE42:
 2428              		.section	.text.get_modem_status,"ax",%progbits
 2429              		.align	1
 2430              		.global	get_modem_status
 2431              		.syntax unified
 2432              		.code	16
 2433              		.thumb_func
 2434              		.fpu softvfp
 2436              	get_modem_status:
 2437              	.LFB44:
 558:smtc_modem_core/device_management/modem_context.c ****     // If the stack is no more join, the modem status was not aware of the disconnection
 2438              		.loc 1 558 1 is_stmt 1 view -0
 2439              		.cfi_startproc
 2440              		@ args = 0, pretend = 0, frame = 0
 2441              		@ frame_needed = 0, uses_anonymous_args = 0
 560:smtc_modem_core/device_management/modem_context.c ****     {
 2442              		.loc 1 560 5 view .LVU570
 558:smtc_modem_core/device_management/modem_context.c ****     // If the stack is no more join, the modem status was not aware of the disconnection
 2443              		.loc 1 558 1 is_stmt 0 view .LVU571
 2444 0000 10B5     		push	{r4, lr}
 2445              		.cfi_def_cfa_offset 8
 2446              		.cfi_offset 4, -8
 2447              		.cfi_offset 14, -4
 560:smtc_modem_core/device_management/modem_context.c ****     {
 2448              		.loc 1 560 9 view .LVU572
 2449 0002 FFF7FEFF 		bl	get_join_state
 2450              	.LVL134:
 560:smtc_modem_core/device_management/modem_context.c ****     {
 2451              		.loc 1 560 7 view .LVU573
 2452 0006 0228     		cmp	r0, #2
 2453 0008 02D0     		beq	.L177
 562:smtc_modem_core/device_management/modem_context.c ****     }
 2454              		.loc 1 562 9 is_stmt 1 view .LVU574
 2455 000a 0020     		movs	r0, #0
 2456 000c FFF7FEFF 		bl	set_modem_status_modem_joined
 2457              	.LVL135:
 2458              	.L177:
 564:smtc_modem_core/device_management/modem_context.c **** }
 2459              		.loc 1 564 5 view .LVU575
 564:smtc_modem_core/device_management/modem_context.c **** }
 2460              		.loc 1 564 12 is_stmt 0 view .LVU576
 2461 0010 014B     		ldr	r3, .L181
 565:smtc_modem_core/device_management/modem_context.c **** 
 2462              		.loc 1 565 1 view .LVU577
ARM GAS  /var/folders/bq/yv49bw8j2kd6w3hsq868qv180000gn/T//ccEK2k0g.s 			page 72


 2463              		@ sp needed
 564:smtc_modem_core/device_management/modem_context.c **** }
 2464              		.loc 1 564 12 view .LVU578
 2465 0012 1878     		ldrb	r0, [r3]
 565:smtc_modem_core/device_management/modem_context.c **** 
 2466              		.loc 1 565 1 view .LVU579
 2467 0014 10BD     		pop	{r4, pc}
 2468              	.L182:
 2469 0016 C046     		.align	2
 2470              	.L181:
 2471 0018 00000000 		.word	.LANCHOR11
 2472              		.cfi_endproc
 2473              	.LFE44:
 2475              		.section	.text.get_modem_status_streaming,"ax",%progbits
 2476              		.align	1
 2477              		.global	get_modem_status_streaming
 2478              		.syntax unified
 2479              		.code	16
 2480              		.thumb_func
 2481              		.fpu softvfp
 2483              	get_modem_status_streaming:
 2484              	.LFB56:
 631:smtc_modem_core/device_management/modem_context.c ****     return ( ( modem_status >> modem_status_streaming ) & 0x01 );
 2485              		.loc 1 631 1 is_stmt 1 view -0
 2486              		.cfi_startproc
 2487              		@ args = 0, pretend = 0, frame = 0
 2488              		@ frame_needed = 0, uses_anonymous_args = 0
 2489              		@ link register save eliminated.
 632:smtc_modem_core/device_management/modem_context.c **** }
 2490              		.loc 1 632 5 view .LVU581
 632:smtc_modem_core/device_management/modem_context.c **** }
 2491              		.loc 1 632 57 is_stmt 0 view .LVU582
 2492 0000 014B     		ldr	r3, .L184
 633:smtc_modem_core/device_management/modem_context.c **** 
 2493              		.loc 1 633 1 view .LVU583
 2494              		@ sp needed
 632:smtc_modem_core/device_management/modem_context.c **** }
 2495              		.loc 1 632 57 view .LVU584
 2496 0002 1878     		ldrb	r0, [r3]
 2497 0004 C009     		lsrs	r0, r0, #7
 633:smtc_modem_core/device_management/modem_context.c **** 
 2498              		.loc 1 633 1 view .LVU585
 2499 0006 7047     		bx	lr
 2500              	.L185:
 2501              		.align	2
 2502              	.L184:
 2503 0008 00000000 		.word	.LANCHOR11
 2504              		.cfi_endproc
 2505              	.LFE56:
 2507              		.section	.text.reset_modem_charge,"ax",%progbits
 2508              		.align	1
 2509              		.global	reset_modem_charge
 2510              		.syntax unified
 2511              		.code	16
 2512              		.thumb_func
 2513              		.fpu softvfp
 2515              	reset_modem_charge:
ARM GAS  /var/folders/bq/yv49bw8j2kd6w3hsq868qv180000gn/T//ccEK2k0g.s 			page 73


 2516              	.LFB57:
 636:smtc_modem_core/device_management/modem_context.c ****     radio_planner_t* rp = modem_get_radio_planner( );
 2517              		.loc 1 636 1 is_stmt 1 view -0
 2518              		.cfi_startproc
 2519              		@ args = 0, pretend = 0, frame = 0
 2520              		@ frame_needed = 0, uses_anonymous_args = 0
 637:smtc_modem_core/device_management/modem_context.c ****     rp_stats_init( &rp->stats );
 2521              		.loc 1 637 5 view .LVU587
 636:smtc_modem_core/device_management/modem_context.c ****     radio_planner_t* rp = modem_get_radio_planner( );
 2522              		.loc 1 636 1 is_stmt 0 view .LVU588
 2523 0000 10B5     		push	{r4, lr}
 2524              		.cfi_def_cfa_offset 8
 2525              		.cfi_offset 4, -8
 2526              		.cfi_offset 14, -4
 637:smtc_modem_core/device_management/modem_context.c ****     rp_stats_init( &rp->stats );
 2527              		.loc 1 637 27 view .LVU589
 2528 0002 FFF7FEFF 		bl	modem_get_radio_planner
 2529              	.LVL136:
 638:smtc_modem_core/device_management/modem_context.c **** }
 2530              		.loc 1 638 5 is_stmt 1 view .LVU590
 2531              	.LBB78:
 2532              	.LBI78:
 2533              		.file 2 "radio_planner/src/radio_planner_stats.h"
   1:radio_planner/src/radio_planner_stats.h **** /*!
   2:radio_planner/src/radio_planner_stats.h ****  * \file      radio_planner_stats.h
   3:radio_planner/src/radio_planner_stats.h ****  *
   4:radio_planner/src/radio_planner_stats.h ****  * \brief     Radio planner statistics
   5:radio_planner/src/radio_planner_stats.h ****  *
   6:radio_planner/src/radio_planner_stats.h ****  * Revised BSD License
   7:radio_planner/src/radio_planner_stats.h ****  * Copyright Semtech Corporation 2020. All rights reserved.
   8:radio_planner/src/radio_planner_stats.h ****  *
   9:radio_planner/src/radio_planner_stats.h ****  * Redistribution and use in source and binary forms, with or without
  10:radio_planner/src/radio_planner_stats.h ****  * modification, are permitted provided that the following conditions are met:
  11:radio_planner/src/radio_planner_stats.h ****  *     * Redistributions of source code must retain the above copyright
  12:radio_planner/src/radio_planner_stats.h ****  *       notice, this list of conditions and the following disclaimer.
  13:radio_planner/src/radio_planner_stats.h ****  *     * Redistributions in binary form must reproduce the above copyright
  14:radio_planner/src/radio_planner_stats.h ****  *       notice, this list of conditions and the following disclaimer in the
  15:radio_planner/src/radio_planner_stats.h ****  *       documentation and/or other materials provided with the distribution.
  16:radio_planner/src/radio_planner_stats.h ****  *     * Neither the name of the Semtech corporation nor the
  17:radio_planner/src/radio_planner_stats.h ****  *       names of its contributors may be used to endorse or promote products
  18:radio_planner/src/radio_planner_stats.h ****  *       derived from this software without specific prior written permission.
  19:radio_planner/src/radio_planner_stats.h ****  *
  20:radio_planner/src/radio_planner_stats.h ****  * THIS SOFTWARE IS PROVIDED BY THE COPYRIGHT HOLDERS AND CONTRIBUTORS "AS IS"
  21:radio_planner/src/radio_planner_stats.h ****  * AND ANY EXPRESS OR IMPLIED WARRANTIES, INCLUDING, BUT NOT LIMITED TO, THE
  22:radio_planner/src/radio_planner_stats.h ****  * IMPLIED WARRANTIES OF MERCHANTABILITY AND FITNESS FOR A PARTICULAR PURPOSE
  23:radio_planner/src/radio_planner_stats.h ****  * ARE DISCLAIMED. IN NO EVENT SHALL SEMTECH CORPORATION BE LIABLE FOR ANY DIRECT,
  24:radio_planner/src/radio_planner_stats.h ****  * INDIRECT, INCIDENTAL, SPECIAL, EXEMPLARY, OR CONSEQUENTIAL DAMAGES
  25:radio_planner/src/radio_planner_stats.h ****  * (INCLUDING, BUT NOT LIMITED TO, PROCUREMENT OF SUBSTITUTE GOODS OR SERVICES;
  26:radio_planner/src/radio_planner_stats.h ****  * LOSS OF USE, DATA, OR PROFITS; OR BUSINESS INTERRUPTION) HOWEVER CAUSED AND
  27:radio_planner/src/radio_planner_stats.h ****  * ON ANY THEORY OF LIABILITY, WHETHER IN CONTRACT, STRICT LIABILITY, OR TORT
  28:radio_planner/src/radio_planner_stats.h ****  * (INCLUDING NEGLIGENCE OR OTHERWISE) ARISING IN ANY WAY OUT OF THE USE OF THIS
  29:radio_planner/src/radio_planner_stats.h ****  * SOFTWARE, EVEN IF ADVISED OF THE POSSIBILITY OF SUCH DAMAGE.
  30:radio_planner/src/radio_planner_stats.h ****  */
  31:radio_planner/src/radio_planner_stats.h **** #ifndef __RADIO_PLANNER_STASTS_H__
  32:radio_planner/src/radio_planner_stats.h **** #define __RADIO_PLANNER_STASTS_H__
  33:radio_planner/src/radio_planner_stats.h **** 
  34:radio_planner/src/radio_planner_stats.h **** #ifdef __cplusplus
ARM GAS  /var/folders/bq/yv49bw8j2kd6w3hsq868qv180000gn/T//ccEK2k0g.s 			page 74


  35:radio_planner/src/radio_planner_stats.h **** extern "C" {
  36:radio_planner/src/radio_planner_stats.h **** #endif
  37:radio_planner/src/radio_planner_stats.h **** 
  38:radio_planner/src/radio_planner_stats.h **** /*
  39:radio_planner/src/radio_planner_stats.h ****  * -----------------------------------------------------------------------------
  40:radio_planner/src/radio_planner_stats.h ****  * --- DEPENDENCIES ------------------------------------------------------------
  41:radio_planner/src/radio_planner_stats.h ****  */
  42:radio_planner/src/radio_planner_stats.h **** 
  43:radio_planner/src/radio_planner_stats.h **** #include <stdint.h>   // C99 types
  44:radio_planner/src/radio_planner_stats.h **** #include <stdbool.h>  // bool type
  45:radio_planner/src/radio_planner_stats.h **** 
  46:radio_planner/src/radio_planner_stats.h **** #include "radio_planner_types.h"
  47:radio_planner/src/radio_planner_stats.h **** 
  48:radio_planner/src/radio_planner_stats.h **** /*
  49:radio_planner/src/radio_planner_stats.h ****  * -----------------------------------------------------------------------------
  50:radio_planner/src/radio_planner_stats.h ****  * --- PUBLIC MACROS -----------------------------------------------------------
  51:radio_planner/src/radio_planner_stats.h ****  */
  52:radio_planner/src/radio_planner_stats.h **** 
  53:radio_planner/src/radio_planner_stats.h **** /*
  54:radio_planner/src/radio_planner_stats.h ****  * -----------------------------------------------------------------------------
  55:radio_planner/src/radio_planner_stats.h ****  * --- PUBLIC CONSTANTS --------------------------------------------------------
  56:radio_planner/src/radio_planner_stats.h ****  */
  57:radio_planner/src/radio_planner_stats.h **** 
  58:radio_planner/src/radio_planner_stats.h **** /*
  59:radio_planner/src/radio_planner_stats.h ****  * -----------------------------------------------------------------------------
  60:radio_planner/src/radio_planner_stats.h ****  * --- PUBLIC TYPES ------------------------------------------------------------
  61:radio_planner/src/radio_planner_stats.h ****  */
  62:radio_planner/src/radio_planner_stats.h **** 
  63:radio_planner/src/radio_planner_stats.h **** /*!
  64:radio_planner/src/radio_planner_stats.h ****  *
  65:radio_planner/src/radio_planner_stats.h ****  */
  66:radio_planner/src/radio_planner_stats.h **** typedef struct rp_stats_s
  67:radio_planner/src/radio_planner_stats.h **** {
  68:radio_planner/src/radio_planner_stats.h ****     uint32_t tx_last_toa_ms[RP_NB_HOOKS];
  69:radio_planner/src/radio_planner_stats.h ****     uint32_t tx_consumption_ms[RP_NB_HOOKS];
  70:radio_planner/src/radio_planner_stats.h ****     uint32_t rx_consumption_ms[RP_NB_HOOKS];
  71:radio_planner/src/radio_planner_stats.h ****     uint32_t tx_consumption_ma[RP_NB_HOOKS];
  72:radio_planner/src/radio_planner_stats.h ****     uint32_t rx_consumption_ma[RP_NB_HOOKS];
  73:radio_planner/src/radio_planner_stats.h ****     uint32_t tx_total_consumption_ms;
  74:radio_planner/src/radio_planner_stats.h ****     uint32_t rx_total_consumption_ms;
  75:radio_planner/src/radio_planner_stats.h ****     uint32_t tx_total_consumption_ma;
  76:radio_planner/src/radio_planner_stats.h ****     uint32_t rx_total_consumption_ma;
  77:radio_planner/src/radio_planner_stats.h ****     uint32_t tx_timestamp;
  78:radio_planner/src/radio_planner_stats.h ****     uint32_t rx_timestamp;
  79:radio_planner/src/radio_planner_stats.h ****     uint32_t task_hook_aborted_nb[RP_NB_HOOKS];
  80:radio_planner/src/radio_planner_stats.h ****     uint32_t rp_error;
  81:radio_planner/src/radio_planner_stats.h **** } rp_stats_t;
  82:radio_planner/src/radio_planner_stats.h **** 
  83:radio_planner/src/radio_planner_stats.h **** /*
  84:radio_planner/src/radio_planner_stats.h ****  * -----------------------------------------------------------------------------
  85:radio_planner/src/radio_planner_stats.h ****  * --- PUBLIC FUNCTIONS PROTOTYPES ---------------------------------------------
  86:radio_planner/src/radio_planner_stats.h ****  */
  87:radio_planner/src/radio_planner_stats.h **** 
  88:radio_planner/src/radio_planner_stats.h **** /*!
  89:radio_planner/src/radio_planner_stats.h ****  *
  90:radio_planner/src/radio_planner_stats.h ****  */
  91:radio_planner/src/radio_planner_stats.h **** static inline void rp_stats_init( rp_stats_t* rp_stats )
ARM GAS  /var/folders/bq/yv49bw8j2kd6w3hsq868qv180000gn/T//ccEK2k0g.s 			page 75


 2534              		.loc 2 91 20 view .LVU591
 2535              	.LBB79:
  92:radio_planner/src/radio_planner_stats.h **** {
  93:radio_planner/src/radio_planner_stats.h ****     for( int32_t i = 0; i < RP_NB_HOOKS; i++ )
 2536              		.loc 2 93 5 view .LVU592
 2537              	.LBB80:
 2538              		.loc 2 93 10 view .LVU593
 2539              		.loc 2 93 25 view .LVU594
 2540 0006 8223     		movs	r3, #130
 2541 0008 DB00     		lsls	r3, r3, #3
 2542 000a C218     		adds	r2, r0, r3
 2543 000c 8033     		adds	r3, r3, #128
 2544 000e C118     		adds	r1, r0, r3
 2545 0010 603B     		subs	r3, r3, #96
 2546 0012 C418     		adds	r4, r0, r3
  94:radio_planner/src/radio_planner_stats.h ****     {
  95:radio_planner/src/radio_planner_stats.h ****         rp_stats->tx_last_toa_ms[i]       = 0;
 2547              		.loc 2 95 43 is_stmt 0 view .LVU595
 2548 0014 0023     		movs	r3, #0
 2549              	.LVL137:
 2550              	.L187:
 2551              		.loc 2 95 9 is_stmt 1 view .LVU596
 2552              		.loc 2 95 43 is_stmt 0 view .LVU597
 2553 0016 1360     		str	r3, [r2]
  96:radio_planner/src/radio_planner_stats.h ****         rp_stats->tx_consumption_ms[i]    = 0;
 2554              		.loc 2 96 9 is_stmt 1 view .LVU598
 2555              		.loc 2 96 43 is_stmt 0 view .LVU599
 2556 0018 1362     		str	r3, [r2, #32]
  97:radio_planner/src/radio_planner_stats.h ****         rp_stats->rx_consumption_ms[i]    = 0;
 2557              		.loc 2 97 9 is_stmt 1 view .LVU600
 2558              		.loc 2 97 43 is_stmt 0 view .LVU601
 2559 001a 1364     		str	r3, [r2, #64]
  98:radio_planner/src/radio_planner_stats.h ****         rp_stats->tx_consumption_ma[i]    = 0;
 2560              		.loc 2 98 9 is_stmt 1 view .LVU602
 2561              		.loc 2 98 43 is_stmt 0 view .LVU603
 2562 001c 1366     		str	r3, [r2, #96]
  99:radio_planner/src/radio_planner_stats.h ****         rp_stats->rx_consumption_ma[i]    = 0;
 2563              		.loc 2 99 9 is_stmt 1 view .LVU604
 2564 001e 0432     		adds	r2, r2, #4
 2565              		.loc 2 99 43 is_stmt 0 view .LVU605
 2566 0020 0B60     		str	r3, [r1]
 100:radio_planner/src/radio_planner_stats.h ****         rp_stats->task_hook_aborted_nb[i] = 0;
 2567              		.loc 2 100 9 is_stmt 1 view .LVU606
 2568              		.loc 2 100 43 is_stmt 0 view .LVU607
 2569 0022 8B63     		str	r3, [r1, #56]
  93:radio_planner/src/radio_planner_stats.h ****     {
 2570              		.loc 2 93 42 is_stmt 1 view .LVU608
  93:radio_planner/src/radio_planner_stats.h ****     {
 2571              		.loc 2 93 25 view .LVU609
 2572 0024 0431     		adds	r1, r1, #4
  93:radio_planner/src/radio_planner_stats.h ****     {
 2573              		.loc 2 93 5 is_stmt 0 view .LVU610
 2574 0026 A242     		cmp	r2, r4
 2575 0028 F5D1     		bne	.L187
 2576              	.LBE80:
 101:radio_planner/src/radio_planner_stats.h ****     }
 102:radio_planner/src/radio_planner_stats.h ****     rp_stats->tx_total_consumption_ms = 0;
ARM GAS  /var/folders/bq/yv49bw8j2kd6w3hsq868qv180000gn/T//ccEK2k0g.s 			page 76


 2577              		.loc 2 102 5 is_stmt 1 view .LVU611
 2578              		.loc 2 102 39 is_stmt 0 view .LVU612
 2579 002a 9622     		movs	r2, #150
 2580 002c D200     		lsls	r2, r2, #3
 2581 002e 8218     		adds	r2, r0, r2
 2582 0030 1360     		str	r3, [r2]
 103:radio_planner/src/radio_planner_stats.h ****     rp_stats->rx_total_consumption_ms = 0;
 2583              		.loc 2 103 5 is_stmt 1 view .LVU613
 2584              		.loc 2 103 39 is_stmt 0 view .LVU614
 2585 0032 0B4A     		ldr	r2, .L189
 2586              	.LBE79:
 2587              	.LBE78:
 639:smtc_modem_core/device_management/modem_context.c **** 
 2588              		.loc 1 639 1 view .LVU615
 2589              		@ sp needed
 2590              	.LBB82:
 2591              	.LBB81:
 2592              		.loc 2 103 39 view .LVU616
 2593 0034 8218     		adds	r2, r0, r2
 2594 0036 1360     		str	r3, [r2]
 104:radio_planner/src/radio_planner_stats.h ****     rp_stats->tx_total_consumption_ma = 0;
 2595              		.loc 2 104 5 is_stmt 1 view .LVU617
 2596              		.loc 2 104 39 is_stmt 0 view .LVU618
 2597 0038 9722     		movs	r2, #151
 2598 003a D200     		lsls	r2, r2, #3
 2599 003c 8218     		adds	r2, r0, r2
 2600 003e 1360     		str	r3, [r2]
 105:radio_planner/src/radio_planner_stats.h ****     rp_stats->rx_total_consumption_ma = 0;
 2601              		.loc 2 105 5 is_stmt 1 view .LVU619
 2602              		.loc 2 105 39 is_stmt 0 view .LVU620
 2603 0040 084A     		ldr	r2, .L189+4
 2604 0042 8218     		adds	r2, r0, r2
 2605 0044 1360     		str	r3, [r2]
 106:radio_planner/src/radio_planner_stats.h ****     rp_stats->tx_timestamp            = 0;
 2606              		.loc 2 106 5 is_stmt 1 view .LVU621
 2607              		.loc 2 106 39 is_stmt 0 view .LVU622
 2608 0046 9822     		movs	r2, #152
 2609 0048 D200     		lsls	r2, r2, #3
 2610 004a 8218     		adds	r2, r0, r2
 2611 004c 1360     		str	r3, [r2]
 107:radio_planner/src/radio_planner_stats.h ****     rp_stats->rx_timestamp            = 0;
 2612              		.loc 2 107 5 is_stmt 1 view .LVU623
 2613              		.loc 2 107 39 is_stmt 0 view .LVU624
 2614 004e 064A     		ldr	r2, .L189+8
 2615 0050 8218     		adds	r2, r0, r2
 2616 0052 1360     		str	r3, [r2]
 108:radio_planner/src/radio_planner_stats.h ****     rp_stats->rp_error                = 0;
 2617              		.loc 2 108 5 is_stmt 1 view .LVU625
 2618              		.loc 2 108 39 is_stmt 0 view .LVU626
 2619 0054 9D22     		movs	r2, #157
 2620 0056 D200     		lsls	r2, r2, #3
 2621 0058 8018     		adds	r0, r0, r2
 2622              	.LVL138:
 2623              		.loc 2 108 39 view .LVU627
 2624 005a 0360     		str	r3, [r0]
 2625              	.LVL139:
 2626              		.loc 2 108 39 view .LVU628
ARM GAS  /var/folders/bq/yv49bw8j2kd6w3hsq868qv180000gn/T//ccEK2k0g.s 			page 77


 2627              	.LBE81:
 2628              	.LBE82:
 639:smtc_modem_core/device_management/modem_context.c **** 
 2629              		.loc 1 639 1 view .LVU629
 2630 005c 10BD     		pop	{r4, pc}
 2631              	.L190:
 2632 005e C046     		.align	2
 2633              	.L189:
 2634 0060 B4040000 		.word	1204
 2635 0064 BC040000 		.word	1212
 2636 0068 C4040000 		.word	1220
 2637              		.cfi_endproc
 2638              	.LFE57:
 2640              		.global	__aeabi_uidiv
 2641              		.section	.text.get_modem_charge_ma_s,"ax",%progbits
 2642              		.align	1
 2643              		.global	get_modem_charge_ma_s
 2644              		.syntax unified
 2645              		.code	16
 2646              		.thumb_func
 2647              		.fpu softvfp
 2649              	get_modem_charge_ma_s:
 2650              	.LFB58:
 642:smtc_modem_core/device_management/modem_context.c ****     radio_planner_t* rp                = modem_get_radio_planner( );
 2651              		.loc 1 642 1 is_stmt 1 view -0
 2652              		.cfi_startproc
 2653              		@ args = 0, pretend = 0, frame = 0
 2654              		@ frame_needed = 0, uses_anonymous_args = 0
 643:smtc_modem_core/device_management/modem_context.c ****     uint32_t         total_consumption = rp->stats.tx_total_consumption_ma + rp->stats.rx_total_con
 2655              		.loc 1 643 5 view .LVU631
 642:smtc_modem_core/device_management/modem_context.c ****     radio_planner_t* rp                = modem_get_radio_planner( );
 2656              		.loc 1 642 1 is_stmt 0 view .LVU632
 2657 0000 10B5     		push	{r4, lr}
 2658              		.cfi_def_cfa_offset 8
 2659              		.cfi_offset 4, -8
 2660              		.cfi_offset 14, -4
 643:smtc_modem_core/device_management/modem_context.c ****     uint32_t         total_consumption = rp->stats.tx_total_consumption_ma + rp->stats.rx_total_con
 2661              		.loc 1 643 42 view .LVU633
 2662 0002 FFF7FEFF 		bl	modem_get_radio_planner
 2663              	.LVL140:
 644:smtc_modem_core/device_management/modem_context.c ****     return ( ( total_consumption / 1000 ) + modem_charge_offset );
 2664              		.loc 1 644 5 is_stmt 1 view .LVU634
 645:smtc_modem_core/device_management/modem_context.c **** }
 2665              		.loc 1 645 5 view .LVU635
 644:smtc_modem_core/device_management/modem_context.c ****     return ( ( total_consumption / 1000 ) + modem_charge_offset );
 2666              		.loc 1 644 22 is_stmt 0 view .LVU636
 2667 0006 9723     		movs	r3, #151
 645:smtc_modem_core/device_management/modem_context.c **** }
 2668              		.loc 1 645 34 view .LVU637
 2669 0008 FA21     		movs	r1, #250
 644:smtc_modem_core/device_management/modem_context.c ****     return ( ( total_consumption / 1000 ) + modem_charge_offset );
 2670              		.loc 1 644 22 view .LVU638
 2671 000a 064A     		ldr	r2, .L192
 2672 000c DB00     		lsls	r3, r3, #3
 2673 000e C358     		ldr	r3, [r0, r3]
 2674 0010 8058     		ldr	r0, [r0, r2]
 2675              	.LVL141:
ARM GAS  /var/folders/bq/yv49bw8j2kd6w3hsq868qv180000gn/T//ccEK2k0g.s 			page 78


 645:smtc_modem_core/device_management/modem_context.c **** }
 2676              		.loc 1 645 34 view .LVU639
 2677 0012 8900     		lsls	r1, r1, #2
 644:smtc_modem_core/device_management/modem_context.c ****     return ( ( total_consumption / 1000 ) + modem_charge_offset );
 2678              		.loc 1 644 22 view .LVU640
 2679 0014 1818     		adds	r0, r3, r0
 645:smtc_modem_core/device_management/modem_context.c **** }
 2680              		.loc 1 645 34 view .LVU641
 2681 0016 FFF7FEFF 		bl	__aeabi_uidiv
 2682              	.LVL142:
 645:smtc_modem_core/device_management/modem_context.c **** }
 2683              		.loc 1 645 43 view .LVU642
 2684 001a 034B     		ldr	r3, .L192+4
 646:smtc_modem_core/device_management/modem_context.c **** 
 2685              		.loc 1 646 1 view .LVU643
 2686              		@ sp needed
 645:smtc_modem_core/device_management/modem_context.c **** }
 2687              		.loc 1 645 43 view .LVU644
 2688 001c 1B68     		ldr	r3, [r3]
 2689 001e C018     		adds	r0, r0, r3
 646:smtc_modem_core/device_management/modem_context.c **** 
 2690              		.loc 1 646 1 view .LVU645
 2691 0020 10BD     		pop	{r4, pc}
 2692              	.L193:
 2693 0022 C046     		.align	2
 2694              	.L192:
 2695 0024 BC040000 		.word	1212
 2696 0028 00000000 		.word	.LANCHOR12
 2697              		.cfi_endproc
 2698              	.LFE58:
 2700              		.section	.text.get_modem_charge_ma_h,"ax",%progbits
 2701              		.align	1
 2702              		.global	get_modem_charge_ma_h
 2703              		.syntax unified
 2704              		.code	16
 2705              		.thumb_func
 2706              		.fpu softvfp
 2708              	get_modem_charge_ma_h:
 2709              	.LFB59:
 649:smtc_modem_core/device_management/modem_context.c ****     return get_modem_charge_ma_s( ) / 3600;
 2710              		.loc 1 649 1 is_stmt 1 view -0
 2711              		.cfi_startproc
 2712              		@ args = 0, pretend = 0, frame = 0
 2713              		@ frame_needed = 0, uses_anonymous_args = 0
 650:smtc_modem_core/device_management/modem_context.c **** }
 2714              		.loc 1 650 5 view .LVU647
 649:smtc_modem_core/device_management/modem_context.c ****     return get_modem_charge_ma_s( ) / 3600;
 2715              		.loc 1 649 1 is_stmt 0 view .LVU648
 2716 0000 10B5     		push	{r4, lr}
 2717              		.cfi_def_cfa_offset 8
 2718              		.cfi_offset 4, -8
 2719              		.cfi_offset 14, -4
 650:smtc_modem_core/device_management/modem_context.c **** }
 2720              		.loc 1 650 12 view .LVU649
 2721 0002 FFF7FEFF 		bl	get_modem_charge_ma_s
 2722              	.LVL143:
 650:smtc_modem_core/device_management/modem_context.c **** }
ARM GAS  /var/folders/bq/yv49bw8j2kd6w3hsq868qv180000gn/T//ccEK2k0g.s 			page 79


 2723              		.loc 1 650 37 view .LVU650
 2724 0006 E121     		movs	r1, #225
 2725 0008 0901     		lsls	r1, r1, #4
 2726 000a FFF7FEFF 		bl	__aeabi_uidiv
 2727              	.LVL144:
 651:smtc_modem_core/device_management/modem_context.c **** 
 2728              		.loc 1 651 1 view .LVU651
 2729              		@ sp needed
 2730 000e 10BD     		pop	{r4, pc}
 2731              		.cfi_endproc
 2732              	.LFE59:
 2734              		.section	.text.get_modem_voltage,"ax",%progbits
 2735              		.align	1
 2736              		.global	get_modem_voltage
 2737              		.syntax unified
 2738              		.code	16
 2739              		.thumb_func
 2740              		.fpu softvfp
 2742              	get_modem_voltage:
 2743              	.LFB60:
 654:smtc_modem_core/device_management/modem_context.c ****     return ( uint8_t ) bsp_mcu_get_mcu_voltage( );
 2744              		.loc 1 654 1 is_stmt 1 view -0
 2745              		.cfi_startproc
 2746              		@ args = 0, pretend = 0, frame = 0
 2747              		@ frame_needed = 0, uses_anonymous_args = 0
 655:smtc_modem_core/device_management/modem_context.c **** }
 2748              		.loc 1 655 5 view .LVU653
 654:smtc_modem_core/device_management/modem_context.c ****     return ( uint8_t ) bsp_mcu_get_mcu_voltage( );
 2749              		.loc 1 654 1 is_stmt 0 view .LVU654
 2750 0000 10B5     		push	{r4, lr}
 2751              		.cfi_def_cfa_offset 8
 2752              		.cfi_offset 4, -8
 2753              		.cfi_offset 14, -4
 655:smtc_modem_core/device_management/modem_context.c **** }
 2754              		.loc 1 655 24 view .LVU655
 2755 0002 FFF7FEFF 		bl	bsp_mcu_get_mcu_voltage
 2756              	.LVL145:
 656:smtc_modem_core/device_management/modem_context.c **** uint8_t get_modem_temp( void )
 2757              		.loc 1 656 1 view .LVU656
 2758              		@ sp needed
 2759 0006 10BD     		pop	{r4, pc}
 2760              		.cfi_endproc
 2761              	.LFE60:
 2763              		.section	.text.get_modem_temp,"ax",%progbits
 2764              		.align	1
 2765              		.global	get_modem_temp
 2766              		.syntax unified
 2767              		.code	16
 2768              		.thumb_func
 2769              		.fpu softvfp
 2771              	get_modem_temp:
 2772              	.LFB61:
 658:smtc_modem_core/device_management/modem_context.c ****     return ( uint8_t ) bsp_mcu_get_mcu_temperature( );
 2773              		.loc 1 658 1 is_stmt 1 view -0
 2774              		.cfi_startproc
 2775              		@ args = 0, pretend = 0, frame = 0
 2776              		@ frame_needed = 0, uses_anonymous_args = 0
ARM GAS  /var/folders/bq/yv49bw8j2kd6w3hsq868qv180000gn/T//ccEK2k0g.s 			page 80


 659:smtc_modem_core/device_management/modem_context.c **** }
 2777              		.loc 1 659 5 view .LVU658
 658:smtc_modem_core/device_management/modem_context.c ****     return ( uint8_t ) bsp_mcu_get_mcu_temperature( );
 2778              		.loc 1 658 1 is_stmt 0 view .LVU659
 2779 0000 10B5     		push	{r4, lr}
 2780              		.cfi_def_cfa_offset 8
 2781              		.cfi_offset 4, -8
 2782              		.cfi_offset 14, -4
 659:smtc_modem_core/device_management/modem_context.c **** }
 2783              		.loc 1 659 24 view .LVU660
 2784 0002 FFF7FEFF 		bl	bsp_mcu_get_mcu_temperature
 2785              	.LVL146:
 660:smtc_modem_core/device_management/modem_context.c **** 
 2786              		.loc 1 660 1 view .LVU661
 2787              		@ sp needed
 659:smtc_modem_core/device_management/modem_context.c **** }
 2788              		.loc 1 659 12 view .LVU662
 2789 0006 C0B2     		uxtb	r0, r0
 660:smtc_modem_core/device_management/modem_context.c **** 
 2790              		.loc 1 660 1 view .LVU663
 2791 0008 10BD     		pop	{r4, pc}
 2792              		.cfi_endproc
 2793              	.LFE61:
 2795              		.section	.rodata.dm_check_dminfo_size.str1.1,"aMS",%progbits,1
 2796              	.LC94:
 2797 0000 496E7661 		.ascii	"Invalid DM command\012\000"
 2797      6C696420 
 2797      444D2063 
 2797      6F6D6D61 
 2797      6E640A00 
 2798              	.LC98:
 2799 0014 496E7661 		.ascii	"Invalid DM command size\012\000"
 2799      6C696420 
 2799      444D2063 
 2799      6F6D6D61 
 2799      6E642073 
 2800              		.section	.text.dm_check_dminfo_size,"ax",%progbits
 2801              		.align	1
 2802              		.global	dm_check_dminfo_size
 2803              		.syntax unified
 2804              		.code	16
 2805              		.thumb_func
 2806              		.fpu softvfp
 2808              	dm_check_dminfo_size:
 2809              	.LVL147:
 2810              	.LFB62:
 663:smtc_modem_core/device_management/modem_context.c ****     if( cmd >= e_inf_max )
 2811              		.loc 1 663 1 is_stmt 1 view -0
 2812              		.cfi_startproc
 2813              		@ args = 0, pretend = 0, frame = 0
 2814              		@ frame_needed = 0, uses_anonymous_args = 0
 664:smtc_modem_core/device_management/modem_context.c ****     {
 2815              		.loc 1 664 5 view .LVU665
 663:smtc_modem_core/device_management/modem_context.c ****     if( cmd >= e_inf_max )
 2816              		.loc 1 663 1 is_stmt 0 view .LVU666
 2817 0000 10B5     		push	{r4, lr}
 2818              		.cfi_def_cfa_offset 8
ARM GAS  /var/folders/bq/yv49bw8j2kd6w3hsq868qv180000gn/T//ccEK2k0g.s 			page 81


 2819              		.cfi_offset 4, -8
 2820              		.cfi_offset 14, -4
 664:smtc_modem_core/device_management/modem_context.c ****     {
 2821              		.loc 1 664 7 view .LVU667
 2822 0002 1728     		cmp	r0, #23
 2823 0004 0DD9     		bls	.L198
 2824              	.LBB85:
 2825              	.LBI85:
 662:smtc_modem_core/device_management/modem_context.c **** {
 2826              		.loc 1 662 23 is_stmt 1 view .LVU668
 2827              	.LVL148:
 2828              	.LBB86:
 666:smtc_modem_core/device_management/modem_context.c ****         return DM_CMD_LENGTH_NOT_VALID;
 2829              		.loc 1 666 9 view .LVU669
 666:smtc_modem_core/device_management/modem_context.c ****         return DM_CMD_LENGTH_NOT_VALID;
 2830              		.loc 1 666 9 view .LVU670
 2831 0006 0D48     		ldr	r0, .L202
 2832              	.LVL149:
 666:smtc_modem_core/device_management/modem_context.c ****         return DM_CMD_LENGTH_NOT_VALID;
 2833              		.loc 1 666 9 is_stmt 0 view .LVU671
 2834 0008 FFF7FEFF 		bl	bsp_trace_print
 2835              	.LVL150:
 666:smtc_modem_core/device_management/modem_context.c ****         return DM_CMD_LENGTH_NOT_VALID;
 2836              		.loc 1 666 9 is_stmt 1 view .LVU672
 2837 000c 0C48     		ldr	r0, .L202+4
 2838 000e FFF7FEFF 		bl	bsp_trace_print
 2839              	.LVL151:
 666:smtc_modem_core/device_management/modem_context.c ****         return DM_CMD_LENGTH_NOT_VALID;
 2840              		.loc 1 666 9 view .LVU673
 2841 0012 0C48     		ldr	r0, .L202+8
 2842              	.L201:
 666:smtc_modem_core/device_management/modem_context.c ****         return DM_CMD_LENGTH_NOT_VALID;
 2843              		.loc 1 666 9 is_stmt 0 view .LVU674
 2844              	.LBE86:
 2845              	.LBE85:
 672:smtc_modem_core/device_management/modem_context.c ****         return DM_CMD_LENGTH_NOT_VALID;
 2846              		.loc 1 672 9 view .LVU675
 2847 0014 FFF7FEFF 		bl	bsp_trace_print
 2848              	.LVL152:
 672:smtc_modem_core/device_management/modem_context.c ****         return DM_CMD_LENGTH_NOT_VALID;
 2849              		.loc 1 672 9 is_stmt 1 view .LVU676
 2850 0018 0B48     		ldr	r0, .L202+12
 2851 001a FFF7FEFF 		bl	bsp_trace_print
 2852              	.LVL153:
 672:smtc_modem_core/device_management/modem_context.c ****         return DM_CMD_LENGTH_NOT_VALID;
 2853              		.loc 1 672 9 view .LVU677
 672:smtc_modem_core/device_management/modem_context.c ****         return DM_CMD_LENGTH_NOT_VALID;
 2854              		.loc 1 672 59 view .LVU678
 673:smtc_modem_core/device_management/modem_context.c ****     }
 2855              		.loc 1 673 9 view .LVU679
 673:smtc_modem_core/device_management/modem_context.c ****     }
 2856              		.loc 1 673 16 is_stmt 0 view .LVU680
 2857 001e 0120     		movs	r0, #1
 2858              	.L199:
 677:smtc_modem_core/device_management/modem_context.c **** 
 2859              		.loc 1 677 1 view .LVU681
 2860              		@ sp needed
ARM GAS  /var/folders/bq/yv49bw8j2kd6w3hsq868qv180000gn/T//ccEK2k0g.s 			page 82


 2861 0020 10BD     		pop	{r4, pc}
 2862              	.LVL154:
 2863              	.L198:
 670:smtc_modem_core/device_management/modem_context.c ****     {
 2864              		.loc 1 670 5 is_stmt 1 view .LVU682
 670:smtc_modem_core/device_management/modem_context.c ****     {
 2865              		.loc 1 670 35 is_stmt 0 view .LVU683
 2866 0022 0A4B     		ldr	r3, .L202+16
 670:smtc_modem_core/device_management/modem_context.c ****     {
 2867              		.loc 1 670 7 view .LVU684
 2868 0024 1B5C     		ldrb	r3, [r3, r0]
 676:smtc_modem_core/device_management/modem_context.c **** }
 2869              		.loc 1 676 12 view .LVU685
 2870 0026 0020     		movs	r0, #0
 2871              	.LVL155:
 670:smtc_modem_core/device_management/modem_context.c ****     {
 2872              		.loc 1 670 7 view .LVU686
 2873 0028 8B42     		cmp	r3, r1
 2874 002a F9D0     		beq	.L199
 672:smtc_modem_core/device_management/modem_context.c ****         return DM_CMD_LENGTH_NOT_VALID;
 2875              		.loc 1 672 9 is_stmt 1 view .LVU687
 672:smtc_modem_core/device_management/modem_context.c ****         return DM_CMD_LENGTH_NOT_VALID;
 2876              		.loc 1 672 9 view .LVU688
 2877 002c 0348     		ldr	r0, .L202
 2878 002e FFF7FEFF 		bl	bsp_trace_print
 2879              	.LVL156:
 672:smtc_modem_core/device_management/modem_context.c ****         return DM_CMD_LENGTH_NOT_VALID;
 2880              		.loc 1 672 9 view .LVU689
 2881 0032 0348     		ldr	r0, .L202+4
 2882 0034 FFF7FEFF 		bl	bsp_trace_print
 2883              	.LVL157:
 672:smtc_modem_core/device_management/modem_context.c ****         return DM_CMD_LENGTH_NOT_VALID;
 2884              		.loc 1 672 9 view .LVU690
 2885 0038 0548     		ldr	r0, .L202+20
 2886 003a EBE7     		b	.L201
 2887              	.L203:
 2888              		.align	2
 2889              	.L202:
 2890 003c 00000000 		.word	.LC10
 2891 0040 08000000 		.word	.LC12
 2892 0044 00000000 		.word	.LC94
 2893 0048 3E000000 		.word	.LC16
 2894 004c 00000000 		.word	.LANCHOR13
 2895 0050 14000000 		.word	.LC98
 2896              		.cfi_endproc
 2897              	.LFE62:
 2899              		.section	.text.get_modem_muted,"ax",%progbits
 2900              		.align	1
 2901              		.global	get_modem_muted
 2902              		.syntax unified
 2903              		.code	16
 2904              		.thumb_func
 2905              		.fpu softvfp
 2907              	get_modem_muted:
 2908              	.LFB64:
 720:smtc_modem_core/device_management/modem_context.c ****     e_modem_mute_t mute;
 2909              		.loc 1 720 1 view -0
ARM GAS  /var/folders/bq/yv49bw8j2kd6w3hsq868qv180000gn/T//ccEK2k0g.s 			page 83


 2910              		.cfi_startproc
 2911              		@ args = 0, pretend = 0, frame = 0
 2912              		@ frame_needed = 0, uses_anonymous_args = 0
 2913              		@ link register save eliminated.
 721:smtc_modem_core/device_management/modem_context.c **** 
 2914              		.loc 1 721 5 view .LVU692
 723:smtc_modem_core/device_management/modem_context.c ****     {
 2915              		.loc 1 723 5 view .LVU693
 723:smtc_modem_core/device_management/modem_context.c ****     {
 2916              		.loc 1 723 29 is_stmt 0 view .LVU694
 2917 0000 034B     		ldr	r3, .L209
 2918 0002 1878     		ldrb	r0, [r3]
 723:smtc_modem_core/device_management/modem_context.c ****     {
 2919              		.loc 1 723 7 view .LVU695
 2920 0004 FF28     		cmp	r0, #255
 2921 0006 02D0     		beq	.L205
 727:smtc_modem_core/device_management/modem_context.c ****     {
 2922              		.loc 1 727 10 is_stmt 1 view .LVU696
 727:smtc_modem_core/device_management/modem_context.c ****     {
 2923              		.loc 1 727 12 is_stmt 0 view .LVU697
 2924 0008 431E     		subs	r3, r0, #1
 2925 000a 9841     		sbcs	r0, r0, r3
 725:smtc_modem_core/device_management/modem_context.c ****     }
 2926              		.loc 1 725 14 view .LVU698
 2927 000c C0B2     		uxtb	r0, r0
 2928              	.L205:
 2929              	.LVL158:
 735:smtc_modem_core/device_management/modem_context.c **** }
 2930              		.loc 1 735 5 is_stmt 1 view .LVU699
 736:smtc_modem_core/device_management/modem_context.c **** 
 2931              		.loc 1 736 1 is_stmt 0 view .LVU700
 2932              		@ sp needed
 2933 000e 7047     		bx	lr
 2934              	.L210:
 2935              		.align	2
 2936              	.L209:
 2937 0010 00000000 		.word	.LANCHOR14
 2938              		.cfi_endproc
 2939              	.LFE64:
 2941              		.section	.text.dm_get_number_of_days_mute,"ax",%progbits
 2942              		.align	1
 2943              		.global	dm_get_number_of_days_mute
 2944              		.syntax unified
 2945              		.code	16
 2946              		.thumb_func
 2947              		.fpu softvfp
 2949              	dm_get_number_of_days_mute:
 2950              	.LFB65:
 739:smtc_modem_core/device_management/modem_context.c ****     return number_of_muted_day;
 2951              		.loc 1 739 1 is_stmt 1 view -0
 2952              		.cfi_startproc
 2953              		@ args = 0, pretend = 0, frame = 0
 2954              		@ frame_needed = 0, uses_anonymous_args = 0
 2955              		@ link register save eliminated.
 740:smtc_modem_core/device_management/modem_context.c **** }
 2956              		.loc 1 740 5 view .LVU702
 740:smtc_modem_core/device_management/modem_context.c **** }
ARM GAS  /var/folders/bq/yv49bw8j2kd6w3hsq868qv180000gn/T//ccEK2k0g.s 			page 84


 2957              		.loc 1 740 12 is_stmt 0 view .LVU703
 2958 0000 014B     		ldr	r3, .L212
 741:smtc_modem_core/device_management/modem_context.c **** 
 2959              		.loc 1 741 1 view .LVU704
 2960              		@ sp needed
 740:smtc_modem_core/device_management/modem_context.c **** }
 2961              		.loc 1 740 12 view .LVU705
 2962 0002 1878     		ldrb	r0, [r3]
 741:smtc_modem_core/device_management/modem_context.c **** 
 2963              		.loc 1 741 1 view .LVU706
 2964 0004 7047     		bx	lr
 2965              	.L213:
 2966 0006 C046     		.align	2
 2967              	.L212:
 2968 0008 00000000 		.word	.LANCHOR14
 2969              		.cfi_endproc
 2970              	.LFE65:
 2972              		.section	.text.get_dm_info_tag_list,"ax",%progbits
 2973              		.align	1
 2974              		.global	get_dm_info_tag_list
 2975              		.syntax unified
 2976              		.code	16
 2977              		.thumb_func
 2978              		.fpu softvfp
 2980              	get_dm_info_tag_list:
 2981              	.LVL159:
 2982              	.LFB67:
 764:smtc_modem_core/device_management/modem_context.c ****     uint8_t* p = dm;
 2983              		.loc 1 764 1 is_stmt 1 view -0
 2984              		.cfi_startproc
 2985              		@ args = 0, pretend = 0, frame = 0
 2986              		@ frame_needed = 0, uses_anonymous_args = 0
 765:smtc_modem_core/device_management/modem_context.c ****     uint32_t info_req;
 2987              		.loc 1 765 5 view .LVU708
 766:smtc_modem_core/device_management/modem_context.c **** 
 2988              		.loc 1 766 5 view .LVU709
 768:smtc_modem_core/device_management/modem_context.c ****     {
 2989              		.loc 1 768 5 view .LVU710
 764:smtc_modem_core/device_management/modem_context.c ****     uint8_t* p = dm;
 2990              		.loc 1 764 1 is_stmt 0 view .LVU711
 2991 0000 70B5     		push	{r4, r5, r6, lr}
 2992              		.cfi_def_cfa_offset 16
 2993              		.cfi_offset 4, -16
 2994              		.cfi_offset 5, -12
 2995              		.cfi_offset 6, -8
 2996              		.cfi_offset 14, -4
 770:smtc_modem_core/device_management/modem_context.c ****     }
 2997              		.loc 1 770 18 view .LVU712
 2998 0002 0A4B     		ldr	r3, .L224
 768:smtc_modem_core/device_management/modem_context.c ****     {
 2999              		.loc 1 768 7 view .LVU713
 3000 0004 0129     		cmp	r1, #1
 3001 0006 00D0     		beq	.L223
 774:smtc_modem_core/device_management/modem_context.c ****     }
 3002              		.loc 1 774 9 is_stmt 1 view .LVU714
 774:smtc_modem_core/device_management/modem_context.c ****     }
 3003              		.loc 1 774 18 is_stmt 0 view .LVU715
ARM GAS  /var/folders/bq/yv49bw8j2kd6w3hsq868qv180000gn/T//ccEK2k0g.s 			page 85


 3004 0008 094B     		ldr	r3, .L224+4
 3005              	.L223:
 3006 000a 1968     		ldr	r1, [r3]
 3007              	.LVL160:
 777:smtc_modem_core/device_management/modem_context.c ****     {
 3008              		.loc 1 777 5 is_stmt 1 view .LVU716
 3009              	.LBB87:
 777:smtc_modem_core/device_management/modem_context.c ****     {
 3010              		.loc 1 777 10 view .LVU717
 777:smtc_modem_core/device_management/modem_context.c ****     {
 3011              		.loc 1 777 25 view .LVU718
 3012              	.LBE87:
 765:smtc_modem_core/device_management/modem_context.c ****     uint32_t info_req;
 3013              		.loc 1 765 14 is_stmt 0 view .LVU719
 3014 000c 0022     		movs	r2, #0
 3015 000e 0300     		movs	r3, r0
 3016              	.LBB88:
 779:smtc_modem_core/device_management/modem_context.c ****         {
 3017              		.loc 1 779 30 view .LVU720
 3018 0010 0124     		movs	r4, #1
 3019              	.LVL161:
 3020              	.L218:
 779:smtc_modem_core/device_management/modem_context.c ****         {
 3021              		.loc 1 779 30 view .LVU721
 3022 0012 2600     		movs	r6, r4
 3023 0014 9640     		lsls	r6, r6, r2
 3024 0016 D5B2     		uxtb	r5, r2
 3025              	.LVL162:
 779:smtc_modem_core/device_management/modem_context.c ****         {
 3026              		.loc 1 779 9 is_stmt 1 view .LVU722
 779:smtc_modem_core/device_management/modem_context.c ****         {
 3027              		.loc 1 779 11 is_stmt 0 view .LVU723
 3028 0018 3142     		tst	r1, r6
 3029 001a 01D0     		beq	.L217
 781:smtc_modem_core/device_management/modem_context.c ****         }
 3030              		.loc 1 781 13 is_stmt 1 view .LVU724
 3031              	.LVL163:
 781:smtc_modem_core/device_management/modem_context.c ****         }
 3032              		.loc 1 781 18 is_stmt 0 view .LVU725
 3033 001c 1D70     		strb	r5, [r3]
 781:smtc_modem_core/device_management/modem_context.c ****         }
 3034              		.loc 1 781 15 view .LVU726
 3035 001e 0133     		adds	r3, r3, #1
 3036              	.LVL164:
 3037              	.L217:
 777:smtc_modem_core/device_management/modem_context.c ****     {
 3038              		.loc 1 777 40 is_stmt 1 discriminator 2 view .LVU727
 777:smtc_modem_core/device_management/modem_context.c ****     {
 3039              		.loc 1 777 25 discriminator 2 view .LVU728
 3040 0020 0132     		adds	r2, r2, #1
 3041              	.LVL165:
 777:smtc_modem_core/device_management/modem_context.c ****     {
 3042              		.loc 1 777 5 is_stmt 0 discriminator 2 view .LVU729
 3043 0022 182A     		cmp	r2, #24
 3044 0024 F5D1     		bne	.L218
 777:smtc_modem_core/device_management/modem_context.c ****     {
 3045              		.loc 1 777 5 discriminator 2 view .LVU730
ARM GAS  /var/folders/bq/yv49bw8j2kd6w3hsq868qv180000gn/T//ccEK2k0g.s 			page 86


 3046              	.LBE88:
 784:smtc_modem_core/device_management/modem_context.c **** }
 3047              		.loc 1 784 5 is_stmt 1 view .LVU731
 784:smtc_modem_core/device_management/modem_context.c **** }
 3048              		.loc 1 784 14 is_stmt 0 view .LVU732
 3049 0026 181A     		subs	r0, r3, r0
 3050              	.LVL166:
 784:smtc_modem_core/device_management/modem_context.c **** }
 3051              		.loc 1 784 14 view .LVU733
 3052 0028 C0B2     		uxtb	r0, r0
 785:smtc_modem_core/device_management/modem_context.c **** 
 3053              		.loc 1 785 1 view .LVU734
 3054              		@ sp needed
 3055              	.LVL167:
 785:smtc_modem_core/device_management/modem_context.c **** 
 3056              		.loc 1 785 1 view .LVU735
 3057 002a 70BD     		pop	{r4, r5, r6, pc}
 3058              	.L225:
 3059              		.align	2
 3060              	.L224:
 3061 002c 00000000 		.word	.LANCHOR15
 3062 0030 00000000 		.word	.LANCHOR16
 3063              		.cfi_endproc
 3064              	.LFE67:
 3066              		.section	.text.set_modem_suspend,"ax",%progbits
 3067              		.align	1
 3068              		.global	set_modem_suspend
 3069              		.syntax unified
 3070              		.code	16
 3071              		.thumb_func
 3072              		.fpu softvfp
 3074              	set_modem_suspend:
 3075              	.LVL168:
 3076              	.LFB70:
 963:smtc_modem_core/device_management/modem_context.c ****     if( suspend > 1 )
 3077              		.loc 1 963 1 is_stmt 1 view -0
 3078              		.cfi_startproc
 3079              		@ args = 0, pretend = 0, frame = 0
 3080              		@ frame_needed = 0, uses_anonymous_args = 0
 964:smtc_modem_core/device_management/modem_context.c ****     {
 3081              		.loc 1 964 5 view .LVU737
 963:smtc_modem_core/device_management/modem_context.c ****     if( suspend > 1 )
 3082              		.loc 1 963 1 is_stmt 0 view .LVU738
 3083 0000 70B5     		push	{r4, r5, r6, lr}
 3084              		.cfi_def_cfa_offset 16
 3085              		.cfi_offset 4, -16
 3086              		.cfi_offset 5, -12
 3087              		.cfi_offset 6, -8
 3088              		.cfi_offset 14, -4
 966:smtc_modem_core/device_management/modem_context.c ****     }
 3089              		.loc 1 966 16 view .LVU739
 3090 0002 0024     		movs	r4, #0
 964:smtc_modem_core/device_management/modem_context.c ****     {
 3091              		.loc 1 964 7 view .LVU740
 3092 0004 0128     		cmp	r0, #1
 3093 0006 07D8     		bhi	.L227
 969:smtc_modem_core/device_management/modem_context.c ****     {
ARM GAS  /var/folders/bq/yv49bw8j2kd6w3hsq868qv180000gn/T//ccEK2k0g.s 			page 87


 3094              		.loc 1 969 5 is_stmt 1 view .LVU741
 3095 0008 074D     		ldr	r5, .L230
 969:smtc_modem_core/device_management/modem_context.c ****     {
 3096              		.loc 1 969 7 is_stmt 0 view .LVU742
 3097 000a A042     		cmp	r0, r4
 3098 000c 06D1     		bne	.L228
 971:smtc_modem_core/device_management/modem_context.c ****         is_modem_suspend = MODEM_NOT_SUSPEND;
 3099              		.loc 1 971 9 is_stmt 1 view .LVU743
 3100 000e 2000     		movs	r0, r4
 3101              	.LVL169:
 971:smtc_modem_core/device_management/modem_context.c ****         is_modem_suspend = MODEM_NOT_SUSPEND;
 3102              		.loc 1 971 9 is_stmt 0 view .LVU744
 3103 0010 FFF7FEFF 		bl	set_modem_status_radio_suspend
 3104              	.LVL170:
 972:smtc_modem_core/device_management/modem_context.c ****     }
 3105              		.loc 1 972 9 is_stmt 1 view .LVU745
 972:smtc_modem_core/device_management/modem_context.c ****     }
 3106              		.loc 1 972 26 is_stmt 0 view .LVU746
 3107 0014 2C70     		strb	r4, [r5]
 979:smtc_modem_core/device_management/modem_context.c **** }
 3108              		.loc 1 979 12 view .LVU747
 3109 0016 0134     		adds	r4, r4, #1
 3110              	.L227:
 980:smtc_modem_core/device_management/modem_context.c **** 
 3111              		.loc 1 980 1 view .LVU748
 3112 0018 2000     		movs	r0, r4
 3113              		@ sp needed
 3114 001a 70BD     		pop	{r4, r5, r6, pc}
 3115              	.LVL171:
 3116              	.L228:
 976:smtc_modem_core/device_management/modem_context.c ****         is_modem_suspend = MODEM_SUSPEND;
 3117              		.loc 1 976 9 is_stmt 1 view .LVU749
 977:smtc_modem_core/device_management/modem_context.c ****     }
 3118              		.loc 1 977 26 is_stmt 0 view .LVU750
 3119 001c 0124     		movs	r4, #1
 976:smtc_modem_core/device_management/modem_context.c ****         is_modem_suspend = MODEM_SUSPEND;
 3120              		.loc 1 976 9 view .LVU751
 3121 001e 0120     		movs	r0, #1
 3122              	.LVL172:
 976:smtc_modem_core/device_management/modem_context.c ****         is_modem_suspend = MODEM_SUSPEND;
 3123              		.loc 1 976 9 view .LVU752
 3124 0020 FFF7FEFF 		bl	set_modem_status_radio_suspend
 3125              	.LVL173:
 977:smtc_modem_core/device_management/modem_context.c ****     }
 3126              		.loc 1 977 9 is_stmt 1 view .LVU753
 977:smtc_modem_core/device_management/modem_context.c ****     }
 3127              		.loc 1 977 26 is_stmt 0 view .LVU754
 3128 0024 2C70     		strb	r4, [r5]
 3129 0026 F7E7     		b	.L227
 3130              	.L231:
 3131              		.align	2
 3132              	.L230:
 3133 0028 00000000 		.word	.LANCHOR17
 3134              		.cfi_endproc
 3135              	.LFE70:
 3137              		.section	.text.get_modem_suspend,"ax",%progbits
 3138              		.align	1
ARM GAS  /var/folders/bq/yv49bw8j2kd6w3hsq868qv180000gn/T//ccEK2k0g.s 			page 88


 3139              		.global	get_modem_suspend
 3140              		.syntax unified
 3141              		.code	16
 3142              		.thumb_func
 3143              		.fpu softvfp
 3145              	get_modem_suspend:
 3146              	.LFB71:
 983:smtc_modem_core/device_management/modem_context.c ****     return is_modem_suspend;
 3147              		.loc 1 983 1 is_stmt 1 view -0
 3148              		.cfi_startproc
 3149              		@ args = 0, pretend = 0, frame = 0
 3150              		@ frame_needed = 0, uses_anonymous_args = 0
 3151              		@ link register save eliminated.
 984:smtc_modem_core/device_management/modem_context.c **** }
 3152              		.loc 1 984 5 view .LVU756
 984:smtc_modem_core/device_management/modem_context.c **** }
 3153              		.loc 1 984 12 is_stmt 0 view .LVU757
 3154 0000 014B     		ldr	r3, .L233
 985:smtc_modem_core/device_management/modem_context.c **** 
 3155              		.loc 1 985 1 view .LVU758
 3156              		@ sp needed
 984:smtc_modem_core/device_management/modem_context.c **** }
 3157              		.loc 1 984 12 view .LVU759
 3158 0002 1878     		ldrb	r0, [r3]
 985:smtc_modem_core/device_management/modem_context.c **** 
 3159              		.loc 1 985 1 view .LVU760
 3160 0004 7047     		bx	lr
 3161              	.L234:
 3162 0006 C046     		.align	2
 3163              	.L233:
 3164 0008 00000000 		.word	.LANCHOR17
 3165              		.cfi_endproc
 3166              	.LFE71:
 3168              		.section	.rodata.set_modem_adr_profile.str1.1,"aMS",%progbits,1
 3169              	.LC108:
 3170 0000 75736572 		.ascii	"user_dr = %d and length = %d \012 \000"
 3170      5F647220 
 3170      3D202564 
 3170      20616E64 
 3170      206C656E 
 3171              	.LC111:
 3172 0020 434D445F 		.ascii	"CMD_SETADRPROFILE with not valid profile\012\000"
 3172      53455441 
 3172      44525052 
 3172      4F46494C 
 3172      45207769 
 3173              	.LC113:
 3174 004a 434D445F 		.ascii	"CMD_SETADRPROFILE with a bad DataRate value\012\000"
 3174      53455441 
 3174      44525052 
 3174      4F46494C 
 3174      45207769 
 3175              		.section	.text.set_modem_adr_profile,"ax",%progbits
 3176              		.align	1
 3177              		.global	set_modem_adr_profile
 3178              		.syntax unified
 3179              		.code	16
ARM GAS  /var/folders/bq/yv49bw8j2kd6w3hsq868qv180000gn/T//ccEK2k0g.s 			page 89


 3180              		.thumb_func
 3181              		.fpu softvfp
 3183              	set_modem_adr_profile:
 3184              	.LVL174:
 3185              	.LFB72:
 988:smtc_modem_core/device_management/modem_context.c ****     /* error case : 1) user_dr invalid
 3186              		.loc 1 988 1 is_stmt 1 view -0
 3187              		.cfi_startproc
 3188              		@ args = 0, pretend = 0, frame = 8
 3189              		@ frame_needed = 0, uses_anonymous_args = 0
 988:smtc_modem_core/device_management/modem_context.c ****     /* error case : 1) user_dr invalid
 3190              		.loc 1 988 1 is_stmt 0 view .LVU762
 3191 0000 F7B5     		push	{r0, r1, r2, r4, r5, r6, r7, lr}
 3192              		.cfi_def_cfa_offset 32
 3193              		.cfi_offset 0, -32
 3194              		.cfi_offset 1, -28
 3195              		.cfi_offset 2, -24
 3196              		.cfi_offset 4, -20
 3197              		.cfi_offset 5, -16
 3198              		.cfi_offset 6, -12
 3199              		.cfi_offset 7, -8
 3200              		.cfi_offset 14, -4
 988:smtc_modem_core/device_management/modem_context.c ****     /* error case : 1) user_dr invalid
 3201              		.loc 1 988 1 view .LVU763
 3202 0002 0400     		movs	r4, r0
 992:smtc_modem_core/device_management/modem_context.c ****         ( ( user_dr < USER_DR_DISTRIBUTION ) && ( adr_custom_length != 0 ) ) )
 3203              		.loc 1 992 5 is_stmt 1 view .LVU764
 988:smtc_modem_core/device_management/modem_context.c ****     /* error case : 1) user_dr invalid
 3204              		.loc 1 988 1 is_stmt 0 view .LVU765
 3205 0004 0F00     		movs	r7, r1
 3206 0006 1500     		movs	r5, r2
 992:smtc_modem_core/device_management/modem_context.c ****         ( ( user_dr < USER_DR_DISTRIBUTION ) && ( adr_custom_length != 0 ) ) )
 3207              		.loc 1 992 7 view .LVU766
 3208 0008 0328     		cmp	r0, #3
 3209 000a 21D8     		bhi	.L236
 992:smtc_modem_core/device_management/modem_context.c ****         ( ( user_dr < USER_DR_DISTRIBUTION ) && ( adr_custom_length != 0 ) ) )
 3210              		.loc 1 992 35 discriminator 1 view .LVU767
 3211 000c 1ED1     		bne	.L237
 992:smtc_modem_core/device_management/modem_context.c ****         ( ( user_dr < USER_DR_DISTRIBUTION ) && ( adr_custom_length != 0 ) ) )
 3212              		.loc 1 992 76 discriminator 2 view .LVU768
 3213 000e 102A     		cmp	r2, #16
 3214 0010 1ED1     		bne	.L236
 3215              	.LBB89:
1001:smtc_modem_core/device_management/modem_context.c ****         uint8_t  MaxDrTemp       = lorawan_api_max_dr_get( );
 3216              		.loc 1 1001 9 is_stmt 1 view .LVU769
1001:smtc_modem_core/device_management/modem_context.c ****         uint8_t  MaxDrTemp       = lorawan_api_max_dr_get( );
 3217              		.loc 1 1001 36 is_stmt 0 view .LVU770
 3218 0012 FFF7FEFF 		bl	lorawan_api_min_dr_get
 3219              	.LVL175:
1001:smtc_modem_core/device_management/modem_context.c ****         uint8_t  MaxDrTemp       = lorawan_api_max_dr_get( );
 3220              		.loc 1 1001 36 view .LVU771
 3221 0016 0190     		str	r0, [sp, #4]
 3222              	.LVL176:
1002:smtc_modem_core/device_management/modem_context.c ****         uint32_t adrDistribution = 0;
 3223              		.loc 1 1002 9 is_stmt 1 view .LVU772
1002:smtc_modem_core/device_management/modem_context.c ****         uint32_t adrDistribution = 0;
 3224              		.loc 1 1002 36 is_stmt 0 view .LVU773
ARM GAS  /var/folders/bq/yv49bw8j2kd6w3hsq868qv180000gn/T//ccEK2k0g.s 			page 90


 3225 0018 FFF7FEFF 		bl	lorawan_api_max_dr_get
 3226              	.LVL177:
1002:smtc_modem_core/device_management/modem_context.c ****         uint32_t adrDistribution = 0;
 3227              		.loc 1 1002 36 view .LVU774
 3228 001c 0F22     		movs	r2, #15
 3229 001e 0600     		movs	r6, r0
 3230              	.LVL178:
1003:smtc_modem_core/device_management/modem_context.c ****         for( uint8_t i = 0; i < 16; i++ )
 3231              		.loc 1 1003 9 is_stmt 1 view .LVU775
1004:smtc_modem_core/device_management/modem_context.c ****         {
 3232              		.loc 1 1004 9 view .LVU776
 3233              	.LBB90:
1004:smtc_modem_core/device_management/modem_context.c ****         {
 3234              		.loc 1 1004 14 view .LVU777
1004:smtc_modem_core/device_management/modem_context.c ****         {
 3235              		.loc 1 1004 29 view .LVU778
 3236              	.LBE90:
1003:smtc_modem_core/device_management/modem_context.c ****         for( uint8_t i = 0; i < 16; i++ )
 3237              		.loc 1 1003 18 is_stmt 0 view .LVU779
 3238 0020 0020     		movs	r0, #0
 3239              	.LVL179:
1003:smtc_modem_core/device_management/modem_context.c ****         for( uint8_t i = 0; i < 16; i++ )
 3240              		.loc 1 1003 18 view .LVU780
 3241 0022 3900     		movs	r1, r7
 3242 0024 1037     		adds	r7, r7, #16
 3243              	.LVL180:
 3244              	.L258:
 3245              	.LBB91:
1006:smtc_modem_core/device_management/modem_context.c ****             {
 3246              		.loc 1 1006 13 is_stmt 1 view .LVU781
1006:smtc_modem_core/device_management/modem_context.c ****             {
 3247              		.loc 1 1006 34 is_stmt 0 view .LVU782
 3248 0026 0B78     		ldrb	r3, [r1]
1006:smtc_modem_core/device_management/modem_context.c ****             {
 3249              		.loc 1 1006 15 view .LVU783
 3250 0028 019D     		ldr	r5, [sp, #4]
 3251 002a AB42     		cmp	r3, r5
 3252 002c 03D3     		bcc	.L241
1006:smtc_modem_core/device_management/modem_context.c ****             {
 3253              		.loc 1 1006 52 discriminator 1 view .LVU784
 3254 002e B342     		cmp	r3, r6
 3255 0030 01D8     		bhi	.L241
1006:smtc_modem_core/device_management/modem_context.c ****             {
 3256              		.loc 1 1006 90 discriminator 2 view .LVU785
 3257 0032 072B     		cmp	r3, #7
 3258 0034 2BD9     		bls	.L242
 3259              	.L241:
1008:smtc_modem_core/device_management/modem_context.c ****                 return SET_ERROR;
 3260              		.loc 1 1008 17 is_stmt 1 view .LVU786
1008:smtc_modem_core/device_management/modem_context.c ****                 return SET_ERROR;
 3261              		.loc 1 1008 17 view .LVU787
 3262 0036 3D48     		ldr	r0, .L273
 3263              	.LVL181:
1008:smtc_modem_core/device_management/modem_context.c ****                 return SET_ERROR;
 3264              		.loc 1 1008 17 is_stmt 0 view .LVU788
 3265 0038 FFF7FEFF 		bl	bsp_trace_print
 3266              	.LVL182:
ARM GAS  /var/folders/bq/yv49bw8j2kd6w3hsq868qv180000gn/T//ccEK2k0g.s 			page 91


1008:smtc_modem_core/device_management/modem_context.c ****                 return SET_ERROR;
 3267              		.loc 1 1008 17 is_stmt 1 view .LVU789
 3268 003c 3C48     		ldr	r0, .L273+4
 3269 003e FFF7FEFF 		bl	bsp_trace_print
 3270              	.LVL183:
1008:smtc_modem_core/device_management/modem_context.c ****                 return SET_ERROR;
 3271              		.loc 1 1008 17 view .LVU790
 3272 0042 3C48     		ldr	r0, .L273+8
 3273 0044 FFF7FEFF 		bl	bsp_trace_print
 3274              	.LVL184:
1008:smtc_modem_core/device_management/modem_context.c ****                 return SET_ERROR;
 3275              		.loc 1 1008 17 view .LVU791
 3276 0048 3B48     		ldr	r0, .L273+12
 3277 004a 1CE0     		b	.L272
 3278              	.LVL185:
 3279              	.L237:
1008:smtc_modem_core/device_management/modem_context.c ****                 return SET_ERROR;
 3280              		.loc 1 1008 17 is_stmt 0 view .LVU792
 3281              	.LBE91:
 3282              	.LBE89:
 993:smtc_modem_core/device_management/modem_context.c ****     {
 3283              		.loc 1 993 46 view .LVU793
 3284 004c 002A     		cmp	r2, #0
 3285 004e 2BD0     		beq	.L239
 3286              	.L236:
 995:smtc_modem_core/device_management/modem_context.c ****         BSP_DBG_TRACE_ERROR( "CMD_SETADRPROFILE with not valid profile\n" );
 3287              		.loc 1 995 9 is_stmt 1 view .LVU794
 995:smtc_modem_core/device_management/modem_context.c ****         BSP_DBG_TRACE_ERROR( "CMD_SETADRPROFILE with not valid profile\n" );
 3288              		.loc 1 995 9 view .LVU795
 3289 0050 364F     		ldr	r7, .L273
 3290 0052 3800     		movs	r0, r7
 3291              	.LVL186:
 995:smtc_modem_core/device_management/modem_context.c ****         BSP_DBG_TRACE_ERROR( "CMD_SETADRPROFILE with not valid profile\n" );
 3292              		.loc 1 995 9 is_stmt 0 view .LVU796
 3293 0054 FFF7FEFF 		bl	bsp_trace_print
 3294              	.LVL187:
 995:smtc_modem_core/device_management/modem_context.c ****         BSP_DBG_TRACE_ERROR( "CMD_SETADRPROFILE with not valid profile\n" );
 3295              		.loc 1 995 9 is_stmt 1 view .LVU797
 3296 0058 354E     		ldr	r6, .L273+4
 3297 005a 3000     		movs	r0, r6
 3298 005c FFF7FEFF 		bl	bsp_trace_print
 3299              	.LVL188:
 995:smtc_modem_core/device_management/modem_context.c ****         BSP_DBG_TRACE_ERROR( "CMD_SETADRPROFILE with not valid profile\n" );
 3300              		.loc 1 995 9 view .LVU798
 3301 0060 2100     		movs	r1, r4
 3302 0062 2A00     		movs	r2, r5
 3303 0064 3548     		ldr	r0, .L273+16
 3304 0066 FFF7FEFF 		bl	bsp_trace_print
 3305              	.LVL189:
 995:smtc_modem_core/device_management/modem_context.c ****         BSP_DBG_TRACE_ERROR( "CMD_SETADRPROFILE with not valid profile\n" );
 3306              		.loc 1 995 9 view .LVU799
 3307 006a 334C     		ldr	r4, .L273+12
 3308 006c 2000     		movs	r0, r4
 3309 006e FFF7FEFF 		bl	bsp_trace_print
 3310              	.LVL190:
 995:smtc_modem_core/device_management/modem_context.c ****         BSP_DBG_TRACE_ERROR( "CMD_SETADRPROFILE with not valid profile\n" );
 3311              		.loc 1 995 9 view .LVU800
ARM GAS  /var/folders/bq/yv49bw8j2kd6w3hsq868qv180000gn/T//ccEK2k0g.s 			page 92


 995:smtc_modem_core/device_management/modem_context.c ****         BSP_DBG_TRACE_ERROR( "CMD_SETADRPROFILE with not valid profile\n" );
 3312              		.loc 1 995 94 view .LVU801
 996:smtc_modem_core/device_management/modem_context.c ****         return SET_ERROR;
 3313              		.loc 1 996 9 view .LVU802
 996:smtc_modem_core/device_management/modem_context.c ****         return SET_ERROR;
 3314              		.loc 1 996 9 view .LVU803
 3315 0072 3800     		movs	r0, r7
 3316 0074 FFF7FEFF 		bl	bsp_trace_print
 3317              	.LVL191:
 996:smtc_modem_core/device_management/modem_context.c ****         return SET_ERROR;
 3318              		.loc 1 996 9 view .LVU804
 3319 0078 3000     		movs	r0, r6
 3320 007a FFF7FEFF 		bl	bsp_trace_print
 3321              	.LVL192:
 996:smtc_modem_core/device_management/modem_context.c ****         return SET_ERROR;
 3322              		.loc 1 996 9 view .LVU805
 3323 007e 3048     		ldr	r0, .L273+20
 3324 0080 FFF7FEFF 		bl	bsp_trace_print
 3325              	.LVL193:
 996:smtc_modem_core/device_management/modem_context.c ****         return SET_ERROR;
 3326              		.loc 1 996 9 view .LVU806
 3327 0084 2000     		movs	r0, r4
 3328              	.L272:
 3329              	.LBB95:
 3330              	.LBB92:
1008:smtc_modem_core/device_management/modem_context.c ****                 return SET_ERROR;
 3331              		.loc 1 1008 17 is_stmt 0 view .LVU807
 3332 0086 FFF7FEFF 		bl	bsp_trace_print
 3333              	.LVL194:
1008:smtc_modem_core/device_management/modem_context.c ****                 return SET_ERROR;
 3334              		.loc 1 1008 17 is_stmt 1 view .LVU808
1008:smtc_modem_core/device_management/modem_context.c ****                 return SET_ERROR;
 3335              		.loc 1 1008 87 view .LVU809
1009:smtc_modem_core/device_management/modem_context.c ****             }
 3336              		.loc 1 1009 17 view .LVU810
1009:smtc_modem_core/device_management/modem_context.c ****             }
 3337              		.loc 1 1009 24 is_stmt 0 view .LVU811
 3338 008a 0020     		movs	r0, #0
 3339              	.L240:
 3340              	.LBE92:
 3341              	.LBE95:
1049:smtc_modem_core/device_management/modem_context.c **** 
 3342              		.loc 1 1049 1 view .LVU812
 3343              		@ sp needed
 3344 008c FEBD     		pop	{r1, r2, r3, r4, r5, r6, r7, pc}
 3345              	.LVL195:
 3346              	.L242:
 3347              	.LBB96:
 3348              	.LBB93:
1011:smtc_modem_core/device_management/modem_context.c ****             {
 3349              		.loc 1 1011 13 is_stmt 1 view .LVU813
1011:smtc_modem_core/device_management/modem_context.c ****             {
 3350              		.loc 1 1011 15 is_stmt 0 view .LVU814
 3351 008e 002B     		cmp	r3, #0
 3352 0090 0FD1     		bne	.L243
1013:smtc_modem_core/device_management/modem_context.c ****             }
 3353              		.loc 1 1013 17 is_stmt 1 view .LVU815
ARM GAS  /var/folders/bq/yv49bw8j2kd6w3hsq868qv180000gn/T//ccEK2k0g.s 			page 93


1013:smtc_modem_core/device_management/modem_context.c ****             }
 3354              		.loc 1 1013 73 is_stmt 0 view .LVU816
 3355 0092 030F     		lsrs	r3, r0, #28
1013:smtc_modem_core/device_management/modem_context.c ****             }
 3356              		.loc 1 1013 104 view .LVU817
 3357 0094 0F3B     		subs	r3, r3, #15
 3358 0096 5D1E     		subs	r5, r3, #1
 3359 0098 AB41     		sbcs	r3, r3, r5
 3360 009a 1B07     		lsls	r3, r3, #28
 3361              	.L271:
1013:smtc_modem_core/device_management/modem_context.c ****             }
 3362              		.loc 1 1013 104 view .LVU818
 3363 009c 0131     		adds	r1, r1, #1
 3364              	.LVL196:
1041:smtc_modem_core/device_management/modem_context.c ****             }
 3365              		.loc 1 1041 33 view .LVU819
 3366 009e C018     		adds	r0, r0, r3
 3367              	.LVL197:
1004:smtc_modem_core/device_management/modem_context.c ****         {
 3368              		.loc 1 1004 37 is_stmt 1 view .LVU820
1004:smtc_modem_core/device_management/modem_context.c ****         {
 3369              		.loc 1 1004 29 view .LVU821
1004:smtc_modem_core/device_management/modem_context.c ****         {
 3370              		.loc 1 1004 9 is_stmt 0 view .LVU822
 3371 00a0 8F42     		cmp	r7, r1
 3372 00a2 C0D1     		bne	.L258
 3373              	.LBE93:
1044:smtc_modem_core/device_management/modem_context.c ****     }
 3374              		.loc 1 1044 9 is_stmt 1 view .LVU823
 3375 00a4 FFF7FEFF 		bl	lorawan_api_dr_custom_set
 3376              	.LVL198:
 3377              	.L239:
1044:smtc_modem_core/device_management/modem_context.c ****     }
 3378              		.loc 1 1044 9 is_stmt 0 view .LVU824
 3379              	.LBE96:
1046:smtc_modem_core/device_management/modem_context.c **** 
 3380              		.loc 1 1046 5 is_stmt 1 view .LVU825
 3381 00a8 2000     		movs	r0, r4
 3382 00aa FFF7FEFF 		bl	lorawan_api_dr_strategy_set
 3383              	.LVL199:
1048:smtc_modem_core/device_management/modem_context.c **** }
 3384              		.loc 1 1048 5 view .LVU826
1048:smtc_modem_core/device_management/modem_context.c **** }
 3385              		.loc 1 1048 12 is_stmt 0 view .LVU827
 3386 00ae 0120     		movs	r0, #1
 3387 00b0 ECE7     		b	.L240
 3388              	.LVL200:
 3389              	.L243:
 3390              	.LBB97:
 3391              	.LBB94:
1015:smtc_modem_core/device_management/modem_context.c ****             {
 3392              		.loc 1 1015 18 is_stmt 1 view .LVU828
1015:smtc_modem_core/device_management/modem_context.c ****             {
 3393              		.loc 1 1015 20 is_stmt 0 view .LVU829
 3394 00b2 012B     		cmp	r3, #1
 3395 00b4 06D1     		bne	.L246
1017:smtc_modem_core/device_management/modem_context.c ****             }
ARM GAS  /var/folders/bq/yv49bw8j2kd6w3hsq868qv180000gn/T//ccEK2k0g.s 			page 94


 3396              		.loc 1 1017 17 is_stmt 1 view .LVU830
1017:smtc_modem_core/device_management/modem_context.c ****             }
 3397              		.loc 1 1017 73 is_stmt 0 view .LVU831
 3398 00b6 030E     		lsrs	r3, r0, #24
 3399 00b8 1340     		ands	r3, r2
1017:smtc_modem_core/device_management/modem_context.c ****             }
 3400              		.loc 1 1017 104 view .LVU832
 3401 00ba 0F3B     		subs	r3, r3, #15
 3402 00bc 5D1E     		subs	r5, r3, #1
 3403 00be AB41     		sbcs	r3, r3, r5
 3404 00c0 1B06     		lsls	r3, r3, #24
 3405 00c2 EBE7     		b	.L271
 3406              	.L246:
1019:smtc_modem_core/device_management/modem_context.c ****             {
 3407              		.loc 1 1019 18 is_stmt 1 view .LVU833
1019:smtc_modem_core/device_management/modem_context.c ****             {
 3408              		.loc 1 1019 20 is_stmt 0 view .LVU834
 3409 00c4 022B     		cmp	r3, #2
 3410 00c6 06D1     		bne	.L248
1021:smtc_modem_core/device_management/modem_context.c ****             }
 3411              		.loc 1 1021 17 is_stmt 1 view .LVU835
1021:smtc_modem_core/device_management/modem_context.c ****             }
 3412              		.loc 1 1021 73 is_stmt 0 view .LVU836
 3413 00c8 030D     		lsrs	r3, r0, #20
 3414 00ca 1340     		ands	r3, r2
1021:smtc_modem_core/device_management/modem_context.c ****             }
 3415              		.loc 1 1021 104 view .LVU837
 3416 00cc 0F3B     		subs	r3, r3, #15
 3417 00ce 5D1E     		subs	r5, r3, #1
 3418 00d0 AB41     		sbcs	r3, r3, r5
 3419 00d2 1B05     		lsls	r3, r3, #20
 3420 00d4 E2E7     		b	.L271
 3421              	.L248:
1023:smtc_modem_core/device_management/modem_context.c ****             {
 3422              		.loc 1 1023 18 is_stmt 1 view .LVU838
1023:smtc_modem_core/device_management/modem_context.c ****             {
 3423              		.loc 1 1023 20 is_stmt 0 view .LVU839
 3424 00d6 032B     		cmp	r3, #3
 3425 00d8 06D1     		bne	.L250
1025:smtc_modem_core/device_management/modem_context.c ****             }
 3426              		.loc 1 1025 17 is_stmt 1 view .LVU840
1025:smtc_modem_core/device_management/modem_context.c ****             }
 3427              		.loc 1 1025 73 is_stmt 0 view .LVU841
 3428 00da 030C     		lsrs	r3, r0, #16
 3429 00dc 1340     		ands	r3, r2
1025:smtc_modem_core/device_management/modem_context.c ****             }
 3430              		.loc 1 1025 104 view .LVU842
 3431 00de 0F3B     		subs	r3, r3, #15
 3432 00e0 5D1E     		subs	r5, r3, #1
 3433 00e2 AB41     		sbcs	r3, r3, r5
 3434 00e4 1B04     		lsls	r3, r3, #16
 3435 00e6 D9E7     		b	.L271
 3436              	.L250:
1027:smtc_modem_core/device_management/modem_context.c ****             {
 3437              		.loc 1 1027 18 is_stmt 1 view .LVU843
1027:smtc_modem_core/device_management/modem_context.c ****             {
 3438              		.loc 1 1027 20 is_stmt 0 view .LVU844
ARM GAS  /var/folders/bq/yv49bw8j2kd6w3hsq868qv180000gn/T//ccEK2k0g.s 			page 95


 3439 00e8 042B     		cmp	r3, #4
 3440 00ea 06D1     		bne	.L252
1029:smtc_modem_core/device_management/modem_context.c ****             }
 3441              		.loc 1 1029 17 is_stmt 1 view .LVU845
1029:smtc_modem_core/device_management/modem_context.c ****             }
 3442              		.loc 1 1029 73 is_stmt 0 view .LVU846
 3443 00ec 030B     		lsrs	r3, r0, #12
 3444 00ee 1340     		ands	r3, r2
1029:smtc_modem_core/device_management/modem_context.c ****             }
 3445              		.loc 1 1029 104 view .LVU847
 3446 00f0 0F3B     		subs	r3, r3, #15
 3447 00f2 5D1E     		subs	r5, r3, #1
 3448 00f4 AB41     		sbcs	r3, r3, r5
 3449 00f6 1B03     		lsls	r3, r3, #12
 3450 00f8 D0E7     		b	.L271
 3451              	.L252:
1031:smtc_modem_core/device_management/modem_context.c ****             {
 3452              		.loc 1 1031 18 is_stmt 1 view .LVU848
1031:smtc_modem_core/device_management/modem_context.c ****             {
 3453              		.loc 1 1031 20 is_stmt 0 view .LVU849
 3454 00fa 052B     		cmp	r3, #5
 3455 00fc 06D1     		bne	.L254
1033:smtc_modem_core/device_management/modem_context.c ****             }
 3456              		.loc 1 1033 17 is_stmt 1 view .LVU850
1033:smtc_modem_core/device_management/modem_context.c ****             }
 3457              		.loc 1 1033 73 is_stmt 0 view .LVU851
 3458 00fe 030A     		lsrs	r3, r0, #8
 3459 0100 1340     		ands	r3, r2
1033:smtc_modem_core/device_management/modem_context.c ****             }
 3460              		.loc 1 1033 102 view .LVU852
 3461 0102 0F3B     		subs	r3, r3, #15
 3462 0104 5D1E     		subs	r5, r3, #1
 3463 0106 AB41     		sbcs	r3, r3, r5
 3464 0108 1B02     		lsls	r3, r3, #8
 3465 010a C7E7     		b	.L271
 3466              	.L254:
1035:smtc_modem_core/device_management/modem_context.c ****             {
 3467              		.loc 1 1035 18 is_stmt 1 view .LVU853
1035:smtc_modem_core/device_management/modem_context.c ****             {
 3468              		.loc 1 1035 20 is_stmt 0 view .LVU854
 3469 010c 062B     		cmp	r3, #6
 3470 010e 06D1     		bne	.L256
1037:smtc_modem_core/device_management/modem_context.c ****             }
 3471              		.loc 1 1037 17 is_stmt 1 view .LVU855
1037:smtc_modem_core/device_management/modem_context.c ****             }
 3472              		.loc 1 1037 73 is_stmt 0 view .LVU856
 3473 0110 0309     		lsrs	r3, r0, #4
 3474 0112 1340     		ands	r3, r2
1037:smtc_modem_core/device_management/modem_context.c ****             }
 3475              		.loc 1 1037 102 view .LVU857
 3476 0114 0F3B     		subs	r3, r3, #15
 3477 0116 5D1E     		subs	r5, r3, #1
 3478 0118 AB41     		sbcs	r3, r3, r5
 3479 011a 1B01     		lsls	r3, r3, #4
 3480 011c BEE7     		b	.L271
 3481              	.L256:
1039:smtc_modem_core/device_management/modem_context.c ****             {
ARM GAS  /var/folders/bq/yv49bw8j2kd6w3hsq868qv180000gn/T//ccEK2k0g.s 			page 96


 3482              		.loc 1 1039 18 is_stmt 1 view .LVU858
1041:smtc_modem_core/device_management/modem_context.c ****             }
 3483              		.loc 1 1041 17 view .LVU859
1041:smtc_modem_core/device_management/modem_context.c ****             }
 3484              		.loc 1 1041 58 is_stmt 0 view .LVU860
 3485 011e 0300     		movs	r3, r0
 3486 0120 1340     		ands	r3, r2
1041:smtc_modem_core/device_management/modem_context.c ****             }
 3487              		.loc 1 1041 88 view .LVU861
 3488 0122 0F3B     		subs	r3, r3, #15
 3489 0124 5D1E     		subs	r5, r3, #1
 3490 0126 AB41     		sbcs	r3, r3, r5
 3491 0128 B8E7     		b	.L271
 3492              	.L274:
 3493 012a C046     		.align	2
 3494              	.L273:
 3495 012c 00000000 		.word	.LC10
 3496 0130 08000000 		.word	.LC12
 3497 0134 4A000000 		.word	.LC113
 3498 0138 3E000000 		.word	.LC16
 3499 013c 00000000 		.word	.LC108
 3500 0140 20000000 		.word	.LC111
 3501              	.LBE94:
 3502              	.LBE97:
 3503              		.cfi_endproc
 3504              	.LFE72:
 3506              		.section	.rodata.set_modem_downlink_frame.str1.1,"aMS",%progbits,1
 3507              	.LC118:
 3508 0000 446F776E 		.ascii	"Downlink frame \000"
 3508      6C696E6B 
 3508      20667261 
 3508      6D652000 
 3509              	.LC120:
 3510 0010 2573202D 		.ascii	"%s - (%lu bytes):\012\000"
 3510      2028256C 
 3510      75206279 
 3510      74657329 
 3510      3A0A00
 3511              	.LC122:
 3512 0023 0A00     		.ascii	"\012\000"
 3513              	.LC124:
 3514 0025 20253032 		.ascii	" %02X\000"
 3514      5800
 3515              	.LC126:
 3516 002b 4D6F6465 		.ascii	"ModemDwnPort = %d , \000"
 3516      6D44776E 
 3516      506F7274 
 3516      203D2025 
 3516      64202C20 
 3517              	.LC128:
 3518 0040 4D6F6465 		.ascii	"ModemDwnSNR = %d , ModemDwnRssi = %d \012 \000"
 3518      6D44776E 
 3518      534E5220 
 3518      3D202564 
 3518      202C204D 
 3519              		.section	.text.set_modem_downlink_frame,"ax",%progbits
 3520              		.align	1
ARM GAS  /var/folders/bq/yv49bw8j2kd6w3hsq868qv180000gn/T//ccEK2k0g.s 			page 97


 3521              		.global	set_modem_downlink_frame
 3522              		.syntax unified
 3523              		.code	16
 3524              		.thumb_func
 3525              		.fpu softvfp
 3527              	set_modem_downlink_frame:
 3528              	.LFB73:
1052:smtc_modem_core/device_management/modem_context.c ****     lorawan_api_payload_receive( &( modem_dwn_pkt.port ), modem_dwn_pkt.data, &( modem_dwn_pkt.leng
 3529              		.loc 1 1052 1 is_stmt 1 view -0
 3530              		.cfi_startproc
 3531              		@ args = 0, pretend = 0, frame = 0
 3532              		@ frame_needed = 0, uses_anonymous_args = 0
1053:smtc_modem_core/device_management/modem_context.c ****     modem_dwn_pkt.timestamp = bsp_rtc_get_time_s( );
 3533              		.loc 1 1053 5 view .LVU863
1052:smtc_modem_core/device_management/modem_context.c ****     lorawan_api_payload_receive( &( modem_dwn_pkt.port ), modem_dwn_pkt.data, &( modem_dwn_pkt.leng
 3534              		.loc 1 1052 1 is_stmt 0 view .LVU864
 3535 0000 F8B5     		push	{r3, r4, r5, r6, r7, lr}
 3536              		.cfi_def_cfa_offset 24
 3537              		.cfi_offset 3, -24
 3538              		.cfi_offset 4, -20
 3539              		.cfi_offset 5, -16
 3540              		.cfi_offset 6, -12
 3541              		.cfi_offset 7, -8
 3542              		.cfi_offset 14, -4
1053:smtc_modem_core/device_management/modem_context.c ****     modem_dwn_pkt.timestamp = bsp_rtc_get_time_s( );
 3543              		.loc 1 1053 5 view .LVU865
 3544 0002 204C     		ldr	r4, .L282
 3545 0004 204E     		ldr	r6, .L282+4
 3546 0006 214A     		ldr	r2, .L282+8
 3547 0008 3100     		movs	r1, r6
 3548 000a 2000     		movs	r0, r4
 3549 000c FFF7FEFF 		bl	lorawan_api_payload_receive
 3550              	.LVL201:
1054:smtc_modem_core/device_management/modem_context.c ****     modem_dwn_pkt.snr       = lorawan_api_last_snr_get( ) >> 2;
 3551              		.loc 1 1054 5 is_stmt 1 view .LVU866
1054:smtc_modem_core/device_management/modem_context.c ****     modem_dwn_pkt.snr       = lorawan_api_last_snr_get( ) >> 2;
 3552              		.loc 1 1054 31 is_stmt 0 view .LVU867
 3553 0010 FFF7FEFF 		bl	bsp_rtc_get_time_s
 3554              	.LVL202:
1054:smtc_modem_core/device_management/modem_context.c ****     modem_dwn_pkt.snr       = lorawan_api_last_snr_get( ) >> 2;
 3555              		.loc 1 1054 29 view .LVU868
 3556 0014 2300     		movs	r3, r4
 3557 0016 FC33     		adds	r3, r3, #252
 3558 0018 D860     		str	r0, [r3, #12]
1055:smtc_modem_core/device_management/modem_context.c ****     modem_dwn_pkt.rssi      = lorawan_api_last_rssi_get( ) + 64;
 3559              		.loc 1 1055 5 is_stmt 1 view .LVU869
1055:smtc_modem_core/device_management/modem_context.c ****     modem_dwn_pkt.rssi      = lorawan_api_last_rssi_get( ) + 64;
 3560              		.loc 1 1055 29 is_stmt 0 view .LVU870
 3561 001a 2500     		movs	r5, r4
1055:smtc_modem_core/device_management/modem_context.c ****     modem_dwn_pkt.rssi      = lorawan_api_last_rssi_get( ) + 64;
 3562              		.loc 1 1055 31 view .LVU871
 3563 001c FFF7FEFF 		bl	lorawan_api_last_snr_get
 3564              	.LVL203:
1055:smtc_modem_core/device_management/modem_context.c ****     modem_dwn_pkt.rssi      = lorawan_api_last_rssi_get( ) + 64;
 3565              		.loc 1 1055 29 view .LVU872
 3566 0020 FE35     		adds	r5, r5, #254
 3567 0022 8010     		asrs	r0, r0, #2
ARM GAS  /var/folders/bq/yv49bw8j2kd6w3hsq868qv180000gn/T//ccEK2k0g.s 			page 98


 3568 0024 E880     		strh	r0, [r5, #6]
1056:smtc_modem_core/device_management/modem_context.c ****     BSP_DBG_TRACE_ARRAY( "Downlink frame ", modem_dwn_pkt.data, modem_dwn_pkt.length );
 3569              		.loc 1 1056 5 is_stmt 1 view .LVU873
1056:smtc_modem_core/device_management/modem_context.c ****     BSP_DBG_TRACE_ARRAY( "Downlink frame ", modem_dwn_pkt.data, modem_dwn_pkt.length );
 3570              		.loc 1 1056 31 is_stmt 0 view .LVU874
 3571 0026 FFF7FEFF 		bl	lorawan_api_last_rssi_get
 3572              	.LVL204:
1057:smtc_modem_core/device_management/modem_context.c ****     BSP_DBG_TRACE_PRINTF( "ModemDwnPort = %d , ", modem_dwn_pkt.port );
 3573              		.loc 1 1057 5 view .LVU875
 3574 002a 2300     		movs	r3, r4
1056:smtc_modem_core/device_management/modem_context.c ****     BSP_DBG_TRACE_ARRAY( "Downlink frame ", modem_dwn_pkt.data, modem_dwn_pkt.length );
 3575              		.loc 1 1056 60 view .LVU876
 3576 002c 4030     		adds	r0, r0, #64
1056:smtc_modem_core/device_management/modem_context.c ****     BSP_DBG_TRACE_ARRAY( "Downlink frame ", modem_dwn_pkt.data, modem_dwn_pkt.length );
 3577              		.loc 1 1056 29 view .LVU877
 3578 002e A880     		strh	r0, [r5, #4]
1057:smtc_modem_core/device_management/modem_context.c ****     BSP_DBG_TRACE_PRINTF( "ModemDwnPort = %d , ", modem_dwn_pkt.port );
 3579              		.loc 1 1057 5 is_stmt 1 view .LVU878
1057:smtc_modem_core/device_management/modem_context.c ****     BSP_DBG_TRACE_PRINTF( "ModemDwnPort = %d , ", modem_dwn_pkt.port );
 3580              		.loc 1 1057 5 view .LVU879
 3581 0030 FF33     		adds	r3, r3, #255
 3582 0032 5A78     		ldrb	r2, [r3, #1]
 3583 0034 1649     		ldr	r1, .L282+12
 3584 0036 1748     		ldr	r0, .L282+16
 3585 0038 FFF7FEFF 		bl	bsp_trace_print
 3586              	.LVL205:
1057:smtc_modem_core/device_management/modem_context.c ****     BSP_DBG_TRACE_PRINTF( "ModemDwnPort = %d , ", modem_dwn_pkt.port );
 3587              		.loc 1 1057 5 view .LVU880
 3588              	.LBB98:
1057:smtc_modem_core/device_management/modem_context.c ****     BSP_DBG_TRACE_PRINTF( "ModemDwnPort = %d , ", modem_dwn_pkt.port );
 3589              		.loc 1 1057 5 view .LVU881
1057:smtc_modem_core/device_management/modem_context.c ****     BSP_DBG_TRACE_PRINTF( "ModemDwnPort = %d , ", modem_dwn_pkt.port );
 3590              		.loc 1 1057 5 is_stmt 0 view .LVU882
 3591 003c 0025     		movs	r5, #0
 3592 003e 0F27     		movs	r7, #15
 3593              	.LVL206:
 3594              	.L276:
1057:smtc_modem_core/device_management/modem_context.c ****     BSP_DBG_TRACE_PRINTF( "ModemDwnPort = %d , ", modem_dwn_pkt.port );
 3595              		.loc 1 1057 5 is_stmt 1 discriminator 7 view .LVU883
 3596 0040 2300     		movs	r3, r4
 3597 0042 FF33     		adds	r3, r3, #255
 3598 0044 5B78     		ldrb	r3, [r3, #1]
 3599 0046 AB42     		cmp	r3, r5
 3600 0048 0FD8     		bhi	.L278
 3601              	.LBE98:
1057:smtc_modem_core/device_management/modem_context.c ****     BSP_DBG_TRACE_PRINTF( "ModemDwnPort = %d , ", modem_dwn_pkt.port );
 3602              		.loc 1 1057 5 discriminator 9 view .LVU884
 3603 004a 1348     		ldr	r0, .L282+20
 3604 004c FFF7FEFF 		bl	bsp_trace_print
 3605              	.LVL207:
1057:smtc_modem_core/device_management/modem_context.c ****     BSP_DBG_TRACE_PRINTF( "ModemDwnPort = %d , ", modem_dwn_pkt.port );
 3606              		.loc 1 1057 5 discriminator 9 view .LVU885
1057:smtc_modem_core/device_management/modem_context.c ****     BSP_DBG_TRACE_PRINTF( "ModemDwnPort = %d , ", modem_dwn_pkt.port );
 3607              		.loc 1 1057 87 discriminator 9 view .LVU886
1058:smtc_modem_core/device_management/modem_context.c ****     BSP_DBG_TRACE_PRINTF( "ModemDwnSNR = %d , ModemDwnRssi = %d \n ", modem_dwn_pkt.snr, modem_dwn_
 3608              		.loc 1 1058 5 discriminator 9 view .LVU887
 3609 0050 2178     		ldrb	r1, [r4]
ARM GAS  /var/folders/bq/yv49bw8j2kd6w3hsq868qv180000gn/T//ccEK2k0g.s 			page 99


 3610 0052 1248     		ldr	r0, .L282+24
1059:smtc_modem_core/device_management/modem_context.c **** }
 3611              		.loc 1 1059 5 is_stmt 0 discriminator 9 view .LVU888
 3612 0054 FE34     		adds	r4, r4, #254
1058:smtc_modem_core/device_management/modem_context.c ****     BSP_DBG_TRACE_PRINTF( "ModemDwnSNR = %d , ModemDwnRssi = %d \n ", modem_dwn_pkt.snr, modem_dwn_
 3613              		.loc 1 1058 5 discriminator 9 view .LVU889
 3614 0056 FFF7FEFF 		bl	bsp_trace_print
 3615              	.LVL208:
1059:smtc_modem_core/device_management/modem_context.c **** }
 3616              		.loc 1 1059 5 is_stmt 1 discriminator 9 view .LVU890
 3617 005a 0423     		movs	r3, #4
 3618 005c E25E     		ldrsh	r2, [r4, r3]
 3619 005e 0623     		movs	r3, #6
 3620 0060 E15E     		ldrsh	r1, [r4, r3]
 3621 0062 0F48     		ldr	r0, .L282+28
 3622 0064 FFF7FEFF 		bl	bsp_trace_print
 3623              	.LVL209:
1060:smtc_modem_core/device_management/modem_context.c **** void get_modem_downlink_frame( s_modem_dwn_t* modem_dwn_in )
 3624              		.loc 1 1060 1 is_stmt 0 discriminator 9 view .LVU891
 3625              		@ sp needed
 3626              	.LVL210:
1060:smtc_modem_core/device_management/modem_context.c **** void get_modem_downlink_frame( s_modem_dwn_t* modem_dwn_in )
 3627              		.loc 1 1060 1 discriminator 9 view .LVU892
 3628 0068 F8BD     		pop	{r3, r4, r5, r6, r7, pc}
 3629              	.LVL211:
 3630              	.L278:
 3631              	.LBB99:
1057:smtc_modem_core/device_management/modem_context.c ****     BSP_DBG_TRACE_PRINTF( "ModemDwnPort = %d , ", modem_dwn_pkt.port );
 3632              		.loc 1 1057 5 is_stmt 1 discriminator 8 view .LVU893
 3633 006a 3D42     		tst	r5, r7
 3634 006c 04D1     		bne	.L277
1057:smtc_modem_core/device_management/modem_context.c ****     BSP_DBG_TRACE_PRINTF( "ModemDwnPort = %d , ", modem_dwn_pkt.port );
 3635              		.loc 1 1057 5 is_stmt 0 discriminator 2 view .LVU894
 3636 006e 002D     		cmp	r5, #0
 3637 0070 02D0     		beq	.L277
1057:smtc_modem_core/device_management/modem_context.c ****     BSP_DBG_TRACE_PRINTF( "ModemDwnPort = %d , ", modem_dwn_pkt.port );
 3638              		.loc 1 1057 5 is_stmt 1 discriminator 4 view .LVU895
 3639 0072 0948     		ldr	r0, .L282+20
 3640 0074 FFF7FEFF 		bl	bsp_trace_print
 3641              	.LVL212:
 3642              	.L277:
1057:smtc_modem_core/device_management/modem_context.c ****     BSP_DBG_TRACE_PRINTF( "ModemDwnPort = %d , ", modem_dwn_pkt.port );
 3643              		.loc 1 1057 5 discriminator 6 view .LVU896
 3644 0078 715D     		ldrb	r1, [r6, r5]
 3645 007a 0A48     		ldr	r0, .L282+32
 3646 007c FFF7FEFF 		bl	bsp_trace_print
 3647              	.LVL213:
1057:smtc_modem_core/device_management/modem_context.c ****     BSP_DBG_TRACE_PRINTF( "ModemDwnPort = %d , ", modem_dwn_pkt.port );
 3648              		.loc 1 1057 5 discriminator 6 view .LVU897
 3649 0080 0135     		adds	r5, r5, #1
 3650              	.LVL214:
1057:smtc_modem_core/device_management/modem_context.c ****     BSP_DBG_TRACE_PRINTF( "ModemDwnPort = %d , ", modem_dwn_pkt.port );
 3651              		.loc 1 1057 5 is_stmt 0 discriminator 6 view .LVU898
 3652 0082 DDE7     		b	.L276
 3653              	.L283:
 3654              		.align	2
 3655              	.L282:
ARM GAS  /var/folders/bq/yv49bw8j2kd6w3hsq868qv180000gn/T//ccEK2k0g.s 			page 100


 3656 0084 00000000 		.word	modem_dwn_pkt
 3657 0088 01000000 		.word	modem_dwn_pkt+1
 3658 008c 00010000 		.word	modem_dwn_pkt+256
 3659 0090 00000000 		.word	.LC118
 3660 0094 10000000 		.word	.LC120
 3661 0098 23000000 		.word	.LC122
 3662 009c 2B000000 		.word	.LC126
 3663 00a0 40000000 		.word	.LC128
 3664 00a4 25000000 		.word	.LC124
 3665              	.LBE99:
 3666              		.cfi_endproc
 3667              	.LFE73:
 3669              		.section	.text.get_modem_downlink_frame,"ax",%progbits
 3670              		.align	1
 3671              		.global	get_modem_downlink_frame
 3672              		.syntax unified
 3673              		.code	16
 3674              		.thumb_func
 3675              		.fpu softvfp
 3677              	get_modem_downlink_frame:
 3678              	.LVL215:
 3679              	.LFB74:
1062:smtc_modem_core/device_management/modem_context.c ****     modem_dwn_in->timestamp = modem_dwn_pkt.timestamp;
 3680              		.loc 1 1062 1 is_stmt 1 view -0
 3681              		.cfi_startproc
 3682              		@ args = 0, pretend = 0, frame = 0
 3683              		@ frame_needed = 0, uses_anonymous_args = 0
1063:smtc_modem_core/device_management/modem_context.c ****     modem_dwn_in->snr       = modem_dwn_pkt.snr;
 3684              		.loc 1 1063 5 view .LVU900
1063:smtc_modem_core/device_management/modem_context.c ****     modem_dwn_in->snr       = modem_dwn_pkt.snr;
 3685              		.loc 1 1063 44 is_stmt 0 view .LVU901
 3686 0000 0F4B     		ldr	r3, .L285
1062:smtc_modem_core/device_management/modem_context.c ****     modem_dwn_in->timestamp = modem_dwn_pkt.timestamp;
 3687              		.loc 1 1062 1 view .LVU902
 3688 0002 10B5     		push	{r4, lr}
 3689              		.cfi_def_cfa_offset 8
 3690              		.cfi_offset 4, -8
 3691              		.cfi_offset 14, -4
1063:smtc_modem_core/device_management/modem_context.c ****     modem_dwn_in->snr       = modem_dwn_pkt.snr;
 3692              		.loc 1 1063 44 view .LVU903
 3693 0004 1A00     		movs	r2, r3
 3694 0006 FC32     		adds	r2, r2, #252
 3695 0008 D168     		ldr	r1, [r2, #12]
1063:smtc_modem_core/device_management/modem_context.c ****     modem_dwn_in->snr       = modem_dwn_pkt.snr;
 3696              		.loc 1 1063 29 view .LVU904
 3697 000a 0200     		movs	r2, r0
 3698 000c FC32     		adds	r2, r2, #252
 3699 000e D160     		str	r1, [r2, #12]
1064:smtc_modem_core/device_management/modem_context.c ****     modem_dwn_in->rssi      = modem_dwn_pkt.rssi;
 3700              		.loc 1 1064 5 is_stmt 1 view .LVU905
1064:smtc_modem_core/device_management/modem_context.c ****     modem_dwn_in->rssi      = modem_dwn_pkt.rssi;
 3701              		.loc 1 1064 44 is_stmt 0 view .LVU906
 3702 0010 1900     		movs	r1, r3
 3703 0012 FE31     		adds	r1, r1, #254
 3704 0014 0622     		movs	r2, #6
 3705 0016 8C5E     		ldrsh	r4, [r1, r2]
1064:smtc_modem_core/device_management/modem_context.c ****     modem_dwn_in->rssi      = modem_dwn_pkt.rssi;
ARM GAS  /var/folders/bq/yv49bw8j2kd6w3hsq868qv180000gn/T//ccEK2k0g.s 			page 101


 3706              		.loc 1 1064 29 view .LVU907
 3707 0018 0200     		movs	r2, r0
 3708 001a FE32     		adds	r2, r2, #254
 3709 001c D480     		strh	r4, [r2, #6]
1065:smtc_modem_core/device_management/modem_context.c ****     modem_dwn_in->port      = modem_dwn_pkt.port;
 3710              		.loc 1 1065 5 is_stmt 1 view .LVU908
1065:smtc_modem_core/device_management/modem_context.c ****     modem_dwn_in->port      = modem_dwn_pkt.port;
 3711              		.loc 1 1065 44 is_stmt 0 view .LVU909
 3712 001e 0424     		movs	r4, #4
 3713 0020 095F     		ldrsh	r1, [r1, r4]
1069:smtc_modem_core/device_management/modem_context.c **** 
 3714              		.loc 1 1069 1 view .LVU910
 3715              		@ sp needed
1065:smtc_modem_core/device_management/modem_context.c ****     modem_dwn_in->port      = modem_dwn_pkt.port;
 3716              		.loc 1 1065 29 view .LVU911
 3717 0022 9180     		strh	r1, [r2, #4]
1066:smtc_modem_core/device_management/modem_context.c ****     modem_dwn_in->length    = modem_dwn_pkt.length;
 3718              		.loc 1 1066 5 is_stmt 1 view .LVU912
1066:smtc_modem_core/device_management/modem_context.c ****     modem_dwn_in->length    = modem_dwn_pkt.length;
 3719              		.loc 1 1066 44 is_stmt 0 view .LVU913
 3720 0024 1A78     		ldrb	r2, [r3]
1067:smtc_modem_core/device_management/modem_context.c ****     memcpy( modem_dwn_in->data, modem_dwn_pkt.data, modem_dwn_pkt.length );
 3721              		.loc 1 1067 44 view .LVU914
 3722 0026 FF33     		adds	r3, r3, #255
1066:smtc_modem_core/device_management/modem_context.c ****     modem_dwn_in->length    = modem_dwn_pkt.length;
 3723              		.loc 1 1066 29 view .LVU915
 3724 0028 0270     		strb	r2, [r0]
1067:smtc_modem_core/device_management/modem_context.c ****     memcpy( modem_dwn_in->data, modem_dwn_pkt.data, modem_dwn_pkt.length );
 3725              		.loc 1 1067 5 is_stmt 1 view .LVU916
1067:smtc_modem_core/device_management/modem_context.c ****     memcpy( modem_dwn_in->data, modem_dwn_pkt.data, modem_dwn_pkt.length );
 3726              		.loc 1 1067 29 is_stmt 0 view .LVU917
 3727 002a 0200     		movs	r2, r0
1067:smtc_modem_core/device_management/modem_context.c ****     memcpy( modem_dwn_in->data, modem_dwn_pkt.data, modem_dwn_pkt.length );
 3728              		.loc 1 1067 44 view .LVU918
 3729 002c 5978     		ldrb	r1, [r3, #1]
1067:smtc_modem_core/device_management/modem_context.c ****     memcpy( modem_dwn_in->data, modem_dwn_pkt.data, modem_dwn_pkt.length );
 3730              		.loc 1 1067 29 view .LVU919
 3731 002e FF32     		adds	r2, r2, #255
 3732 0030 5170     		strb	r1, [r2, #1]
1068:smtc_modem_core/device_management/modem_context.c **** }
 3733              		.loc 1 1068 5 is_stmt 1 view .LVU920
 3734 0032 5A78     		ldrb	r2, [r3, #1]
 3735 0034 0349     		ldr	r1, .L285+4
1068:smtc_modem_core/device_management/modem_context.c **** }
 3736              		.loc 1 1068 25 is_stmt 0 view .LVU921
 3737 0036 0130     		adds	r0, r0, #1
 3738              	.LVL216:
1068:smtc_modem_core/device_management/modem_context.c **** }
 3739              		.loc 1 1068 5 view .LVU922
 3740 0038 FFF7FEFF 		bl	memcpy
 3741              	.LVL217:
1069:smtc_modem_core/device_management/modem_context.c **** 
 3742              		.loc 1 1069 1 view .LVU923
 3743 003c 10BD     		pop	{r4, pc}
 3744              	.L286:
 3745 003e C046     		.align	2
 3746              	.L285:
ARM GAS  /var/folders/bq/yv49bw8j2kd6w3hsq868qv180000gn/T//ccEK2k0g.s 			page 102


 3747 0040 00000000 		.word	modem_dwn_pkt
 3748 0044 01000000 		.word	modem_dwn_pkt+1
 3749              		.cfi_endproc
 3750              	.LFE74:
 3752              		.section	.rodata.dm_status_payload.str1.1,"aMS",%progbits,1
 3753              	.LC145:
 3754 0000 6D61785F 		.ascii	"max_size must be greater than the smallest requeste"
 3754      73697A65 
 3754      206D7573 
 3754      74206265 
 3754      20677265 
 3755 0033 6420696E 		.ascii	"d information\012\000"
 3755      666F726D 
 3755      6174696F 
 3755      6E0A00
 3756              	.LC148:
 3757 0042 63686563 		.ascii	"check_dm_status_max_size\012\000"
 3757      6B5F646D 
 3757      5F737461 
 3757      7475735F 
 3757      6D61785F 
 3758              	.LC152:
 3759 005c 436F6E73 		.ascii	"Construct DM payload report, unknown code 0x%02x\012"
 3759      74727563 
 3759      7420444D 
 3759      20706179 
 3759      6C6F6164 
 3760 008d 00       		.ascii	"\000"
 3761              		.section	.text.dm_status_payload,"ax",%progbits
 3762              		.align	1
 3763              		.global	dm_status_payload
 3764              		.syntax unified
 3765              		.code	16
 3766              		.thumb_func
 3767              		.fpu softvfp
 3769              	dm_status_payload:
 3770              	.LVL218:
 3771              	.LFB69:
 819:smtc_modem_core/device_management/modem_context.c ****     uint8_t* p_tmp = dm_uplink_message;
 3772              		.loc 1 819 1 is_stmt 1 view -0
 3773              		.cfi_startproc
 3774              		@ args = 0, pretend = 0, frame = 288
 3775              		@ frame_needed = 0, uses_anonymous_args = 0
 820:smtc_modem_core/device_management/modem_context.c ****     uint8_t* p     = dm_uplink_message;
 3776              		.loc 1 820 5 view .LVU925
 819:smtc_modem_core/device_management/modem_context.c ****     uint8_t* p_tmp = dm_uplink_message;
 3777              		.loc 1 819 1 is_stmt 0 view .LVU926
 3778 0000 F0B5     		push	{r4, r5, r6, r7, lr}
 3779              		.cfi_def_cfa_offset 20
 3780              		.cfi_offset 4, -20
 3781              		.cfi_offset 5, -16
 3782              		.cfi_offset 6, -12
 3783              		.cfi_offset 7, -8
 3784              		.cfi_offset 14, -4
 3785 0002 C9B0     		sub	sp, sp, #292
 3786              		.cfi_def_cfa_offset 312
 3787              	.LVL219:
ARM GAS  /var/folders/bq/yv49bw8j2kd6w3hsq868qv180000gn/T//ccEK2k0g.s 			page 103


 821:smtc_modem_core/device_management/modem_context.c ****     uint32_t info_requested;
 3788              		.loc 1 821 5 is_stmt 1 view .LVU927
 822:smtc_modem_core/device_management/modem_context.c ****     uint8_t* tag     = NULL;
 3789              		.loc 1 822 5 view .LVU928
 823:smtc_modem_core/device_management/modem_context.c ****     bool     pending = false;
 3790              		.loc 1 823 5 view .LVU929
 824:smtc_modem_core/device_management/modem_context.c **** 
 3791              		.loc 1 824 5 view .LVU930
 827:smtc_modem_core/device_management/modem_context.c ****     {
 3792              		.loc 1 827 5 view .LVU931
 819:smtc_modem_core/device_management/modem_context.c ****     uint8_t* p_tmp = dm_uplink_message;
 3793              		.loc 1 819 1 is_stmt 0 view .LVU932
 3794 0004 0190     		str	r0, [sp, #4]
 3795              	.LVL220:
 819:smtc_modem_core/device_management/modem_context.c ****     uint8_t* p_tmp = dm_uplink_message;
 3796              		.loc 1 819 1 view .LVU933
 3797 0006 0291     		str	r1, [sp, #8]
 3798 0008 0392     		str	r2, [sp, #12]
 827:smtc_modem_core/device_management/modem_context.c ****     {
 3799              		.loc 1 827 7 view .LVU934
 3800 000a 012B     		cmp	r3, #1
 3801 000c 2ED1     		bne	.L288
 829:smtc_modem_core/device_management/modem_context.c ****         tag            = &tag_number_now;
 3802              		.loc 1 829 9 is_stmt 1 view .LVU935
 829:smtc_modem_core/device_management/modem_context.c ****         tag            = &tag_number_now;
 3803              		.loc 1 829 24 is_stmt 0 view .LVU936
 3804 000e 694B     		ldr	r3, .L331
 3805              	.LVL221:
 830:smtc_modem_core/device_management/modem_context.c ****         // Used DM code in context
 3806              		.loc 1 830 24 view .LVU937
 3807 0010 694D     		ldr	r5, .L331+4
 829:smtc_modem_core/device_management/modem_context.c ****         tag            = &tag_number_now;
 3808              		.loc 1 829 24 view .LVU938
 3809 0012 1F68     		ldr	r7, [r3]
 3810              	.LVL222:
 830:smtc_modem_core/device_management/modem_context.c ****         // Used DM code in context
 3811              		.loc 1 830 9 is_stmt 1 view .LVU939
 3812              	.L289:
 839:smtc_modem_core/device_management/modem_context.c ****     {
 3813              		.loc 1 839 5 view .LVU940
 3814              	.LBB118:
 3815              	.LBI118:
 134:smtc_modem_core/device_management/modem_context.c **** {
 3816              		.loc 1 134 30 view .LVU941
 3817              	.LBE118:
 136:smtc_modem_core/device_management/modem_context.c ****     {
 3818              		.loc 1 136 5 view .LVU942
 3819              	.LBB123:
 3820              	.LBB119:
 136:smtc_modem_core/device_management/modem_context.c ****     {
 3821              		.loc 1 136 10 view .LVU943
 136:smtc_modem_core/device_management/modem_context.c ****     {
 3822              		.loc 1 136 25 view .LVU944
 3823              	.LBE119:
 3824              	.LBE123:
 836:smtc_modem_core/device_management/modem_context.c ****     }
 3825              		.loc 1 836 24 is_stmt 0 view .LVU945
ARM GAS  /var/folders/bq/yv49bw8j2kd6w3hsq868qv180000gn/T//ccEK2k0g.s 			page 104


 3826 0014 0023     		movs	r3, #0
 3827              	.LBB124:
 3828              	.LBB120:
 138:smtc_modem_core/device_management/modem_context.c ****         {
 3829              		.loc 1 138 36 view .LVU946
 3830 0016 0122     		movs	r2, #1
 3831              	.LVL223:
 140:smtc_modem_core/device_management/modem_context.c ****             {
 3832              		.loc 1 140 44 view .LVU947
 3833 0018 6849     		ldr	r1, .L331+8
 3834              	.LVL224:
 3835              	.L292:
 138:smtc_modem_core/device_management/modem_context.c ****         {
 3836              		.loc 1 138 9 is_stmt 1 view .LVU948
 138:smtc_modem_core/device_management/modem_context.c ****         {
 3837              		.loc 1 138 36 is_stmt 0 view .LVU949
 3838 001a 1000     		movs	r0, r2
 3839 001c 9840     		lsls	r0, r0, r3
 138:smtc_modem_core/device_management/modem_context.c ****         {
 3840              		.loc 1 138 11 view .LVU950
 3841 001e 0742     		tst	r7, r0
 3842 0020 28D0     		beq	.L290
 140:smtc_modem_core/device_management/modem_context.c ****             {
 3843              		.loc 1 140 13 is_stmt 1 view .LVU951
 140:smtc_modem_core/device_management/modem_context.c ****             {
 3844              		.loc 1 140 15 is_stmt 0 view .LVU952
 3845 0022 585C     		ldrb	r0, [r3, r1]
 3846 0024 039C     		ldr	r4, [sp, #12]
 3847 0026 A042     		cmp	r0, r4
 3848 0028 24D9     		bls	.L290
 142:smtc_modem_core/device_management/modem_context.c ****                     "max_size must be greater than the smallest requested "
 3849              		.loc 1 142 17 is_stmt 1 view .LVU953
 142:smtc_modem_core/device_management/modem_context.c ****                     "max_size must be greater than the smallest requested "
 3850              		.loc 1 142 17 view .LVU954
 3851              	.LBE120:
 3852              	.LBE124:
 841:smtc_modem_core/device_management/modem_context.c ****         BSP_DBG_TRACE_ERROR( "check_dm_status_max_size\n" );
 3853              		.loc 1 841 32 is_stmt 0 view .LVU955
 3854 002a 0024     		movs	r4, #0
 3855              	.LBB125:
 3856              	.LBB121:
 142:smtc_modem_core/device_management/modem_context.c ****                     "max_size must be greater than the smallest requested "
 3857              		.loc 1 142 17 view .LVU956
 3858 002c 644F     		ldr	r7, .L331+12
 3859              	.LVL225:
 142:smtc_modem_core/device_management/modem_context.c ****                     "max_size must be greater than the smallest requested "
 3860              		.loc 1 142 17 view .LVU957
 3861 002e 3800     		movs	r0, r7
 3862 0030 FFF7FEFF 		bl	bsp_trace_print
 3863              	.LVL226:
 142:smtc_modem_core/device_management/modem_context.c ****                     "max_size must be greater than the smallest requested "
 3864              		.loc 1 142 17 is_stmt 1 view .LVU958
 3865 0034 634E     		ldr	r6, .L331+16
 3866 0036 3000     		movs	r0, r6
 3867 0038 FFF7FEFF 		bl	bsp_trace_print
 3868              	.LVL227:
 142:smtc_modem_core/device_management/modem_context.c ****                     "max_size must be greater than the smallest requested "
ARM GAS  /var/folders/bq/yv49bw8j2kd6w3hsq868qv180000gn/T//ccEK2k0g.s 			page 105


 3869              		.loc 1 142 17 view .LVU959
 3870 003c 6248     		ldr	r0, .L331+20
 3871 003e FFF7FEFF 		bl	bsp_trace_print
 3872              	.LVL228:
 142:smtc_modem_core/device_management/modem_context.c ****                     "max_size must be greater than the smallest requested "
 3873              		.loc 1 142 17 view .LVU960
 3874 0042 624D     		ldr	r5, .L331+24
 3875              	.LVL229:
 142:smtc_modem_core/device_management/modem_context.c ****                     "max_size must be greater than the smallest requested "
 3876              		.loc 1 142 17 is_stmt 0 view .LVU961
 3877 0044 2800     		movs	r0, r5
 3878 0046 FFF7FEFF 		bl	bsp_trace_print
 3879              	.LVL230:
 142:smtc_modem_core/device_management/modem_context.c ****                     "max_size must be greater than the smallest requested "
 3880              		.loc 1 142 17 is_stmt 1 view .LVU962
 144:smtc_modem_core/device_management/modem_context.c ****                 return DM_CMD_LENGTH_NOT_VALID;
 3881              		.loc 1 144 38 view .LVU963
 145:smtc_modem_core/device_management/modem_context.c ****             }
 3882              		.loc 1 145 17 view .LVU964
 145:smtc_modem_core/device_management/modem_context.c ****             }
 3883              		.loc 1 145 17 is_stmt 0 view .LVU965
 3884              	.LBE121:
 3885              	.LBE125:
 841:smtc_modem_core/device_management/modem_context.c ****         BSP_DBG_TRACE_ERROR( "check_dm_status_max_size\n" );
 3886              		.loc 1 841 9 is_stmt 1 view .LVU966
 841:smtc_modem_core/device_management/modem_context.c ****         BSP_DBG_TRACE_ERROR( "check_dm_status_max_size\n" );
 3887              		.loc 1 841 32 is_stmt 0 view .LVU967
 3888 004a 029B     		ldr	r3, [sp, #8]
 842:smtc_modem_core/device_management/modem_context.c ****         return false;
 3889              		.loc 1 842 9 view .LVU968
 3890 004c 3800     		movs	r0, r7
 841:smtc_modem_core/device_management/modem_context.c ****         BSP_DBG_TRACE_ERROR( "check_dm_status_max_size\n" );
 3891              		.loc 1 841 32 view .LVU969
 3892 004e 1C70     		strb	r4, [r3]
 842:smtc_modem_core/device_management/modem_context.c ****         return false;
 3893              		.loc 1 842 9 is_stmt 1 view .LVU970
 842:smtc_modem_core/device_management/modem_context.c ****         return false;
 3894              		.loc 1 842 9 view .LVU971
 3895 0050 FFF7FEFF 		bl	bsp_trace_print
 3896              	.LVL231:
 842:smtc_modem_core/device_management/modem_context.c ****         return false;
 3897              		.loc 1 842 9 view .LVU972
 3898 0054 3000     		movs	r0, r6
 3899 0056 FFF7FEFF 		bl	bsp_trace_print
 3900              	.LVL232:
 842:smtc_modem_core/device_management/modem_context.c ****         return false;
 3901              		.loc 1 842 9 view .LVU973
 3902 005a 5D48     		ldr	r0, .L331+28
 3903 005c FFF7FEFF 		bl	bsp_trace_print
 3904              	.LVL233:
 842:smtc_modem_core/device_management/modem_context.c ****         return false;
 3905              		.loc 1 842 9 view .LVU974
 3906 0060 2800     		movs	r0, r5
 3907 0062 FFF7FEFF 		bl	bsp_trace_print
 3908              	.LVL234:
 842:smtc_modem_core/device_management/modem_context.c ****         return false;
 3909              		.loc 1 842 9 view .LVU975
ARM GAS  /var/folders/bq/yv49bw8j2kd6w3hsq868qv180000gn/T//ccEK2k0g.s 			page 106


 842:smtc_modem_core/device_management/modem_context.c ****         return false;
 3910              		.loc 1 842 60 view .LVU976
 843:smtc_modem_core/device_management/modem_context.c ****     }
 3911              		.loc 1 843 9 view .LVU977
 843:smtc_modem_core/device_management/modem_context.c ****     }
 3912              		.loc 1 843 16 is_stmt 0 view .LVU978
 3913 0066 2000     		movs	r0, r4
 3914              	.LVL235:
 3915              	.L291:
 960:smtc_modem_core/device_management/modem_context.c **** 
 3916              		.loc 1 960 1 view .LVU979
 3917 0068 49B0     		add	sp, sp, #292
 3918              		@ sp needed
 3919 006a F0BD     		pop	{r4, r5, r6, r7, pc}
 3920              	.LVL236:
 3921              	.L288:
 835:smtc_modem_core/device_management/modem_context.c ****         tag            = &tag_number;
 3922              		.loc 1 835 9 is_stmt 1 view .LVU980
 835:smtc_modem_core/device_management/modem_context.c ****         tag            = &tag_number;
 3923              		.loc 1 835 24 is_stmt 0 view .LVU981
 3924 006c 594B     		ldr	r3, .L331+32
 3925              	.LVL237:
 836:smtc_modem_core/device_management/modem_context.c ****     }
 3926              		.loc 1 836 24 view .LVU982
 3927 006e 5A4D     		ldr	r5, .L331+36
 835:smtc_modem_core/device_management/modem_context.c ****         tag            = &tag_number;
 3928              		.loc 1 835 24 view .LVU983
 3929 0070 1F68     		ldr	r7, [r3]
 3930              	.LVL238:
 836:smtc_modem_core/device_management/modem_context.c ****     }
 3931              		.loc 1 836 9 is_stmt 1 view .LVU984
 836:smtc_modem_core/device_management/modem_context.c ****     }
 3932              		.loc 1 836 9 is_stmt 0 view .LVU985
 3933 0072 CFE7     		b	.L289
 3934              	.LVL239:
 3935              	.L290:
 3936              	.LBB126:
 3937              	.LBB122:
 136:smtc_modem_core/device_management/modem_context.c ****     {
 3938              		.loc 1 136 40 is_stmt 1 view .LVU986
 136:smtc_modem_core/device_management/modem_context.c ****     {
 3939              		.loc 1 136 25 view .LVU987
 3940 0074 0133     		adds	r3, r3, #1
 3941              	.LVL240:
 136:smtc_modem_core/device_management/modem_context.c ****     {
 3942              		.loc 1 136 5 is_stmt 0 view .LVU988
 3943 0076 182B     		cmp	r3, #24
 3944 0078 CFD1     		bne	.L292
 3945              	.LVL241:
 136:smtc_modem_core/device_management/modem_context.c ****     {
 3946              		.loc 1 136 5 view .LVU989
 3947              	.LBE122:
 3948              	.LBE126:
 846:smtc_modem_core/device_management/modem_context.c ****     {
 3949              		.loc 1 846 5 is_stmt 1 view .LVU990
 846:smtc_modem_core/device_management/modem_context.c ****     {
 3950              		.loc 1 846 7 is_stmt 0 view .LVU991
ARM GAS  /var/folders/bq/yv49bw8j2kd6w3hsq868qv180000gn/T//ccEK2k0g.s 			page 107


 3951 007a 2B78     		ldrb	r3, [r5]
 3952 007c 172B     		cmp	r3, #23
 3953 007e 01D9     		bls	.L293
 848:smtc_modem_core/device_management/modem_context.c ****     }
 3954              		.loc 1 848 9 is_stmt 1 view .LVU992
 848:smtc_modem_core/device_management/modem_context.c ****     }
 3955              		.loc 1 848 14 is_stmt 0 view .LVU993
 3956 0080 0023     		movs	r3, #0
 3957 0082 2B70     		strb	r3, [r5]
 3958              	.L293:
 942:smtc_modem_core/device_management/modem_context.c ****             // Check if last message can be enqueued
 3959              		.loc 1 942 19 view .LVU994
 3960 0084 019C     		ldr	r4, [sp, #4]
 3961              	.L294:
 3962              	.LVL242:
 851:smtc_modem_core/device_management/modem_context.c ****     {
 3963              		.loc 1 851 10 is_stmt 1 view .LVU995
 851:smtc_modem_core/device_management/modem_context.c ****     {
 3964              		.loc 1 851 14 is_stmt 0 view .LVU996
 3965 0086 2878     		ldrb	r0, [r5]
 851:smtc_modem_core/device_management/modem_context.c ****     {
 3966              		.loc 1 851 10 view .LVU997
 3967 0088 1728     		cmp	r0, #23
 3968 008a 05D9     		bls	.L317
 824:smtc_modem_core/device_management/modem_context.c **** 
 3969              		.loc 1 824 14 view .LVU998
 3970 008c 0020     		movs	r0, #0
 3971              	.LVL243:
 3972              	.L316:
 958:smtc_modem_core/device_management/modem_context.c ****     return pending;
 3973              		.loc 1 958 5 is_stmt 1 view .LVU999
 958:smtc_modem_core/device_management/modem_context.c ****     return pending;
 3974              		.loc 1 958 32 is_stmt 0 view .LVU1000
 3975 008e 019B     		ldr	r3, [sp, #4]
 3976 0090 E41A     		subs	r4, r4, r3
 3977              	.LVL244:
 958:smtc_modem_core/device_management/modem_context.c ****     return pending;
 3978              		.loc 1 958 28 view .LVU1001
 3979 0092 029B     		ldr	r3, [sp, #8]
 3980 0094 1C70     		strb	r4, [r3]
 959:smtc_modem_core/device_management/modem_context.c **** }
 3981              		.loc 1 959 5 is_stmt 1 view .LVU1002
 959:smtc_modem_core/device_management/modem_context.c **** }
 3982              		.loc 1 959 12 is_stmt 0 view .LVU1003
 3983 0096 E7E7     		b	.L291
 3984              	.LVL245:
 3985              	.L317:
 855:smtc_modem_core/device_management/modem_context.c ****         {
 3986              		.loc 1 855 9 is_stmt 1 view .LVU1004
 855:smtc_modem_core/device_management/modem_context.c ****         {
 3987              		.loc 1 855 36 is_stmt 0 view .LVU1005
 3988 0098 0123     		movs	r3, #1
 3989 009a 8340     		lsls	r3, r3, r0
 855:smtc_modem_core/device_management/modem_context.c ****         {
 3990              		.loc 1 855 11 view .LVU1006
 3991 009c 1F42     		tst	r7, r3
 3992 009e 1ED0     		beq	.L295
ARM GAS  /var/folders/bq/yv49bw8j2kd6w3hsq868qv180000gn/T//ccEK2k0g.s 			page 108


 857:smtc_modem_core/device_management/modem_context.c ****             switch( *tag )
 3993              		.loc 1 857 13 is_stmt 1 view .LVU1007
 857:smtc_modem_core/device_management/modem_context.c ****             switch( *tag )
 3994              		.loc 1 857 19 is_stmt 0 view .LVU1008
 3995 00a0 661C     		adds	r6, r4, #1
 3996              	.LVL246:
 857:smtc_modem_core/device_management/modem_context.c ****             switch( *tag )
 3997              		.loc 1 857 22 view .LVU1009
 3998 00a2 2070     		strb	r0, [r4]
 858:smtc_modem_core/device_management/modem_context.c ****             {
 3999              		.loc 1 858 13 is_stmt 1 view .LVU1010
 4000 00a4 1628     		cmp	r0, #22
 4001 00a6 75D8     		bhi	.L296
 4002 00a8 FFF7FEFF 		bl	__gnu_thumb1_case_uqi
 4003              	.L298:
 4004 00ac 0C       		.byte	(.L315-.L298)/2
 4005 00ad 1D       		.byte	(.L314-.L298)/2
 4006 00ae 22       		.byte	(.L313-.L298)/2
 4007 00af 25       		.byte	(.L312-.L298)/2
 4008 00b0 28       		.byte	(.L311-.L298)/2
 4009 00b1 31       		.byte	(.L310-.L298)/2
 4010 00b2 38       		.byte	(.L309-.L298)/2
 4011 00b3 64       		.byte	(.L300-.L298)/2
 4012 00b4 46       		.byte	(.L308-.L298)/2
 4013 00b5 49       		.byte	(.L307-.L298)/2
 4014 00b6 4D       		.byte	(.L306-.L298)/2
 4015 00b7 51       		.byte	(.L305-.L298)/2
 4016 00b8 0F       		.byte	(.L302-.L298)/2
 4017 00b9 74       		.byte	(.L296-.L298)/2
 4018 00ba 74       		.byte	(.L296-.L298)/2
 4019 00bb 54       		.byte	(.L304-.L298)/2
 4020 00bc 5A       		.byte	(.L303-.L298)/2
 4021 00bd 0F       		.byte	(.L302-.L298)/2
 4022 00be 5E       		.byte	(.L301-.L298)/2
 4023 00bf 64       		.byte	(.L300-.L298)/2
 4024 00c0 74       		.byte	(.L296-.L298)/2
 4025 00c1 6A       		.byte	(.L299-.L298)/2
 4026 00c2 70       		.byte	(.L297-.L298)/2
 4027 00c3 00       		.p2align 1
 4028              	.L315:
 861:smtc_modem_core/device_management/modem_context.c ****                 break;
 4029              		.loc 1 861 17 view .LVU1011
 861:smtc_modem_core/device_management/modem_context.c ****                 break;
 4030              		.loc 1 861 26 is_stmt 0 view .LVU1012
 4031 00c4 FFF7FEFF 		bl	get_modem_status
 4032              	.LVL247:
 4033              	.L326:
 870:smtc_modem_core/device_management/modem_context.c ****                 break;
 4034              		.loc 1 870 24 view .LVU1013
 4035 00c8 6070     		strb	r0, [r4, #1]
 871:smtc_modem_core/device_management/modem_context.c ****             case e_inf_temp:
 4036              		.loc 1 871 17 is_stmt 1 view .LVU1014
 4037              	.L302:
 942:smtc_modem_core/device_management/modem_context.c ****             // Check if last message can be enqueued
 4038              		.loc 1 942 13 view .LVU1015
 942:smtc_modem_core/device_management/modem_context.c ****             // Check if last message can be enqueued
 4039              		.loc 1 942 38 is_stmt 0 view .LVU1016
ARM GAS  /var/folders/bq/yv49bw8j2kd6w3hsq868qv180000gn/T//ccEK2k0g.s 			page 109


 4040 00ca 3C4A     		ldr	r2, .L331+8
 942:smtc_modem_core/device_management/modem_context.c ****             // Check if last message can be enqueued
 4041              		.loc 1 942 39 view .LVU1017
 4042 00cc 2B78     		ldrb	r3, [r5]
 942:smtc_modem_core/device_management/modem_context.c ****             // Check if last message can be enqueued
 4043              		.loc 1 942 38 view .LVU1018
 4044 00ce D35C     		ldrb	r3, [r2, r3]
 944:smtc_modem_core/device_management/modem_context.c ****             {
 4045              		.loc 1 944 15 view .LVU1019
 4046 00d0 039A     		ldr	r2, [sp, #12]
 942:smtc_modem_core/device_management/modem_context.c ****             // Check if last message can be enqueued
 4047              		.loc 1 942 19 view .LVU1020
 4048 00d2 F618     		adds	r6, r6, r3
 4049              	.LVL248:
 944:smtc_modem_core/device_management/modem_context.c ****             {
 4050              		.loc 1 944 13 is_stmt 1 view .LVU1021
 944:smtc_modem_core/device_management/modem_context.c ****             {
 4051              		.loc 1 944 25 is_stmt 0 view .LVU1022
 4052 00d4 019B     		ldr	r3, [sp, #4]
 4053 00d6 F31A     		subs	r3, r6, r3
 944:smtc_modem_core/device_management/modem_context.c ****             {
 4054              		.loc 1 944 15 view .LVU1023
 4055 00d8 9342     		cmp	r3, r2
 4056 00da 69DC     		bgt	.L318
 942:smtc_modem_core/device_management/modem_context.c ****             // Check if last message can be enqueued
 4057              		.loc 1 942 19 view .LVU1024
 4058 00dc 3400     		movs	r4, r6
 4059              	.LVL249:
 4060              	.L295:
 955:smtc_modem_core/device_management/modem_context.c ****     }
 4061              		.loc 1 955 9 is_stmt 1 view .LVU1025
 955:smtc_modem_core/device_management/modem_context.c ****     }
 4062              		.loc 1 955 17 is_stmt 0 view .LVU1026
 4063 00de 2B78     		ldrb	r3, [r5]
 4064 00e0 0133     		adds	r3, r3, #1
 4065 00e2 2B70     		strb	r3, [r5]
 4066 00e4 CFE7     		b	.L294
 4067              	.LVL250:
 4068              	.L314:
 4069              	.LBB127:
 864:smtc_modem_core/device_management/modem_context.c ****                 *p_tmp          = charge & 0xFF;
 4070              		.loc 1 864 17 is_stmt 1 view .LVU1027
 864:smtc_modem_core/device_management/modem_context.c ****                 *p_tmp          = charge & 0xFF;
 4071              		.loc 1 864 35 is_stmt 0 view .LVU1028
 4072 00e6 FFF7FEFF 		bl	get_modem_charge_ma_h
 4073              	.LVL251:
 865:smtc_modem_core/device_management/modem_context.c ****                 *( p_tmp + 1 )  = ( charge >> 8 ) & 0xFF;
 4074              		.loc 1 865 17 is_stmt 1 view .LVU1029
 4075              	.L329:
 865:smtc_modem_core/device_management/modem_context.c ****                 *( p_tmp + 1 )  = ( charge >> 8 ) & 0xFF;
 4076              		.loc 1 865 17 is_stmt 0 view .LVU1030
 4077              	.LBE127:
 4078              	.LBB128:
 889:smtc_modem_core/device_management/modem_context.c ****                 *( p_tmp + 1 ) = time >> 8;
 4079              		.loc 1 889 17 is_stmt 1 view .LVU1031
 889:smtc_modem_core/device_management/modem_context.c ****                 *( p_tmp + 1 ) = time >> 8;
 4080              		.loc 1 889 32 is_stmt 0 view .LVU1032
ARM GAS  /var/folders/bq/yv49bw8j2kd6w3hsq868qv180000gn/T//ccEK2k0g.s 			page 110


 4081 00ea 6070     		strb	r0, [r4, #1]
 890:smtc_modem_core/device_management/modem_context.c ****             }
 4082              		.loc 1 890 17 is_stmt 1 view .LVU1033
 4083              	.LVL252:
 4084              	.L328:
 890:smtc_modem_core/device_management/modem_context.c ****             }
 4085              		.loc 1 890 17 is_stmt 0 view .LVU1034
 4086              	.LBE128:
 925:smtc_modem_core/device_management/modem_context.c ****                 break;
 4087              		.loc 1 925 32 view .LVU1035
 4088 00ec 000A     		lsrs	r0, r0, #8
 4089 00ee 0CE0     		b	.L327
 4090              	.L313:
 870:smtc_modem_core/device_management/modem_context.c ****                 break;
 4091              		.loc 1 870 17 is_stmt 1 view .LVU1036
 4092              	.LBB129:
 4093              	.LBI129:
 653:smtc_modem_core/device_management/modem_context.c **** {
 4094              		.loc 1 653 9 view .LVU1037
 4095              	.LBB130:
 655:smtc_modem_core/device_management/modem_context.c **** }
 4096              		.loc 1 655 5 view .LVU1038
 655:smtc_modem_core/device_management/modem_context.c **** }
 4097              		.loc 1 655 24 is_stmt 0 view .LVU1039
 4098 00f0 FFF7FEFF 		bl	bsp_mcu_get_mcu_voltage
 4099              	.LVL253:
 4100 00f4 E8E7     		b	.L326
 4101              	.L312:
 4102              	.LBE130:
 4103              	.LBE129:
 873:smtc_modem_core/device_management/modem_context.c ****                 break;
 4104              		.loc 1 873 17 is_stmt 1 view .LVU1040
 4105              	.LBB131:
 4106              	.LBI131:
 657:smtc_modem_core/device_management/modem_context.c **** {
 4107              		.loc 1 657 9 view .LVU1041
 4108              	.LBB132:
 659:smtc_modem_core/device_management/modem_context.c **** }
 4109              		.loc 1 659 5 view .LVU1042
 659:smtc_modem_core/device_management/modem_context.c **** }
 4110              		.loc 1 659 24 is_stmt 0 view .LVU1043
 4111 00f6 FFF7FEFF 		bl	bsp_mcu_get_mcu_temperature
 4112              	.LVL254:
 4113 00fa E5E7     		b	.L326
 4114              	.L311:
 4115              	.LBE132:
 4116              	.LBE131:
 876:smtc_modem_core/device_management/modem_context.c ****                 *( p_tmp + 1 ) = lorawan_api_last_snr_get( ) >> 2;   // strength of last downlink (
 4117              		.loc 1 876 17 is_stmt 1 view .LVU1044
 876:smtc_modem_core/device_management/modem_context.c ****                 *( p_tmp + 1 ) = lorawan_api_last_snr_get( ) >> 2;   // strength of last downlink (
 4118              		.loc 1 876 34 is_stmt 0 view .LVU1045
 4119 00fc FFF7FEFF 		bl	lorawan_api_last_rssi_get
 4120              	.LVL255:
 876:smtc_modem_core/device_management/modem_context.c ****                 *( p_tmp + 1 ) = lorawan_api_last_snr_get( ) >> 2;   // strength of last downlink (
 4121              		.loc 1 876 63 view .LVU1046
 4122 0100 4030     		adds	r0, r0, #64
 876:smtc_modem_core/device_management/modem_context.c ****                 *( p_tmp + 1 ) = lorawan_api_last_snr_get( ) >> 2;   // strength of last downlink (
ARM GAS  /var/folders/bq/yv49bw8j2kd6w3hsq868qv180000gn/T//ccEK2k0g.s 			page 111


 4123              		.loc 1 876 32 view .LVU1047
 4124 0102 6070     		strb	r0, [r4, #1]
 877:smtc_modem_core/device_management/modem_context.c ****                 break;
 4125              		.loc 1 877 17 is_stmt 1 view .LVU1048
 877:smtc_modem_core/device_management/modem_context.c ****                 break;
 4126              		.loc 1 877 34 is_stmt 0 view .LVU1049
 4127 0104 FFF7FEFF 		bl	lorawan_api_last_snr_get
 4128              	.LVL256:
 877:smtc_modem_core/device_management/modem_context.c ****                 break;
 4129              		.loc 1 877 32 view .LVU1050
 4130 0108 8010     		asrs	r0, r0, #2
 4131              	.L327:
 877:smtc_modem_core/device_management/modem_context.c ****                 break;
 4132              		.loc 1 877 32 view .LVU1051
 4133 010a A070     		strb	r0, [r4, #2]
 878:smtc_modem_core/device_management/modem_context.c ****             case e_inf_uptime: {
 4134              		.loc 1 878 17 is_stmt 1 view .LVU1052
 4135 010c DDE7     		b	.L302
 4136              	.L310:
 4137              	.LBB133:
 880:smtc_modem_core/device_management/modem_context.c ****                 *p_tmp         = time & 0xFF;
 4138              		.loc 1 880 17 view .LVU1053
 880:smtc_modem_core/device_management/modem_context.c ****                 *p_tmp         = time & 0xFF;
 4139              		.loc 1 880 34 is_stmt 0 view .LVU1054
 4140 010e FFF7FEFF 		bl	get_modem_uptime_s
 4141              	.LVL257:
 4142              	.L330:
 880:smtc_modem_core/device_management/modem_context.c ****                 *p_tmp         = time & 0xFF;
 4143              		.loc 1 880 34 view .LVU1055
 4144              	.LBE133:
 4145              	.LBB134:
 888:smtc_modem_core/device_management/modem_context.c ****                 *p_tmp         = time & 0xFF;
 4146              		.loc 1 888 26 view .LVU1056
 4147 0112 E121     		movs	r1, #225
 4148 0114 0901     		lsls	r1, r1, #4
 4149 0116 FFF7FEFF 		bl	__aeabi_uidiv
 4150              	.LVL258:
 4151 011a E6E7     		b	.L329
 4152              	.L309:
 886:smtc_modem_core/device_management/modem_context.c ****                 get_modem_downlink_frame( &dwnframe );
 4153              		.loc 1 886 17 is_stmt 1 view .LVU1057
 886:smtc_modem_core/device_management/modem_context.c ****                 get_modem_downlink_frame( &dwnframe );
 4154              		.loc 1 886 31 is_stmt 0 view .LVU1058
 4155 011c 8622     		movs	r2, #134
 4156 011e 0021     		movs	r1, #0
 4157 0120 5200     		lsls	r2, r2, #1
 4158 0122 05A8     		add	r0, sp, #20
 4159 0124 FFF7FEFF 		bl	memset
 4160              	.LVL259:
 887:smtc_modem_core/device_management/modem_context.c ****                 uint32_t time  = ( bsp_rtc_get_time_s( ) - dwnframe.timestamp ) / 3600;
 4161              		.loc 1 887 17 is_stmt 1 view .LVU1059
 4162 0128 05A8     		add	r0, sp, #20
 4163 012a FFF7FEFF 		bl	get_modem_downlink_frame
 4164              	.LVL260:
 888:smtc_modem_core/device_management/modem_context.c ****                 *p_tmp         = time & 0xFF;
 4165              		.loc 1 888 17 view .LVU1060
 888:smtc_modem_core/device_management/modem_context.c ****                 *p_tmp         = time & 0xFF;
ARM GAS  /var/folders/bq/yv49bw8j2kd6w3hsq868qv180000gn/T//ccEK2k0g.s 			page 112


 4166              		.loc 1 888 36 is_stmt 0 view .LVU1061
 4167 012e FFF7FEFF 		bl	bsp_rtc_get_time_s
 4168              	.LVL261:
 888:smtc_modem_core/device_management/modem_context.c ****                 *p_tmp         = time & 0xFF;
 4169              		.loc 1 888 58 view .LVU1062
 4170 0132 479B     		ldr	r3, [sp, #284]
 4171 0134 C01A     		subs	r0, r0, r3
 4172 0136 ECE7     		b	.L330
 4173              	.L308:
 4174              	.LBE134:
 899:smtc_modem_core/device_management/modem_context.c ****                 break;
 4175              		.loc 1 899 17 is_stmt 1 view .LVU1063
 899:smtc_modem_core/device_management/modem_context.c ****                 break;
 4176              		.loc 1 899 26 is_stmt 0 view .LVU1064
 4177 0138 FFF7FEFF 		bl	get_modem_adr
 4178              	.LVL262:
 4179 013c C4E7     		b	.L326
 4180              	.L307:
 902:smtc_modem_core/device_management/modem_context.c ****                 break;
 4181              		.loc 1 902 17 is_stmt 1 view .LVU1065
 4182 013e 3000     		movs	r0, r6
 4183 0140 FFF7FEFF 		bl	lorawan_api_appeui_key_get
 4184              	.LVL263:
 903:smtc_modem_core/device_management/modem_context.c ****             case e_inf_interval:
 4185              		.loc 1 903 17 view .LVU1066
 4186 0144 C1E7     		b	.L302
 4187              	.L306:
 905:smtc_modem_core/device_management/modem_context.c ****                 break;
 4188              		.loc 1 905 17 view .LVU1067
 4189              	.LBB135:
 4190              	.LBI135:
 310:smtc_modem_core/device_management/modem_context.c **** {
 4191              		.loc 1 310 9 view .LVU1068
 4192              	.LBB136:
 312:smtc_modem_core/device_management/modem_context.c **** }
 4193              		.loc 1 312 5 view .LVU1069
 312:smtc_modem_core/device_management/modem_context.c **** }
 4194              		.loc 1 312 12 is_stmt 0 view .LVU1070
 4195 0146 254B     		ldr	r3, .L331+40
 4196              	.LBE136:
 4197              	.LBE135:
 905:smtc_modem_core/device_management/modem_context.c ****                 break;
 4198              		.loc 1 905 24 view .LVU1071
 4199 0148 1B78     		ldrb	r3, [r3]
 4200 014a 6370     		strb	r3, [r4, #1]
 906:smtc_modem_core/device_management/modem_context.c ****             case e_inf_region:
 4201              		.loc 1 906 17 is_stmt 1 view .LVU1072
 4202 014c BDE7     		b	.L302
 4203              	.L305:
 908:smtc_modem_core/device_management/modem_context.c ****                 break;
 4204              		.loc 1 908 17 view .LVU1073
 4205              	.LBB137:
 4206              	.LBI137:
 397:smtc_modem_core/device_management/modem_context.c **** {
 4207              		.loc 1 397 9 view .LVU1074
 4208              	.LBB138:
 399:smtc_modem_core/device_management/modem_context.c **** }
ARM GAS  /var/folders/bq/yv49bw8j2kd6w3hsq868qv180000gn/T//ccEK2k0g.s 			page 113


 4209              		.loc 1 399 5 view .LVU1075
 399:smtc_modem_core/device_management/modem_context.c **** }
 4210              		.loc 1 399 12 is_stmt 0 view .LVU1076
 4211 014e FFF7FEFF 		bl	lorawan_api_get_region
 4212              	.LVL264:
 4213 0152 B9E7     		b	.L326
 4214              	.L304:
 4215              	.LBE138:
 4216              	.LBE137:
 914:smtc_modem_core/device_management/modem_context.c ****                 *( p_tmp + 1 ) = lorawan_api_nb_reset_get( ) >> 8;
 4217              		.loc 1 914 17 is_stmt 1 view .LVU1077
 914:smtc_modem_core/device_management/modem_context.c ****                 *( p_tmp + 1 ) = lorawan_api_nb_reset_get( ) >> 8;
 4218              		.loc 1 914 34 is_stmt 0 view .LVU1078
 4219 0154 FFF7FEFF 		bl	lorawan_api_nb_reset_get
 4220              	.LVL265:
 914:smtc_modem_core/device_management/modem_context.c ****                 *( p_tmp + 1 ) = lorawan_api_nb_reset_get( ) >> 8;
 4221              		.loc 1 914 32 view .LVU1079
 4222 0158 6070     		strb	r0, [r4, #1]
 915:smtc_modem_core/device_management/modem_context.c ****                 break;
 4223              		.loc 1 915 17 is_stmt 1 view .LVU1080
 915:smtc_modem_core/device_management/modem_context.c ****                 break;
 4224              		.loc 1 915 34 is_stmt 0 view .LVU1081
 4225 015a FFF7FEFF 		bl	lorawan_api_nb_reset_get
 4226              	.LVL266:
 4227 015e C5E7     		b	.L328
 4228              	.L303:
 918:smtc_modem_core/device_management/modem_context.c ****                 break;
 4229              		.loc 1 918 17 is_stmt 1 view .LVU1082
 4230 0160 3000     		movs	r0, r6
 4231 0162 FFF7FEFF 		bl	lorawan_api_deveui_get
 4232              	.LVL267:
 919:smtc_modem_core/device_management/modem_context.c ****             case e_inf_rfu_1:
 4233              		.loc 1 919 17 view .LVU1083
 4234 0166 B0E7     		b	.L302
 4235              	.L301:
 924:smtc_modem_core/device_management/modem_context.c ****                 *( p_tmp + 1 ) = lorawan_api_devnonce_get( ) >> 8;
 4236              		.loc 1 924 17 view .LVU1084
 924:smtc_modem_core/device_management/modem_context.c ****                 *( p_tmp + 1 ) = lorawan_api_devnonce_get( ) >> 8;
 4237              		.loc 1 924 34 is_stmt 0 view .LVU1085
 4238 0168 FFF7FEFF 		bl	lorawan_api_devnonce_get
 4239              	.LVL268:
 924:smtc_modem_core/device_management/modem_context.c ****                 *( p_tmp + 1 ) = lorawan_api_devnonce_get( ) >> 8;
 4240              		.loc 1 924 32 view .LVU1086
 4241 016c 6070     		strb	r0, [r4, #1]
 925:smtc_modem_core/device_management/modem_context.c ****                 break;
 4242              		.loc 1 925 17 is_stmt 1 view .LVU1087
 925:smtc_modem_core/device_management/modem_context.c ****                 break;
 4243              		.loc 1 925 34 is_stmt 0 view .LVU1088
 4244 016e FFF7FEFF 		bl	lorawan_api_devnonce_get
 4245              	.LVL269:
 4246 0172 BBE7     		b	.L328
 4247              	.L300:
 928:smtc_modem_core/device_management/modem_context.c ****                 break;
 4248              		.loc 1 928 17 is_stmt 1 view .LVU1089
 4249 0174 0822     		movs	r2, #8
 4250 0176 0021     		movs	r1, #0
 4251 0178 3000     		movs	r0, r6
ARM GAS  /var/folders/bq/yv49bw8j2kd6w3hsq868qv180000gn/T//ccEK2k0g.s 			page 114


 4252 017a FFF7FEFF 		bl	memset
 4253              	.LVL270:
 929:smtc_modem_core/device_management/modem_context.c ****             case e_inf_streampar:
 4254              		.loc 1 929 17 view .LVU1090
 4255 017e A4E7     		b	.L302
 4256              	.L299:
 931:smtc_modem_core/device_management/modem_context.c ****                 *( p_tmp + 1 ) = modem_get_stream_encryption( );
 4257              		.loc 1 931 17 view .LVU1091
 4258              	.LBB139:
 4259              	.LBI139:
1202:smtc_modem_core/device_management/modem_context.c **** {
 4260              		.loc 1 1202 9 view .LVU1092
 4261              	.LBB140:
 4262              		.loc 1 1204 5 view .LVU1093
 4263              		.loc 1 1204 32 is_stmt 0 view .LVU1094
 4264 0180 174B     		ldr	r3, .L331+44
 4265              	.LBE140:
 4266              	.LBE139:
 931:smtc_modem_core/device_management/modem_context.c ****                 *( p_tmp + 1 ) = modem_get_stream_encryption( );
 4267              		.loc 1 931 32 view .LVU1095
 4268 0182 1A78     		ldrb	r2, [r3]
 4269 0184 6270     		strb	r2, [r4, #1]
 932:smtc_modem_core/device_management/modem_context.c ****                 break;
 4270              		.loc 1 932 17 is_stmt 1 view .LVU1096
 4271              	.LBB141:
 4272              	.LBI141:
1205:smtc_modem_core/device_management/modem_context.c **** }
1206:smtc_modem_core/device_management/modem_context.c **** 
1207:smtc_modem_core/device_management/modem_context.c **** bool modem_get_stream_encryption( void )
 4273              		.loc 1 1207 6 view .LVU1097
 4274              	.LBB142:
1208:smtc_modem_core/device_management/modem_context.c **** {
1209:smtc_modem_core/device_management/modem_context.c ****     return ( modem_stream_state.encryption );
 4275              		.loc 1 1209 5 view .LVU1098
 4276              	.LBE142:
 4277              	.LBE141:
 932:smtc_modem_core/device_management/modem_context.c ****                 break;
 4278              		.loc 1 932 32 is_stmt 0 view .LVU1099
 4279 0186 9B78     		ldrb	r3, [r3, #2]
 4280 0188 A370     		strb	r3, [r4, #2]
 933:smtc_modem_core/device_management/modem_context.c ****             case e_inf_appstatus:
 4281              		.loc 1 933 17 is_stmt 1 view .LVU1100
 4282 018a 9EE7     		b	.L302
 4283              	.L297:
 935:smtc_modem_core/device_management/modem_context.c ****                 break;
 4284              		.loc 1 935 17 view .LVU1101
 4285 018c 3000     		movs	r0, r6
 4286 018e FFF7FEFF 		bl	get_modem_appstatus
 4287              	.LVL271:
 936:smtc_modem_core/device_management/modem_context.c ****             default:
 4288              		.loc 1 936 17 view .LVU1102
 4289 0192 9AE7     		b	.L302
 4290              	.L296:
 938:smtc_modem_core/device_management/modem_context.c ****                 break;
 4291              		.loc 1 938 17 view .LVU1103
 938:smtc_modem_core/device_management/modem_context.c ****                 break;
 4292              		.loc 1 938 17 view .LVU1104
ARM GAS  /var/folders/bq/yv49bw8j2kd6w3hsq868qv180000gn/T//ccEK2k0g.s 			page 115


 4293 0194 0A48     		ldr	r0, .L331+12
 4294 0196 FFF7FEFF 		bl	bsp_trace_print
 4295              	.LVL272:
 938:smtc_modem_core/device_management/modem_context.c ****                 break;
 4296              		.loc 1 938 17 view .LVU1105
 4297 019a 0A48     		ldr	r0, .L331+16
 4298 019c FFF7FEFF 		bl	bsp_trace_print
 4299              	.LVL273:
 938:smtc_modem_core/device_management/modem_context.c ****                 break;
 4300              		.loc 1 938 17 view .LVU1106
 4301 01a0 2978     		ldrb	r1, [r5]
 4302 01a2 1048     		ldr	r0, .L331+48
 4303 01a4 FFF7FEFF 		bl	bsp_trace_print
 4304              	.LVL274:
 938:smtc_modem_core/device_management/modem_context.c ****                 break;
 4305              		.loc 1 938 17 view .LVU1107
 4306 01a8 0848     		ldr	r0, .L331+24
 4307 01aa FFF7FEFF 		bl	bsp_trace_print
 4308              	.LVL275:
 938:smtc_modem_core/device_management/modem_context.c ****                 break;
 4309              		.loc 1 938 17 view .LVU1108
 938:smtc_modem_core/device_management/modem_context.c ****                 break;
 4310              		.loc 1 938 98 view .LVU1109
 939:smtc_modem_core/device_management/modem_context.c ****             }
 4311              		.loc 1 939 17 view .LVU1110
 4312 01ae 8CE7     		b	.L302
 4313              	.L318:
 951:smtc_modem_core/device_management/modem_context.c ****                 break;  // break for loop
 4314              		.loc 1 951 25 is_stmt 0 view .LVU1111
 4315 01b0 0120     		movs	r0, #1
 4316 01b2 6CE7     		b	.L316
 4317              	.L332:
 4318              		.align	2
 4319              	.L331:
 4320 01b4 00000000 		.word	.LANCHOR15
 4321 01b8 00000000 		.word	.LANCHOR18
 4322 01bc 00000000 		.word	.LANCHOR13
 4323 01c0 00000000 		.word	.LC10
 4324 01c4 08000000 		.word	.LC12
 4325 01c8 00000000 		.word	.LC145
 4326 01cc 3E000000 		.word	.LC16
 4327 01d0 42000000 		.word	.LC148
 4328 01d4 00000000 		.word	.LANCHOR16
 4329 01d8 00000000 		.word	.LANCHOR19
 4330 01dc 00000000 		.word	.LANCHOR6
 4331 01e0 00000000 		.word	.LANCHOR10
 4332 01e4 5C000000 		.word	.LC152
 4333              		.cfi_endproc
 4334              	.LFE69:
 4336              		.section	.text.set_dm_retrieve_pending_dl,"ax",%progbits
 4337              		.align	1
 4338              		.global	set_dm_retrieve_pending_dl
 4339              		.syntax unified
 4340              		.code	16
 4341              		.thumb_func
 4342              		.fpu softvfp
 4344              	set_dm_retrieve_pending_dl:
ARM GAS  /var/folders/bq/yv49bw8j2kd6w3hsq868qv180000gn/T//ccEK2k0g.s 			page 116


 4345              	.LVL276:
 4346              	.LFB75:
1072:smtc_modem_core/device_management/modem_context.c ****     dm_pending_dl.up_count = up_count;
 4347              		.loc 1 1072 1 is_stmt 1 view -0
 4348              		.cfi_startproc
 4349              		@ args = 0, pretend = 0, frame = 0
 4350              		@ frame_needed = 0, uses_anonymous_args = 0
 4351              		@ link register save eliminated.
1073:smtc_modem_core/device_management/modem_context.c ****     dm_pending_dl.up_delay = up_delay;
 4352              		.loc 1 1073 5 view .LVU1113
1073:smtc_modem_core/device_management/modem_context.c ****     dm_pending_dl.up_delay = up_delay;
 4353              		.loc 1 1073 28 is_stmt 0 view .LVU1114
 4354 0000 014B     		ldr	r3, .L334
1075:smtc_modem_core/device_management/modem_context.c **** 
 4355              		.loc 1 1075 1 view .LVU1115
 4356              		@ sp needed
1073:smtc_modem_core/device_management/modem_context.c ****     dm_pending_dl.up_delay = up_delay;
 4357              		.loc 1 1073 28 view .LVU1116
 4358 0002 1870     		strb	r0, [r3]
1074:smtc_modem_core/device_management/modem_context.c **** }
 4359              		.loc 1 1074 5 is_stmt 1 view .LVU1117
1074:smtc_modem_core/device_management/modem_context.c **** }
 4360              		.loc 1 1074 28 is_stmt 0 view .LVU1118
 4361 0004 5970     		strb	r1, [r3, #1]
1075:smtc_modem_core/device_management/modem_context.c **** 
 4362              		.loc 1 1075 1 view .LVU1119
 4363 0006 7047     		bx	lr
 4364              	.L335:
 4365              		.align	2
 4366              	.L334:
 4367 0008 00000000 		.word	.LANCHOR20
 4368              		.cfi_endproc
 4369              	.LFE75:
 4371              		.section	.text.get_dm_retrieve_pending_dl,"ax",%progbits
 4372              		.align	1
 4373              		.global	get_dm_retrieve_pending_dl
 4374              		.syntax unified
 4375              		.code	16
 4376              		.thumb_func
 4377              		.fpu softvfp
 4379              	get_dm_retrieve_pending_dl:
 4380              	.LVL277:
 4381              	.LFB76:
1078:smtc_modem_core/device_management/modem_context.c ****     pending_dl->up_count = dm_pending_dl.up_count;
 4382              		.loc 1 1078 1 is_stmt 1 view -0
 4383              		.cfi_startproc
 4384              		@ args = 0, pretend = 0, frame = 0
 4385              		@ frame_needed = 0, uses_anonymous_args = 0
 4386              		@ link register save eliminated.
1079:smtc_modem_core/device_management/modem_context.c ****     pending_dl->up_delay = dm_pending_dl.up_delay;
 4387              		.loc 1 1079 5 view .LVU1121
1079:smtc_modem_core/device_management/modem_context.c ****     pending_dl->up_delay = dm_pending_dl.up_delay;
 4388              		.loc 1 1079 41 is_stmt 0 view .LVU1122
 4389 0000 024B     		ldr	r3, .L337
1081:smtc_modem_core/device_management/modem_context.c **** 
 4390              		.loc 1 1081 1 view .LVU1123
 4391              		@ sp needed
ARM GAS  /var/folders/bq/yv49bw8j2kd6w3hsq868qv180000gn/T//ccEK2k0g.s 			page 117


1079:smtc_modem_core/device_management/modem_context.c ****     pending_dl->up_delay = dm_pending_dl.up_delay;
 4392              		.loc 1 1079 26 view .LVU1124
 4393 0002 1A78     		ldrb	r2, [r3]
 4394 0004 0270     		strb	r2, [r0]
1080:smtc_modem_core/device_management/modem_context.c **** }
 4395              		.loc 1 1080 5 is_stmt 1 view .LVU1125
1080:smtc_modem_core/device_management/modem_context.c **** }
 4396              		.loc 1 1080 26 is_stmt 0 view .LVU1126
 4397 0006 5B78     		ldrb	r3, [r3, #1]
 4398 0008 4370     		strb	r3, [r0, #1]
1081:smtc_modem_core/device_management/modem_context.c **** 
 4399              		.loc 1 1081 1 view .LVU1127
 4400 000a 7047     		bx	lr
 4401              	.L338:
 4402              		.align	2
 4403              	.L337:
 4404 000c 00000000 		.word	.LANCHOR20
 4405              		.cfi_endproc
 4406              	.LFE76:
 4408              		.section	.rodata.modem_context_factory_reset.str1.1,"aMS",%progbits,1
 4409              	.LC157:
 4410 0000 66616374 		.ascii	"factory reset buf1\000"
 4410      6F727920 
 4410      72657365 
 4410      74206275 
 4410      663100
 4411              	.LC162:
 4412 0013 66616374 		.ascii	"factory reset buf2\000"
 4412      6F727920 
 4412      72657365 
 4412      74206275 
 4412      663200
 4413              	.LC167:
 4414 0026 6D6F6465 		.ascii	"modem_context_factory_reset done\012\000"
 4414      6D5F636F 
 4414      6E746578 
 4414      745F6661 
 4414      63746F72 
 4415              		.section	.text.modem_context_factory_reset,"ax",%progbits
 4416              		.align	1
 4417              		.global	modem_context_factory_reset
 4418              		.syntax unified
 4419              		.code	16
 4420              		.thumb_func
 4421              		.fpu softvfp
 4423              	modem_context_factory_reset:
 4424              	.LFB79:
1152:smtc_modem_core/device_management/modem_context.c ****     uint8_t modem_context[BSP_MODEM_CONTEXT_SIZE];
 4425              		.loc 1 1152 1 is_stmt 1 view -0
 4426              		.cfi_startproc
 4427              		@ args = 0, pretend = 0, frame = 24
 4428              		@ frame_needed = 0, uses_anonymous_args = 0
1153:smtc_modem_core/device_management/modem_context.c ****     modem_context[0] = DEFAULT_DM_PORT;
 4429              		.loc 1 1153 5 view .LVU1129
1154:smtc_modem_core/device_management/modem_context.c ****     modem_context[1] = DEFAULT_DM_REPORTING_INTERVAL;
 4430              		.loc 1 1154 5 view .LVU1130
1155:smtc_modem_core/device_management/modem_context.c ****     // upload_sctr is not reinit in the factory reset to copy sub-ghz modem behaviour
ARM GAS  /var/folders/bq/yv49bw8j2kd6w3hsq868qv180000gn/T//ccEK2k0g.s 			page 118


 4431              		.loc 1 1155 5 view .LVU1131
1152:smtc_modem_core/device_management/modem_context.c ****     uint8_t modem_context[BSP_MODEM_CONTEXT_SIZE];
 4432              		.loc 1 1152 1 is_stmt 0 view .LVU1132
 4433 0000 F0B5     		push	{r4, r5, r6, r7, lr}
 4434              		.cfi_def_cfa_offset 20
 4435              		.cfi_offset 4, -20
 4436              		.cfi_offset 5, -16
 4437              		.cfi_offset 6, -12
 4438              		.cfi_offset 7, -8
 4439              		.cfi_offset 14, -4
1154:smtc_modem_core/device_management/modem_context.c ****     modem_context[1] = DEFAULT_DM_REPORTING_INTERVAL;
 4440              		.loc 1 1154 22 view .LVU1133
 4441 0002 2B4B     		ldr	r3, .L344
1152:smtc_modem_core/device_management/modem_context.c ****     uint8_t modem_context[BSP_MODEM_CONTEXT_SIZE];
 4442              		.loc 1 1152 1 view .LVU1134
 4443 0004 87B0     		sub	sp, sp, #28
 4444              		.cfi_def_cfa_offset 48
1154:smtc_modem_core/device_management/modem_context.c ****     modem_context[1] = DEFAULT_DM_REPORTING_INTERVAL;
 4445              		.loc 1 1154 22 view .LVU1135
 4446 0006 02AD     		add	r5, sp, #8
1158:smtc_modem_core/device_management/modem_context.c ****     modem_context[7] = DEFAULT_DM_MUTE_DAY;
 4447              		.loc 1 1158 5 view .LVU1136
 4448 0008 0B20     		movs	r0, #11
1154:smtc_modem_core/device_management/modem_context.c ****     modem_context[1] = DEFAULT_DM_REPORTING_INTERVAL;
 4449              		.loc 1 1154 22 view .LVU1137
 4450 000a 2B80     		strh	r3, [r5]
1157:smtc_modem_core/device_management/modem_context.c ****     memcpy( &modem_context[3], ( uint8_t* ) &dm_info_bitfield_periodic, sizeof( dm_info_bitfield_pe
 4451              		.loc 1 1157 5 is_stmt 1 view .LVU1138
1157:smtc_modem_core/device_management/modem_context.c ****     memcpy( &modem_context[3], ( uint8_t* ) &dm_info_bitfield_periodic, sizeof( dm_info_bitfield_pe
 4452              		.loc 1 1157 31 is_stmt 0 view .LVU1139
 4453 000c 7B23     		movs	r3, #123
1159:smtc_modem_core/device_management/modem_context.c **** 
 4454              		.loc 1 1159 22 view .LVU1140
 4455 000e 0024     		movs	r4, #0
1157:smtc_modem_core/device_management/modem_context.c ****     memcpy( &modem_context[3], ( uint8_t* ) &dm_info_bitfield_periodic, sizeof( dm_info_bitfield_pe
 4456              		.loc 1 1157 31 view .LVU1141
 4457 0010 2849     		ldr	r1, .L344+4
1158:smtc_modem_core/device_management/modem_context.c ****     modem_context[7] = DEFAULT_DM_MUTE_DAY;
 4458              		.loc 1 1158 5 view .LVU1142
 4459 0012 0422     		movs	r2, #4
 4460 0014 6844     		add	r0, r0, sp
1157:smtc_modem_core/device_management/modem_context.c ****     memcpy( &modem_context[3], ( uint8_t* ) &dm_info_bitfield_periodic, sizeof( dm_info_bitfield_pe
 4461              		.loc 1 1157 31 view .LVU1143
 4462 0016 0B60     		str	r3, [r1]
1158:smtc_modem_core/device_management/modem_context.c ****     modem_context[7] = DEFAULT_DM_MUTE_DAY;
 4463              		.loc 1 1158 5 is_stmt 1 view .LVU1144
 4464 0018 FFF7FEFF 		bl	memcpy
 4465              	.LVL278:
1159:smtc_modem_core/device_management/modem_context.c **** 
 4466              		.loc 1 1159 5 view .LVU1145
1162:smtc_modem_core/device_management/modem_context.c ****     BSP_DBG_TRACE_ARRAY( "factory reset buf1", modem_context, BSP_MODEM_CONTEXT_SIZE );
 4467              		.loc 1 1162 5 is_stmt 0 view .LVU1146
 4468 001c 0422     		movs	r2, #4
 4469 001e 6946     		mov	r1, sp
 4470 0020 04A8     		add	r0, sp, #16
1159:smtc_modem_core/device_management/modem_context.c **** 
 4471              		.loc 1 1159 22 view .LVU1147
ARM GAS  /var/folders/bq/yv49bw8j2kd6w3hsq868qv180000gn/T//ccEK2k0g.s 			page 119


 4472 0022 EC71     		strb	r4, [r5, #7]
1161:smtc_modem_core/device_management/modem_context.c ****     memcpy( &modem_context[8], ( uint8_t* ) &modem_charge, sizeof( modem_charge ) );
 4473              		.loc 1 1161 5 is_stmt 1 view .LVU1148
1161:smtc_modem_core/device_management/modem_context.c ****     memcpy( &modem_context[8], ( uint8_t* ) &modem_charge, sizeof( modem_charge ) );
 4474              		.loc 1 1161 14 is_stmt 0 view .LVU1149
 4475 0024 0094     		str	r4, [sp]
1162:smtc_modem_core/device_management/modem_context.c ****     BSP_DBG_TRACE_ARRAY( "factory reset buf1", modem_context, BSP_MODEM_CONTEXT_SIZE );
 4476              		.loc 1 1162 5 is_stmt 1 view .LVU1150
 4477 0026 FFF7FEFF 		bl	memcpy
 4478              	.LVL279:
1163:smtc_modem_core/device_management/modem_context.c **** 
 4479              		.loc 1 1163 5 view .LVU1151
1163:smtc_modem_core/device_management/modem_context.c **** 
 4480              		.loc 1 1163 5 view .LVU1152
 4481 002a 234F     		ldr	r7, .L344+8
 4482 002c 1022     		movs	r2, #16
 4483 002e 3800     		movs	r0, r7
 4484 0030 2249     		ldr	r1, .L344+12
 4485 0032 FFF7FEFF 		bl	bsp_trace_print
 4486              	.LVL280:
1163:smtc_modem_core/device_management/modem_context.c **** 
 4487              		.loc 1 1163 5 view .LVU1153
 4488              	.LBB143:
1163:smtc_modem_core/device_management/modem_context.c **** 
 4489              		.loc 1 1163 5 view .LVU1154
1163:smtc_modem_core/device_management/modem_context.c **** 
 4490              		.loc 1 1163 5 view .LVU1155
 4491              	.L340:
1163:smtc_modem_core/device_management/modem_context.c **** 
 4492              		.loc 1 1163 5 view .LVU1156
1163:smtc_modem_core/device_management/modem_context.c **** 
 4493              		.loc 1 1163 5 view .LVU1157
 4494 0036 295D     		ldrb	r1, [r5, r4]
 4495 0038 2148     		ldr	r0, .L344+16
 4496 003a 0134     		adds	r4, r4, #1
 4497              	.LVL281:
1163:smtc_modem_core/device_management/modem_context.c **** 
 4498              		.loc 1 1163 5 is_stmt 0 view .LVU1158
 4499 003c FFF7FEFF 		bl	bsp_trace_print
 4500              	.LVL282:
1163:smtc_modem_core/device_management/modem_context.c **** 
 4501              		.loc 1 1163 5 is_stmt 1 view .LVU1159
1163:smtc_modem_core/device_management/modem_context.c **** 
 4502              		.loc 1 1163 5 view .LVU1160
 4503 0040 102C     		cmp	r4, #16
 4504 0042 F8D1     		bne	.L340
 4505              	.LBE143:
1163:smtc_modem_core/device_management/modem_context.c **** 
 4506              		.loc 1 1163 5 discriminator 9 view .LVU1161
 4507 0044 1F4E     		ldr	r6, .L344+20
 4508 0046 3000     		movs	r0, r6
 4509 0048 FFF7FEFF 		bl	bsp_trace_print
 4510              	.LVL283:
1163:smtc_modem_core/device_management/modem_context.c **** 
 4511              		.loc 1 1163 5 discriminator 9 view .LVU1162
1163:smtc_modem_core/device_management/modem_context.c **** 
 4512              		.loc 1 1163 87 discriminator 9 view .LVU1163
ARM GAS  /var/folders/bq/yv49bw8j2kd6w3hsq868qv180000gn/T//ccEK2k0g.s 			page 120


1165:smtc_modem_core/device_management/modem_context.c ****     memcpy( &modem_context[BSP_MODEM_CONTEXT_SIZE - sizeof( crctmp )], ( uint8_t* ) &crctmp, sizeof
 4513              		.loc 1 1165 5 discriminator 9 view .LVU1164
1165:smtc_modem_core/device_management/modem_context.c ****     memcpy( &modem_context[BSP_MODEM_CONTEXT_SIZE - sizeof( crctmp )], ( uint8_t* ) &crctmp, sizeof
 4514              		.loc 1 1165 23 is_stmt 0 discriminator 9 view .LVU1165
 4515 004c 0C21     		movs	r1, #12
 4516 004e 2800     		movs	r0, r5
 4517 0050 FFF7FEFF 		bl	crc
 4518              	.LVL284:
1166:smtc_modem_core/device_management/modem_context.c **** 
 4519              		.loc 1 1166 5 discriminator 9 view .LVU1166
 4520 0054 0422     		movs	r2, #4
1165:smtc_modem_core/device_management/modem_context.c ****     memcpy( &modem_context[BSP_MODEM_CONTEXT_SIZE - sizeof( crctmp )], ( uint8_t* ) &crctmp, sizeof
 4521              		.loc 1 1165 14 discriminator 9 view .LVU1167
 4522 0056 0190     		str	r0, [sp, #4]
1166:smtc_modem_core/device_management/modem_context.c **** 
 4523              		.loc 1 1166 5 is_stmt 1 discriminator 9 view .LVU1168
 4524 0058 01A9     		add	r1, sp, #4
 4525 005a 05A8     		add	r0, sp, #20
 4526 005c FFF7FEFF 		bl	memcpy
 4527              	.LVL285:
1168:smtc_modem_core/device_management/modem_context.c **** 
 4528              		.loc 1 1168 5 discriminator 9 view .LVU1169
1168:smtc_modem_core/device_management/modem_context.c **** 
 4529              		.loc 1 1168 5 discriminator 9 view .LVU1170
 4530 0060 2200     		movs	r2, r4
 4531 0062 3800     		movs	r0, r7
 4532 0064 1849     		ldr	r1, .L344+24
 4533 0066 FFF7FEFF 		bl	bsp_trace_print
 4534              	.LVL286:
1168:smtc_modem_core/device_management/modem_context.c **** 
 4535              		.loc 1 1168 5 discriminator 9 view .LVU1171
 4536              	.LBB144:
1168:smtc_modem_core/device_management/modem_context.c **** 
 4537              		.loc 1 1168 5 discriminator 9 view .LVU1172
1168:smtc_modem_core/device_management/modem_context.c **** 
 4538              		.loc 1 1168 5 discriminator 9 view .LVU1173
 4539 006a 0024     		movs	r4, #0
 4540              	.LVL287:
 4541              	.L341:
1168:smtc_modem_core/device_management/modem_context.c **** 
 4542              		.loc 1 1168 5 view .LVU1174
1168:smtc_modem_core/device_management/modem_context.c **** 
 4543              		.loc 1 1168 5 view .LVU1175
 4544 006c 295D     		ldrb	r1, [r5, r4]
 4545 006e 1448     		ldr	r0, .L344+16
 4546 0070 0134     		adds	r4, r4, #1
 4547              	.LVL288:
1168:smtc_modem_core/device_management/modem_context.c **** 
 4548              		.loc 1 1168 5 is_stmt 0 view .LVU1176
 4549 0072 FFF7FEFF 		bl	bsp_trace_print
 4550              	.LVL289:
1168:smtc_modem_core/device_management/modem_context.c **** 
 4551              		.loc 1 1168 5 is_stmt 1 view .LVU1177
1168:smtc_modem_core/device_management/modem_context.c **** 
 4552              		.loc 1 1168 5 view .LVU1178
 4553 0076 102C     		cmp	r4, #16
 4554 0078 F8D1     		bne	.L341
ARM GAS  /var/folders/bq/yv49bw8j2kd6w3hsq868qv180000gn/T//ccEK2k0g.s 			page 121


 4555              	.LBE144:
1168:smtc_modem_core/device_management/modem_context.c **** 
 4556              		.loc 1 1168 5 discriminator 9 view .LVU1179
 4557 007a 3000     		movs	r0, r6
 4558 007c FFF7FEFF 		bl	bsp_trace_print
 4559              	.LVL290:
1168:smtc_modem_core/device_management/modem_context.c **** 
 4560              		.loc 1 1168 5 discriminator 9 view .LVU1180
1168:smtc_modem_core/device_management/modem_context.c **** 
 4561              		.loc 1 1168 87 discriminator 9 view .LVU1181
1170:smtc_modem_core/device_management/modem_context.c **** 
 4562              		.loc 1 1170 5 discriminator 9 view .LVU1182
 4563 0080 8020     		movs	r0, #128
 4564 0082 2900     		movs	r1, r5
 4565 0084 2200     		movs	r2, r4
 4566 0086 C000     		lsls	r0, r0, #3
 4567 0088 FFF7FEFF 		bl	bsp_nvm_context_store
 4568              	.LVL291:
1172:smtc_modem_core/device_management/modem_context.c ****     BSP_DBG_TRACE_INFO( "modem_context_factory_reset done\n" );
 4569              		.loc 1 1172 5 discriminator 9 view .LVU1183
1172:smtc_modem_core/device_management/modem_context.c ****     BSP_DBG_TRACE_INFO( "modem_context_factory_reset done\n" );
 4570              		.loc 1 1172 30 is_stmt 0 discriminator 9 view .LVU1184
 4571 008c 0122     		movs	r2, #1
 4572 008e 0F4B     		ldr	r3, .L344+28
1173:smtc_modem_core/device_management/modem_context.c **** }
 4573              		.loc 1 1173 5 discriminator 9 view .LVU1185
 4574 0090 0F48     		ldr	r0, .L344+32
1172:smtc_modem_core/device_management/modem_context.c ****     BSP_DBG_TRACE_INFO( "modem_context_factory_reset done\n" );
 4575              		.loc 1 1172 30 discriminator 9 view .LVU1186
 4576 0092 1A70     		strb	r2, [r3]
1173:smtc_modem_core/device_management/modem_context.c **** }
 4577              		.loc 1 1173 5 is_stmt 1 discriminator 9 view .LVU1187
1173:smtc_modem_core/device_management/modem_context.c **** }
 4578              		.loc 1 1173 5 discriminator 9 view .LVU1188
 4579 0094 FFF7FEFF 		bl	bsp_trace_print
 4580              	.LVL292:
1173:smtc_modem_core/device_management/modem_context.c **** }
 4581              		.loc 1 1173 5 discriminator 9 view .LVU1189
 4582 0098 0E48     		ldr	r0, .L344+36
 4583 009a FFF7FEFF 		bl	bsp_trace_print
 4584              	.LVL293:
1173:smtc_modem_core/device_management/modem_context.c **** }
 4585              		.loc 1 1173 5 discriminator 9 view .LVU1190
 4586 009e 0E48     		ldr	r0, .L344+40
 4587 00a0 FFF7FEFF 		bl	bsp_trace_print
 4588              	.LVL294:
1173:smtc_modem_core/device_management/modem_context.c **** }
 4589              		.loc 1 1173 5 discriminator 9 view .LVU1191
 4590 00a4 0D48     		ldr	r0, .L344+44
 4591 00a6 FFF7FEFF 		bl	bsp_trace_print
 4592              	.LVL295:
1173:smtc_modem_core/device_management/modem_context.c **** }
 4593              		.loc 1 1173 5 discriminator 9 view .LVU1192
1173:smtc_modem_core/device_management/modem_context.c **** }
 4594              		.loc 1 1173 63 discriminator 9 view .LVU1193
1174:smtc_modem_core/device_management/modem_context.c **** 
 4595              		.loc 1 1174 1 is_stmt 0 discriminator 9 view .LVU1194
ARM GAS  /var/folders/bq/yv49bw8j2kd6w3hsq868qv180000gn/T//ccEK2k0g.s 			page 122


 4596 00aa 07B0     		add	sp, sp, #28
 4597              		@ sp needed
 4598              	.LVL296:
1174:smtc_modem_core/device_management/modem_context.c **** 
 4599              		.loc 1 1174 1 discriminator 9 view .LVU1195
 4600 00ac F0BD     		pop	{r4, r5, r6, r7, pc}
 4601              	.L345:
 4602 00ae C046     		.align	2
 4603              	.L344:
 4604 00b0 C781FFFF 		.word	-32313
 4605 00b4 00000000 		.word	.LANCHOR16
 4606 00b8 10000000 		.word	.LC120
 4607 00bc 00000000 		.word	.LC157
 4608 00c0 25000000 		.word	.LC124
 4609 00c4 23000000 		.word	.LC122
 4610 00c8 13000000 		.word	.LC162
 4611 00cc 00000000 		.word	.LANCHOR21
 4612 00d0 43000000 		.word	.LC19
 4613 00d4 4B000000 		.word	.LC21
 4614 00d8 26000000 		.word	.LC167
 4615 00dc 3E000000 		.word	.LC16
 4616              		.cfi_endproc
 4617              	.LFE79:
 4619              		.section	.rodata.modem_load_context.str1.1,"aMS",%progbits,1
 4620              	.LC177:
 4621 0000 4D6F6465 		.ascii	"Modem Load Config :\012 Port = %d \012 Interval = %"
 4621      6D204C6F 
 4621      61642043 
 4621      6F6E6669 
 4621      67203A0A 
 4622 002d 640A2055 		.ascii	"d\012 Upload_sctr = %d\012 DM bitfield = 0x%lx\012 "
 4622      706C6F61 
 4622      645F7363 
 4622      7472203D 
 4622      2025640A 
 4623 0057 4E62206D 		.ascii	"Nb muted day = %u\012 Charge = %u\012\000"
 4623      75746564 
 4623      20646179 
 4623      203D2025 
 4623      750A2043 
 4624              	.LC181:
 4625 0077 52657374 		.ascii	"Restore Modem context fail => Factory Reset Modem\012"
 4625      6F726520 
 4625      4D6F6465 
 4625      6D20636F 
 4625      6E746578 
 4626 00a9 00       		.ascii	"\000"
 4627              	.LC184:
 4628 00aa 20636F6E 		.ascii	" context = \000"
 4628      74657874 
 4628      203D2000 
 4629              	.LC189:
 4630 00b6 20637263 		.ascii	" crctemp = %lx\000"
 4630      74656D70 
 4630      203D2025 
 4630      6C7800
 4631              		.section	.text.modem_load_context,"ax",%progbits
ARM GAS  /var/folders/bq/yv49bw8j2kd6w3hsq868qv180000gn/T//ccEK2k0g.s 			page 123


 4632              		.align	1
 4633              		.global	modem_load_context
 4634              		.syntax unified
 4635              		.code	16
 4636              		.thumb_func
 4637              		.fpu softvfp
 4639              	modem_load_context:
 4640              	.LFB78:
1113:smtc_modem_core/device_management/modem_context.c ****     uint8_t modem_context[BSP_MODEM_CONTEXT_SIZE] = { 0 };
 4641              		.loc 1 1113 1 is_stmt 1 view -0
 4642              		.cfi_startproc
 4643              		@ args = 0, pretend = 0, frame = 24
 4644              		@ frame_needed = 0, uses_anonymous_args = 0
1114:smtc_modem_core/device_management/modem_context.c **** 
 4645              		.loc 1 1114 5 view .LVU1197
1113:smtc_modem_core/device_management/modem_context.c ****     uint8_t modem_context[BSP_MODEM_CONTEXT_SIZE] = { 0 };
 4646              		.loc 1 1113 1 is_stmt 0 view .LVU1198
 4647 0000 F0B5     		push	{r4, r5, r6, r7, lr}
 4648              		.cfi_def_cfa_offset 20
 4649              		.cfi_offset 4, -20
 4650              		.cfi_offset 5, -16
 4651              		.cfi_offset 6, -12
 4652              		.cfi_offset 7, -8
 4653              		.cfi_offset 14, -4
1114:smtc_modem_core/device_management/modem_context.c **** 
 4654              		.loc 1 1114 13 view .LVU1199
 4655 0002 0025     		movs	r5, #0
1113:smtc_modem_core/device_management/modem_context.c ****     uint8_t modem_context[BSP_MODEM_CONTEXT_SIZE] = { 0 };
 4656              		.loc 1 1113 1 view .LVU1200
 4657 0004 8BB0     		sub	sp, sp, #44
 4658              		.cfi_def_cfa_offset 64
1114:smtc_modem_core/device_management/modem_context.c **** 
 4659              		.loc 1 1114 13 view .LVU1201
 4660 0006 0C22     		movs	r2, #12
 4661 0008 2900     		movs	r1, r5
 4662 000a 07A8     		add	r0, sp, #28
 4663 000c 0695     		str	r5, [sp, #24]
 4664 000e FFF7FEFF 		bl	memset
 4665              	.LVL297:
1116:smtc_modem_core/device_management/modem_context.c **** 
 4666              		.loc 1 1116 5 is_stmt 1 view .LVU1202
 4667 0012 8020     		movs	r0, #128
1114:smtc_modem_core/device_management/modem_context.c **** 
 4668              		.loc 1 1114 13 is_stmt 0 view .LVU1203
 4669 0014 06AC     		add	r4, sp, #24
1116:smtc_modem_core/device_management/modem_context.c **** 
 4670              		.loc 1 1116 5 view .LVU1204
 4671 0016 1022     		movs	r2, #16
 4672 0018 2100     		movs	r1, r4
 4673 001a C000     		lsls	r0, r0, #3
 4674 001c FFF7FEFF 		bl	bsp_nvm_context_restore
 4675              	.LVL298:
1118:smtc_modem_core/device_management/modem_context.c **** 
 4676              		.loc 1 1118 5 is_stmt 1 view .LVU1205
1118:smtc_modem_core/device_management/modem_context.c **** 
 4677              		.loc 1 1118 23 is_stmt 0 view .LVU1206
 4678 0020 0C21     		movs	r1, #12
ARM GAS  /var/folders/bq/yv49bw8j2kd6w3hsq868qv180000gn/T//ccEK2k0g.s 			page 124


 4679 0022 2000     		movs	r0, r4
 4680 0024 FFF7FEFF 		bl	crc
 4681              	.LVL299:
1120:smtc_modem_core/device_management/modem_context.c ****         0 )
 4682              		.loc 1 1120 9 view .LVU1207
 4683 0028 0422     		movs	r2, #4
1118:smtc_modem_core/device_management/modem_context.c **** 
 4684              		.loc 1 1118 14 view .LVU1208
 4685 002a 0590     		str	r0, [sp, #20]
1120:smtc_modem_core/device_management/modem_context.c ****         0 )
 4686              		.loc 1 1120 5 is_stmt 1 view .LVU1209
1120:smtc_modem_core/device_management/modem_context.c ****         0 )
 4687              		.loc 1 1120 9 is_stmt 0 view .LVU1210
 4688 002c 05A9     		add	r1, sp, #20
 4689 002e 09A8     		add	r0, sp, #36
 4690 0030 FFF7FEFF 		bl	memcmp
 4691              	.LVL300:
1120:smtc_modem_core/device_management/modem_context.c ****         0 )
 4692              		.loc 1 1120 7 view .LVU1211
 4693 0034 A842     		cmp	r0, r5
 4694 0036 2ED1     		bne	.L347
1123:smtc_modem_core/device_management/modem_context.c ****         modem_dm_interval    = modem_context[1];
 4695              		.loc 1 1123 9 is_stmt 1 view .LVU1212
1126:smtc_modem_core/device_management/modem_context.c ****         number_of_muted_day = modem_context[7];
 4696              		.loc 1 1126 9 is_stmt 0 view .LVU1213
 4697 0038 1B21     		movs	r1, #27
1123:smtc_modem_core/device_management/modem_context.c ****         modem_dm_interval    = modem_context[1];
 4698              		.loc 1 1123 30 view .LVU1214
 4699 003a 2378     		ldrb	r3, [r4]
 4700 003c 274A     		ldr	r2, .L352
1124:smtc_modem_core/device_management/modem_context.c ****         modem_dm_upload_sctr = modem_context[2];
 4701              		.loc 1 1124 30 view .LVU1215
 4702 003e 284E     		ldr	r6, .L352+4
1123:smtc_modem_core/device_management/modem_context.c ****         modem_dm_interval    = modem_context[1];
 4703              		.loc 1 1123 30 view .LVU1216
 4704 0040 1370     		strb	r3, [r2]
1124:smtc_modem_core/device_management/modem_context.c ****         modem_dm_upload_sctr = modem_context[2];
 4705              		.loc 1 1124 9 is_stmt 1 view .LVU1217
1124:smtc_modem_core/device_management/modem_context.c ****         modem_dm_upload_sctr = modem_context[2];
 4706              		.loc 1 1124 30 is_stmt 0 view .LVU1218
 4707 0042 6378     		ldrb	r3, [r4, #1]
1126:smtc_modem_core/device_management/modem_context.c ****         number_of_muted_day = modem_context[7];
 4708              		.loc 1 1126 9 view .LVU1219
 4709 0044 274D     		ldr	r5, .L352+8
1124:smtc_modem_core/device_management/modem_context.c ****         modem_dm_upload_sctr = modem_context[2];
 4710              		.loc 1 1124 30 view .LVU1220
 4711 0046 3370     		strb	r3, [r6]
1125:smtc_modem_core/device_management/modem_context.c ****         memcpy( ( uint8_t* ) ( &dm_info_bitfield_periodic ), &modem_context[3], sizeof( dm_info_bit
 4712              		.loc 1 1125 9 is_stmt 1 view .LVU1221
1125:smtc_modem_core/device_management/modem_context.c ****         memcpy( ( uint8_t* ) ( &dm_info_bitfield_periodic ), &modem_context[3], sizeof( dm_info_bit
 4713              		.loc 1 1125 30 is_stmt 0 view .LVU1222
 4714 0048 A378     		ldrb	r3, [r4, #2]
 4715 004a 274F     		ldr	r7, .L352+12
1126:smtc_modem_core/device_management/modem_context.c ****         number_of_muted_day = modem_context[7];
 4716              		.loc 1 1126 9 view .LVU1223
 4717 004c 0422     		movs	r2, #4
 4718 004e 2800     		movs	r0, r5
ARM GAS  /var/folders/bq/yv49bw8j2kd6w3hsq868qv180000gn/T//ccEK2k0g.s 			page 125


 4719 0050 6944     		add	r1, r1, sp
1125:smtc_modem_core/device_management/modem_context.c ****         memcpy( ( uint8_t* ) ( &dm_info_bitfield_periodic ), &modem_context[3], sizeof( dm_info_bit
 4720              		.loc 1 1125 30 view .LVU1224
 4721 0052 3B70     		strb	r3, [r7]
1126:smtc_modem_core/device_management/modem_context.c ****         number_of_muted_day = modem_context[7];
 4722              		.loc 1 1126 9 is_stmt 1 view .LVU1225
 4723 0054 FFF7FEFF 		bl	memcpy
 4724              	.LVL301:
1127:smtc_modem_core/device_management/modem_context.c **** 
 4725              		.loc 1 1127 9 view .LVU1226
1127:smtc_modem_core/device_management/modem_context.c **** 
 4726              		.loc 1 1127 29 is_stmt 0 view .LVU1227
 4727 0058 E279     		ldrb	r2, [r4, #7]
 4728 005a 244B     		ldr	r3, .L352+16
1129:smtc_modem_core/device_management/modem_context.c ****         {
 4729              		.loc 1 1129 36 view .LVU1228
 4730 005c 244C     		ldr	r4, .L352+20
1127:smtc_modem_core/device_management/modem_context.c **** 
 4731              		.loc 1 1127 29 view .LVU1229
 4732 005e 1A70     		strb	r2, [r3]
1129:smtc_modem_core/device_management/modem_context.c ****         {
 4733              		.loc 1 1129 9 is_stmt 1 view .LVU1230
1129:smtc_modem_core/device_management/modem_context.c ****         {
 4734              		.loc 1 1129 11 is_stmt 0 view .LVU1231
 4735 0060 2378     		ldrb	r3, [r4]
 4736 0062 002B     		cmp	r3, #0
 4737 0064 06D1     		bne	.L348
1131:smtc_modem_core/device_management/modem_context.c ****             is_modem_charge_loaded = true;
 4738              		.loc 1 1131 13 is_stmt 1 view .LVU1232
 4739 0066 0422     		movs	r2, #4
 4740 0068 2248     		ldr	r0, .L352+24
 4741 006a 08A9     		add	r1, sp, #32
 4742 006c FFF7FEFF 		bl	memcpy
 4743              	.LVL302:
1132:smtc_modem_core/device_management/modem_context.c ****         }
 4744              		.loc 1 1132 13 view .LVU1233
1132:smtc_modem_core/device_management/modem_context.c ****         }
 4745              		.loc 1 1132 36 is_stmt 0 view .LVU1234
 4746 0070 0123     		movs	r3, #1
 4747 0072 2370     		strb	r3, [r4]
 4748              	.L348:
1135:smtc_modem_core/device_management/modem_context.c ****             "Modem Load Config :\n Port = %d \n Interval = %d\n Upload_sctr = %d\n DM bitfield = 0x
 4749              		.loc 1 1135 9 is_stmt 1 view .LVU1235
 4750 0074 1F48     		ldr	r0, .L352+24
 4751 0076 1949     		ldr	r1, .L352
 4752 0078 0068     		ldr	r0, [r0]
 4753 007a 3B78     		ldrb	r3, [r7]
 4754 007c 3278     		ldrb	r2, [r6]
 4755 007e 0978     		ldrb	r1, [r1]
 4756 0080 0290     		str	r0, [sp, #8]
 4757 0082 1A48     		ldr	r0, .L352+16
 4758 0084 0078     		ldrb	r0, [r0]
 4759 0086 0190     		str	r0, [sp, #4]
 4760 0088 2868     		ldr	r0, [r5]
 4761 008a 0090     		str	r0, [sp]
 4762 008c 1A48     		ldr	r0, .L352+28
 4763 008e FFF7FEFF 		bl	bsp_trace_print
ARM GAS  /var/folders/bq/yv49bw8j2kd6w3hsq868qv180000gn/T//ccEK2k0g.s 			page 126


 4764              	.LVL303:
 4765              	.L346:
1149:smtc_modem_core/device_management/modem_context.c **** 
 4766              		.loc 1 1149 1 is_stmt 0 view .LVU1236
 4767 0092 0BB0     		add	sp, sp, #44
 4768              		@ sp needed
 4769 0094 F0BD     		pop	{r4, r5, r6, r7, pc}
 4770              	.L347:
1143:smtc_modem_core/device_management/modem_context.c ****         BSP_DBG_TRACE_ARRAY( " context = ", modem_context, BSP_MODEM_CONTEXT_SIZE )
 4771              		.loc 1 1143 9 is_stmt 1 view .LVU1237
1143:smtc_modem_core/device_management/modem_context.c ****         BSP_DBG_TRACE_ARRAY( " context = ", modem_context, BSP_MODEM_CONTEXT_SIZE )
 4772              		.loc 1 1143 9 view .LVU1238
 4773 0096 1948     		ldr	r0, .L352+32
 4774 0098 FFF7FEFF 		bl	bsp_trace_print
 4775              	.LVL304:
1143:smtc_modem_core/device_management/modem_context.c ****         BSP_DBG_TRACE_ARRAY( " context = ", modem_context, BSP_MODEM_CONTEXT_SIZE )
 4776              		.loc 1 1143 9 view .LVU1239
 4777 009c 1848     		ldr	r0, .L352+36
 4778 009e FFF7FEFF 		bl	bsp_trace_print
 4779              	.LVL305:
1143:smtc_modem_core/device_management/modem_context.c ****         BSP_DBG_TRACE_ARRAY( " context = ", modem_context, BSP_MODEM_CONTEXT_SIZE )
 4780              		.loc 1 1143 9 view .LVU1240
 4781 00a2 1848     		ldr	r0, .L352+40
 4782 00a4 FFF7FEFF 		bl	bsp_trace_print
 4783              	.LVL306:
1143:smtc_modem_core/device_management/modem_context.c ****         BSP_DBG_TRACE_ARRAY( " context = ", modem_context, BSP_MODEM_CONTEXT_SIZE )
 4784              		.loc 1 1143 9 view .LVU1241
 4785 00a8 1748     		ldr	r0, .L352+44
 4786 00aa FFF7FEFF 		bl	bsp_trace_print
 4787              	.LVL307:
1143:smtc_modem_core/device_management/modem_context.c ****         BSP_DBG_TRACE_ARRAY( " context = ", modem_context, BSP_MODEM_CONTEXT_SIZE )
 4788              		.loc 1 1143 9 view .LVU1242
1143:smtc_modem_core/device_management/modem_context.c ****         BSP_DBG_TRACE_ARRAY( " context = ", modem_context, BSP_MODEM_CONTEXT_SIZE )
 4789              		.loc 1 1143 85 view .LVU1243
1144:smtc_modem_core/device_management/modem_context.c ****         BSP_DBG_TRACE_PRINTF( " crctemp = %lx", crctmp );
 4790              		.loc 1 1144 9 view .LVU1244
1144:smtc_modem_core/device_management/modem_context.c ****         BSP_DBG_TRACE_PRINTF( " crctemp = %lx", crctmp );
 4791              		.loc 1 1144 9 view .LVU1245
 4792 00ae 1022     		movs	r2, #16
 4793 00b0 1649     		ldr	r1, .L352+48
 4794 00b2 1748     		ldr	r0, .L352+52
 4795 00b4 FFF7FEFF 		bl	bsp_trace_print
 4796              	.LVL308:
1144:smtc_modem_core/device_management/modem_context.c ****         BSP_DBG_TRACE_PRINTF( " crctemp = %lx", crctmp );
 4797              		.loc 1 1144 9 view .LVU1246
 4798              	.LBB145:
1144:smtc_modem_core/device_management/modem_context.c ****         BSP_DBG_TRACE_PRINTF( " crctemp = %lx", crctmp );
 4799              		.loc 1 1144 9 view .LVU1247
1144:smtc_modem_core/device_management/modem_context.c ****         BSP_DBG_TRACE_PRINTF( " crctemp = %lx", crctmp );
 4800              		.loc 1 1144 9 view .LVU1248
 4801              	.L350:
1144:smtc_modem_core/device_management/modem_context.c ****         BSP_DBG_TRACE_PRINTF( " crctemp = %lx", crctmp );
 4802              		.loc 1 1144 9 view .LVU1249
1144:smtc_modem_core/device_management/modem_context.c ****         BSP_DBG_TRACE_PRINTF( " crctemp = %lx", crctmp );
 4803              		.loc 1 1144 9 view .LVU1250
 4804 00b8 615D     		ldrb	r1, [r4, r5]
 4805 00ba 1648     		ldr	r0, .L352+56
ARM GAS  /var/folders/bq/yv49bw8j2kd6w3hsq868qv180000gn/T//ccEK2k0g.s 			page 127


 4806 00bc 0135     		adds	r5, r5, #1
 4807              	.LVL309:
1144:smtc_modem_core/device_management/modem_context.c ****         BSP_DBG_TRACE_PRINTF( " crctemp = %lx", crctmp );
 4808              		.loc 1 1144 9 is_stmt 0 view .LVU1251
 4809 00be FFF7FEFF 		bl	bsp_trace_print
 4810              	.LVL310:
1144:smtc_modem_core/device_management/modem_context.c ****         BSP_DBG_TRACE_PRINTF( " crctemp = %lx", crctmp );
 4811              		.loc 1 1144 9 is_stmt 1 view .LVU1252
1144:smtc_modem_core/device_management/modem_context.c ****         BSP_DBG_TRACE_PRINTF( " crctemp = %lx", crctmp );
 4812              		.loc 1 1144 9 view .LVU1253
 4813 00c2 102D     		cmp	r5, #16
 4814 00c4 F8D1     		bne	.L350
 4815              	.LBE145:
1144:smtc_modem_core/device_management/modem_context.c ****         BSP_DBG_TRACE_PRINTF( " crctemp = %lx", crctmp );
 4816              		.loc 1 1144 9 discriminator 9 view .LVU1254
 4817 00c6 1448     		ldr	r0, .L352+60
 4818 00c8 FFF7FEFF 		bl	bsp_trace_print
 4819              	.LVL311:
1144:smtc_modem_core/device_management/modem_context.c ****         BSP_DBG_TRACE_PRINTF( " crctemp = %lx", crctmp );
 4820              		.loc 1 1144 9 discriminator 9 view .LVU1255
1145:smtc_modem_core/device_management/modem_context.c **** 
 4821              		.loc 1 1145 9 discriminator 9 view .LVU1256
 4822 00cc 0599     		ldr	r1, [sp, #20]
 4823 00ce 1348     		ldr	r0, .L352+64
 4824 00d0 FFF7FEFF 		bl	bsp_trace_print
 4825              	.LVL312:
1147:smtc_modem_core/device_management/modem_context.c ****     }
 4826              		.loc 1 1147 9 discriminator 9 view .LVU1257
 4827 00d4 FFF7FEFF 		bl	modem_context_factory_reset
 4828              	.LVL313:
1149:smtc_modem_core/device_management/modem_context.c **** 
 4829              		.loc 1 1149 1 is_stmt 0 discriminator 9 view .LVU1258
 4830 00d8 DBE7     		b	.L346
 4831              	.L353:
 4832 00da C046     		.align	2
 4833              	.L352:
 4834 00dc 00000000 		.word	.LANCHOR8
 4835 00e0 00000000 		.word	.LANCHOR6
 4836 00e4 00000000 		.word	.LANCHOR16
 4837 00e8 00000000 		.word	.LANCHOR22
 4838 00ec 00000000 		.word	.LANCHOR14
 4839 00f0 00000000 		.word	.LANCHOR23
 4840 00f4 00000000 		.word	.LANCHOR12
 4841 00f8 00000000 		.word	.LC177
 4842 00fc 00000000 		.word	.LC10
 4843 0100 08000000 		.word	.LC12
 4844 0104 77000000 		.word	.LC181
 4845 0108 3E000000 		.word	.LC16
 4846 010c AA000000 		.word	.LC184
 4847 0110 10000000 		.word	.LC120
 4848 0114 25000000 		.word	.LC124
 4849 0118 23000000 		.word	.LC122
 4850 011c B6000000 		.word	.LC189
 4851              		.cfi_endproc
 4852              	.LFE78:
 4854              		.section	.rodata.modem_store_context.str1.1,"aMS",%progbits,1
 4855              	.LC196:
ARM GAS  /var/folders/bq/yv49bw8j2kd6w3hsq868qv180000gn/T//ccEK2k0g.s 			page 128


 4856 0000 53746F72 		.ascii	"Store a New Modem Config :\012 Port = %d \012 Inter"
 4856      65206120 
 4856      4E657720 
 4856      4D6F6465 
 4856      6D20436F 
 4857 002d 76616C20 		.ascii	"val = %d\012 Upload_sctr = %d\012 DM bitfield = 0x%"
 4857      3D202564 
 4857      0A205570 
 4857      6C6F6164 
 4857      5F736374 
 4858 005a 6C780A20 		.ascii	"lx\012 Nb muted day = %u\012 Charge = %u\012\000"
 4858      4E62206D 
 4858      75746564 
 4858      20646179 
 4858      203D2025 
 4859              		.section	.text.modem_store_context,"ax",%progbits
 4860              		.align	1
 4861              		.global	modem_store_context
 4862              		.syntax unified
 4863              		.code	16
 4864              		.thumb_func
 4865              		.fpu softvfp
 4867              	modem_store_context:
 4868              	.LFB77:
1084:smtc_modem_core/device_management/modem_context.c ****     uint8_t modem_context[BSP_MODEM_CONTEXT_SIZE] = { 0 };
 4869              		.loc 1 1084 1 is_stmt 1 view -0
 4870              		.cfi_startproc
 4871              		@ args = 0, pretend = 0, frame = 24
 4872              		@ frame_needed = 0, uses_anonymous_args = 0
1085:smtc_modem_core/device_management/modem_context.c ****     modem_context[0]                              = modem_dm_port;
 4873              		.loc 1 1085 5 view .LVU1260
1084:smtc_modem_core/device_management/modem_context.c ****     uint8_t modem_context[BSP_MODEM_CONTEXT_SIZE] = { 0 };
 4874              		.loc 1 1084 1 is_stmt 0 view .LVU1261
 4875 0000 F0B5     		push	{r4, r5, r6, r7, lr}
 4876              		.cfi_def_cfa_offset 20
 4877              		.cfi_offset 4, -20
 4878              		.cfi_offset 5, -16
 4879              		.cfi_offset 6, -12
 4880              		.cfi_offset 7, -8
 4881              		.cfi_offset 14, -4
1085:smtc_modem_core/device_management/modem_context.c ****     modem_context[0]                              = modem_dm_port;
 4882              		.loc 1 1085 13 view .LVU1262
 4883 0002 0C27     		movs	r7, #12
 4884 0004 0021     		movs	r1, #0
1084:smtc_modem_core/device_management/modem_context.c ****     uint8_t modem_context[BSP_MODEM_CONTEXT_SIZE] = { 0 };
 4885              		.loc 1 1084 1 view .LVU1263
 4886 0006 8BB0     		sub	sp, sp, #44
 4887              		.cfi_def_cfa_offset 64
1085:smtc_modem_core/device_management/modem_context.c ****     modem_context[0]                              = modem_dm_port;
 4888              		.loc 1 1085 13 view .LVU1264
 4889 0008 3A00     		movs	r2, r7
 4890 000a 07A8     		add	r0, sp, #28
 4891 000c 0691     		str	r1, [sp, #24]
 4892 000e FFF7FEFF 		bl	memset
 4893              	.LVL314:
1086:smtc_modem_core/device_management/modem_context.c ****     modem_context[1]                              = modem_dm_interval;
 4894              		.loc 1 1086 5 is_stmt 1 view .LVU1265
ARM GAS  /var/folders/bq/yv49bw8j2kd6w3hsq868qv180000gn/T//ccEK2k0g.s 			page 129


1089:smtc_modem_core/device_management/modem_context.c ****     modem_context[7] = number_of_muted_day;
 4895              		.loc 1 1089 5 is_stmt 0 view .LVU1266
 4896 0012 1B20     		movs	r0, #27
1086:smtc_modem_core/device_management/modem_context.c ****     modem_context[1]                              = modem_dm_interval;
 4897              		.loc 1 1086 51 view .LVU1267
 4898 0014 1E4B     		ldr	r3, .L355
1085:smtc_modem_core/device_management/modem_context.c ****     modem_context[0]                              = modem_dm_port;
 4899              		.loc 1 1085 13 view .LVU1268
 4900 0016 06AC     		add	r4, sp, #24
1086:smtc_modem_core/device_management/modem_context.c ****     modem_context[1]                              = modem_dm_interval;
 4901              		.loc 1 1086 51 view .LVU1269
 4902 0018 1B78     		ldrb	r3, [r3]
1089:smtc_modem_core/device_management/modem_context.c ****     modem_context[7] = number_of_muted_day;
 4903              		.loc 1 1089 5 view .LVU1270
 4904 001a 1E4D     		ldr	r5, .L355+4
1086:smtc_modem_core/device_management/modem_context.c ****     modem_context[1]                              = modem_dm_interval;
 4905              		.loc 1 1086 51 view .LVU1271
 4906 001c 2370     		strb	r3, [r4]
1087:smtc_modem_core/device_management/modem_context.c ****     modem_context[2]                              = modem_dm_upload_sctr;
 4907              		.loc 1 1087 5 is_stmt 1 view .LVU1272
1087:smtc_modem_core/device_management/modem_context.c ****     modem_context[2]                              = modem_dm_upload_sctr;
 4908              		.loc 1 1087 51 is_stmt 0 view .LVU1273
 4909 001e 1E4B     		ldr	r3, .L355+8
1089:smtc_modem_core/device_management/modem_context.c ****     modem_context[7] = number_of_muted_day;
 4910              		.loc 1 1089 5 view .LVU1274
 4911 0020 2900     		movs	r1, r5
1087:smtc_modem_core/device_management/modem_context.c ****     modem_context[2]                              = modem_dm_upload_sctr;
 4912              		.loc 1 1087 51 view .LVU1275
 4913 0022 1B78     		ldrb	r3, [r3]
1089:smtc_modem_core/device_management/modem_context.c ****     modem_context[7] = number_of_muted_day;
 4914              		.loc 1 1089 5 view .LVU1276
 4915 0024 0422     		movs	r2, #4
1087:smtc_modem_core/device_management/modem_context.c ****     modem_context[2]                              = modem_dm_upload_sctr;
 4916              		.loc 1 1087 51 view .LVU1277
 4917 0026 6370     		strb	r3, [r4, #1]
1088:smtc_modem_core/device_management/modem_context.c ****     memcpy( &modem_context[3], ( uint8_t* ) ( &dm_info_bitfield_periodic ), sizeof( dm_info_bitfiel
 4918              		.loc 1 1088 5 is_stmt 1 view .LVU1278
1088:smtc_modem_core/device_management/modem_context.c ****     memcpy( &modem_context[3], ( uint8_t* ) ( &dm_info_bitfield_periodic ), sizeof( dm_info_bitfiel
 4919              		.loc 1 1088 51 is_stmt 0 view .LVU1279
 4920 0028 1C4B     		ldr	r3, .L355+12
1089:smtc_modem_core/device_management/modem_context.c ****     modem_context[7] = number_of_muted_day;
 4921              		.loc 1 1089 5 view .LVU1280
 4922 002a 6844     		add	r0, r0, sp
1088:smtc_modem_core/device_management/modem_context.c ****     memcpy( &modem_context[3], ( uint8_t* ) ( &dm_info_bitfield_periodic ), sizeof( dm_info_bitfiel
 4923              		.loc 1 1088 51 view .LVU1281
 4924 002c 1B78     		ldrb	r3, [r3]
 4925 002e A370     		strb	r3, [r4, #2]
1089:smtc_modem_core/device_management/modem_context.c ****     modem_context[7] = number_of_muted_day;
 4926              		.loc 1 1089 5 is_stmt 1 view .LVU1282
 4927 0030 FFF7FEFF 		bl	memcpy
 4928              	.LVL315:
1090:smtc_modem_core/device_management/modem_context.c **** 
 4929              		.loc 1 1090 5 view .LVU1283
1090:smtc_modem_core/device_management/modem_context.c **** 
 4930              		.loc 1 1090 22 is_stmt 0 view .LVU1284
 4931 0034 1A4E     		ldr	r6, .L355+16
 4932 0036 3378     		ldrb	r3, [r6]
ARM GAS  /var/folders/bq/yv49bw8j2kd6w3hsq868qv180000gn/T//ccEK2k0g.s 			page 130


 4933 0038 E371     		strb	r3, [r4, #7]
1092:smtc_modem_core/device_management/modem_context.c ****     memcpy( &modem_context[8], ( uint8_t* ) &modem_charge, sizeof( modem_charge ) );
 4934              		.loc 1 1092 5 is_stmt 1 view .LVU1285
1092:smtc_modem_core/device_management/modem_context.c ****     memcpy( &modem_context[8], ( uint8_t* ) &modem_charge, sizeof( modem_charge ) );
 4935              		.loc 1 1092 29 is_stmt 0 view .LVU1286
 4936 003a FFF7FEFF 		bl	get_modem_charge_ma_s
 4937              	.LVL316:
1093:smtc_modem_core/device_management/modem_context.c **** 
 4938              		.loc 1 1093 5 view .LVU1287
 4939 003e 0422     		movs	r2, #4
1092:smtc_modem_core/device_management/modem_context.c ****     memcpy( &modem_context[8], ( uint8_t* ) &modem_charge, sizeof( modem_charge ) );
 4940              		.loc 1 1092 14 view .LVU1288
 4941 0040 0490     		str	r0, [sp, #16]
1093:smtc_modem_core/device_management/modem_context.c **** 
 4942              		.loc 1 1093 5 is_stmt 1 view .LVU1289
 4943 0042 04A9     		add	r1, sp, #16
 4944 0044 08A8     		add	r0, sp, #32
 4945 0046 FFF7FEFF 		bl	memcpy
 4946              	.LVL317:
1095:smtc_modem_core/device_management/modem_context.c ****     memcpy( &modem_context[BSP_MODEM_CONTEXT_SIZE - sizeof( crctmp )], ( uint8_t* ) &crctmp, sizeof
 4947              		.loc 1 1095 5 view .LVU1290
1095:smtc_modem_core/device_management/modem_context.c ****     memcpy( &modem_context[BSP_MODEM_CONTEXT_SIZE - sizeof( crctmp )], ( uint8_t* ) &crctmp, sizeof
 4948              		.loc 1 1095 23 is_stmt 0 view .LVU1291
 4949 004a 3900     		movs	r1, r7
 4950 004c 2000     		movs	r0, r4
 4951 004e FFF7FEFF 		bl	crc
 4952              	.LVL318:
1096:smtc_modem_core/device_management/modem_context.c ****     BSP_DBG_TRACE_PRINTF(
 4953              		.loc 1 1096 5 view .LVU1292
 4954 0052 05A9     		add	r1, sp, #20
1095:smtc_modem_core/device_management/modem_context.c ****     memcpy( &modem_context[BSP_MODEM_CONTEXT_SIZE - sizeof( crctmp )], ( uint8_t* ) &crctmp, sizeof
 4955              		.loc 1 1095 14 view .LVU1293
 4956 0054 0590     		str	r0, [sp, #20]
1096:smtc_modem_core/device_management/modem_context.c ****     BSP_DBG_TRACE_PRINTF(
 4957              		.loc 1 1096 5 is_stmt 1 view .LVU1294
 4958 0056 0422     		movs	r2, #4
 4959 0058 09A8     		add	r0, sp, #36
 4960 005a FFF7FEFF 		bl	memcpy
 4961              	.LVL319:
1097:smtc_modem_core/device_management/modem_context.c ****         "Store a New Modem Config :\n Port = %d \n Interval = %d\n Upload_sctr = %d\n DM bitfield =
 4962              		.loc 1 1097 5 view .LVU1295
 4963 005e 0498     		ldr	r0, [sp, #16]
 4964 0060 0E4B     		ldr	r3, .L355+12
 4965 0062 0D4A     		ldr	r2, .L355+8
 4966 0064 0A49     		ldr	r1, .L355
 4967 0066 1B78     		ldrb	r3, [r3]
 4968 0068 1278     		ldrb	r2, [r2]
 4969 006a 0978     		ldrb	r1, [r1]
 4970 006c 0290     		str	r0, [sp, #8]
 4971 006e 3078     		ldrb	r0, [r6]
 4972 0070 0190     		str	r0, [sp, #4]
 4973 0072 2868     		ldr	r0, [r5]
 4974 0074 0090     		str	r0, [sp]
 4975 0076 0B48     		ldr	r0, .L355+20
 4976 0078 FFF7FEFF 		bl	bsp_trace_print
 4977              	.LVL320:
1102:smtc_modem_core/device_management/modem_context.c **** 
ARM GAS  /var/folders/bq/yv49bw8j2kd6w3hsq868qv180000gn/T//ccEK2k0g.s 			page 131


 4978              		.loc 1 1102 5 view .LVU1296
 4979 007c 8020     		movs	r0, #128
 4980 007e 1022     		movs	r2, #16
 4981 0080 2100     		movs	r1, r4
 4982 0082 C000     		lsls	r0, r0, #3
 4983 0084 FFF7FEFF 		bl	bsp_nvm_context_store
 4984              	.LVL321:
1104:smtc_modem_core/device_management/modem_context.c **** }
 4985              		.loc 1 1104 5 view .LVU1297
 4986 0088 FFF7FEFF 		bl	modem_load_context
 4987              	.LVL322:
1105:smtc_modem_core/device_management/modem_context.c **** 
 4988              		.loc 1 1105 1 is_stmt 0 view .LVU1298
 4989 008c 0BB0     		add	sp, sp, #44
 4990              		@ sp needed
 4991 008e F0BD     		pop	{r4, r5, r6, r7, pc}
 4992              	.L356:
 4993              		.align	2
 4994              	.L355:
 4995 0090 00000000 		.word	.LANCHOR8
 4996 0094 00000000 		.word	.LANCHOR16
 4997 0098 00000000 		.word	.LANCHOR6
 4998 009c 00000000 		.word	.LANCHOR22
 4999 00a0 00000000 		.word	.LANCHOR14
 5000 00a4 00000000 		.word	.LC196
 5001              		.cfi_endproc
 5002              	.LFE77:
 5004              		.section	.text.set_modem_dm_interval,"ax",%progbits
 5005              		.align	1
 5006              		.global	set_modem_dm_interval
 5007              		.syntax unified
 5008              		.code	16
 5009              		.thumb_func
 5010              		.fpu softvfp
 5012              	set_modem_dm_interval:
 5013              	.LVL323:
 5014              	.LFB23:
 301:smtc_modem_core/device_management/modem_context.c ****     if( modem_dm_interval != interval )
 5015              		.loc 1 301 1 is_stmt 1 view -0
 5016              		.cfi_startproc
 5017              		@ args = 0, pretend = 0, frame = 0
 5018              		@ frame_needed = 0, uses_anonymous_args = 0
 302:smtc_modem_core/device_management/modem_context.c ****     {
 5019              		.loc 1 302 5 view .LVU1300
 301:smtc_modem_core/device_management/modem_context.c ****     if( modem_dm_interval != interval )
 5020              		.loc 1 301 1 is_stmt 0 view .LVU1301
 5021 0000 10B5     		push	{r4, lr}
 5022              		.cfi_def_cfa_offset 8
 5023              		.cfi_offset 4, -8
 5024              		.cfi_offset 14, -4
 302:smtc_modem_core/device_management/modem_context.c ****     {
 5025              		.loc 1 302 27 view .LVU1302
 5026 0002 044B     		ldr	r3, .L359
 302:smtc_modem_core/device_management/modem_context.c ****     {
 5027              		.loc 1 302 7 view .LVU1303
 5028 0004 1A78     		ldrb	r2, [r3]
 5029 0006 8242     		cmp	r2, r0
ARM GAS  /var/folders/bq/yv49bw8j2kd6w3hsq868qv180000gn/T//ccEK2k0g.s 			page 132


 5030 0008 02D0     		beq	.L358
 304:smtc_modem_core/device_management/modem_context.c ****         modem_store_context( );
 5031              		.loc 1 304 9 is_stmt 1 view .LVU1304
 304:smtc_modem_core/device_management/modem_context.c ****         modem_store_context( );
 5032              		.loc 1 304 27 is_stmt 0 view .LVU1305
 5033 000a 1870     		strb	r0, [r3]
 305:smtc_modem_core/device_management/modem_context.c ****     }
 5034              		.loc 1 305 9 is_stmt 1 view .LVU1306
 5035 000c FFF7FEFF 		bl	modem_store_context
 5036              	.LVL324:
 5037              	.L358:
 308:smtc_modem_core/device_management/modem_context.c **** }
 5038              		.loc 1 308 5 view .LVU1307
 309:smtc_modem_core/device_management/modem_context.c **** uint8_t get_modem_dm_interval( void )
 5039              		.loc 1 309 1 is_stmt 0 view .LVU1308
 5040 0010 0120     		movs	r0, #1
 5041              		@ sp needed
 5042 0012 10BD     		pop	{r4, pc}
 5043              	.L360:
 5044              		.align	2
 5045              	.L359:
 5046 0014 00000000 		.word	.LANCHOR6
 5047              		.cfi_endproc
 5048              	.LFE23:
 5050              		.section	.text.dm_set_conf,"ax",%progbits
 5051              		.align	1
 5052              		.global	dm_set_conf
 5053              		.syntax unified
 5054              		.code	16
 5055              		.thumb_func
 5056              		.fpu softvfp
 5058              	dm_set_conf:
 5059              	.LVL325:
 5060              	.LFB63:
 680:smtc_modem_core/device_management/modem_context.c ****     e_dm_error_t ret = DM_OK;
 5061              		.loc 1 680 1 is_stmt 1 view -0
 5062              		.cfi_startproc
 5063              		@ args = 0, pretend = 0, frame = 0
 5064              		@ frame_needed = 0, uses_anonymous_args = 0
 681:smtc_modem_core/device_management/modem_context.c **** 
 5065              		.loc 1 681 5 view .LVU1310
 683:smtc_modem_core/device_management/modem_context.c ****     {
 5066              		.loc 1 683 5 view .LVU1311
 680:smtc_modem_core/device_management/modem_context.c ****     e_dm_error_t ret = DM_OK;
 5067              		.loc 1 680 1 is_stmt 0 view .LVU1312
 5068 0000 70B5     		push	{r4, r5, r6, lr}
 5069              		.cfi_def_cfa_offset 16
 5070              		.cfi_offset 4, -16
 5071              		.cfi_offset 5, -12
 5072              		.cfi_offset 6, -8
 5073              		.cfi_offset 14, -4
 680:smtc_modem_core/device_management/modem_context.c ****     e_dm_error_t ret = DM_OK;
 5074              		.loc 1 680 1 view .LVU1313
 5075 0002 0C00     		movs	r4, r1
 5076 0004 1100     		movs	r1, r2
 5077              	.LVL326:
 680:smtc_modem_core/device_management/modem_context.c ****     e_dm_error_t ret = DM_OK;
ARM GAS  /var/folders/bq/yv49bw8j2kd6w3hsq868qv180000gn/T//ccEK2k0g.s 			page 133


 5078              		.loc 1 680 1 view .LVU1314
 5079 0006 0500     		movs	r5, r0
 683:smtc_modem_core/device_management/modem_context.c ****     {
 5080              		.loc 1 683 9 view .LVU1315
 5081 0008 FFF7FEFF 		bl	dm_check_dminfo_size
 5082              	.LVL327:
 683:smtc_modem_core/device_management/modem_context.c ****     {
 5083              		.loc 1 683 7 view .LVU1316
 5084 000c 0028     		cmp	r0, #0
 5085 000e 21D1     		bne	.L369
 690:smtc_modem_core/device_management/modem_context.c ****         {
 5086              		.loc 1 690 9 is_stmt 1 view .LVU1317
 5087 0010 2B00     		movs	r3, r5
 5088 0012 083B     		subs	r3, r3, #8
 5089 0014 032B     		cmp	r3, #3
 5090 0016 0CD8     		bhi	.L362
 5091 0018 1800     		movs	r0, r3
 5092 001a FFF7FEFF 		bl	__gnu_thumb1_case_uqi
 5093              	.L364:
 5094 001e 02       		.byte	(.L367-.L364)/2
 5095 001f 0B       		.byte	(.L366-.L364)/2
 5096 0020 0F       		.byte	(.L365-.L364)/2
 5097 0021 17       		.byte	(.L363-.L364)/2
 5098              		.p2align 1
 5099              	.L367:
 693:smtc_modem_core/device_management/modem_context.c ****             break;
 5100              		.loc 1 693 13 view .LVU1318
 5101 0022 2078     		ldrb	r0, [r4]
 5102 0024 FFF7FEFF 		bl	lorawan_api_dr_strategy_set
 5103              	.LVL328:
 694:smtc_modem_core/device_management/modem_context.c ****         case e_inf_joineui:
 5104              		.loc 1 694 13 view .LVU1319
 711:smtc_modem_core/device_management/modem_context.c ****     {
 5105              		.loc 1 711 5 view .LVU1320
 5106              	.L368:
 713:smtc_modem_core/device_management/modem_context.c ****     }
 5107              		.loc 1 713 9 view .LVU1321
 5108 0028 0620     		movs	r0, #6
 5109 002a 2900     		movs	r1, r5
 5110 002c FFF7FEFF 		bl	increment_asynchronous_msgnumber
 5111              	.LVL329:
 5112 0030 0120     		movs	r0, #1
 5113              	.L362:
 5114              	.LVL330:
 716:smtc_modem_core/device_management/modem_context.c **** }
 5115              		.loc 1 716 5 view .LVU1322
 717:smtc_modem_core/device_management/modem_context.c **** 
 5116              		.loc 1 717 1 is_stmt 0 view .LVU1323
 5117              		@ sp needed
 5118              	.LVL331:
 717:smtc_modem_core/device_management/modem_context.c **** 
 5119              		.loc 1 717 1 view .LVU1324
 5120 0032 70BD     		pop	{r4, r5, r6, pc}
 5121              	.LVL332:
 5122              	.L366:
 696:smtc_modem_core/device_management/modem_context.c ****             break;
 5123              		.loc 1 696 13 is_stmt 1 view .LVU1325
ARM GAS  /var/folders/bq/yv49bw8j2kd6w3hsq868qv180000gn/T//ccEK2k0g.s 			page 134


 5124 0034 2000     		movs	r0, r4
 5125 0036 FFF7FEFF 		bl	lorawan_api_appeui_key_set
 5126              	.LVL333:
 697:smtc_modem_core/device_management/modem_context.c ****         case e_inf_interval:
 5127              		.loc 1 697 13 view .LVU1326
 711:smtc_modem_core/device_management/modem_context.c ****     {
 5128              		.loc 1 711 5 view .LVU1327
 5129 003a F5E7     		b	.L368
 5130              	.LVL334:
 5131              	.L365:
 699:smtc_modem_core/device_management/modem_context.c ****             modem_supervisor_add_task_dm_status( get_modem_dm_interval_second( ) );
 5132              		.loc 1 699 13 view .LVU1328
 5133 003c 2078     		ldrb	r0, [r4]
 5134 003e FFF7FEFF 		bl	set_modem_dm_interval
 5135              	.LVL335:
 700:smtc_modem_core/device_management/modem_context.c ****             break;
 5136              		.loc 1 700 13 view .LVU1329
 5137 0042 FFF7FEFF 		bl	get_modem_dm_interval_second
 5138              	.LVL336:
 5139 0046 FFF7FEFF 		bl	modem_supervisor_add_task_dm_status
 5140              	.LVL337:
 701:smtc_modem_core/device_management/modem_context.c ****         case e_inf_region:
 5141              		.loc 1 701 13 view .LVU1330
 711:smtc_modem_core/device_management/modem_context.c ****     {
 5142              		.loc 1 711 5 view .LVU1331
 5143 004a EDE7     		b	.L368
 5144              	.LVL338:
 5145              	.L363:
 703:smtc_modem_core/device_management/modem_context.c ****             break;
 5146              		.loc 1 703 13 view .LVU1332
 5147 004c 2078     		ldrb	r0, [r4]
 5148 004e FFF7FEFF 		bl	set_modem_region
 5149              	.LVL339:
 704:smtc_modem_core/device_management/modem_context.c ****         default:
 5150              		.loc 1 704 13 view .LVU1333
 711:smtc_modem_core/device_management/modem_context.c ****     {
 5151              		.loc 1 711 5 view .LVU1334
 5152 0052 E9E7     		b	.L368
 5153              	.LVL340:
 5154              	.L369:
 686:smtc_modem_core/device_management/modem_context.c ****     }
 5155              		.loc 1 686 13 is_stmt 0 view .LVU1335
 5156 0054 0020     		movs	r0, #0
 5157 0056 ECE7     		b	.L362
 5158              		.cfi_endproc
 5159              	.LFE63:
 5161              		.section	.rodata.set_modem_dm_port.str1.1,"aMS",%progbits,1
 5162              	.LC201:
 5163 0000 6D6F6465 		.ascii	"modem port invalid\012\000"
 5163      6D20706F 
 5163      72742069 
 5163      6E76616C 
 5163      69640A00 
 5164              		.section	.text.set_modem_dm_port,"ax",%progbits
 5165              		.align	1
 5166              		.global	set_modem_dm_port
 5167              		.syntax unified
ARM GAS  /var/folders/bq/yv49bw8j2kd6w3hsq868qv180000gn/T//ccEK2k0g.s 			page 135


 5168              		.code	16
 5169              		.thumb_func
 5170              		.fpu softvfp
 5172              	set_modem_dm_port:
 5173              	.LVL341:
 5174              	.LFB28:
 360:smtc_modem_core/device_management/modem_context.c ****     if( ( port == 0 ) || ( port >= 224 ) )
 5175              		.loc 1 360 1 is_stmt 1 view -0
 5176              		.cfi_startproc
 5177              		@ args = 0, pretend = 0, frame = 0
 5178              		@ frame_needed = 0, uses_anonymous_args = 0
 361:smtc_modem_core/device_management/modem_context.c ****     {
 5179              		.loc 1 361 5 view .LVU1337
 361:smtc_modem_core/device_management/modem_context.c ****     {
 5180              		.loc 1 361 23 is_stmt 0 view .LVU1338
 5181 0000 431E     		subs	r3, r0, #1
 361:smtc_modem_core/device_management/modem_context.c ****     {
 5182              		.loc 1 361 7 view .LVU1339
 5183 0002 DBB2     		uxtb	r3, r3
 360:smtc_modem_core/device_management/modem_context.c ****     if( ( port == 0 ) || ( port >= 224 ) )
 5184              		.loc 1 360 1 view .LVU1340
 5185 0004 10B5     		push	{r4, lr}
 5186              		.cfi_def_cfa_offset 8
 5187              		.cfi_offset 4, -8
 5188              		.cfi_offset 14, -4
 361:smtc_modem_core/device_management/modem_context.c ****     {
 5189              		.loc 1 361 7 view .LVU1341
 5190 0006 DE2B     		cmp	r3, #222
 5191 0008 0ED9     		bls	.L371
 363:smtc_modem_core/device_management/modem_context.c ****         return ( SET_ERROR );
 5192              		.loc 1 363 9 is_stmt 1 view .LVU1342
 363:smtc_modem_core/device_management/modem_context.c ****         return ( SET_ERROR );
 5193              		.loc 1 363 9 view .LVU1343
 5194 000a 0C48     		ldr	r0, .L374
 5195              	.LVL342:
 363:smtc_modem_core/device_management/modem_context.c ****         return ( SET_ERROR );
 5196              		.loc 1 363 9 is_stmt 0 view .LVU1344
 5197 000c FFF7FEFF 		bl	bsp_trace_print
 5198              	.LVL343:
 363:smtc_modem_core/device_management/modem_context.c ****         return ( SET_ERROR );
 5199              		.loc 1 363 9 is_stmt 1 view .LVU1345
 5200 0010 0B48     		ldr	r0, .L374+4
 5201 0012 FFF7FEFF 		bl	bsp_trace_print
 5202              	.LVL344:
 363:smtc_modem_core/device_management/modem_context.c ****         return ( SET_ERROR );
 5203              		.loc 1 363 9 view .LVU1346
 5204 0016 0B48     		ldr	r0, .L374+8
 5205 0018 FFF7FEFF 		bl	bsp_trace_print
 5206              	.LVL345:
 363:smtc_modem_core/device_management/modem_context.c ****         return ( SET_ERROR );
 5207              		.loc 1 363 9 view .LVU1347
 5208 001c 0A48     		ldr	r0, .L374+12
 5209 001e FFF7FEFF 		bl	bsp_trace_print
 5210              	.LVL346:
 363:smtc_modem_core/device_management/modem_context.c ****         return ( SET_ERROR );
 5211              		.loc 1 363 9 view .LVU1348
 363:smtc_modem_core/device_management/modem_context.c ****         return ( SET_ERROR );
ARM GAS  /var/folders/bq/yv49bw8j2kd6w3hsq868qv180000gn/T//ccEK2k0g.s 			page 136


 5212              		.loc 1 363 54 view .LVU1349
 364:smtc_modem_core/device_management/modem_context.c ****     }
 5213              		.loc 1 364 9 view .LVU1350
 364:smtc_modem_core/device_management/modem_context.c ****     }
 5214              		.loc 1 364 16 is_stmt 0 view .LVU1351
 5215 0022 0024     		movs	r4, #0
 5216              	.L372:
 375:smtc_modem_core/device_management/modem_context.c **** 
 5217              		.loc 1 375 1 view .LVU1352
 5218 0024 2000     		movs	r0, r4
 5219              		@ sp needed
 5220 0026 10BD     		pop	{r4, pc}
 5221              	.LVL347:
 5222              	.L371:
 368:smtc_modem_core/device_management/modem_context.c ****         {
 5223              		.loc 1 368 9 is_stmt 1 view .LVU1353
 368:smtc_modem_core/device_management/modem_context.c ****         {
 5224              		.loc 1 368 27 is_stmt 0 view .LVU1354
 5225 0028 084B     		ldr	r3, .L374+16
 373:smtc_modem_core/device_management/modem_context.c ****     }
 5226              		.loc 1 373 16 view .LVU1355
 5227 002a 0124     		movs	r4, #1
 368:smtc_modem_core/device_management/modem_context.c ****         {
 5228              		.loc 1 368 11 view .LVU1356
 5229 002c 1A78     		ldrb	r2, [r3]
 5230 002e 8242     		cmp	r2, r0
 5231 0030 F8D0     		beq	.L372
 370:smtc_modem_core/device_management/modem_context.c ****             modem_store_context( );
 5232              		.loc 1 370 13 is_stmt 1 view .LVU1357
 370:smtc_modem_core/device_management/modem_context.c ****             modem_store_context( );
 5233              		.loc 1 370 27 is_stmt 0 view .LVU1358
 5234 0032 1870     		strb	r0, [r3]
 371:smtc_modem_core/device_management/modem_context.c ****         }
 5235              		.loc 1 371 13 is_stmt 1 view .LVU1359
 5236 0034 FFF7FEFF 		bl	modem_store_context
 5237              	.LVL348:
 371:smtc_modem_core/device_management/modem_context.c ****         }
 5238              		.loc 1 371 13 is_stmt 0 view .LVU1360
 5239 0038 F4E7     		b	.L372
 5240              	.L375:
 5241 003a C046     		.align	2
 5242              	.L374:
 5243 003c 00000000 		.word	.LC10
 5244 0040 08000000 		.word	.LC12
 5245 0044 00000000 		.word	.LC201
 5246 0048 3E000000 		.word	.LC16
 5247 004c 00000000 		.word	.LANCHOR8
 5248              		.cfi_endproc
 5249              	.LFE28:
 5251              		.section	.rodata.dm_set_number_of_days_mute.str1.1,"aMS",%progbits,1
 5252              	.LC205:
 5253 0000 4D555445 		.ascii	"MUTE for %d days\012\000"
 5253      20666F72 
 5253      20256420 
 5253      64617973 
 5253      0A00
 5254              		.section	.text.dm_set_number_of_days_mute,"ax",%progbits
ARM GAS  /var/folders/bq/yv49bw8j2kd6w3hsq868qv180000gn/T//ccEK2k0g.s 			page 137


 5255              		.align	1
 5256              		.global	dm_set_number_of_days_mute
 5257              		.syntax unified
 5258              		.code	16
 5259              		.thumb_func
 5260              		.fpu softvfp
 5262              	dm_set_number_of_days_mute:
 5263              	.LVL349:
 5264              	.LFB66:
 744:smtc_modem_core/device_management/modem_context.c ****     BSP_DBG_TRACE_PRINTF( "MUTE for %d days\n", days );
 5265              		.loc 1 744 1 is_stmt 1 view -0
 5266              		.cfi_startproc
 5267              		@ args = 0, pretend = 0, frame = 0
 5268              		@ frame_needed = 0, uses_anonymous_args = 0
 745:smtc_modem_core/device_management/modem_context.c ****     if( number_of_muted_day != days )
 5269              		.loc 1 745 5 view .LVU1362
 5270 0000 0100     		movs	r1, r0
 744:smtc_modem_core/device_management/modem_context.c ****     BSP_DBG_TRACE_PRINTF( "MUTE for %d days\n", days );
 5271              		.loc 1 744 1 is_stmt 0 view .LVU1363
 5272 0002 10B5     		push	{r4, lr}
 5273              		.cfi_def_cfa_offset 8
 5274              		.cfi_offset 4, -8
 5275              		.cfi_offset 14, -4
 744:smtc_modem_core/device_management/modem_context.c ****     BSP_DBG_TRACE_PRINTF( "MUTE for %d days\n", days );
 5276              		.loc 1 744 1 view .LVU1364
 5277 0004 0400     		movs	r4, r0
 745:smtc_modem_core/device_management/modem_context.c ****     if( number_of_muted_day != days )
 5278              		.loc 1 745 5 view .LVU1365
 5279 0006 0848     		ldr	r0, .L381
 5280              	.LVL350:
 745:smtc_modem_core/device_management/modem_context.c ****     if( number_of_muted_day != days )
 5281              		.loc 1 745 5 view .LVU1366
 5282 0008 FFF7FEFF 		bl	bsp_trace_print
 5283              	.LVL351:
 746:smtc_modem_core/device_management/modem_context.c ****     {
 5284              		.loc 1 746 5 is_stmt 1 view .LVU1367
 746:smtc_modem_core/device_management/modem_context.c ****     {
 5285              		.loc 1 746 29 is_stmt 0 view .LVU1368
 5286 000c 074B     		ldr	r3, .L381+4
 746:smtc_modem_core/device_management/modem_context.c ****     {
 5287              		.loc 1 746 7 view .LVU1369
 5288 000e 1A78     		ldrb	r2, [r3]
 5289 0010 A242     		cmp	r2, r4
 5290 0012 08D0     		beq	.L376
 748:smtc_modem_core/device_management/modem_context.c **** 
 5291              		.loc 1 748 9 is_stmt 1 view .LVU1370
 752:smtc_modem_core/device_management/modem_context.c ****         }
 5292              		.loc 1 752 13 is_stmt 0 view .LVU1371
 5293 0014 0120     		movs	r0, #1
 748:smtc_modem_core/device_management/modem_context.c **** 
 5294              		.loc 1 748 29 view .LVU1372
 5295 0016 1C70     		strb	r4, [r3]
 750:smtc_modem_core/device_management/modem_context.c ****         {
 5296              		.loc 1 750 9 is_stmt 1 view .LVU1373
 750:smtc_modem_core/device_management/modem_context.c ****         {
 5297              		.loc 1 750 11 is_stmt 0 view .LVU1374
 5298 0018 002C     		cmp	r4, #0
ARM GAS  /var/folders/bq/yv49bw8j2kd6w3hsq868qv180000gn/T//ccEK2k0g.s 			page 138


 5299 001a 00D1     		bne	.L380
 756:smtc_modem_core/device_management/modem_context.c ****         }
 5300              		.loc 1 756 13 is_stmt 1 view .LVU1375
 5301 001c 2000     		movs	r0, r4
 5302              	.L380:
 5303 001e FFF7FEFF 		bl	set_modem_status_modem_mute
 5304              	.LVL352:
 759:smtc_modem_core/device_management/modem_context.c ****     }
 5305              		.loc 1 759 9 view .LVU1376
 5306 0022 FFF7FEFF 		bl	modem_store_context
 5307              	.LVL353:
 5308              	.L376:
 761:smtc_modem_core/device_management/modem_context.c **** 
 5309              		.loc 1 761 1 is_stmt 0 view .LVU1377
 5310              		@ sp needed
 5311 0026 10BD     		pop	{r4, pc}
 5312              	.L382:
 5313              		.align	2
 5314              	.L381:
 5315 0028 00000000 		.word	.LC205
 5316 002c 00000000 		.word	.LANCHOR14
 5317              		.cfi_endproc
 5318              	.LFE66:
 5320              		.section	.rodata.set_dm_info.str1.1,"aMS",%progbits,1
 5321              	.LC210:
 5322 0000 696E7661 		.ascii	"invalid DM info code (0x%02x)\012\000"
 5322      6C696420 
 5322      444D2069 
 5322      6E666F20 
 5322      636F6465 
 5323              		.section	.text.set_dm_info,"ax",%progbits
 5324              		.align	1
 5325              		.global	set_dm_info
 5326              		.syntax unified
 5327              		.code	16
 5328              		.thumb_func
 5329              		.fpu softvfp
 5331              	set_dm_info:
 5332              	.LVL354:
 5333              	.LFB68:
 788:smtc_modem_core/device_management/modem_context.c ****     e_set_error_t ret      = SET_OK;
 5334              		.loc 1 788 1 is_stmt 1 view -0
 5335              		.cfi_startproc
 5336              		@ args = 0, pretend = 0, frame = 0
 5337              		@ frame_needed = 0, uses_anonymous_args = 0
 789:smtc_modem_core/device_management/modem_context.c ****     uint32_t      info_req = 0;
 5338              		.loc 1 789 5 view .LVU1379
 790:smtc_modem_core/device_management/modem_context.c **** 
 5339              		.loc 1 790 5 view .LVU1380
 792:smtc_modem_core/device_management/modem_context.c **** 
 5340              		.loc 1 792 5 view .LVU1381
 5341              	.LBB150:
 5342              	.LBI150:
 100:smtc_modem_core/device_management/modem_context.c ****                                                                   uint32_t* bitfields )
 5343              		.loc 1 100 22 view .LVU1382
 5344              	.LBE150:
 788:smtc_modem_core/device_management/modem_context.c ****     e_set_error_t ret      = SET_OK;
ARM GAS  /var/folders/bq/yv49bw8j2kd6w3hsq868qv180000gn/T//ccEK2k0g.s 			page 139


 5345              		.loc 1 788 1 is_stmt 0 view .LVU1383
 5346 0000 F8B5     		push	{r3, r4, r5, r6, r7, lr}
 5347              		.cfi_def_cfa_offset 24
 5348              		.cfi_offset 3, -24
 5349              		.cfi_offset 4, -20
 5350              		.cfi_offset 5, -16
 5351              		.cfi_offset 6, -12
 5352              		.cfi_offset 7, -8
 5353              		.cfi_offset 14, -4
 788:smtc_modem_core/device_management/modem_context.c ****     e_set_error_t ret      = SET_OK;
 5354              		.loc 1 788 1 view .LVU1384
 5355 0002 1400     		movs	r4, r2
 5356 0004 0300     		movs	r3, r0
 5357 0006 4118     		adds	r1, r0, r1
 5358              	.LVL355:
 5359              	.L384:
 5360              	.LBB161:
 5361              	.LBB151:
 5362              	.LBB152:
 104:smtc_modem_core/device_management/modem_context.c ****     {
 5363              		.loc 1 104 25 is_stmt 1 view .LVU1385
 104:smtc_modem_core/device_management/modem_context.c ****     {
 5364              		.loc 1 104 5 is_stmt 0 view .LVU1386
 5365 0008 8B42     		cmp	r3, r1
 5366 000a 0BD1     		bne	.L388
 5367              	.LBE152:
 118:smtc_modem_core/device_management/modem_context.c ****     for( uint8_t i = 0; i < len; i++ )
 5368              		.loc 1 118 16 view .LVU1387
 5369 000c 0022     		movs	r2, #0
 5370              	.LBB153:
 121:smtc_modem_core/device_management/modem_context.c ****     }
 5371              		.loc 1 121 27 view .LVU1388
 5372 000e 0121     		movs	r1, #1
 5373              	.LVL356:
 5374              	.L389:
 119:smtc_modem_core/device_management/modem_context.c ****     {
 5375              		.loc 1 119 25 is_stmt 1 view .LVU1389
 119:smtc_modem_core/device_management/modem_context.c ****     {
 5376              		.loc 1 119 5 is_stmt 0 view .LVU1390
 5377 0010 8342     		cmp	r3, r0
 5378 0012 26D1     		bne	.L390
 5379              	.LVL357:
 119:smtc_modem_core/device_management/modem_context.c ****     {
 5380              		.loc 1 119 5 view .LVU1391
 5381              	.LBE153:
 5382              	.LBE151:
 5383              	.LBE161:
 794:smtc_modem_core/device_management/modem_context.c ****     {
 5384              		.loc 1 794 5 is_stmt 1 view .LVU1392
 796:smtc_modem_core/device_management/modem_context.c ****         {
 5385              		.loc 1 796 9 view .LVU1393
 796:smtc_modem_core/device_management/modem_context.c ****         {
 5386              		.loc 1 796 11 is_stmt 0 view .LVU1394
 5387 0014 012C     		cmp	r4, #1
 5388 0016 2AD1     		bne	.L391
 798:smtc_modem_core/device_management/modem_context.c ****             tag_number_now       = 0;  // Reset tag_number used by dm_status_payload to
 5389              		.loc 1 798 13 is_stmt 1 view .LVU1395
ARM GAS  /var/folders/bq/yv49bw8j2kd6w3hsq868qv180000gn/T//ccEK2k0g.s 			page 140


 798:smtc_modem_core/device_management/modem_context.c ****             tag_number_now       = 0;  // Reset tag_number used by dm_status_payload to
 5390              		.loc 1 798 34 is_stmt 0 view .LVU1396
 5391 0018 1B4B     		ldr	r3, .L393
 5392 001a 1A60     		str	r2, [r3]
 799:smtc_modem_core/device_management/modem_context.c ****                                        // start a report from beginning
 5393              		.loc 1 799 13 is_stmt 1 view .LVU1397
 799:smtc_modem_core/device_management/modem_context.c ****                                        // start a report from beginning
 5394              		.loc 1 799 34 is_stmt 0 view .LVU1398
 5395 001c 0022     		movs	r2, #0
 5396              	.LVL358:
 799:smtc_modem_core/device_management/modem_context.c ****                                        // start a report from beginning
 5397              		.loc 1 799 34 view .LVU1399
 5398 001e 1B4B     		ldr	r3, .L393+4
 799:smtc_modem_core/device_management/modem_context.c ****                                        // start a report from beginning
 5399              		.loc 1 799 34 view .LVU1400
 5400 0020 1A70     		strb	r2, [r3]
 5401 0022 18E0     		b	.L386
 5402              	.LVL359:
 5403              	.L388:
 5404              	.LBB162:
 5405              	.LBB158:
 5406              	.LBB154:
 107:smtc_modem_core/device_management/modem_context.c ****             ( requested_info_list[i] == e_inf_stream ) || ( requested_info_list[i] == e_inf_alcsync
 5407              		.loc 1 107 9 is_stmt 1 view .LVU1401
 107:smtc_modem_core/device_management/modem_context.c ****             ( requested_info_list[i] == e_inf_stream ) || ( requested_info_list[i] == e_inf_alcsync
 5408              		.loc 1 107 34 is_stmt 0 view .LVU1402
 5409 0024 1A78     		ldrb	r2, [r3]
 5410 0026 1D00     		movs	r5, r3
 108:smtc_modem_core/device_management/modem_context.c ****             ( requested_info_list[i] == e_inf_rfu_0 ) || ( requested_info_list[i] == e_inf_rfu_1 ) 
 5411              		.loc 1 108 103 view .LVU1403
 5412 0028 172A     		cmp	r2, #23
 5413 002a 16D8     		bhi	.L385
 5414 002c 184F     		ldr	r7, .L393+8
 5415 002e D740     		lsrs	r7, r7, r2
 5416 0030 BC46     		mov	ip, r7
 5417 0032 0127     		movs	r7, #1
 5418 0034 6646     		mov	r6, ip
 5419 0036 B743     		bics	r7, r6
 5420 0038 0FD1     		bne	.L385
 5421              	.LVL360:
 5422              	.L387:
 112:smtc_modem_core/device_management/modem_context.c ****             BSP_DBG_TRACE_ERROR( "invalid DM info code (0x%02x)\n", requested_info_list[i] );
 5423              		.loc 1 112 13 is_stmt 1 view .LVU1404
 113:smtc_modem_core/device_management/modem_context.c ****             return ret;
 5424              		.loc 1 113 13 view .LVU1405
 113:smtc_modem_core/device_management/modem_context.c ****             return ret;
 5425              		.loc 1 113 13 view .LVU1406
 5426 003a 1648     		ldr	r0, .L393+12
 5427              	.LVL361:
 113:smtc_modem_core/device_management/modem_context.c ****             return ret;
 5428              		.loc 1 113 13 is_stmt 0 view .LVU1407
 5429 003c FFF7FEFF 		bl	bsp_trace_print
 5430              	.LVL362:
 113:smtc_modem_core/device_management/modem_context.c ****             return ret;
 5431              		.loc 1 113 13 is_stmt 1 view .LVU1408
 5432 0040 1548     		ldr	r0, .L393+16
 5433 0042 FFF7FEFF 		bl	bsp_trace_print
ARM GAS  /var/folders/bq/yv49bw8j2kd6w3hsq868qv180000gn/T//ccEK2k0g.s 			page 141


 5434              	.LVL363:
 113:smtc_modem_core/device_management/modem_context.c ****             return ret;
 5435              		.loc 1 113 13 view .LVU1409
 5436 0046 2978     		ldrb	r1, [r5]
 5437 0048 1448     		ldr	r0, .L393+20
 5438 004a FFF7FEFF 		bl	bsp_trace_print
 5439              	.LVL364:
 113:smtc_modem_core/device_management/modem_context.c ****             return ret;
 5440              		.loc 1 113 13 view .LVU1410
 5441 004e 1448     		ldr	r0, .L393+24
 5442 0050 FFF7FEFF 		bl	bsp_trace_print
 5443              	.LVL365:
 113:smtc_modem_core/device_management/modem_context.c ****             return ret;
 5444              		.loc 1 113 13 view .LVU1411
 113:smtc_modem_core/device_management/modem_context.c ****             return ret;
 5445              		.loc 1 113 93 view .LVU1412
 114:smtc_modem_core/device_management/modem_context.c ****         }
 5446              		.loc 1 114 13 view .LVU1413
 114:smtc_modem_core/device_management/modem_context.c ****         }
 5447              		.loc 1 114 13 is_stmt 0 view .LVU1414
 5448              	.LBE154:
 5449              	.LBE158:
 5450              	.LBE162:
 794:smtc_modem_core/device_management/modem_context.c ****     {
 5451              		.loc 1 794 5 is_stmt 1 view .LVU1415
 5452              	.LBB163:
 5453              	.LBB159:
 5454              	.LBB155:
 114:smtc_modem_core/device_management/modem_context.c ****         }
 5455              		.loc 1 114 20 is_stmt 0 view .LVU1416
 5456 0054 0024     		movs	r4, #0
 5457              	.LVL366:
 5458              	.L386:
 114:smtc_modem_core/device_management/modem_context.c ****         }
 5459              		.loc 1 114 20 view .LVU1417
 5460              	.LBE155:
 5461              	.LBE159:
 5462              	.LBE163:
 814:smtc_modem_core/device_management/modem_context.c **** }
 5463              		.loc 1 814 5 is_stmt 1 view .LVU1418
 815:smtc_modem_core/device_management/modem_context.c **** 
 5464              		.loc 1 815 1 is_stmt 0 view .LVU1419
 5465 0056 2000     		movs	r0, r4
 5466              		@ sp needed
 5467 0058 F8BD     		pop	{r3, r4, r5, r6, r7, pc}
 5468              	.LVL367:
 5469              	.L385:
 815:smtc_modem_core/device_management/modem_context.c **** 
 5470              		.loc 1 815 1 view .LVU1420
 5471 005a 0133     		adds	r3, r3, #1
 5472              	.LVL368:
 5473              	.LBB164:
 5474              	.LBB160:
 5475              	.LBB156:
 109:smtc_modem_core/device_management/modem_context.c ****             ( requested_info_list[i] >= e_inf_max ) )
 5476              		.loc 1 109 100 view .LVU1421
 5477 005c 172A     		cmp	r2, #23
ARM GAS  /var/folders/bq/yv49bw8j2kd6w3hsq868qv180000gn/T//ccEK2k0g.s 			page 142


 5478 005e D3D9     		bls	.L384
 5479 0060 EBE7     		b	.L387
 5480              	.LVL369:
 5481              	.L390:
 109:smtc_modem_core/device_management/modem_context.c ****             ( requested_info_list[i] >= e_inf_max ) )
 5482              		.loc 1 109 100 view .LVU1422
 5483              	.LBE156:
 5484              	.LBB157:
 121:smtc_modem_core/device_management/modem_context.c ****     }
 5485              		.loc 1 121 9 is_stmt 1 view .LVU1423
 121:smtc_modem_core/device_management/modem_context.c ****     }
 5486              		.loc 1 121 27 is_stmt 0 view .LVU1424
 5487 0062 0E00     		movs	r6, r1
 121:smtc_modem_core/device_management/modem_context.c ****     }
 5488              		.loc 1 121 49 view .LVU1425
 5489 0064 0578     		ldrb	r5, [r0]
 5490 0066 0130     		adds	r0, r0, #1
 5491              	.LVL370:
 121:smtc_modem_core/device_management/modem_context.c ****     }
 5492              		.loc 1 121 27 view .LVU1426
 5493 0068 AE40     		lsls	r6, r6, r5
 121:smtc_modem_core/device_management/modem_context.c ****     }
 5494              		.loc 1 121 20 view .LVU1427
 5495 006a 3243     		orrs	r2, r6
 5496              	.LVL371:
 119:smtc_modem_core/device_management/modem_context.c ****     {
 5497              		.loc 1 119 34 is_stmt 1 view .LVU1428
 119:smtc_modem_core/device_management/modem_context.c ****     {
 5498              		.loc 1 119 34 is_stmt 0 view .LVU1429
 5499 006c D0E7     		b	.L389
 5500              	.LVL372:
 5501              	.L391:
 119:smtc_modem_core/device_management/modem_context.c ****     {
 5502              		.loc 1 119 34 view .LVU1430
 5503              	.LBE157:
 5504              	.LBE160:
 5505              	.LBE164:
 804:smtc_modem_core/device_management/modem_context.c ****             {
 5506              		.loc 1 804 13 is_stmt 1 view .LVU1431
 804:smtc_modem_core/device_management/modem_context.c ****             {
 5507              		.loc 1 804 43 is_stmt 0 view .LVU1432
 5508 006e 0D4B     		ldr	r3, .L393+28
 5509 0070 0124     		movs	r4, #1
 804:smtc_modem_core/device_management/modem_context.c ****             {
 5510              		.loc 1 804 15 view .LVU1433
 5511 0072 1968     		ldr	r1, [r3]
 5512 0074 9142     		cmp	r1, r2
 5513 0076 EED0     		beq	.L386
 806:smtc_modem_core/device_management/modem_context.c ****                 tag_number                = 0;  // Reset tag_number used by dm_status_payload to st
 5514              		.loc 1 806 17 is_stmt 1 view .LVU1434
 806:smtc_modem_core/device_management/modem_context.c ****                 tag_number                = 0;  // Reset tag_number used by dm_status_payload to st
 5515              		.loc 1 806 43 is_stmt 0 view .LVU1435
 5516 0078 1A60     		str	r2, [r3]
 807:smtc_modem_core/device_management/modem_context.c ****                                                 // a report from beginning
 5517              		.loc 1 807 17 is_stmt 1 view .LVU1436
 807:smtc_modem_core/device_management/modem_context.c ****                                                 // a report from beginning
 5518              		.loc 1 807 43 is_stmt 0 view .LVU1437
ARM GAS  /var/folders/bq/yv49bw8j2kd6w3hsq868qv180000gn/T//ccEK2k0g.s 			page 143


 5519 007a 0022     		movs	r2, #0
 5520              	.LVL373:
 807:smtc_modem_core/device_management/modem_context.c ****                                                 // a report from beginning
 5521              		.loc 1 807 43 view .LVU1438
 5522 007c 0A4B     		ldr	r3, .L393+32
 807:smtc_modem_core/device_management/modem_context.c ****                                                 // a report from beginning
 5523              		.loc 1 807 43 view .LVU1439
 5524 007e 1A70     		strb	r2, [r3]
 809:smtc_modem_core/device_management/modem_context.c ****             }
 5525              		.loc 1 809 17 is_stmt 1 view .LVU1440
 5526 0080 FFF7FEFF 		bl	modem_store_context
 5527              	.LVL374:
 809:smtc_modem_core/device_management/modem_context.c ****             }
 5528              		.loc 1 809 17 is_stmt 0 view .LVU1441
 5529 0084 E7E7     		b	.L386
 5530              	.L394:
 5531 0086 C046     		.align	2
 5532              	.L393:
 5533 0088 00000000 		.word	.LANCHOR15
 5534 008c 00000000 		.word	.LANCHOR18
 5535 0090 00709200 		.word	9596928
 5536 0094 00000000 		.word	.LC10
 5537 0098 08000000 		.word	.LC12
 5538 009c 00000000 		.word	.LC210
 5539 00a0 3E000000 		.word	.LC16
 5540 00a4 00000000 		.word	.LANCHOR16
 5541 00a8 00000000 		.word	.LANCHOR19
 5542              		.cfi_endproc
 5543              	.LFE68:
 5545              		.section	.text.modem_set_dm_upload_sctr,"ax",%progbits
 5546              		.align	1
 5547              		.global	modem_set_dm_upload_sctr
 5548              		.syntax unified
 5549              		.code	16
 5550              		.thumb_func
 5551              		.fpu softvfp
 5553              	modem_set_dm_upload_sctr:
 5554              	.LVL375:
 5555              	.LFB80:
1177:smtc_modem_core/device_management/modem_context.c ****     modem_dm_upload_sctr = session_counter & 0xf;
 5556              		.loc 1 1177 1 is_stmt 1 view -0
 5557              		.cfi_startproc
 5558              		@ args = 0, pretend = 0, frame = 0
 5559              		@ frame_needed = 0, uses_anonymous_args = 0
1178:smtc_modem_core/device_management/modem_context.c ****     modem_store_context( );
 5560              		.loc 1 1178 5 view .LVU1443
1178:smtc_modem_core/device_management/modem_context.c ****     modem_store_context( );
 5561              		.loc 1 1178 44 is_stmt 0 view .LVU1444
 5562 0000 0F23     		movs	r3, #15
1177:smtc_modem_core/device_management/modem_context.c ****     modem_dm_upload_sctr = session_counter & 0xf;
 5563              		.loc 1 1177 1 view .LVU1445
 5564 0002 10B5     		push	{r4, lr}
 5565              		.cfi_def_cfa_offset 8
 5566              		.cfi_offset 4, -8
 5567              		.cfi_offset 14, -4
1178:smtc_modem_core/device_management/modem_context.c ****     modem_store_context( );
 5568              		.loc 1 1178 44 view .LVU1446
ARM GAS  /var/folders/bq/yv49bw8j2kd6w3hsq868qv180000gn/T//ccEK2k0g.s 			page 144


 5569 0004 1840     		ands	r0, r3
 5570              	.LVL376:
1178:smtc_modem_core/device_management/modem_context.c ****     modem_store_context( );
 5571              		.loc 1 1178 26 view .LVU1447
 5572 0006 024B     		ldr	r3, .L396
1180:smtc_modem_core/device_management/modem_context.c **** 
 5573              		.loc 1 1180 1 view .LVU1448
 5574              		@ sp needed
1178:smtc_modem_core/device_management/modem_context.c ****     modem_store_context( );
 5575              		.loc 1 1178 26 view .LVU1449
 5576 0008 1870     		strb	r0, [r3]
1179:smtc_modem_core/device_management/modem_context.c **** }
 5577              		.loc 1 1179 5 is_stmt 1 view .LVU1450
 5578 000a FFF7FEFF 		bl	modem_store_context
 5579              	.LVL377:
1180:smtc_modem_core/device_management/modem_context.c **** 
 5580              		.loc 1 1180 1 is_stmt 0 view .LVU1451
 5581 000e 10BD     		pop	{r4, pc}
 5582              	.L397:
 5583              		.align	2
 5584              	.L396:
 5585 0010 00000000 		.word	.LANCHOR22
 5586              		.cfi_endproc
 5587              	.LFE80:
 5589              		.section	.text.modem_get_dm_upload_sctr,"ax",%progbits
 5590              		.align	1
 5591              		.global	modem_get_dm_upload_sctr
 5592              		.syntax unified
 5593              		.code	16
 5594              		.thumb_func
 5595              		.fpu softvfp
 5597              	modem_get_dm_upload_sctr:
 5598              	.LFB81:
1183:smtc_modem_core/device_management/modem_context.c ****     return ( modem_dm_upload_sctr & 0xf );
 5599              		.loc 1 1183 1 is_stmt 1 view -0
 5600              		.cfi_startproc
 5601              		@ args = 0, pretend = 0, frame = 0
 5602              		@ frame_needed = 0, uses_anonymous_args = 0
 5603              		@ link register save eliminated.
1184:smtc_modem_core/device_management/modem_context.c **** }
 5604              		.loc 1 1184 5 view .LVU1453
1184:smtc_modem_core/device_management/modem_context.c **** }
 5605              		.loc 1 1184 35 is_stmt 0 view .LVU1454
 5606 0000 024B     		ldr	r3, .L399
1185:smtc_modem_core/device_management/modem_context.c **** 
 5607              		.loc 1 1185 1 view .LVU1455
 5608              		@ sp needed
1184:smtc_modem_core/device_management/modem_context.c **** }
 5609              		.loc 1 1184 35 view .LVU1456
 5610 0002 1878     		ldrb	r0, [r3]
 5611 0004 0F23     		movs	r3, #15
 5612 0006 1840     		ands	r0, r3
1185:smtc_modem_core/device_management/modem_context.c **** 
 5613              		.loc 1 1185 1 view .LVU1457
 5614 0008 7047     		bx	lr
 5615              	.L400:
 5616 000a C046     		.align	2
ARM GAS  /var/folders/bq/yv49bw8j2kd6w3hsq868qv180000gn/T//ccEK2k0g.s 			page 145


 5617              	.L399:
 5618 000c 00000000 		.word	.LANCHOR22
 5619              		.cfi_endproc
 5620              	.LFE81:
 5622              		.section	.text.modem_get_upload_state,"ax",%progbits
 5623              		.align	1
 5624              		.global	modem_get_upload_state
 5625              		.syntax unified
 5626              		.code	16
 5627              		.thumb_func
 5628              		.fpu softvfp
 5630              	modem_get_upload_state:
 5631              	.LFB82:
1188:smtc_modem_core/device_management/modem_context.c ****     return ( modem_upload_state );
 5632              		.loc 1 1188 1 is_stmt 1 view -0
 5633              		.cfi_startproc
 5634              		@ args = 0, pretend = 0, frame = 0
 5635              		@ frame_needed = 0, uses_anonymous_args = 0
 5636              		@ link register save eliminated.
1189:smtc_modem_core/device_management/modem_context.c **** }
 5637              		.loc 1 1189 5 view .LVU1459
1189:smtc_modem_core/device_management/modem_context.c **** }
 5638              		.loc 1 1189 12 is_stmt 0 view .LVU1460
 5639 0000 014B     		ldr	r3, .L402
1190:smtc_modem_core/device_management/modem_context.c **** 
 5640              		.loc 1 1190 1 view .LVU1461
 5641              		@ sp needed
1189:smtc_modem_core/device_management/modem_context.c **** }
 5642              		.loc 1 1189 12 view .LVU1462
 5643 0002 1878     		ldrb	r0, [r3]
1190:smtc_modem_core/device_management/modem_context.c **** 
 5644              		.loc 1 1190 1 view .LVU1463
 5645 0004 7047     		bx	lr
 5646              	.L403:
 5647 0006 C046     		.align	2
 5648              	.L402:
 5649 0008 00000000 		.word	.LANCHOR24
 5650              		.cfi_endproc
 5651              	.LFE82:
 5653              		.section	.text.modem_set_upload_state,"ax",%progbits
 5654              		.align	1
 5655              		.global	modem_set_upload_state
 5656              		.syntax unified
 5657              		.code	16
 5658              		.thumb_func
 5659              		.fpu softvfp
 5661              	modem_set_upload_state:
 5662              	.LVL378:
 5663              	.LFB83:
1193:smtc_modem_core/device_management/modem_context.c ****     modem_upload_state = upload_state;
 5664              		.loc 1 1193 1 is_stmt 1 view -0
 5665              		.cfi_startproc
 5666              		@ args = 0, pretend = 0, frame = 0
 5667              		@ frame_needed = 0, uses_anonymous_args = 0
 5668              		@ link register save eliminated.
1194:smtc_modem_core/device_management/modem_context.c **** }
 5669              		.loc 1 1194 5 view .LVU1465
ARM GAS  /var/folders/bq/yv49bw8j2kd6w3hsq868qv180000gn/T//ccEK2k0g.s 			page 146


1194:smtc_modem_core/device_management/modem_context.c **** }
 5670              		.loc 1 1194 24 is_stmt 0 view .LVU1466
 5671 0000 014B     		ldr	r3, .L405
1195:smtc_modem_core/device_management/modem_context.c **** 
 5672              		.loc 1 1195 1 view .LVU1467
 5673              		@ sp needed
1194:smtc_modem_core/device_management/modem_context.c **** }
 5674              		.loc 1 1194 24 view .LVU1468
 5675 0002 1870     		strb	r0, [r3]
1195:smtc_modem_core/device_management/modem_context.c **** 
 5676              		.loc 1 1195 1 view .LVU1469
 5677 0004 7047     		bx	lr
 5678              	.L406:
 5679 0006 C046     		.align	2
 5680              	.L405:
 5681 0008 00000000 		.word	.LANCHOR24
 5682              		.cfi_endproc
 5683              	.LFE83:
 5685              		.section	.text.modem_get_stream_state,"ax",%progbits
 5686              		.align	1
 5687              		.global	modem_get_stream_state
 5688              		.syntax unified
 5689              		.code	16
 5690              		.thumb_func
 5691              		.fpu softvfp
 5693              	modem_get_stream_state:
 5694              	.LFB84:
1198:smtc_modem_core/device_management/modem_context.c ****     return ( modem_stream_state.state );
 5695              		.loc 1 1198 1 is_stmt 1 view -0
 5696              		.cfi_startproc
 5697              		@ args = 0, pretend = 0, frame = 0
 5698              		@ frame_needed = 0, uses_anonymous_args = 0
 5699              		@ link register save eliminated.
1199:smtc_modem_core/device_management/modem_context.c **** }
 5700              		.loc 1 1199 5 view .LVU1471
1199:smtc_modem_core/device_management/modem_context.c **** }
 5701              		.loc 1 1199 32 is_stmt 0 view .LVU1472
 5702 0000 014B     		ldr	r3, .L408
1200:smtc_modem_core/device_management/modem_context.c **** 
 5703              		.loc 1 1200 1 view .LVU1473
 5704              		@ sp needed
1199:smtc_modem_core/device_management/modem_context.c **** }
 5705              		.loc 1 1199 32 view .LVU1474
 5706 0002 5878     		ldrb	r0, [r3, #1]
1200:smtc_modem_core/device_management/modem_context.c **** 
 5707              		.loc 1 1200 1 view .LVU1475
 5708 0004 7047     		bx	lr
 5709              	.L409:
 5710 0006 C046     		.align	2
 5711              	.L408:
 5712 0008 00000000 		.word	.LANCHOR10
 5713              		.cfi_endproc
 5714              	.LFE84:
 5716              		.section	.text.modem_get_stream_port,"ax",%progbits
 5717              		.align	1
 5718              		.global	modem_get_stream_port
 5719              		.syntax unified
ARM GAS  /var/folders/bq/yv49bw8j2kd6w3hsq868qv180000gn/T//ccEK2k0g.s 			page 147


 5720              		.code	16
 5721              		.thumb_func
 5722              		.fpu softvfp
 5724              	modem_get_stream_port:
 5725              	.LFB85:
1203:smtc_modem_core/device_management/modem_context.c ****     return ( modem_stream_state.port );
 5726              		.loc 1 1203 1 is_stmt 1 view -0
 5727              		.cfi_startproc
 5728              		@ args = 0, pretend = 0, frame = 0
 5729              		@ frame_needed = 0, uses_anonymous_args = 0
 5730              		@ link register save eliminated.
1204:smtc_modem_core/device_management/modem_context.c **** }
 5731              		.loc 1 1204 5 view .LVU1477
1204:smtc_modem_core/device_management/modem_context.c **** }
 5732              		.loc 1 1204 32 is_stmt 0 view .LVU1478
 5733 0000 014B     		ldr	r3, .L411
1205:smtc_modem_core/device_management/modem_context.c **** 
 5734              		.loc 1 1205 1 view .LVU1479
 5735              		@ sp needed
1204:smtc_modem_core/device_management/modem_context.c **** }
 5736              		.loc 1 1204 32 view .LVU1480
 5737 0002 1878     		ldrb	r0, [r3]
1205:smtc_modem_core/device_management/modem_context.c **** 
 5738              		.loc 1 1205 1 view .LVU1481
 5739 0004 7047     		bx	lr
 5740              	.L412:
 5741 0006 C046     		.align	2
 5742              	.L411:
 5743 0008 00000000 		.word	.LANCHOR10
 5744              		.cfi_endproc
 5745              	.LFE85:
 5747              		.section	.text.modem_get_stream_encryption,"ax",%progbits
 5748              		.align	1
 5749              		.global	modem_get_stream_encryption
 5750              		.syntax unified
 5751              		.code	16
 5752              		.thumb_func
 5753              		.fpu softvfp
 5755              	modem_get_stream_encryption:
 5756              	.LFB86:
1208:smtc_modem_core/device_management/modem_context.c ****     return ( modem_stream_state.encryption );
 5757              		.loc 1 1208 1 is_stmt 1 view -0
 5758              		.cfi_startproc
 5759              		@ args = 0, pretend = 0, frame = 0
 5760              		@ frame_needed = 0, uses_anonymous_args = 0
 5761              		@ link register save eliminated.
 5762              		.loc 1 1209 5 view .LVU1483
 5763              		.loc 1 1209 32 is_stmt 0 view .LVU1484
 5764 0000 014B     		ldr	r3, .L414
1210:smtc_modem_core/device_management/modem_context.c **** }
 5765              		.loc 1 1210 1 view .LVU1485
 5766              		@ sp needed
1209:smtc_modem_core/device_management/modem_context.c **** }
 5767              		.loc 1 1209 32 view .LVU1486
 5768 0002 9878     		ldrb	r0, [r3, #2]
 5769              		.loc 1 1210 1 view .LVU1487
 5770 0004 7047     		bx	lr
ARM GAS  /var/folders/bq/yv49bw8j2kd6w3hsq868qv180000gn/T//ccEK2k0g.s 			page 148


 5771              	.L415:
 5772 0006 C046     		.align	2
 5773              	.L414:
 5774 0008 00000000 		.word	.LANCHOR10
 5775              		.cfi_endproc
 5776              	.LFE86:
 5778              		.section	.text.modem_set_stream_state,"ax",%progbits
 5779              		.align	1
 5780              		.global	modem_set_stream_state
 5781              		.syntax unified
 5782              		.code	16
 5783              		.thumb_func
 5784              		.fpu softvfp
 5786              	modem_set_stream_state:
 5787              	.LVL379:
 5788              	.LFB87:
1211:smtc_modem_core/device_management/modem_context.c **** 
1212:smtc_modem_core/device_management/modem_context.c **** void modem_set_stream_state( e_modem_stream_state_t stream_state )
1213:smtc_modem_core/device_management/modem_context.c **** {
 5789              		.loc 1 1213 1 is_stmt 1 view -0
 5790              		.cfi_startproc
 5791              		@ args = 0, pretend = 0, frame = 0
 5792              		@ frame_needed = 0, uses_anonymous_args = 0
 5793              		@ link register save eliminated.
1214:smtc_modem_core/device_management/modem_context.c ****     modem_stream_state.state = stream_state;
 5794              		.loc 1 1214 5 view .LVU1489
 5795              		.loc 1 1214 30 is_stmt 0 view .LVU1490
 5796 0000 014B     		ldr	r3, .L417
1215:smtc_modem_core/device_management/modem_context.c **** }
 5797              		.loc 1 1215 1 view .LVU1491
 5798              		@ sp needed
1214:smtc_modem_core/device_management/modem_context.c ****     modem_stream_state.state = stream_state;
 5799              		.loc 1 1214 30 view .LVU1492
 5800 0002 5870     		strb	r0, [r3, #1]
 5801              		.loc 1 1215 1 view .LVU1493
 5802 0004 7047     		bx	lr
 5803              	.L418:
 5804 0006 C046     		.align	2
 5805              	.L417:
 5806 0008 00000000 		.word	.LANCHOR10
 5807              		.cfi_endproc
 5808              	.LFE87:
 5810              		.section	.text.modem_set_stream_port,"ax",%progbits
 5811              		.align	1
 5812              		.global	modem_set_stream_port
 5813              		.syntax unified
 5814              		.code	16
 5815              		.thumb_func
 5816              		.fpu softvfp
 5818              	modem_set_stream_port:
 5819              	.LVL380:
 5820              	.LFB88:
1216:smtc_modem_core/device_management/modem_context.c **** 
1217:smtc_modem_core/device_management/modem_context.c **** void modem_set_stream_port( uint8_t port )
1218:smtc_modem_core/device_management/modem_context.c **** {
 5821              		.loc 1 1218 1 is_stmt 1 view -0
 5822              		.cfi_startproc
ARM GAS  /var/folders/bq/yv49bw8j2kd6w3hsq868qv180000gn/T//ccEK2k0g.s 			page 149


 5823              		@ args = 0, pretend = 0, frame = 0
 5824              		@ frame_needed = 0, uses_anonymous_args = 0
 5825              		@ link register save eliminated.
1219:smtc_modem_core/device_management/modem_context.c ****     modem_stream_state.port = port;
 5826              		.loc 1 1219 5 view .LVU1495
 5827              		.loc 1 1219 29 is_stmt 0 view .LVU1496
 5828 0000 014B     		ldr	r3, .L420
1220:smtc_modem_core/device_management/modem_context.c **** }
 5829              		.loc 1 1220 1 view .LVU1497
 5830              		@ sp needed
1219:smtc_modem_core/device_management/modem_context.c ****     modem_stream_state.port = port;
 5831              		.loc 1 1219 29 view .LVU1498
 5832 0002 1870     		strb	r0, [r3]
 5833              		.loc 1 1220 1 view .LVU1499
 5834 0004 7047     		bx	lr
 5835              	.L421:
 5836 0006 C046     		.align	2
 5837              	.L420:
 5838 0008 00000000 		.word	.LANCHOR10
 5839              		.cfi_endproc
 5840              	.LFE88:
 5842              		.section	.text.modem_set_stream_encryption,"ax",%progbits
 5843              		.align	1
 5844              		.global	modem_set_stream_encryption
 5845              		.syntax unified
 5846              		.code	16
 5847              		.thumb_func
 5848              		.fpu softvfp
 5850              	modem_set_stream_encryption:
 5851              	.LVL381:
 5852              	.LFB89:
1221:smtc_modem_core/device_management/modem_context.c **** 
1222:smtc_modem_core/device_management/modem_context.c **** void modem_set_stream_encryption( bool enc )
1223:smtc_modem_core/device_management/modem_context.c **** {
 5853              		.loc 1 1223 1 is_stmt 1 view -0
 5854              		.cfi_startproc
 5855              		@ args = 0, pretend = 0, frame = 0
 5856              		@ frame_needed = 0, uses_anonymous_args = 0
 5857              		@ link register save eliminated.
1224:smtc_modem_core/device_management/modem_context.c ****     modem_stream_state.encryption = enc;
 5858              		.loc 1 1224 5 view .LVU1501
 5859              		.loc 1 1224 35 is_stmt 0 view .LVU1502
 5860 0000 014B     		ldr	r3, .L423
1225:smtc_modem_core/device_management/modem_context.c **** }
 5861              		.loc 1 1225 1 view .LVU1503
 5862              		@ sp needed
1224:smtc_modem_core/device_management/modem_context.c ****     modem_stream_state.encryption = enc;
 5863              		.loc 1 1224 35 view .LVU1504
 5864 0002 9870     		strb	r0, [r3, #2]
 5865              		.loc 1 1225 1 view .LVU1505
 5866 0004 7047     		bx	lr
 5867              	.L424:
 5868 0006 C046     		.align	2
 5869              	.L423:
 5870 0008 00000000 		.word	.LANCHOR10
 5871              		.cfi_endproc
 5872              	.LFE89:
ARM GAS  /var/folders/bq/yv49bw8j2kd6w3hsq868qv180000gn/T//ccEK2k0g.s 			page 150


 5874              		.section	.text.modem_set_dm_info_bitfield_periodic,"ax",%progbits
 5875              		.align	1
 5876              		.global	modem_set_dm_info_bitfield_periodic
 5877              		.syntax unified
 5878              		.code	16
 5879              		.thumb_func
 5880              		.fpu softvfp
 5882              	modem_set_dm_info_bitfield_periodic:
 5883              	.LVL382:
 5884              	.LFB90:
1226:smtc_modem_core/device_management/modem_context.c **** 
1227:smtc_modem_core/device_management/modem_context.c **** void modem_set_dm_info_bitfield_periodic( uint32_t value )
1228:smtc_modem_core/device_management/modem_context.c **** {
 5885              		.loc 1 1228 1 is_stmt 1 view -0
 5886              		.cfi_startproc
 5887              		@ args = 0, pretend = 0, frame = 0
 5888              		@ frame_needed = 0, uses_anonymous_args = 0
1229:smtc_modem_core/device_management/modem_context.c ****     if( dm_info_bitfield_periodic != value )
 5889              		.loc 1 1229 5 view .LVU1507
 5890              		.loc 1 1229 35 is_stmt 0 view .LVU1508
 5891 0000 044B     		ldr	r3, .L427
1228:smtc_modem_core/device_management/modem_context.c ****     if( dm_info_bitfield_periodic != value )
 5892              		.loc 1 1228 1 view .LVU1509
 5893 0002 10B5     		push	{r4, lr}
 5894              		.cfi_def_cfa_offset 8
 5895              		.cfi_offset 4, -8
 5896              		.cfi_offset 14, -4
 5897              		.loc 1 1229 7 view .LVU1510
 5898 0004 1A68     		ldr	r2, [r3]
 5899 0006 8242     		cmp	r2, r0
 5900 0008 02D0     		beq	.L425
1230:smtc_modem_core/device_management/modem_context.c ****     {
1231:smtc_modem_core/device_management/modem_context.c ****         dm_info_bitfield_periodic = value;
 5901              		.loc 1 1231 9 is_stmt 1 view .LVU1511
 5902              		.loc 1 1231 35 is_stmt 0 view .LVU1512
 5903 000a 1860     		str	r0, [r3]
1232:smtc_modem_core/device_management/modem_context.c ****         modem_store_context( );
 5904              		.loc 1 1232 9 is_stmt 1 view .LVU1513
 5905 000c FFF7FEFF 		bl	modem_store_context
 5906              	.LVL383:
 5907              	.L425:
1233:smtc_modem_core/device_management/modem_context.c ****     }
1234:smtc_modem_core/device_management/modem_context.c **** }
 5908              		.loc 1 1234 1 is_stmt 0 view .LVU1514
 5909              		@ sp needed
 5910 0010 10BD     		pop	{r4, pc}
 5911              	.L428:
 5912 0012 C046     		.align	2
 5913              	.L427:
 5914 0014 00000000 		.word	.LANCHOR16
 5915              		.cfi_endproc
 5916              	.LFE90:
 5918              		.section	.text.modem_get_dm_info_bitfield_periodic,"ax",%progbits
 5919              		.align	1
 5920              		.global	modem_get_dm_info_bitfield_periodic
 5921              		.syntax unified
 5922              		.code	16
ARM GAS  /var/folders/bq/yv49bw8j2kd6w3hsq868qv180000gn/T//ccEK2k0g.s 			page 151


 5923              		.thumb_func
 5924              		.fpu softvfp
 5926              	modem_get_dm_info_bitfield_periodic:
 5927              	.LFB91:
1235:smtc_modem_core/device_management/modem_context.c **** uint32_t modem_get_dm_info_bitfield_periodic( void )
1236:smtc_modem_core/device_management/modem_context.c **** {
 5928              		.loc 1 1236 1 is_stmt 1 view -0
 5929              		.cfi_startproc
 5930              		@ args = 0, pretend = 0, frame = 0
 5931              		@ frame_needed = 0, uses_anonymous_args = 0
 5932              		@ link register save eliminated.
1237:smtc_modem_core/device_management/modem_context.c ****     return ( dm_info_bitfield_periodic );
 5933              		.loc 1 1237 5 view .LVU1516
 5934              		.loc 1 1237 12 is_stmt 0 view .LVU1517
 5935 0000 014B     		ldr	r3, .L430
1238:smtc_modem_core/device_management/modem_context.c **** }
 5936              		.loc 1 1238 1 view .LVU1518
 5937              		@ sp needed
1237:smtc_modem_core/device_management/modem_context.c ****     return ( dm_info_bitfield_periodic );
 5938              		.loc 1 1237 12 view .LVU1519
 5939 0002 1868     		ldr	r0, [r3]
 5940              		.loc 1 1238 1 view .LVU1520
 5941 0004 7047     		bx	lr
 5942              	.L431:
 5943 0006 C046     		.align	2
 5944              	.L430:
 5945 0008 00000000 		.word	.LANCHOR16
 5946              		.cfi_endproc
 5947              	.LFE91:
 5949              		.section	.text.modem_get_user_alarm,"ax",%progbits
 5950              		.align	1
 5951              		.global	modem_get_user_alarm
 5952              		.syntax unified
 5953              		.code	16
 5954              		.thumb_func
 5955              		.fpu softvfp
 5957              	modem_get_user_alarm:
 5958              	.LFB92:
1239:smtc_modem_core/device_management/modem_context.c **** uint32_t modem_get_user_alarm( void )
1240:smtc_modem_core/device_management/modem_context.c **** {
 5959              		.loc 1 1240 1 is_stmt 1 view -0
 5960              		.cfi_startproc
 5961              		@ args = 0, pretend = 0, frame = 0
 5962              		@ frame_needed = 0, uses_anonymous_args = 0
 5963              		@ link register save eliminated.
1241:smtc_modem_core/device_management/modem_context.c ****     return ( user_alarm );
 5964              		.loc 1 1241 5 view .LVU1522
 5965              		.loc 1 1241 12 is_stmt 0 view .LVU1523
 5966 0000 014B     		ldr	r3, .L433
1242:smtc_modem_core/device_management/modem_context.c **** }
 5967              		.loc 1 1242 1 view .LVU1524
 5968              		@ sp needed
1241:smtc_modem_core/device_management/modem_context.c ****     return ( user_alarm );
 5969              		.loc 1 1241 12 view .LVU1525
 5970 0002 1868     		ldr	r0, [r3]
 5971              		.loc 1 1242 1 view .LVU1526
 5972 0004 7047     		bx	lr
ARM GAS  /var/folders/bq/yv49bw8j2kd6w3hsq868qv180000gn/T//ccEK2k0g.s 			page 152


 5973              	.L434:
 5974 0006 C046     		.align	2
 5975              	.L433:
 5976 0008 00000000 		.word	.LANCHOR25
 5977              		.cfi_endproc
 5978              	.LFE92:
 5980              		.section	.text.modem_set_user_alarm,"ax",%progbits
 5981              		.align	1
 5982              		.global	modem_set_user_alarm
 5983              		.syntax unified
 5984              		.code	16
 5985              		.thumb_func
 5986              		.fpu softvfp
 5988              	modem_set_user_alarm:
 5989              	.LVL384:
 5990              	.LFB93:
1243:smtc_modem_core/device_management/modem_context.c **** 
1244:smtc_modem_core/device_management/modem_context.c **** void modem_set_user_alarm( uint32_t alarm )
1245:smtc_modem_core/device_management/modem_context.c **** {
 5991              		.loc 1 1245 1 is_stmt 1 view -0
 5992              		.cfi_startproc
 5993              		@ args = 0, pretend = 0, frame = 0
 5994              		@ frame_needed = 0, uses_anonymous_args = 0
 5995              		@ link register save eliminated.
1246:smtc_modem_core/device_management/modem_context.c ****     user_alarm = alarm;
 5996              		.loc 1 1246 5 view .LVU1528
 5997              		.loc 1 1246 16 is_stmt 0 view .LVU1529
 5998 0000 014B     		ldr	r3, .L436
1247:smtc_modem_core/device_management/modem_context.c **** }
 5999              		.loc 1 1247 1 view .LVU1530
 6000              		@ sp needed
1246:smtc_modem_core/device_management/modem_context.c ****     user_alarm = alarm;
 6001              		.loc 1 1246 16 view .LVU1531
 6002 0002 1860     		str	r0, [r3]
 6003              		.loc 1 1247 1 view .LVU1532
 6004 0004 7047     		bx	lr
 6005              	.L437:
 6006 0006 C046     		.align	2
 6007              	.L436:
 6008 0008 00000000 		.word	.LANCHOR25
 6009              		.cfi_endproc
 6010              	.LFE93:
 6012              		.section	.text.get_modem_reset_requested,"ax",%progbits
 6013              		.align	1
 6014              		.global	get_modem_reset_requested
 6015              		.syntax unified
 6016              		.code	16
 6017              		.thumb_func
 6018              		.fpu softvfp
 6020              	get_modem_reset_requested:
 6021              	.LFB94:
1248:smtc_modem_core/device_management/modem_context.c **** 
1249:smtc_modem_core/device_management/modem_context.c **** bool get_modem_reset_requested( void )
1250:smtc_modem_core/device_management/modem_context.c **** {
 6022              		.loc 1 1250 1 is_stmt 1 view -0
 6023              		.cfi_startproc
 6024              		@ args = 0, pretend = 0, frame = 0
ARM GAS  /var/folders/bq/yv49bw8j2kd6w3hsq868qv180000gn/T//ccEK2k0g.s 			page 153


 6025              		@ frame_needed = 0, uses_anonymous_args = 0
 6026              		@ link register save eliminated.
1251:smtc_modem_core/device_management/modem_context.c ****     return is_modem_reset_requested;
 6027              		.loc 1 1251 5 view .LVU1534
 6028              		.loc 1 1251 12 is_stmt 0 view .LVU1535
 6029 0000 014B     		ldr	r3, .L439
1252:smtc_modem_core/device_management/modem_context.c **** }
 6030              		.loc 1 1252 1 view .LVU1536
 6031              		@ sp needed
1251:smtc_modem_core/device_management/modem_context.c ****     return is_modem_reset_requested;
 6032              		.loc 1 1251 12 view .LVU1537
 6033 0002 1878     		ldrb	r0, [r3]
 6034              		.loc 1 1252 1 view .LVU1538
 6035 0004 7047     		bx	lr
 6036              	.L440:
 6037 0006 C046     		.align	2
 6038              	.L439:
 6039 0008 00000000 		.word	.LANCHOR21
 6040              		.cfi_endproc
 6041              	.LFE94:
 6043              		.section	.text.set_modem_reset_requested,"ax",%progbits
 6044              		.align	1
 6045              		.global	set_modem_reset_requested
 6046              		.syntax unified
 6047              		.code	16
 6048              		.thumb_func
 6049              		.fpu softvfp
 6051              	set_modem_reset_requested:
 6052              	.LVL385:
 6053              	.LFB95:
1253:smtc_modem_core/device_management/modem_context.c **** void set_modem_reset_requested( bool reset_req )
1254:smtc_modem_core/device_management/modem_context.c **** {
 6054              		.loc 1 1254 1 is_stmt 1 view -0
 6055              		.cfi_startproc
 6056              		@ args = 0, pretend = 0, frame = 0
 6057              		@ frame_needed = 0, uses_anonymous_args = 0
 6058              		@ link register save eliminated.
1255:smtc_modem_core/device_management/modem_context.c ****     is_modem_reset_requested = reset_req;
 6059              		.loc 1 1255 5 view .LVU1540
 6060              		.loc 1 1255 30 is_stmt 0 view .LVU1541
 6061 0000 014B     		ldr	r3, .L442
1256:smtc_modem_core/device_management/modem_context.c **** }
 6062              		.loc 1 1256 1 view .LVU1542
 6063              		@ sp needed
1255:smtc_modem_core/device_management/modem_context.c ****     is_modem_reset_requested = reset_req;
 6064              		.loc 1 1255 30 view .LVU1543
 6065 0002 1870     		strb	r0, [r3]
 6066              		.loc 1 1256 1 view .LVU1544
 6067 0004 7047     		bx	lr
 6068              	.L443:
 6069 0006 C046     		.align	2
 6070              	.L442:
 6071 0008 00000000 		.word	.LANCHOR21
 6072              		.cfi_endproc
 6073              	.LFE95:
 6075              		.section	.bss.asynch_msg,"aw",%nobits
 6076              		.align	2
ARM GAS  /var/folders/bq/yv49bw8j2kd6w3hsq868qv180000gn/T//ccEK2k0g.s 			page 154


 6077              		.set	.LANCHOR3,. + 0
 6080              	asynch_msg:
 6081 0000 00000000 		.space	11
 6081      00000000 
 6081      000000
 6082              		.section	.bss.asynchronous_msgnumber,"aw",%nobits
 6083              		.set	.LANCHOR2,. + 0
 6086              	asynchronous_msgnumber:
 6087 0000 00       		.space	1
 6088              		.section	.bss.dm_info_bitfield_now,"aw",%nobits
 6089              		.align	2
 6090              		.set	.LANCHOR15,. + 0
 6093              	dm_info_bitfield_now:
 6094 0000 00000000 		.space	4
 6095              		.section	.bss.dm_pending_dl,"aw",%nobits
 6096              		.set	.LANCHOR20,. + 0
 6099              	dm_pending_dl:
 6100 0000 0000     		.space	2
 6101              		.section	.bss.is_modem_charge_loaded,"aw",%nobits
 6102              		.set	.LANCHOR23,. + 0
 6105              	is_modem_charge_loaded:
 6106 0000 00       		.space	1
 6107              		.section	.bss.is_modem_reset_requested,"aw",%nobits
 6108              		.set	.LANCHOR21,. + 0
 6111              	is_modem_reset_requested:
 6112 0000 00       		.space	1
 6113              		.section	.bss.is_modem_suspend,"aw",%nobits
 6114              		.set	.LANCHOR17,. + 0
 6117              	is_modem_suspend:
 6118 0000 00       		.space	1
 6119              		.section	.bss.modem_appstatus,"aw",%nobits
 6120              		.align	2
 6121              		.set	.LANCHOR9,. + 0
 6124              	modem_appstatus:
 6125 0000 00000000 		.space	8
 6125      00000000 
 6126              		.section	.bss.modem_charge_offset,"aw",%nobits
 6127              		.align	2
 6128              		.set	.LANCHOR12,. + 0
 6131              	modem_charge_offset:
 6132 0000 00000000 		.space	4
 6133              		.section	.bss.modem_dm_class,"aw",%nobits
 6134              		.set	.LANCHOR7,. + 0
 6137              	modem_dm_class:
 6138 0000 00       		.space	1
 6139              		.section	.bss.modem_dm_upload_sctr,"aw",%nobits
 6140              		.set	.LANCHOR22,. + 0
 6143              	modem_dm_upload_sctr:
 6144 0000 00       		.space	1
 6145              		.section	.bss.modem_dwn_pkt,"aw",%nobits
 6146              		.align	2
 6149              	modem_dwn_pkt:
 6150 0000 00000000 		.space	268
 6150      00000000 
 6150      00000000 
 6150      00000000 
 6150      00000000 
ARM GAS  /var/folders/bq/yv49bw8j2kd6w3hsq868qv180000gn/T//ccEK2k0g.s 			page 155


 6151              		.section	.bss.modem_event_count,"aw",%nobits
 6152              		.align	2
 6153              		.set	.LANCHOR0,. + 0
 6156              	modem_event_count:
 6157 0000 00000000 		.space	11
 6157      00000000 
 6157      000000
 6158              		.section	.bss.modem_event_status,"aw",%nobits
 6159              		.align	2
 6160              		.set	.LANCHOR1,. + 0
 6163              	modem_event_status:
 6164 0000 00000000 		.space	11
 6164      00000000 
 6164      000000
 6165              		.section	.bss.modem_start_time,"aw",%nobits
 6166              		.align	2
 6167              		.set	.LANCHOR4,. + 0
 6170              	modem_start_time:
 6171 0000 00000000 		.space	4
 6172              		.section	.bss.modem_status,"aw",%nobits
 6173              		.set	.LANCHOR11,. + 0
 6176              	modem_status:
 6177 0000 00       		.space	1
 6178              		.section	.bss.modem_upload_state,"aw",%nobits
 6179              		.set	.LANCHOR24,. + 0
 6182              	modem_upload_state:
 6183 0000 00       		.space	1
 6184              		.section	.bss.number_of_muted_day,"aw",%nobits
 6185              		.set	.LANCHOR14,. + 0
 6188              	number_of_muted_day:
 6189 0000 00       		.space	1
 6190              		.section	.bss.tag_number,"aw",%nobits
 6191              		.set	.LANCHOR19,. + 0
 6194              	tag_number:
 6195 0000 00       		.space	1
 6196              		.section	.bss.tag_number_now,"aw",%nobits
 6197              		.set	.LANCHOR18,. + 0
 6200              	tag_number_now:
 6201 0000 00       		.space	1
 6202              		.section	.bss.user_alarm,"aw",%nobits
 6203              		.align	2
 6204              		.set	.LANCHOR25,. + 0
 6207              	user_alarm:
 6208 0000 00000000 		.space	4
 6209              		.section	.bss.was_set.6952,"aw",%nobits
 6210              		.set	.LANCHOR5,. + 0
 6213              	was_set.6952:
 6214 0000 00       		.space	1
 6215              		.section	.data.dm_info_bitfield_periodic,"aw"
 6216              		.align	2
 6217              		.set	.LANCHOR16,. + 0
 6220              	dm_info_bitfield_periodic:
 6221 0000 7B000000 		.word	123
 6222              		.section	.data.modem_dm_interval,"aw"
 6223              		.set	.LANCHOR6,. + 0
 6226              	modem_dm_interval:
 6227 0000 81       		.byte	-127
ARM GAS  /var/folders/bq/yv49bw8j2kd6w3hsq868qv180000gn/T//ccEK2k0g.s 			page 156


 6228              		.section	.data.modem_dm_port,"aw"
 6229              		.set	.LANCHOR8,. + 0
 6232              	modem_dm_port:
 6233 0000 C7       		.byte	-57
 6234              		.section	.data.modem_stream_state,"aw"
 6235              		.set	.LANCHOR10,. + 0
 6238              	modem_stream_state:
 6239 0000 C7       		.byte	-57
 6240 0001 00       		.byte	0
 6241 0002 00       		.byte	0
 6242              		.section	.rodata.dm_info_field_sz,"a"
 6243              		.align	2
 6244              		.set	.LANCHOR13,. + 0
 6247              	dm_info_field_sz:
 6248 0000 01020101 		.ascii	"\001\002\001\001\002\002\002\010\001\010\001\001\004"
 6248      02020208 
 6248      01080101 
 6248      04
 6249 000d 00000208 		.ascii	"\000\000\002\010\002\002\010\000\002\010\000"
 6249      02020800 
 6249      020800
 6250              		.text
 6251              	.Letext0:
 6252              		.file 3 "/Applications/STM32CubeIDE.app/Contents/Eclipse/plugins/com.st.stm32cube.ide.mcu.external
 6253              		.file 4 "/Applications/STM32CubeIDE.app/Contents/Eclipse/plugins/com.st.stm32cube.ide.mcu.external
 6254              		.file 5 "/Applications/STM32CubeIDE.app/Contents/Eclipse/plugins/com.st.stm32cube.ide.mcu.external
 6255              		.file 6 "/Applications/STM32CubeIDE.app/Contents/Eclipse/plugins/com.st.stm32cube.ide.mcu.external
 6256              		.file 7 "/Applications/STM32CubeIDE.app/Contents/Eclipse/plugins/com.st.stm32cube.ide.mcu.external
 6257              		.file 8 "/Applications/STM32CubeIDE.app/Contents/Eclipse/plugins/com.st.stm32cube.ide.mcu.external
 6258              		.file 9 "smtc_modem_core/device_management/device_management_defs.h"
 6259              		.file 10 "smtc_ral/src/ral_defs.h"
 6260              		.file 11 "radio_planner/src/radio_planner_types.h"
 6261              		.file 12 "radio_planner/src/radio_planner.h"
 6262              		.file 13 "smtc_modem_core/modem_supervisor/modem_supervisor.h"
 6263              		.file 14 "lr1mac/src/lr1mac_defs.h"
 6264              		.file 15 "lr1mac/src/smtc_real/src/smtc_real_defs.h"
 6265              		.file 16 "smtc_bsp/smtc_bsp_mcu.h"
 6266              		.file 17 "/Applications/STM32CubeIDE.app/Contents/Eclipse/plugins/com.st.stm32cube.ide.mcu.externa
 6267              		.file 18 "smtc_bsp/smtc_bsp_nvm.h"
 6268              		.file 19 "smtc_modem_core/lorawan_api/lorawan_api.h"
 6269              		.file 20 "smtc_bsp/smtc_bsp_rtc.h"
 6270              		.file 21 "smtc_modem_core/modem_api.h"
 6271              		.file 22 "smtc_bsp/smtc_bsp_rng.h"
 6272              		.file 23 "smtc_modem_core/modem_services/modem_utilities.h"
 6273              		.file 24 "<built-in>"
ARM GAS  /var/folders/bq/yv49bw8j2kd6w3hsq868qv180000gn/T//ccEK2k0g.s 			page 157


DEFINED SYMBOLS
                            *ABS*:0000000000000000 modem_context.c
/var/folders/bq/yv49bw8j2kd6w3hsq868qv180000gn/T//ccEK2k0g.s:14     .text.modem_event_init:0000000000000000 $t
/var/folders/bq/yv49bw8j2kd6w3hsq868qv180000gn/T//ccEK2k0g.s:22     .text.modem_event_init:0000000000000000 modem_event_init
/var/folders/bq/yv49bw8j2kd6w3hsq868qv180000gn/T//ccEK2k0g.s:94     .text.modem_event_init:0000000000000014 $d
/var/folders/bq/yv49bw8j2kd6w3hsq868qv180000gn/T//ccEK2k0g.s:100    .text.get_modem_event_count:0000000000000000 $t
/var/folders/bq/yv49bw8j2kd6w3hsq868qv180000gn/T//ccEK2k0g.s:107    .text.get_modem_event_count:0000000000000000 get_modem_event_count
/var/folders/bq/yv49bw8j2kd6w3hsq868qv180000gn/T//ccEK2k0g.s:141    .text.get_modem_event_count:0000000000000014 $d
/var/folders/bq/yv49bw8j2kd6w3hsq868qv180000gn/T//ccEK2k0g.s:146    .text.set_modem_event_count:0000000000000000 $t
/var/folders/bq/yv49bw8j2kd6w3hsq868qv180000gn/T//ccEK2k0g.s:153    .text.set_modem_event_count:0000000000000000 set_modem_event_count
/var/folders/bq/yv49bw8j2kd6w3hsq868qv180000gn/T//ccEK2k0g.s:176    .text.set_modem_event_count:000000000000000c $d
/var/folders/bq/yv49bw8j2kd6w3hsq868qv180000gn/T//ccEK2k0g.s:181    .text.increment_modem_event_count:0000000000000000 $t
/var/folders/bq/yv49bw8j2kd6w3hsq868qv180000gn/T//ccEK2k0g.s:188    .text.increment_modem_event_count:0000000000000000 increment_modem_event_count
/var/folders/bq/yv49bw8j2kd6w3hsq868qv180000gn/T//ccEK2k0g.s:227    .text.increment_modem_event_count:0000000000000014 $d
/var/folders/bq/yv49bw8j2kd6w3hsq868qv180000gn/T//ccEK2k0g.s:232    .text.get_modem_event_status:0000000000000000 $t
/var/folders/bq/yv49bw8j2kd6w3hsq868qv180000gn/T//ccEK2k0g.s:239    .text.get_modem_event_status:0000000000000000 get_modem_event_status
/var/folders/bq/yv49bw8j2kd6w3hsq868qv180000gn/T//ccEK2k0g.s:273    .text.get_modem_event_status:0000000000000014 $d
/var/folders/bq/yv49bw8j2kd6w3hsq868qv180000gn/T//ccEK2k0g.s:278    .text.set_modem_event_status:0000000000000000 $t
/var/folders/bq/yv49bw8j2kd6w3hsq868qv180000gn/T//ccEK2k0g.s:285    .text.set_modem_event_status:0000000000000000 set_modem_event_status
/var/folders/bq/yv49bw8j2kd6w3hsq868qv180000gn/T//ccEK2k0g.s:308    .text.set_modem_event_status:000000000000000c $d
/var/folders/bq/yv49bw8j2kd6w3hsq868qv180000gn/T//ccEK2k0g.s:313    .text.decrement_asynchronous_msgnumber:0000000000000000 $t
/var/folders/bq/yv49bw8j2kd6w3hsq868qv180000gn/T//ccEK2k0g.s:320    .text.decrement_asynchronous_msgnumber:0000000000000000 decrement_asynchronous_msgnumber
/var/folders/bq/yv49bw8j2kd6w3hsq868qv180000gn/T//ccEK2k0g.s:346    .text.decrement_asynchronous_msgnumber:0000000000000010 $d
/var/folders/bq/yv49bw8j2kd6w3hsq868qv180000gn/T//ccEK2k0g.s:351    .text.get_asynchronous_msgnumber:0000000000000000 $t
/var/folders/bq/yv49bw8j2kd6w3hsq868qv180000gn/T//ccEK2k0g.s:358    .text.get_asynchronous_msgnumber:0000000000000000 get_asynchronous_msgnumber
/var/folders/bq/yv49bw8j2kd6w3hsq868qv180000gn/T//ccEK2k0g.s:377    .text.get_asynchronous_msgnumber:0000000000000008 $d
/var/folders/bq/yv49bw8j2kd6w3hsq868qv180000gn/T//ccEK2k0g.s:411    .text.increment_asynchronous_msgnumber:0000000000000000 $t
/var/folders/bq/yv49bw8j2kd6w3hsq868qv180000gn/T//ccEK2k0g.s:418    .text.increment_asynchronous_msgnumber:0000000000000000 increment_asynchronous_msgnumber
/var/folders/bq/yv49bw8j2kd6w3hsq868qv180000gn/T//ccEK2k0g.s:530    .text.increment_asynchronous_msgnumber:0000000000000054 $d
/var/folders/bq/yv49bw8j2kd6w3hsq868qv180000gn/T//ccEK2k0g.s:538    .text.increment_asynchronous_msgnumber:000000000000005c $t
/var/folders/bq/yv49bw8j2kd6w3hsq868qv180000gn/T//ccEK2k0g.s:689    .text.increment_asynchronous_msgnumber:00000000000000f4 $d
/var/folders/bq/yv49bw8j2kd6w3hsq868qv180000gn/T//ccEK2k0g.s:713    .text.get_last_msg_event:0000000000000000 $t
/var/folders/bq/yv49bw8j2kd6w3hsq868qv180000gn/T//ccEK2k0g.s:720    .text.get_last_msg_event:0000000000000000 get_last_msg_event
/var/folders/bq/yv49bw8j2kd6w3hsq868qv180000gn/T//ccEK2k0g.s:741    .text.get_last_msg_event:000000000000000c $d
/var/folders/bq/yv49bw8j2kd6w3hsq868qv180000gn/T//ccEK2k0g.s:747    .text.get_modem_uptime_s:0000000000000000 $t
/var/folders/bq/yv49bw8j2kd6w3hsq868qv180000gn/T//ccEK2k0g.s:754    .text.get_modem_uptime_s:0000000000000000 get_modem_uptime_s
/var/folders/bq/yv49bw8j2kd6w3hsq868qv180000gn/T//ccEK2k0g.s:781    .text.get_modem_uptime_s:0000000000000010 $d
/var/folders/bq/yv49bw8j2kd6w3hsq868qv180000gn/T//ccEK2k0g.s:786    .text.set_modem_start_time_s:0000000000000000 $t
/var/folders/bq/yv49bw8j2kd6w3hsq868qv180000gn/T//ccEK2k0g.s:793    .text.set_modem_start_time_s:0000000000000000 set_modem_start_time_s
/var/folders/bq/yv49bw8j2kd6w3hsq868qv180000gn/T//ccEK2k0g.s:824    .text.set_modem_start_time_s:0000000000000014 $d
/var/folders/bq/yv49bw8j2kd6w3hsq868qv180000gn/T//ccEK2k0g.s:830    .text.get_modem_dm_interval:0000000000000000 $t
/var/folders/bq/yv49bw8j2kd6w3hsq868qv180000gn/T//ccEK2k0g.s:837    .text.get_modem_dm_interval:0000000000000000 get_modem_dm_interval
/var/folders/bq/yv49bw8j2kd6w3hsq868qv180000gn/T//ccEK2k0g.s:856    .text.get_modem_dm_interval:0000000000000008 $d
/var/folders/bq/yv49bw8j2kd6w3hsq868qv180000gn/T//ccEK2k0g.s:861    .text.get_modem_dm_interval_second:0000000000000000 $t
/var/folders/bq/yv49bw8j2kd6w3hsq868qv180000gn/T//ccEK2k0g.s:868    .text.get_modem_dm_interval_second:0000000000000000 get_modem_dm_interval_second
/var/folders/bq/yv49bw8j2kd6w3hsq868qv180000gn/T//ccEK2k0g.s:929    .text.get_modem_dm_interval_second:0000000000000028 $d
/var/folders/bq/yv49bw8j2kd6w3hsq868qv180000gn/T//ccEK2k0g.s:938    .text.set_modem_class:0000000000000000 $t
/var/folders/bq/yv49bw8j2kd6w3hsq868qv180000gn/T//ccEK2k0g.s:945    .text.set_modem_class:0000000000000000 set_modem_class
/var/folders/bq/yv49bw8j2kd6w3hsq868qv180000gn/T//ccEK2k0g.s:1004   .text.set_modem_class:000000000000002c $d
/var/folders/bq/yv49bw8j2kd6w3hsq868qv180000gn/T//ccEK2k0g.s:1013   .text.get_modem_class:0000000000000000 $t
/var/folders/bq/yv49bw8j2kd6w3hsq868qv180000gn/T//ccEK2k0g.s:1020   .text.get_modem_class:0000000000000000 get_modem_class
/var/folders/bq/yv49bw8j2kd6w3hsq868qv180000gn/T//ccEK2k0g.s:1039   .text.get_modem_class:0000000000000008 $d
/var/folders/bq/yv49bw8j2kd6w3hsq868qv180000gn/T//ccEK2k0g.s:1044   .text.get_modem_dm_port:0000000000000000 $t
/var/folders/bq/yv49bw8j2kd6w3hsq868qv180000gn/T//ccEK2k0g.s:1051   .text.get_modem_dm_port:0000000000000000 get_modem_dm_port
/var/folders/bq/yv49bw8j2kd6w3hsq868qv180000gn/T//ccEK2k0g.s:1070   .text.get_modem_dm_port:0000000000000008 $d
/var/folders/bq/yv49bw8j2kd6w3hsq868qv180000gn/T//ccEK2k0g.s:1078   .text.get_modem_adr:0000000000000000 $t
/var/folders/bq/yv49bw8j2kd6w3hsq868qv180000gn/T//ccEK2k0g.s:1085   .text.get_modem_adr:0000000000000000 get_modem_adr
ARM GAS  /var/folders/bq/yv49bw8j2kd6w3hsq868qv180000gn/T//ccEK2k0g.s 			page 158


/var/folders/bq/yv49bw8j2kd6w3hsq868qv180000gn/T//ccEK2k0g.s:1144   .text.get_modem_adr:000000000000002c $d
/var/folders/bq/yv49bw8j2kd6w3hsq868qv180000gn/T//ccEK2k0g.s:1152   .text.get_modem_region:0000000000000000 $t
/var/folders/bq/yv49bw8j2kd6w3hsq868qv180000gn/T//ccEK2k0g.s:1159   .text.get_modem_region:0000000000000000 get_modem_region
/var/folders/bq/yv49bw8j2kd6w3hsq868qv180000gn/T//ccEK2k0g.s:1181   .text.set_modem_region:0000000000000000 $t
/var/folders/bq/yv49bw8j2kd6w3hsq868qv180000gn/T//ccEK2k0g.s:1188   .text.set_modem_region:0000000000000000 set_modem_region
/var/folders/bq/yv49bw8j2kd6w3hsq868qv180000gn/T//ccEK2k0g.s:1215   .text.set_modem_appstatus:0000000000000000 $t
/var/folders/bq/yv49bw8j2kd6w3hsq868qv180000gn/T//ccEK2k0g.s:1222   .text.set_modem_appstatus:0000000000000000 set_modem_appstatus
/var/folders/bq/yv49bw8j2kd6w3hsq868qv180000gn/T//ccEK2k0g.s:1250   .text.set_modem_appstatus:0000000000000010 $d
/var/folders/bq/yv49bw8j2kd6w3hsq868qv180000gn/T//ccEK2k0g.s:1255   .text.get_modem_appstatus:0000000000000000 $t
/var/folders/bq/yv49bw8j2kd6w3hsq868qv180000gn/T//ccEK2k0g.s:1262   .text.get_modem_appstatus:0000000000000000 get_modem_appstatus
/var/folders/bq/yv49bw8j2kd6w3hsq868qv180000gn/T//ccEK2k0g.s:1286   .text.get_modem_appstatus:000000000000000c $d
/var/folders/bq/yv49bw8j2kd6w3hsq868qv180000gn/T//ccEK2k0g.s:1291   .text.modem_supervisor_add_task_dm_status_now:0000000000000000 $t
/var/folders/bq/yv49bw8j2kd6w3hsq868qv180000gn/T//ccEK2k0g.s:1298   .text.modem_supervisor_add_task_dm_status_now:0000000000000000 modem_supervisor_add_task_dm_status_now
/var/folders/bq/yv49bw8j2kd6w3hsq868qv180000gn/T//ccEK2k0g.s:1359   .text.modem_supervisor_add_task_modem_mute:0000000000000000 $t
/var/folders/bq/yv49bw8j2kd6w3hsq868qv180000gn/T//ccEK2k0g.s:1366   .text.modem_supervisor_add_task_modem_mute:0000000000000000 modem_supervisor_add_task_modem_mute
/var/folders/bq/yv49bw8j2kd6w3hsq868qv180000gn/T//ccEK2k0g.s:1413   .text.modem_supervisor_add_task_modem_mute:0000000000000020 $d
/var/folders/bq/yv49bw8j2kd6w3hsq868qv180000gn/T//ccEK2k0g.s:1421   .text.modem_supervisor_add_task_stream:0000000000000000 $t
/var/folders/bq/yv49bw8j2kd6w3hsq868qv180000gn/T//ccEK2k0g.s:1428   .text.modem_supervisor_add_task_stream:0000000000000000 modem_supervisor_add_task_stream
/var/folders/bq/yv49bw8j2kd6w3hsq868qv180000gn/T//ccEK2k0g.s:1509   .text.modem_supervisor_add_task_stream:0000000000000040 $d
/var/folders/bq/yv49bw8j2kd6w3hsq868qv180000gn/T//ccEK2k0g.s:1518   .text.set_modem_status_reset_after_brownout:0000000000000000 $t
/var/folders/bq/yv49bw8j2kd6w3hsq868qv180000gn/T//ccEK2k0g.s:1525   .text.set_modem_status_reset_after_brownout:0000000000000000 set_modem_status_reset_after_brownout
/var/folders/bq/yv49bw8j2kd6w3hsq868qv180000gn/T//ccEK2k0g.s:1559   .text.set_modem_status_reset_after_brownout:0000000000000018 $d
/var/folders/bq/yv49bw8j2kd6w3hsq868qv180000gn/T//ccEK2k0g.s:1564   .text.set_modem_status_reset_after_crash:0000000000000000 $t
/var/folders/bq/yv49bw8j2kd6w3hsq868qv180000gn/T//ccEK2k0g.s:1571   .text.set_modem_status_reset_after_crash:0000000000000000 set_modem_status_reset_after_crash
/var/folders/bq/yv49bw8j2kd6w3hsq868qv180000gn/T//ccEK2k0g.s:1605   .text.set_modem_status_reset_after_crash:0000000000000018 $d
/var/folders/bq/yv49bw8j2kd6w3hsq868qv180000gn/T//ccEK2k0g.s:1610   .text.set_modem_status_modem_mute:0000000000000000 $t
/var/folders/bq/yv49bw8j2kd6w3hsq868qv180000gn/T//ccEK2k0g.s:1617   .text.set_modem_status_modem_mute:0000000000000000 set_modem_status_modem_mute
/var/folders/bq/yv49bw8j2kd6w3hsq868qv180000gn/T//ccEK2k0g.s:1651   .text.set_modem_status_modem_mute:0000000000000018 $d
/var/folders/bq/yv49bw8j2kd6w3hsq868qv180000gn/T//ccEK2k0g.s:1656   .text.set_modem_status_modem_joined:0000000000000000 $t
/var/folders/bq/yv49bw8j2kd6w3hsq868qv180000gn/T//ccEK2k0g.s:1663   .text.set_modem_status_modem_joined:0000000000000000 set_modem_status_modem_joined
/var/folders/bq/yv49bw8j2kd6w3hsq868qv180000gn/T//ccEK2k0g.s:1697   .text.set_modem_status_modem_joined:0000000000000018 $d
/var/folders/bq/yv49bw8j2kd6w3hsq868qv180000gn/T//ccEK2k0g.s:1702   .text.set_modem_status_radio_suspend:0000000000000000 $t
/var/folders/bq/yv49bw8j2kd6w3hsq868qv180000gn/T//ccEK2k0g.s:1709   .text.set_modem_status_radio_suspend:0000000000000000 set_modem_status_radio_suspend
/var/folders/bq/yv49bw8j2kd6w3hsq868qv180000gn/T//ccEK2k0g.s:1743   .text.set_modem_status_radio_suspend:0000000000000018 $d
/var/folders/bq/yv49bw8j2kd6w3hsq868qv180000gn/T//ccEK2k0g.s:1748   .text.set_modem_status_file_upload:0000000000000000 $t
/var/folders/bq/yv49bw8j2kd6w3hsq868qv180000gn/T//ccEK2k0g.s:1755   .text.set_modem_status_file_upload:0000000000000000 set_modem_status_file_upload
/var/folders/bq/yv49bw8j2kd6w3hsq868qv180000gn/T//ccEK2k0g.s:1789   .text.set_modem_status_file_upload:0000000000000018 $d
/var/folders/bq/yv49bw8j2kd6w3hsq868qv180000gn/T//ccEK2k0g.s:1794   .text.set_modem_status_joining:0000000000000000 $t
/var/folders/bq/yv49bw8j2kd6w3hsq868qv180000gn/T//ccEK2k0g.s:1801   .text.set_modem_status_joining:0000000000000000 set_modem_status_joining
/var/folders/bq/yv49bw8j2kd6w3hsq868qv180000gn/T//ccEK2k0g.s:1835   .text.set_modem_status_joining:0000000000000018 $d
/var/folders/bq/yv49bw8j2kd6w3hsq868qv180000gn/T//ccEK2k0g.s:1843   .text.modem_supervisor_add_task_join:0000000000000000 $t
/var/folders/bq/yv49bw8j2kd6w3hsq868qv180000gn/T//ccEK2k0g.s:1850   .text.modem_supervisor_add_task_join:0000000000000000 modem_supervisor_add_task_join
/var/folders/bq/yv49bw8j2kd6w3hsq868qv180000gn/T//ccEK2k0g.s:1912   .text.modem_supervisor_add_task_join:0000000000000038 $d
/var/folders/bq/yv49bw8j2kd6w3hsq868qv180000gn/T//ccEK2k0g.s:1917   .text.set_modem_status_streaming:0000000000000000 $t
/var/folders/bq/yv49bw8j2kd6w3hsq868qv180000gn/T//ccEK2k0g.s:1924   .text.set_modem_status_streaming:0000000000000000 set_modem_status_streaming
/var/folders/bq/yv49bw8j2kd6w3hsq868qv180000gn/T//ccEK2k0g.s:1956   .text.set_modem_status_streaming:0000000000000018 $d
/var/folders/bq/yv49bw8j2kd6w3hsq868qv180000gn/T//ccEK2k0g.s:1961   .text.get_modem_status_reset_after_crash:0000000000000000 $t
/var/folders/bq/yv49bw8j2kd6w3hsq868qv180000gn/T//ccEK2k0g.s:1968   .text.get_modem_status_reset_after_crash:0000000000000000 get_modem_status_reset_after_crash
/var/folders/bq/yv49bw8j2kd6w3hsq868qv180000gn/T//ccEK2k0g.s:1989   .text.get_modem_status_reset_after_crash:000000000000000c $d
/var/folders/bq/yv49bw8j2kd6w3hsq868qv180000gn/T//ccEK2k0g.s:1994   .text.get_modem_status_file_upload:0000000000000000 $t
/var/folders/bq/yv49bw8j2kd6w3hsq868qv180000gn/T//ccEK2k0g.s:2001   .text.get_modem_status_file_upload:0000000000000000 get_modem_status_file_upload
/var/folders/bq/yv49bw8j2kd6w3hsq868qv180000gn/T//ccEK2k0g.s:2022   .text.get_modem_status_file_upload:000000000000000c $d
/var/folders/bq/yv49bw8j2kd6w3hsq868qv180000gn/T//ccEK2k0g.s:2027   .text.get_modem_status_joining:0000000000000000 $t
/var/folders/bq/yv49bw8j2kd6w3hsq868qv180000gn/T//ccEK2k0g.s:2034   .text.get_modem_status_joining:0000000000000000 get_modem_status_joining
/var/folders/bq/yv49bw8j2kd6w3hsq868qv180000gn/T//ccEK2k0g.s:2055   .text.get_modem_status_joining:000000000000000c $d
/var/folders/bq/yv49bw8j2kd6w3hsq868qv180000gn/T//ccEK2k0g.s:2060   .text.get_join_state:0000000000000000 $t
/var/folders/bq/yv49bw8j2kd6w3hsq868qv180000gn/T//ccEK2k0g.s:2067   .text.get_join_state:0000000000000000 get_join_state
ARM GAS  /var/folders/bq/yv49bw8j2kd6w3hsq868qv180000gn/T//ccEK2k0g.s 			page 159


/var/folders/bq/yv49bw8j2kd6w3hsq868qv180000gn/T//ccEK2k0g.s:2115   .text.modem_supervisor_add_task_dm_status:0000000000000000 $t
/var/folders/bq/yv49bw8j2kd6w3hsq868qv180000gn/T//ccEK2k0g.s:2122   .text.modem_supervisor_add_task_dm_status:0000000000000000 modem_supervisor_add_task_dm_status
/var/folders/bq/yv49bw8j2kd6w3hsq868qv180000gn/T//ccEK2k0g.s:2184   .text.modem_supervisor_add_task_alc_sync_time_req:0000000000000000 $t
/var/folders/bq/yv49bw8j2kd6w3hsq868qv180000gn/T//ccEK2k0g.s:2191   .text.modem_supervisor_add_task_alc_sync_time_req:0000000000000000 modem_supervisor_add_task_alc_sync_time_req
/var/folders/bq/yv49bw8j2kd6w3hsq868qv180000gn/T//ccEK2k0g.s:2254   .text.modem_supervisor_add_task_alc_sync_ans:0000000000000000 $t
/var/folders/bq/yv49bw8j2kd6w3hsq868qv180000gn/T//ccEK2k0g.s:2261   .text.modem_supervisor_add_task_alc_sync_ans:0000000000000000 modem_supervisor_add_task_alc_sync_ans
/var/folders/bq/yv49bw8j2kd6w3hsq868qv180000gn/T//ccEK2k0g.s:2331   .text.modem_supervisor_add_task_retrieve_dl:0000000000000000 $t
/var/folders/bq/yv49bw8j2kd6w3hsq868qv180000gn/T//ccEK2k0g.s:2338   .text.modem_supervisor_add_task_retrieve_dl:0000000000000000 modem_supervisor_add_task_retrieve_dl
/var/folders/bq/yv49bw8j2kd6w3hsq868qv180000gn/T//ccEK2k0g.s:2421   .text.modem_supervisor_add_task_retrieve_dl:0000000000000048 $d
/var/folders/bq/yv49bw8j2kd6w3hsq868qv180000gn/T//ccEK2k0g.s:2429   .text.get_modem_status:0000000000000000 $t
/var/folders/bq/yv49bw8j2kd6w3hsq868qv180000gn/T//ccEK2k0g.s:2436   .text.get_modem_status:0000000000000000 get_modem_status
/var/folders/bq/yv49bw8j2kd6w3hsq868qv180000gn/T//ccEK2k0g.s:2471   .text.get_modem_status:0000000000000018 $d
/var/folders/bq/yv49bw8j2kd6w3hsq868qv180000gn/T//ccEK2k0g.s:2476   .text.get_modem_status_streaming:0000000000000000 $t
/var/folders/bq/yv49bw8j2kd6w3hsq868qv180000gn/T//ccEK2k0g.s:2483   .text.get_modem_status_streaming:0000000000000000 get_modem_status_streaming
/var/folders/bq/yv49bw8j2kd6w3hsq868qv180000gn/T//ccEK2k0g.s:2503   .text.get_modem_status_streaming:0000000000000008 $d
/var/folders/bq/yv49bw8j2kd6w3hsq868qv180000gn/T//ccEK2k0g.s:2508   .text.reset_modem_charge:0000000000000000 $t
/var/folders/bq/yv49bw8j2kd6w3hsq868qv180000gn/T//ccEK2k0g.s:2515   .text.reset_modem_charge:0000000000000000 reset_modem_charge
/var/folders/bq/yv49bw8j2kd6w3hsq868qv180000gn/T//ccEK2k0g.s:2634   .text.reset_modem_charge:0000000000000060 $d
/var/folders/bq/yv49bw8j2kd6w3hsq868qv180000gn/T//ccEK2k0g.s:2642   .text.get_modem_charge_ma_s:0000000000000000 $t
/var/folders/bq/yv49bw8j2kd6w3hsq868qv180000gn/T//ccEK2k0g.s:2649   .text.get_modem_charge_ma_s:0000000000000000 get_modem_charge_ma_s
/var/folders/bq/yv49bw8j2kd6w3hsq868qv180000gn/T//ccEK2k0g.s:2695   .text.get_modem_charge_ma_s:0000000000000024 $d
/var/folders/bq/yv49bw8j2kd6w3hsq868qv180000gn/T//ccEK2k0g.s:2701   .text.get_modem_charge_ma_h:0000000000000000 $t
/var/folders/bq/yv49bw8j2kd6w3hsq868qv180000gn/T//ccEK2k0g.s:2708   .text.get_modem_charge_ma_h:0000000000000000 get_modem_charge_ma_h
/var/folders/bq/yv49bw8j2kd6w3hsq868qv180000gn/T//ccEK2k0g.s:2735   .text.get_modem_voltage:0000000000000000 $t
/var/folders/bq/yv49bw8j2kd6w3hsq868qv180000gn/T//ccEK2k0g.s:2742   .text.get_modem_voltage:0000000000000000 get_modem_voltage
/var/folders/bq/yv49bw8j2kd6w3hsq868qv180000gn/T//ccEK2k0g.s:2764   .text.get_modem_temp:0000000000000000 $t
/var/folders/bq/yv49bw8j2kd6w3hsq868qv180000gn/T//ccEK2k0g.s:2771   .text.get_modem_temp:0000000000000000 get_modem_temp
/var/folders/bq/yv49bw8j2kd6w3hsq868qv180000gn/T//ccEK2k0g.s:2801   .text.dm_check_dminfo_size:0000000000000000 $t
/var/folders/bq/yv49bw8j2kd6w3hsq868qv180000gn/T//ccEK2k0g.s:2808   .text.dm_check_dminfo_size:0000000000000000 dm_check_dminfo_size
/var/folders/bq/yv49bw8j2kd6w3hsq868qv180000gn/T//ccEK2k0g.s:2890   .text.dm_check_dminfo_size:000000000000003c $d
/var/folders/bq/yv49bw8j2kd6w3hsq868qv180000gn/T//ccEK2k0g.s:2900   .text.get_modem_muted:0000000000000000 $t
/var/folders/bq/yv49bw8j2kd6w3hsq868qv180000gn/T//ccEK2k0g.s:2907   .text.get_modem_muted:0000000000000000 get_modem_muted
/var/folders/bq/yv49bw8j2kd6w3hsq868qv180000gn/T//ccEK2k0g.s:2937   .text.get_modem_muted:0000000000000010 $d
/var/folders/bq/yv49bw8j2kd6w3hsq868qv180000gn/T//ccEK2k0g.s:2942   .text.dm_get_number_of_days_mute:0000000000000000 $t
/var/folders/bq/yv49bw8j2kd6w3hsq868qv180000gn/T//ccEK2k0g.s:2949   .text.dm_get_number_of_days_mute:0000000000000000 dm_get_number_of_days_mute
/var/folders/bq/yv49bw8j2kd6w3hsq868qv180000gn/T//ccEK2k0g.s:2968   .text.dm_get_number_of_days_mute:0000000000000008 $d
/var/folders/bq/yv49bw8j2kd6w3hsq868qv180000gn/T//ccEK2k0g.s:2973   .text.get_dm_info_tag_list:0000000000000000 $t
/var/folders/bq/yv49bw8j2kd6w3hsq868qv180000gn/T//ccEK2k0g.s:2980   .text.get_dm_info_tag_list:0000000000000000 get_dm_info_tag_list
/var/folders/bq/yv49bw8j2kd6w3hsq868qv180000gn/T//ccEK2k0g.s:3061   .text.get_dm_info_tag_list:000000000000002c $d
/var/folders/bq/yv49bw8j2kd6w3hsq868qv180000gn/T//ccEK2k0g.s:3067   .text.set_modem_suspend:0000000000000000 $t
/var/folders/bq/yv49bw8j2kd6w3hsq868qv180000gn/T//ccEK2k0g.s:3074   .text.set_modem_suspend:0000000000000000 set_modem_suspend
/var/folders/bq/yv49bw8j2kd6w3hsq868qv180000gn/T//ccEK2k0g.s:3133   .text.set_modem_suspend:0000000000000028 $d
/var/folders/bq/yv49bw8j2kd6w3hsq868qv180000gn/T//ccEK2k0g.s:3138   .text.get_modem_suspend:0000000000000000 $t
/var/folders/bq/yv49bw8j2kd6w3hsq868qv180000gn/T//ccEK2k0g.s:3145   .text.get_modem_suspend:0000000000000000 get_modem_suspend
/var/folders/bq/yv49bw8j2kd6w3hsq868qv180000gn/T//ccEK2k0g.s:3164   .text.get_modem_suspend:0000000000000008 $d
/var/folders/bq/yv49bw8j2kd6w3hsq868qv180000gn/T//ccEK2k0g.s:3176   .text.set_modem_adr_profile:0000000000000000 $t
/var/folders/bq/yv49bw8j2kd6w3hsq868qv180000gn/T//ccEK2k0g.s:3183   .text.set_modem_adr_profile:0000000000000000 set_modem_adr_profile
/var/folders/bq/yv49bw8j2kd6w3hsq868qv180000gn/T//ccEK2k0g.s:3495   .text.set_modem_adr_profile:000000000000012c $d
/var/folders/bq/yv49bw8j2kd6w3hsq868qv180000gn/T//ccEK2k0g.s:3520   .text.set_modem_downlink_frame:0000000000000000 $t
/var/folders/bq/yv49bw8j2kd6w3hsq868qv180000gn/T//ccEK2k0g.s:3527   .text.set_modem_downlink_frame:0000000000000000 set_modem_downlink_frame
/var/folders/bq/yv49bw8j2kd6w3hsq868qv180000gn/T//ccEK2k0g.s:3656   .text.set_modem_downlink_frame:0000000000000084 $d
/var/folders/bq/yv49bw8j2kd6w3hsq868qv180000gn/T//ccEK2k0g.s:6149   .bss.modem_dwn_pkt:0000000000000000 modem_dwn_pkt
/var/folders/bq/yv49bw8j2kd6w3hsq868qv180000gn/T//ccEK2k0g.s:3670   .text.get_modem_downlink_frame:0000000000000000 $t
/var/folders/bq/yv49bw8j2kd6w3hsq868qv180000gn/T//ccEK2k0g.s:3677   .text.get_modem_downlink_frame:0000000000000000 get_modem_downlink_frame
/var/folders/bq/yv49bw8j2kd6w3hsq868qv180000gn/T//ccEK2k0g.s:3747   .text.get_modem_downlink_frame:0000000000000040 $d
/var/folders/bq/yv49bw8j2kd6w3hsq868qv180000gn/T//ccEK2k0g.s:3762   .text.dm_status_payload:0000000000000000 $t
/var/folders/bq/yv49bw8j2kd6w3hsq868qv180000gn/T//ccEK2k0g.s:3769   .text.dm_status_payload:0000000000000000 dm_status_payload
ARM GAS  /var/folders/bq/yv49bw8j2kd6w3hsq868qv180000gn/T//ccEK2k0g.s 			page 160


/var/folders/bq/yv49bw8j2kd6w3hsq868qv180000gn/T//ccEK2k0g.s:4004   .text.dm_status_payload:00000000000000ac $d
/var/folders/bq/yv49bw8j2kd6w3hsq868qv180000gn/T//ccEK2k0g.s:4320   .text.dm_status_payload:00000000000001b4 $d
/var/folders/bq/yv49bw8j2kd6w3hsq868qv180000gn/T//ccEK2k0g.s:4337   .text.set_dm_retrieve_pending_dl:0000000000000000 $t
/var/folders/bq/yv49bw8j2kd6w3hsq868qv180000gn/T//ccEK2k0g.s:4344   .text.set_dm_retrieve_pending_dl:0000000000000000 set_dm_retrieve_pending_dl
/var/folders/bq/yv49bw8j2kd6w3hsq868qv180000gn/T//ccEK2k0g.s:4367   .text.set_dm_retrieve_pending_dl:0000000000000008 $d
/var/folders/bq/yv49bw8j2kd6w3hsq868qv180000gn/T//ccEK2k0g.s:4372   .text.get_dm_retrieve_pending_dl:0000000000000000 $t
/var/folders/bq/yv49bw8j2kd6w3hsq868qv180000gn/T//ccEK2k0g.s:4379   .text.get_dm_retrieve_pending_dl:0000000000000000 get_dm_retrieve_pending_dl
/var/folders/bq/yv49bw8j2kd6w3hsq868qv180000gn/T//ccEK2k0g.s:4404   .text.get_dm_retrieve_pending_dl:000000000000000c $d
/var/folders/bq/yv49bw8j2kd6w3hsq868qv180000gn/T//ccEK2k0g.s:4416   .text.modem_context_factory_reset:0000000000000000 $t
/var/folders/bq/yv49bw8j2kd6w3hsq868qv180000gn/T//ccEK2k0g.s:4423   .text.modem_context_factory_reset:0000000000000000 modem_context_factory_reset
/var/folders/bq/yv49bw8j2kd6w3hsq868qv180000gn/T//ccEK2k0g.s:4604   .text.modem_context_factory_reset:00000000000000b0 $d
/var/folders/bq/yv49bw8j2kd6w3hsq868qv180000gn/T//ccEK2k0g.s:4632   .text.modem_load_context:0000000000000000 $t
/var/folders/bq/yv49bw8j2kd6w3hsq868qv180000gn/T//ccEK2k0g.s:4639   .text.modem_load_context:0000000000000000 modem_load_context
/var/folders/bq/yv49bw8j2kd6w3hsq868qv180000gn/T//ccEK2k0g.s:4834   .text.modem_load_context:00000000000000dc $d
/var/folders/bq/yv49bw8j2kd6w3hsq868qv180000gn/T//ccEK2k0g.s:4860   .text.modem_store_context:0000000000000000 $t
/var/folders/bq/yv49bw8j2kd6w3hsq868qv180000gn/T//ccEK2k0g.s:4867   .text.modem_store_context:0000000000000000 modem_store_context
/var/folders/bq/yv49bw8j2kd6w3hsq868qv180000gn/T//ccEK2k0g.s:4995   .text.modem_store_context:0000000000000090 $d
/var/folders/bq/yv49bw8j2kd6w3hsq868qv180000gn/T//ccEK2k0g.s:5005   .text.set_modem_dm_interval:0000000000000000 $t
/var/folders/bq/yv49bw8j2kd6w3hsq868qv180000gn/T//ccEK2k0g.s:5012   .text.set_modem_dm_interval:0000000000000000 set_modem_dm_interval
/var/folders/bq/yv49bw8j2kd6w3hsq868qv180000gn/T//ccEK2k0g.s:5046   .text.set_modem_dm_interval:0000000000000014 $d
/var/folders/bq/yv49bw8j2kd6w3hsq868qv180000gn/T//ccEK2k0g.s:5051   .text.dm_set_conf:0000000000000000 $t
/var/folders/bq/yv49bw8j2kd6w3hsq868qv180000gn/T//ccEK2k0g.s:5058   .text.dm_set_conf:0000000000000000 dm_set_conf
/var/folders/bq/yv49bw8j2kd6w3hsq868qv180000gn/T//ccEK2k0g.s:5094   .text.dm_set_conf:000000000000001e $d
/var/folders/bq/yv49bw8j2kd6w3hsq868qv180000gn/T//ccEK2k0g.s:5098   .text.dm_set_conf:0000000000000022 $t
/var/folders/bq/yv49bw8j2kd6w3hsq868qv180000gn/T//ccEK2k0g.s:5165   .text.set_modem_dm_port:0000000000000000 $t
/var/folders/bq/yv49bw8j2kd6w3hsq868qv180000gn/T//ccEK2k0g.s:5172   .text.set_modem_dm_port:0000000000000000 set_modem_dm_port
/var/folders/bq/yv49bw8j2kd6w3hsq868qv180000gn/T//ccEK2k0g.s:5243   .text.set_modem_dm_port:000000000000003c $d
/var/folders/bq/yv49bw8j2kd6w3hsq868qv180000gn/T//ccEK2k0g.s:5255   .text.dm_set_number_of_days_mute:0000000000000000 $t
/var/folders/bq/yv49bw8j2kd6w3hsq868qv180000gn/T//ccEK2k0g.s:5262   .text.dm_set_number_of_days_mute:0000000000000000 dm_set_number_of_days_mute
/var/folders/bq/yv49bw8j2kd6w3hsq868qv180000gn/T//ccEK2k0g.s:5315   .text.dm_set_number_of_days_mute:0000000000000028 $d
/var/folders/bq/yv49bw8j2kd6w3hsq868qv180000gn/T//ccEK2k0g.s:5324   .text.set_dm_info:0000000000000000 $t
/var/folders/bq/yv49bw8j2kd6w3hsq868qv180000gn/T//ccEK2k0g.s:5331   .text.set_dm_info:0000000000000000 set_dm_info
/var/folders/bq/yv49bw8j2kd6w3hsq868qv180000gn/T//ccEK2k0g.s:5533   .text.set_dm_info:0000000000000088 $d
/var/folders/bq/yv49bw8j2kd6w3hsq868qv180000gn/T//ccEK2k0g.s:5546   .text.modem_set_dm_upload_sctr:0000000000000000 $t
/var/folders/bq/yv49bw8j2kd6w3hsq868qv180000gn/T//ccEK2k0g.s:5553   .text.modem_set_dm_upload_sctr:0000000000000000 modem_set_dm_upload_sctr
/var/folders/bq/yv49bw8j2kd6w3hsq868qv180000gn/T//ccEK2k0g.s:5585   .text.modem_set_dm_upload_sctr:0000000000000010 $d
/var/folders/bq/yv49bw8j2kd6w3hsq868qv180000gn/T//ccEK2k0g.s:5590   .text.modem_get_dm_upload_sctr:0000000000000000 $t
/var/folders/bq/yv49bw8j2kd6w3hsq868qv180000gn/T//ccEK2k0g.s:5597   .text.modem_get_dm_upload_sctr:0000000000000000 modem_get_dm_upload_sctr
/var/folders/bq/yv49bw8j2kd6w3hsq868qv180000gn/T//ccEK2k0g.s:5618   .text.modem_get_dm_upload_sctr:000000000000000c $d
/var/folders/bq/yv49bw8j2kd6w3hsq868qv180000gn/T//ccEK2k0g.s:5623   .text.modem_get_upload_state:0000000000000000 $t
/var/folders/bq/yv49bw8j2kd6w3hsq868qv180000gn/T//ccEK2k0g.s:5630   .text.modem_get_upload_state:0000000000000000 modem_get_upload_state
/var/folders/bq/yv49bw8j2kd6w3hsq868qv180000gn/T//ccEK2k0g.s:5649   .text.modem_get_upload_state:0000000000000008 $d
/var/folders/bq/yv49bw8j2kd6w3hsq868qv180000gn/T//ccEK2k0g.s:5654   .text.modem_set_upload_state:0000000000000000 $t
/var/folders/bq/yv49bw8j2kd6w3hsq868qv180000gn/T//ccEK2k0g.s:5661   .text.modem_set_upload_state:0000000000000000 modem_set_upload_state
/var/folders/bq/yv49bw8j2kd6w3hsq868qv180000gn/T//ccEK2k0g.s:5681   .text.modem_set_upload_state:0000000000000008 $d
/var/folders/bq/yv49bw8j2kd6w3hsq868qv180000gn/T//ccEK2k0g.s:5686   .text.modem_get_stream_state:0000000000000000 $t
/var/folders/bq/yv49bw8j2kd6w3hsq868qv180000gn/T//ccEK2k0g.s:5693   .text.modem_get_stream_state:0000000000000000 modem_get_stream_state
/var/folders/bq/yv49bw8j2kd6w3hsq868qv180000gn/T//ccEK2k0g.s:5712   .text.modem_get_stream_state:0000000000000008 $d
/var/folders/bq/yv49bw8j2kd6w3hsq868qv180000gn/T//ccEK2k0g.s:5717   .text.modem_get_stream_port:0000000000000000 $t
/var/folders/bq/yv49bw8j2kd6w3hsq868qv180000gn/T//ccEK2k0g.s:5724   .text.modem_get_stream_port:0000000000000000 modem_get_stream_port
/var/folders/bq/yv49bw8j2kd6w3hsq868qv180000gn/T//ccEK2k0g.s:5743   .text.modem_get_stream_port:0000000000000008 $d
/var/folders/bq/yv49bw8j2kd6w3hsq868qv180000gn/T//ccEK2k0g.s:5748   .text.modem_get_stream_encryption:0000000000000000 $t
/var/folders/bq/yv49bw8j2kd6w3hsq868qv180000gn/T//ccEK2k0g.s:5755   .text.modem_get_stream_encryption:0000000000000000 modem_get_stream_encryption
/var/folders/bq/yv49bw8j2kd6w3hsq868qv180000gn/T//ccEK2k0g.s:5774   .text.modem_get_stream_encryption:0000000000000008 $d
/var/folders/bq/yv49bw8j2kd6w3hsq868qv180000gn/T//ccEK2k0g.s:5779   .text.modem_set_stream_state:0000000000000000 $t
/var/folders/bq/yv49bw8j2kd6w3hsq868qv180000gn/T//ccEK2k0g.s:5786   .text.modem_set_stream_state:0000000000000000 modem_set_stream_state
/var/folders/bq/yv49bw8j2kd6w3hsq868qv180000gn/T//ccEK2k0g.s:5806   .text.modem_set_stream_state:0000000000000008 $d
ARM GAS  /var/folders/bq/yv49bw8j2kd6w3hsq868qv180000gn/T//ccEK2k0g.s 			page 161


/var/folders/bq/yv49bw8j2kd6w3hsq868qv180000gn/T//ccEK2k0g.s:5811   .text.modem_set_stream_port:0000000000000000 $t
/var/folders/bq/yv49bw8j2kd6w3hsq868qv180000gn/T//ccEK2k0g.s:5818   .text.modem_set_stream_port:0000000000000000 modem_set_stream_port
/var/folders/bq/yv49bw8j2kd6w3hsq868qv180000gn/T//ccEK2k0g.s:5838   .text.modem_set_stream_port:0000000000000008 $d
/var/folders/bq/yv49bw8j2kd6w3hsq868qv180000gn/T//ccEK2k0g.s:5843   .text.modem_set_stream_encryption:0000000000000000 $t
/var/folders/bq/yv49bw8j2kd6w3hsq868qv180000gn/T//ccEK2k0g.s:5850   .text.modem_set_stream_encryption:0000000000000000 modem_set_stream_encryption
/var/folders/bq/yv49bw8j2kd6w3hsq868qv180000gn/T//ccEK2k0g.s:5870   .text.modem_set_stream_encryption:0000000000000008 $d
/var/folders/bq/yv49bw8j2kd6w3hsq868qv180000gn/T//ccEK2k0g.s:5875   .text.modem_set_dm_info_bitfield_periodic:0000000000000000 $t
/var/folders/bq/yv49bw8j2kd6w3hsq868qv180000gn/T//ccEK2k0g.s:5882   .text.modem_set_dm_info_bitfield_periodic:0000000000000000 modem_set_dm_info_bitfield_periodic
/var/folders/bq/yv49bw8j2kd6w3hsq868qv180000gn/T//ccEK2k0g.s:5914   .text.modem_set_dm_info_bitfield_periodic:0000000000000014 $d
/var/folders/bq/yv49bw8j2kd6w3hsq868qv180000gn/T//ccEK2k0g.s:5919   .text.modem_get_dm_info_bitfield_periodic:0000000000000000 $t
/var/folders/bq/yv49bw8j2kd6w3hsq868qv180000gn/T//ccEK2k0g.s:5926   .text.modem_get_dm_info_bitfield_periodic:0000000000000000 modem_get_dm_info_bitfield_periodic
/var/folders/bq/yv49bw8j2kd6w3hsq868qv180000gn/T//ccEK2k0g.s:5945   .text.modem_get_dm_info_bitfield_periodic:0000000000000008 $d
/var/folders/bq/yv49bw8j2kd6w3hsq868qv180000gn/T//ccEK2k0g.s:5950   .text.modem_get_user_alarm:0000000000000000 $t
/var/folders/bq/yv49bw8j2kd6w3hsq868qv180000gn/T//ccEK2k0g.s:5957   .text.modem_get_user_alarm:0000000000000000 modem_get_user_alarm
/var/folders/bq/yv49bw8j2kd6w3hsq868qv180000gn/T//ccEK2k0g.s:5976   .text.modem_get_user_alarm:0000000000000008 $d
/var/folders/bq/yv49bw8j2kd6w3hsq868qv180000gn/T//ccEK2k0g.s:5981   .text.modem_set_user_alarm:0000000000000000 $t
/var/folders/bq/yv49bw8j2kd6w3hsq868qv180000gn/T//ccEK2k0g.s:5988   .text.modem_set_user_alarm:0000000000000000 modem_set_user_alarm
/var/folders/bq/yv49bw8j2kd6w3hsq868qv180000gn/T//ccEK2k0g.s:6008   .text.modem_set_user_alarm:0000000000000008 $d
/var/folders/bq/yv49bw8j2kd6w3hsq868qv180000gn/T//ccEK2k0g.s:6013   .text.get_modem_reset_requested:0000000000000000 $t
/var/folders/bq/yv49bw8j2kd6w3hsq868qv180000gn/T//ccEK2k0g.s:6020   .text.get_modem_reset_requested:0000000000000000 get_modem_reset_requested
/var/folders/bq/yv49bw8j2kd6w3hsq868qv180000gn/T//ccEK2k0g.s:6039   .text.get_modem_reset_requested:0000000000000008 $d
/var/folders/bq/yv49bw8j2kd6w3hsq868qv180000gn/T//ccEK2k0g.s:6044   .text.set_modem_reset_requested:0000000000000000 $t
/var/folders/bq/yv49bw8j2kd6w3hsq868qv180000gn/T//ccEK2k0g.s:6051   .text.set_modem_reset_requested:0000000000000000 set_modem_reset_requested
/var/folders/bq/yv49bw8j2kd6w3hsq868qv180000gn/T//ccEK2k0g.s:6071   .text.set_modem_reset_requested:0000000000000008 $d
/var/folders/bq/yv49bw8j2kd6w3hsq868qv180000gn/T//ccEK2k0g.s:6076   .bss.asynch_msg:0000000000000000 $d
/var/folders/bq/yv49bw8j2kd6w3hsq868qv180000gn/T//ccEK2k0g.s:6080   .bss.asynch_msg:0000000000000000 asynch_msg
/var/folders/bq/yv49bw8j2kd6w3hsq868qv180000gn/T//ccEK2k0g.s:6086   .bss.asynchronous_msgnumber:0000000000000000 asynchronous_msgnumber
/var/folders/bq/yv49bw8j2kd6w3hsq868qv180000gn/T//ccEK2k0g.s:6087   .bss.asynchronous_msgnumber:0000000000000000 $d
/var/folders/bq/yv49bw8j2kd6w3hsq868qv180000gn/T//ccEK2k0g.s:6089   .bss.dm_info_bitfield_now:0000000000000000 $d
/var/folders/bq/yv49bw8j2kd6w3hsq868qv180000gn/T//ccEK2k0g.s:6093   .bss.dm_info_bitfield_now:0000000000000000 dm_info_bitfield_now
/var/folders/bq/yv49bw8j2kd6w3hsq868qv180000gn/T//ccEK2k0g.s:6099   .bss.dm_pending_dl:0000000000000000 dm_pending_dl
/var/folders/bq/yv49bw8j2kd6w3hsq868qv180000gn/T//ccEK2k0g.s:6100   .bss.dm_pending_dl:0000000000000000 $d
/var/folders/bq/yv49bw8j2kd6w3hsq868qv180000gn/T//ccEK2k0g.s:6105   .bss.is_modem_charge_loaded:0000000000000000 is_modem_charge_loaded
/var/folders/bq/yv49bw8j2kd6w3hsq868qv180000gn/T//ccEK2k0g.s:6106   .bss.is_modem_charge_loaded:0000000000000000 $d
/var/folders/bq/yv49bw8j2kd6w3hsq868qv180000gn/T//ccEK2k0g.s:6111   .bss.is_modem_reset_requested:0000000000000000 is_modem_reset_requested
/var/folders/bq/yv49bw8j2kd6w3hsq868qv180000gn/T//ccEK2k0g.s:6112   .bss.is_modem_reset_requested:0000000000000000 $d
/var/folders/bq/yv49bw8j2kd6w3hsq868qv180000gn/T//ccEK2k0g.s:6117   .bss.is_modem_suspend:0000000000000000 is_modem_suspend
/var/folders/bq/yv49bw8j2kd6w3hsq868qv180000gn/T//ccEK2k0g.s:6118   .bss.is_modem_suspend:0000000000000000 $d
/var/folders/bq/yv49bw8j2kd6w3hsq868qv180000gn/T//ccEK2k0g.s:6120   .bss.modem_appstatus:0000000000000000 $d
/var/folders/bq/yv49bw8j2kd6w3hsq868qv180000gn/T//ccEK2k0g.s:6124   .bss.modem_appstatus:0000000000000000 modem_appstatus
/var/folders/bq/yv49bw8j2kd6w3hsq868qv180000gn/T//ccEK2k0g.s:6127   .bss.modem_charge_offset:0000000000000000 $d
/var/folders/bq/yv49bw8j2kd6w3hsq868qv180000gn/T//ccEK2k0g.s:6131   .bss.modem_charge_offset:0000000000000000 modem_charge_offset
/var/folders/bq/yv49bw8j2kd6w3hsq868qv180000gn/T//ccEK2k0g.s:6137   .bss.modem_dm_class:0000000000000000 modem_dm_class
/var/folders/bq/yv49bw8j2kd6w3hsq868qv180000gn/T//ccEK2k0g.s:6138   .bss.modem_dm_class:0000000000000000 $d
/var/folders/bq/yv49bw8j2kd6w3hsq868qv180000gn/T//ccEK2k0g.s:6143   .bss.modem_dm_upload_sctr:0000000000000000 modem_dm_upload_sctr
/var/folders/bq/yv49bw8j2kd6w3hsq868qv180000gn/T//ccEK2k0g.s:6144   .bss.modem_dm_upload_sctr:0000000000000000 $d
/var/folders/bq/yv49bw8j2kd6w3hsq868qv180000gn/T//ccEK2k0g.s:6146   .bss.modem_dwn_pkt:0000000000000000 $d
/var/folders/bq/yv49bw8j2kd6w3hsq868qv180000gn/T//ccEK2k0g.s:6152   .bss.modem_event_count:0000000000000000 $d
/var/folders/bq/yv49bw8j2kd6w3hsq868qv180000gn/T//ccEK2k0g.s:6156   .bss.modem_event_count:0000000000000000 modem_event_count
/var/folders/bq/yv49bw8j2kd6w3hsq868qv180000gn/T//ccEK2k0g.s:6159   .bss.modem_event_status:0000000000000000 $d
/var/folders/bq/yv49bw8j2kd6w3hsq868qv180000gn/T//ccEK2k0g.s:6163   .bss.modem_event_status:0000000000000000 modem_event_status
/var/folders/bq/yv49bw8j2kd6w3hsq868qv180000gn/T//ccEK2k0g.s:6166   .bss.modem_start_time:0000000000000000 $d
/var/folders/bq/yv49bw8j2kd6w3hsq868qv180000gn/T//ccEK2k0g.s:6170   .bss.modem_start_time:0000000000000000 modem_start_time
/var/folders/bq/yv49bw8j2kd6w3hsq868qv180000gn/T//ccEK2k0g.s:6176   .bss.modem_status:0000000000000000 modem_status
/var/folders/bq/yv49bw8j2kd6w3hsq868qv180000gn/T//ccEK2k0g.s:6177   .bss.modem_status:0000000000000000 $d
/var/folders/bq/yv49bw8j2kd6w3hsq868qv180000gn/T//ccEK2k0g.s:6182   .bss.modem_upload_state:0000000000000000 modem_upload_state
/var/folders/bq/yv49bw8j2kd6w3hsq868qv180000gn/T//ccEK2k0g.s:6183   .bss.modem_upload_state:0000000000000000 $d
ARM GAS  /var/folders/bq/yv49bw8j2kd6w3hsq868qv180000gn/T//ccEK2k0g.s 			page 162


/var/folders/bq/yv49bw8j2kd6w3hsq868qv180000gn/T//ccEK2k0g.s:6188   .bss.number_of_muted_day:0000000000000000 number_of_muted_day
/var/folders/bq/yv49bw8j2kd6w3hsq868qv180000gn/T//ccEK2k0g.s:6189   .bss.number_of_muted_day:0000000000000000 $d
/var/folders/bq/yv49bw8j2kd6w3hsq868qv180000gn/T//ccEK2k0g.s:6194   .bss.tag_number:0000000000000000 tag_number
/var/folders/bq/yv49bw8j2kd6w3hsq868qv180000gn/T//ccEK2k0g.s:6195   .bss.tag_number:0000000000000000 $d
/var/folders/bq/yv49bw8j2kd6w3hsq868qv180000gn/T//ccEK2k0g.s:6200   .bss.tag_number_now:0000000000000000 tag_number_now
/var/folders/bq/yv49bw8j2kd6w3hsq868qv180000gn/T//ccEK2k0g.s:6201   .bss.tag_number_now:0000000000000000 $d
/var/folders/bq/yv49bw8j2kd6w3hsq868qv180000gn/T//ccEK2k0g.s:6203   .bss.user_alarm:0000000000000000 $d
/var/folders/bq/yv49bw8j2kd6w3hsq868qv180000gn/T//ccEK2k0g.s:6207   .bss.user_alarm:0000000000000000 user_alarm
/var/folders/bq/yv49bw8j2kd6w3hsq868qv180000gn/T//ccEK2k0g.s:6213   .bss.was_set.6952:0000000000000000 was_set.6952
/var/folders/bq/yv49bw8j2kd6w3hsq868qv180000gn/T//ccEK2k0g.s:6214   .bss.was_set.6952:0000000000000000 $d
/var/folders/bq/yv49bw8j2kd6w3hsq868qv180000gn/T//ccEK2k0g.s:6216   .data.dm_info_bitfield_periodic:0000000000000000 $d
/var/folders/bq/yv49bw8j2kd6w3hsq868qv180000gn/T//ccEK2k0g.s:6220   .data.dm_info_bitfield_periodic:0000000000000000 dm_info_bitfield_periodic
/var/folders/bq/yv49bw8j2kd6w3hsq868qv180000gn/T//ccEK2k0g.s:6226   .data.modem_dm_interval:0000000000000000 modem_dm_interval
/var/folders/bq/yv49bw8j2kd6w3hsq868qv180000gn/T//ccEK2k0g.s:6232   .data.modem_dm_port:0000000000000000 modem_dm_port
/var/folders/bq/yv49bw8j2kd6w3hsq868qv180000gn/T//ccEK2k0g.s:6238   .data.modem_stream_state:0000000000000000 modem_stream_state
/var/folders/bq/yv49bw8j2kd6w3hsq868qv180000gn/T//ccEK2k0g.s:6243   .rodata.dm_info_field_sz:0000000000000000 $d
/var/folders/bq/yv49bw8j2kd6w3hsq868qv180000gn/T//ccEK2k0g.s:6247   .rodata.dm_info_field_sz:0000000000000000 dm_info_field_sz
/var/folders/bq/yv49bw8j2kd6w3hsq868qv180000gn/T//ccEK2k0g.s:4027   .text.dm_status_payload:00000000000000c3 $d
/var/folders/bq/yv49bw8j2kd6w3hsq868qv180000gn/T//ccEK2k0g.s:4027   .text.dm_status_payload:00000000000000c4 $t

UNDEFINED SYMBOLS
bsp_mcu_panic
bsp_trace_print
__gnu_thumb1_case_uqi
bsp_rtc_get_time_s
lorawan_api_dr_strategy_get
lorawan_api_get_region
lorawan_api_set_region
memcpy
bsp_rng_get_random_in_range
modem_supervisor_add_task
lorawan_api_next_join_time_second_get
lorawan_api_isjoined
modem_get_radio_planner
__aeabi_uidiv
bsp_mcu_get_mcu_voltage
bsp_mcu_get_mcu_temperature
lorawan_api_min_dr_get
lorawan_api_max_dr_get
lorawan_api_dr_custom_set
lorawan_api_dr_strategy_set
lorawan_api_payload_receive
lorawan_api_last_snr_get
lorawan_api_last_rssi_get
memset
lorawan_api_appeui_key_get
lorawan_api_nb_reset_get
lorawan_api_deveui_get
lorawan_api_devnonce_get
crc
bsp_nvm_context_store
bsp_nvm_context_restore
memcmp
lorawan_api_appeui_key_set
