ARM GAS  /var/folders/bq/yv49bw8j2kd6w3hsq868qv180000gn/T//cck61hoc.s 			page 1


   1              		.cpu cortex-m0plus
   2              		.eabi_attribute 23, 1
   3              		.eabi_attribute 24, 1
   4              		.eabi_attribute 25, 1
   5              		.eabi_attribute 26, 1
   6              		.eabi_attribute 30, 4
   7              		.eabi_attribute 34, 0
   8              		.eabi_attribute 18, 4
   9              		.file	"modem_supervisor.c"
  10              		.text
  11              	.Ltext0:
  12              		.cfi_sections	.debug_frame
  13              		.section	.text.init_task,"ax",%progbits
  14              		.align	1
  15              		.global	init_task
  16              		.arch armv6s-m
  17              		.syntax unified
  18              		.code	16
  19              		.thumb_func
  20              		.fpu softvfp
  22              	init_task:
  23              	.LFB10:
  24              		.file 1 "smtc_modem_core/modem_supervisor/modem_supervisor.c"
   1:smtc_modem_core/modem_supervisor/modem_supervisor.c **** /*!
   2:smtc_modem_core/modem_supervisor/modem_supervisor.c ****  * \file      modem_supervisor.c
   3:smtc_modem_core/modem_supervisor/modem_supervisor.c ****  *
   4:smtc_modem_core/modem_supervisor/modem_supervisor.c ****  * \brief     soft modem task scheduler
   5:smtc_modem_core/modem_supervisor/modem_supervisor.c ****  *
   6:smtc_modem_core/modem_supervisor/modem_supervisor.c ****  * Revised BSD License
   7:smtc_modem_core/modem_supervisor/modem_supervisor.c ****  * Copyright Semtech Corporation 2020. All rights reserved.
   8:smtc_modem_core/modem_supervisor/modem_supervisor.c ****  *
   9:smtc_modem_core/modem_supervisor/modem_supervisor.c ****  * Redistribution and use in source and binary forms, with or without
  10:smtc_modem_core/modem_supervisor/modem_supervisor.c ****  * modification, are permitted provided that the following conditions are met:
  11:smtc_modem_core/modem_supervisor/modem_supervisor.c ****  *     * Redistributions of source code must retain the above copyright
  12:smtc_modem_core/modem_supervisor/modem_supervisor.c ****  *       notice, this list of conditions and the following disclaimer.
  13:smtc_modem_core/modem_supervisor/modem_supervisor.c ****  *     * Redistributions in binary form must reproduce the above copyright
  14:smtc_modem_core/modem_supervisor/modem_supervisor.c ****  *       notice, this list of conditions and the following disclaimer in the
  15:smtc_modem_core/modem_supervisor/modem_supervisor.c ****  *       documentation and/or other materials provided with the distribution.
  16:smtc_modem_core/modem_supervisor/modem_supervisor.c ****  *     * Neither the name of the Semtech corporation nor the
  17:smtc_modem_core/modem_supervisor/modem_supervisor.c ****  *       names of its contributors may be used to endorse or promote products
  18:smtc_modem_core/modem_supervisor/modem_supervisor.c ****  *       derived from this software without specific prior written permission.
  19:smtc_modem_core/modem_supervisor/modem_supervisor.c ****  *
  20:smtc_modem_core/modem_supervisor/modem_supervisor.c ****  * THIS SOFTWARE IS PROVIDED BY THE COPYRIGHT HOLDERS AND CONTRIBUTORS "AS IS"
  21:smtc_modem_core/modem_supervisor/modem_supervisor.c ****  * AND ANY EXPRESS OR IMPLIED WARRANTIES, INCLUDING, BUT NOT LIMITED TO, THE
  22:smtc_modem_core/modem_supervisor/modem_supervisor.c ****  * IMPLIED WARRANTIES OF MERCHANTABILITY AND FITNESS FOR A PARTICULAR PURPOSE
  23:smtc_modem_core/modem_supervisor/modem_supervisor.c ****  * ARE DISCLAIMED. IN NO EVENT SHALL SEMTECH CORPORATION BE LIABLE FOR ANY DIRECT,
  24:smtc_modem_core/modem_supervisor/modem_supervisor.c ****  * INDIRECT, INCIDENTAL, SPECIAL, EXEMPLARY, OR CONSEQUENTIAL DAMAGES
  25:smtc_modem_core/modem_supervisor/modem_supervisor.c ****  * (INCLUDING, BUT NOT LIMITED TO, PROCUREMENT OF SUBSTITUTE GOODS OR SERVICES;
  26:smtc_modem_core/modem_supervisor/modem_supervisor.c ****  * LOSS OF USE, DATA, OR PROFITS; OR BUSINESS INTERRUPTION) HOWEVER CAUSED AND
  27:smtc_modem_core/modem_supervisor/modem_supervisor.c ****  * ON ANY THEORY OF LIABILITY, WHETHER IN CONTRACT, STRICT LIABILITY, OR TORT
  28:smtc_modem_core/modem_supervisor/modem_supervisor.c ****  * (INCLUDING NEGLIGENCE OR OTHERWISE) ARISING IN ANY WAY OUT OF THE USE OF THIS
  29:smtc_modem_core/modem_supervisor/modem_supervisor.c ****  * SOFTWARE, EVEN IF ADVISED OF THE POSSIBILITY OF SUCH DAMAGE.
  30:smtc_modem_core/modem_supervisor/modem_supervisor.c ****  */
  31:smtc_modem_core/modem_supervisor/modem_supervisor.c **** 
  32:smtc_modem_core/modem_supervisor/modem_supervisor.c **** /*
  33:smtc_modem_core/modem_supervisor/modem_supervisor.c ****  *-----------------------------------------------------------------------------------
  34:smtc_modem_core/modem_supervisor/modem_supervisor.c ****  * --- DEPENDENCIES -----------------------------------------------------------------
ARM GAS  /var/folders/bq/yv49bw8j2kd6w3hsq868qv180000gn/T//cck61hoc.s 			page 2


  35:smtc_modem_core/modem_supervisor/modem_supervisor.c ****  */
  36:smtc_modem_core/modem_supervisor/modem_supervisor.c **** 
  37:smtc_modem_core/modem_supervisor/modem_supervisor.c **** #include <stdint.h>   // C99 types
  38:smtc_modem_core/modem_supervisor/modem_supervisor.c **** #include <stdbool.h>  // bool type
  39:smtc_modem_core/modem_supervisor/modem_supervisor.c **** #include "modem_supervisor.h"
  40:smtc_modem_core/modem_supervisor/modem_supervisor.c **** #include "smtc_bsp.h"
  41:smtc_modem_core/modem_supervisor/modem_supervisor.c **** #include "modem_context.h"
  42:smtc_modem_core/modem_supervisor/modem_supervisor.c **** #include "lorawan_api.h"
  43:smtc_modem_core/modem_supervisor/modem_supervisor.c **** #include "dm_downlink.h"
  44:smtc_modem_core/modem_supervisor/modem_supervisor.c **** #include "modem_api.h"
  45:smtc_modem_core/modem_supervisor/modem_supervisor.c **** 
  46:smtc_modem_core/modem_supervisor/modem_supervisor.c **** /*
  47:smtc_modem_core/modem_supervisor/modem_supervisor.c ****  *-----------------------------------------------------------------------------------
  48:smtc_modem_core/modem_supervisor/modem_supervisor.c ****  * --- PUBLIC MACROS ----------------------------------------------------------------
  49:smtc_modem_core/modem_supervisor/modem_supervisor.c ****  */
  50:smtc_modem_core/modem_supervisor/modem_supervisor.c **** 
  51:smtc_modem_core/modem_supervisor/modem_supervisor.c **** /*!
  52:smtc_modem_core/modem_supervisor/modem_supervisor.c ****  * \brief Returns the minimum value between a and b
  53:smtc_modem_core/modem_supervisor/modem_supervisor.c ****  *
  54:smtc_modem_core/modem_supervisor/modem_supervisor.c ****  * \param [IN] a 1st value
  55:smtc_modem_core/modem_supervisor/modem_supervisor.c ****  * \param [IN] b 2nd value
  56:smtc_modem_core/modem_supervisor/modem_supervisor.c ****  * \retval minValue Minimum value
  57:smtc_modem_core/modem_supervisor/modem_supervisor.c ****  */
  58:smtc_modem_core/modem_supervisor/modem_supervisor.c **** #define MIN( a, b ) ( ( ( a ) < ( b ) ) ? ( a ) : ( b ) )
  59:smtc_modem_core/modem_supervisor/modem_supervisor.c **** 
  60:smtc_modem_core/modem_supervisor/modem_supervisor.c **** /*
  61:smtc_modem_core/modem_supervisor/modem_supervisor.c ****  * -----------------------------------------------------------------------------
  62:smtc_modem_core/modem_supervisor/modem_supervisor.c ****  * --- PRIVATE VARIABLES -------------------------------------------------------
  63:smtc_modem_core/modem_supervisor/modem_supervisor.c ****  */
  64:smtc_modem_core/modem_supervisor/modem_supervisor.c **** 
  65:smtc_modem_core/modem_supervisor/modem_supervisor.c **** static uint8_t               UploadPayload[255];
  66:smtc_modem_core/modem_supervisor/modem_supervisor.c **** static lr1mac_states_t       LpState = LWPSTATE_IDLE;
  67:smtc_modem_core/modem_supervisor/modem_supervisor.c **** static stask_manager         task_manager;
  68:smtc_modem_core/modem_supervisor/modem_supervisor.c **** static user_rx_packet_type_t AvailableRxPacket                = NO_LORA_RXPACKET_AVAILABLE;
  69:smtc_modem_core/modem_supervisor/modem_supervisor.c **** static bool                  is_pending_dm_status_payload_now = false;
  70:smtc_modem_core/modem_supervisor/modem_supervisor.c **** static bool                  is_first_dm_after_join           = true;
  71:smtc_modem_core/modem_supervisor/modem_supervisor.c **** static bool                  send_task_update_needed          = false;
  72:smtc_modem_core/modem_supervisor/modem_supervisor.c **** static void ( *app_callback )( void )                         = NULL;
  73:smtc_modem_core/modem_supervisor/modem_supervisor.c **** 
  74:smtc_modem_core/modem_supervisor/modem_supervisor.c **** /*
  75:smtc_modem_core/modem_supervisor/modem_supervisor.c ****  * -----------------------------------------------------------------------------
  76:smtc_modem_core/modem_supervisor/modem_supervisor.c ****  * --- PUBLIC FUNCTIONS DEFINITION ---------------------------------------------
  77:smtc_modem_core/modem_supervisor/modem_supervisor.c ****  */
  78:smtc_modem_core/modem_supervisor/modem_supervisor.c **** 
  79:smtc_modem_core/modem_supervisor/modem_supervisor.c **** void modem_supervisor_init( void ( *callback )( void ), radio_planner_t* rp )
  80:smtc_modem_core/modem_supervisor/modem_supervisor.c **** {
  81:smtc_modem_core/modem_supervisor/modem_supervisor.c ****     lorawan_api_init( rp );
  82:smtc_modem_core/modem_supervisor/modem_supervisor.c ****     lorawan_api_dr_strategy_set( USER_DR_DISTRIBUTION );
  83:smtc_modem_core/modem_supervisor/modem_supervisor.c **** #if !defined( PERF_TEST_ENABLED )
  84:smtc_modem_core/modem_supervisor/modem_supervisor.c ****     // do not clear join status that was set to joined to allow perf testbench to trigger some mode
  85:smtc_modem_core/modem_supervisor/modem_supervisor.c ****     lorawan_api_join_status_clear( );
  86:smtc_modem_core/modem_supervisor/modem_supervisor.c **** #endif
  87:smtc_modem_core/modem_supervisor/modem_supervisor.c ****     modem_event_init( );
  88:smtc_modem_core/modem_supervisor/modem_supervisor.c ****     increment_asynchronous_msgnumber( RSP_RESET, 0 );
  89:smtc_modem_core/modem_supervisor/modem_supervisor.c ****     init_task( );
  90:smtc_modem_core/modem_supervisor/modem_supervisor.c ****     modem_load_context( );
  91:smtc_modem_core/modem_supervisor/modem_supervisor.c ****     set_modem_start_time_s( bsp_rtc_get_time_s( ) );
ARM GAS  /var/folders/bq/yv49bw8j2kd6w3hsq868qv180000gn/T//cck61hoc.s 			page 3


  92:smtc_modem_core/modem_supervisor/modem_supervisor.c ****     app_callback = callback;
  93:smtc_modem_core/modem_supervisor/modem_supervisor.c **** }
  94:smtc_modem_core/modem_supervisor/modem_supervisor.c **** 
  95:smtc_modem_core/modem_supervisor/modem_supervisor.c **** void init_task( void )
  96:smtc_modem_core/modem_supervisor/modem_supervisor.c **** {
  25              		.loc 1 96 1 view -0
  26              		.cfi_startproc
  27              		@ args = 0, pretend = 0, frame = 0
  28              		@ frame_needed = 0, uses_anonymous_args = 0
  29              		@ link register save eliminated.
  97:smtc_modem_core/modem_supervisor/modem_supervisor.c ****     for( int i = 0; i < NUMBER_OF_TASKS; i++ )
  30              		.loc 1 97 5 view .LVU1
  31              	.LBB2:
  32              		.loc 1 97 10 view .LVU2
  33              	.LVL0:
  34              		.loc 1 97 21 view .LVU3
  35 0000 064B     		ldr	r3, .L4
  36              		.loc 1 97 14 is_stmt 0 view .LVU4
  37 0002 0022     		movs	r2, #0
  38 0004 1900     		movs	r1, r3
  98:smtc_modem_core/modem_supervisor/modem_supervisor.c ****     {
  99:smtc_modem_core/modem_supervisor/modem_supervisor.c ****         task_manager.modem_task[i].priority = TASK_FINISH;
  39              		.loc 1 99 45 view .LVU5
  40 0006 0420     		movs	r0, #4
  41              	.LVL1:
  42              	.L2:
  43              		.loc 1 99 9 is_stmt 1 discriminator 3 view .LVU6
 100:smtc_modem_core/modem_supervisor/modem_supervisor.c ****         task_manager.modem_task[i].id       = ( task_id_t ) i;
  44              		.loc 1 100 45 is_stmt 0 discriminator 3 view .LVU7
  45 0008 1A70     		strb	r2, [r3]
  97:smtc_modem_core/modem_supervisor/modem_supervisor.c ****     for( int i = 0; i < NUMBER_OF_TASKS; i++ )
  46              		.loc 1 97 43 discriminator 3 view .LVU8
  47 000a 0132     		adds	r2, r2, #1
  48              	.LVL2:
  99:smtc_modem_core/modem_supervisor/modem_supervisor.c ****         task_manager.modem_task[i].id       = ( task_id_t ) i;
  49              		.loc 1 99 45 discriminator 3 view .LVU9
  50 000c 1872     		strb	r0, [r3, #8]
  51              		.loc 1 100 9 is_stmt 1 discriminator 3 view .LVU10
  97:smtc_modem_core/modem_supervisor/modem_supervisor.c ****     {
  52              		.loc 1 97 42 discriminator 3 view .LVU11
  53              	.LVL3:
  97:smtc_modem_core/modem_supervisor/modem_supervisor.c ****     {
  54              		.loc 1 97 21 discriminator 3 view .LVU12
  55 000e 1433     		adds	r3, r3, #20
  97:smtc_modem_core/modem_supervisor/modem_supervisor.c ****     {
  56              		.loc 1 97 5 is_stmt 0 discriminator 3 view .LVU13
  57 0010 0C2A     		cmp	r2, #12
  58 0012 F9D1     		bne	.L2
  59              	.LBE2:
 101:smtc_modem_core/modem_supervisor/modem_supervisor.c ****     }
 102:smtc_modem_core/modem_supervisor/modem_supervisor.c ****     task_manager.next_task_id = IDLE_TASK;
  60              		.loc 1 102 5 is_stmt 1 view .LVU14
  61              		.loc 1 102 31 is_stmt 0 view .LVU15
  62 0014 F131     		adds	r1, r1, #241
  63 0016 063A     		subs	r2, r2, #6
  64              	.LVL4:
 103:smtc_modem_core/modem_supervisor/modem_supervisor.c **** }
ARM GAS  /var/folders/bq/yv49bw8j2kd6w3hsq868qv180000gn/T//cck61hoc.s 			page 4


  65              		.loc 1 103 1 view .LVU16
  66              		@ sp needed
 102:smtc_modem_core/modem_supervisor/modem_supervisor.c **** }
  67              		.loc 1 102 31 view .LVU17
  68 0018 0A70     		strb	r2, [r1]
  69              		.loc 1 103 1 view .LVU18
  70 001a 7047     		bx	lr
  71              	.L5:
  72              		.align	2
  73              	.L4:
  74 001c 00000000 		.word	task_manager
  75              		.cfi_endproc
  76              	.LFE10:
  78              		.section	.text.modem_supervisor_init,"ax",%progbits
  79              		.align	1
  80              		.global	modem_supervisor_init
  81              		.syntax unified
  82              		.code	16
  83              		.thumb_func
  84              		.fpu softvfp
  86              	modem_supervisor_init:
  87              	.LVL5:
  88              	.LFB9:
  80:smtc_modem_core/modem_supervisor/modem_supervisor.c ****     lorawan_api_init( rp );
  89              		.loc 1 80 1 is_stmt 1 view -0
  90              		.cfi_startproc
  91              		@ args = 0, pretend = 0, frame = 0
  92              		@ frame_needed = 0, uses_anonymous_args = 0
  81:smtc_modem_core/modem_supervisor/modem_supervisor.c ****     lorawan_api_dr_strategy_set( USER_DR_DISTRIBUTION );
  93              		.loc 1 81 5 view .LVU20
  80:smtc_modem_core/modem_supervisor/modem_supervisor.c ****     lorawan_api_init( rp );
  94              		.loc 1 80 1 is_stmt 0 view .LVU21
  95 0000 10B5     		push	{r4, lr}
  96              		.cfi_def_cfa_offset 8
  97              		.cfi_offset 4, -8
  98              		.cfi_offset 14, -4
  80:smtc_modem_core/modem_supervisor/modem_supervisor.c ****     lorawan_api_init( rp );
  99              		.loc 1 80 1 view .LVU22
 100 0002 0400     		movs	r4, r0
 101 0004 0800     		movs	r0, r1
 102              	.LVL6:
  81:smtc_modem_core/modem_supervisor/modem_supervisor.c ****     lorawan_api_dr_strategy_set( USER_DR_DISTRIBUTION );
 103              		.loc 1 81 5 view .LVU23
 104 0006 FFF7FEFF 		bl	lorawan_api_init
 105              	.LVL7:
  82:smtc_modem_core/modem_supervisor/modem_supervisor.c **** #if !defined( PERF_TEST_ENABLED )
 106              		.loc 1 82 5 is_stmt 1 view .LVU24
 107 000a 0320     		movs	r0, #3
 108 000c FFF7FEFF 		bl	lorawan_api_dr_strategy_set
 109              	.LVL8:
  85:smtc_modem_core/modem_supervisor/modem_supervisor.c **** #endif
 110              		.loc 1 85 5 view .LVU25
 111 0010 FFF7FEFF 		bl	lorawan_api_join_status_clear
 112              	.LVL9:
  87:smtc_modem_core/modem_supervisor/modem_supervisor.c ****     increment_asynchronous_msgnumber( RSP_RESET, 0 );
 113              		.loc 1 87 5 view .LVU26
 114 0014 FFF7FEFF 		bl	modem_event_init
ARM GAS  /var/folders/bq/yv49bw8j2kd6w3hsq868qv180000gn/T//cck61hoc.s 			page 5


 115              	.LVL10:
  88:smtc_modem_core/modem_supervisor/modem_supervisor.c ****     init_task( );
 116              		.loc 1 88 5 view .LVU27
 117 0018 0021     		movs	r1, #0
 118 001a 0800     		movs	r0, r1
 119 001c FFF7FEFF 		bl	increment_asynchronous_msgnumber
 120              	.LVL11:
  89:smtc_modem_core/modem_supervisor/modem_supervisor.c ****     modem_load_context( );
 121              		.loc 1 89 5 view .LVU28
 122 0020 FFF7FEFF 		bl	init_task
 123              	.LVL12:
  90:smtc_modem_core/modem_supervisor/modem_supervisor.c ****     set_modem_start_time_s( bsp_rtc_get_time_s( ) );
 124              		.loc 1 90 5 view .LVU29
 125 0024 FFF7FEFF 		bl	modem_load_context
 126              	.LVL13:
  91:smtc_modem_core/modem_supervisor/modem_supervisor.c ****     app_callback = callback;
 127              		.loc 1 91 5 view .LVU30
 128 0028 FFF7FEFF 		bl	bsp_rtc_get_time_s
 129              	.LVL14:
 130 002c FFF7FEFF 		bl	set_modem_start_time_s
 131              	.LVL15:
  92:smtc_modem_core/modem_supervisor/modem_supervisor.c **** }
 132              		.loc 1 92 5 view .LVU31
  92:smtc_modem_core/modem_supervisor/modem_supervisor.c **** }
 133              		.loc 1 92 18 is_stmt 0 view .LVU32
 134 0030 014B     		ldr	r3, .L7
  93:smtc_modem_core/modem_supervisor/modem_supervisor.c **** 
 135              		.loc 1 93 1 view .LVU33
 136              		@ sp needed
  92:smtc_modem_core/modem_supervisor/modem_supervisor.c **** }
 137              		.loc 1 92 18 view .LVU34
 138 0032 1C60     		str	r4, [r3]
 139              	.LVL16:
  93:smtc_modem_core/modem_supervisor/modem_supervisor.c **** 
 140              		.loc 1 93 1 view .LVU35
 141 0034 10BD     		pop	{r4, pc}
 142              	.L8:
 143 0036 C046     		.align	2
 144              	.L7:
 145 0038 00000000 		.word	.LANCHOR0
 146              		.cfi_endproc
 147              	.LFE9:
 149              		.section	.rodata.modem_supervisor_remove_task.str1.1,"aMS",%progbits,1
 150              	.LC4:
 151 0000 1B5B303B 		.ascii	"\033[0;31m\000"
 151      33316D00 
 152              	.LC6:
 153 0008 4552524F 		.ascii	"ERROR: \000"
 153      523A2000 
 154              	.LC8:
 155 0010 6D6F6465 		.ascii	"modem_supervisor_remove_task id = %d unknown\012\000"
 155      6D5F7375 
 155      70657276 
 155      69736F72 
 155      5F72656D 
 156              	.LC10:
 157 003e 1B5B306D 		.ascii	"\033[0m\000"
ARM GAS  /var/folders/bq/yv49bw8j2kd6w3hsq868qv180000gn/T//cck61hoc.s 			page 6


 157      00
 158              		.section	.text.modem_supervisor_remove_task,"ax",%progbits
 159              		.align	1
 160              		.global	modem_supervisor_remove_task
 161              		.syntax unified
 162              		.code	16
 163              		.thumb_func
 164              		.fpu softvfp
 166              	modem_supervisor_remove_task:
 167              	.LVL17:
 168              	.LFB11:
 104:smtc_modem_core/modem_supervisor/modem_supervisor.c **** 
 105:smtc_modem_core/modem_supervisor/modem_supervisor.c **** eTask_valid_t modem_supervisor_remove_task( task_id_t id )
 106:smtc_modem_core/modem_supervisor/modem_supervisor.c **** {
 169              		.loc 1 106 1 is_stmt 1 view -0
 170              		.cfi_startproc
 171              		@ args = 0, pretend = 0, frame = 0
 172              		@ frame_needed = 0, uses_anonymous_args = 0
 107:smtc_modem_core/modem_supervisor/modem_supervisor.c ****     if( id < NUMBER_OF_TASKS )
 173              		.loc 1 107 5 view .LVU37
 106:smtc_modem_core/modem_supervisor/modem_supervisor.c ****     if( id < NUMBER_OF_TASKS )
 174              		.loc 1 106 1 is_stmt 0 view .LVU38
 175 0000 10B5     		push	{r4, lr}
 176              		.cfi_def_cfa_offset 8
 177              		.cfi_offset 4, -8
 178              		.cfi_offset 14, -4
 106:smtc_modem_core/modem_supervisor/modem_supervisor.c ****     if( id < NUMBER_OF_TASKS )
 179              		.loc 1 106 1 view .LVU39
 180 0002 0400     		movs	r4, r0
 181              		.loc 1 107 7 view .LVU40
 182 0004 0B28     		cmp	r0, #11
 183 0006 07D8     		bhi	.L10
 108:smtc_modem_core/modem_supervisor/modem_supervisor.c ****     {
 109:smtc_modem_core/modem_supervisor/modem_supervisor.c ****         task_manager.modem_task[id].priority = TASK_FINISH;
 184              		.loc 1 109 9 is_stmt 1 view .LVU41
 185              		.loc 1 109 46 is_stmt 0 view .LVU42
 186 0008 1420     		movs	r0, #20
 187              	.LVL18:
 188              		.loc 1 109 46 view .LVU43
 189 000a 6043     		muls	r0, r4
 190 000c 0A4C     		ldr	r4, .L12
 191 000e 0423     		movs	r3, #4
 192 0010 2418     		adds	r4, r4, r0
 110:smtc_modem_core/modem_supervisor/modem_supervisor.c ****         return TASK_VALID;
 193              		.loc 1 110 16 view .LVU44
 194 0012 0020     		movs	r0, #0
 109:smtc_modem_core/modem_supervisor/modem_supervisor.c ****         return TASK_VALID;
 195              		.loc 1 109 46 view .LVU45
 196 0014 2372     		strb	r3, [r4, #8]
 197              		.loc 1 110 9 is_stmt 1 view .LVU46
 198              	.L11:
 111:smtc_modem_core/modem_supervisor/modem_supervisor.c ****     }
 112:smtc_modem_core/modem_supervisor/modem_supervisor.c ****     BSP_DBG_TRACE_ERROR( "modem_supervisor_remove_task id = %d unknown\n", id );
 113:smtc_modem_core/modem_supervisor/modem_supervisor.c ****     return TASK_NOT_VALID;
 114:smtc_modem_core/modem_supervisor/modem_supervisor.c **** }
 199              		.loc 1 114 1 is_stmt 0 view .LVU47
 200              		@ sp needed
ARM GAS  /var/folders/bq/yv49bw8j2kd6w3hsq868qv180000gn/T//cck61hoc.s 			page 7


 201 0016 10BD     		pop	{r4, pc}
 202              	.LVL19:
 203              	.L10:
 204              	.LBB5:
 205              	.LBI5:
 105:smtc_modem_core/modem_supervisor/modem_supervisor.c **** {
 206              		.loc 1 105 15 is_stmt 1 view .LVU48
 207              	.LBB6:
 112:smtc_modem_core/modem_supervisor/modem_supervisor.c ****     return TASK_NOT_VALID;
 208              		.loc 1 112 5 view .LVU49
 112:smtc_modem_core/modem_supervisor/modem_supervisor.c ****     return TASK_NOT_VALID;
 209              		.loc 1 112 5 view .LVU50
 210 0018 0848     		ldr	r0, .L12+4
 211              	.LVL20:
 112:smtc_modem_core/modem_supervisor/modem_supervisor.c ****     return TASK_NOT_VALID;
 212              		.loc 1 112 5 is_stmt 0 view .LVU51
 213 001a FFF7FEFF 		bl	bsp_trace_print
 214              	.LVL21:
 112:smtc_modem_core/modem_supervisor/modem_supervisor.c ****     return TASK_NOT_VALID;
 215              		.loc 1 112 5 is_stmt 1 view .LVU52
 216 001e 0848     		ldr	r0, .L12+8
 217 0020 FFF7FEFF 		bl	bsp_trace_print
 218              	.LVL22:
 112:smtc_modem_core/modem_supervisor/modem_supervisor.c ****     return TASK_NOT_VALID;
 219              		.loc 1 112 5 view .LVU53
 220 0024 2100     		movs	r1, r4
 221 0026 0748     		ldr	r0, .L12+12
 222 0028 FFF7FEFF 		bl	bsp_trace_print
 223              	.LVL23:
 112:smtc_modem_core/modem_supervisor/modem_supervisor.c ****     return TASK_NOT_VALID;
 224              		.loc 1 112 5 view .LVU54
 225 002c 0648     		ldr	r0, .L12+16
 226 002e FFF7FEFF 		bl	bsp_trace_print
 227              	.LVL24:
 112:smtc_modem_core/modem_supervisor/modem_supervisor.c ****     return TASK_NOT_VALID;
 228              		.loc 1 112 5 view .LVU55
 112:smtc_modem_core/modem_supervisor/modem_supervisor.c ****     return TASK_NOT_VALID;
 229              		.loc 1 112 80 view .LVU56
 113:smtc_modem_core/modem_supervisor/modem_supervisor.c **** }
 230              		.loc 1 113 5 view .LVU57
 112:smtc_modem_core/modem_supervisor/modem_supervisor.c ****     return TASK_NOT_VALID;
 231              		.loc 1 112 5 is_stmt 0 view .LVU58
 232 0032 0120     		movs	r0, #1
 233 0034 EFE7     		b	.L11
 234              	.L13:
 235 0036 C046     		.align	2
 236              	.L12:
 237 0038 00000000 		.word	task_manager
 238 003c 00000000 		.word	.LC4
 239 0040 08000000 		.word	.LC6
 240 0044 10000000 		.word	.LC8
 241 0048 3E000000 		.word	.LC10
 242              	.LBE6:
 243              	.LBE5:
 244              		.cfi_endproc
 245              	.LFE11:
 247              		.section	.rodata.modem_supervisor_add_task.str1.1,"aMS",%progbits,1
ARM GAS  /var/folders/bq/yv49bw8j2kd6w3hsq868qv180000gn/T//cck61hoc.s 			page 8


 248              	.LC15:
 249 0000 6D6F6465 		.ascii	"modem_supervisor_add_task id = %d unknown\012\000"
 249      6D5F7375 
 249      70657276 
 249      69736F72 
 249      5F616464 
 250              		.section	.text.modem_supervisor_add_task,"ax",%progbits
 251              		.align	1
 252              		.global	modem_supervisor_add_task
 253              		.syntax unified
 254              		.code	16
 255              		.thumb_func
 256              		.fpu softvfp
 258              	modem_supervisor_add_task:
 259              	.LVL25:
 260              	.LFB12:
 115:smtc_modem_core/modem_supervisor/modem_supervisor.c **** 
 116:smtc_modem_core/modem_supervisor/modem_supervisor.c **** eTask_valid_t modem_supervisor_add_task( smodem_task* task )
 117:smtc_modem_core/modem_supervisor/modem_supervisor.c **** {
 261              		.loc 1 117 1 is_stmt 1 view -0
 262              		.cfi_startproc
 263              		@ args = 0, pretend = 0, frame = 0
 264              		@ frame_needed = 0, uses_anonymous_args = 0
 118:smtc_modem_core/modem_supervisor/modem_supervisor.c ****     // the modem supervisor always accept a new task.
 119:smtc_modem_core/modem_supervisor/modem_supervisor.c ****     // in case of a previous task is already enqueue , the new task remove the old one.
 120:smtc_modem_core/modem_supervisor/modem_supervisor.c ****     // as soon as a task has been elected by the modem supervisor , the task is managed by the stac
 121:smtc_modem_core/modem_supervisor/modem_supervisor.c ****     // task could be added inside the modem supervisor.
 122:smtc_modem_core/modem_supervisor/modem_supervisor.c ****     if( task->id < NUMBER_OF_TASKS )
 265              		.loc 1 122 5 view .LVU60
 266              		.loc 1 122 13 is_stmt 0 view .LVU61
 267 0000 0278     		ldrb	r2, [r0]
 117:smtc_modem_core/modem_supervisor/modem_supervisor.c ****     // the modem supervisor always accept a new task.
 268              		.loc 1 117 1 view .LVU62
 269 0002 10B5     		push	{r4, lr}
 270              		.cfi_def_cfa_offset 8
 271              		.cfi_offset 4, -8
 272              		.cfi_offset 14, -4
 117:smtc_modem_core/modem_supervisor/modem_supervisor.c ****     // the modem supervisor always accept a new task.
 273              		.loc 1 117 1 view .LVU63
 274 0004 0400     		movs	r4, r0
 275              		.loc 1 122 7 view .LVU64
 276 0006 0B2A     		cmp	r2, #11
 277 0008 11D8     		bhi	.L15
 123:smtc_modem_core/modem_supervisor/modem_supervisor.c ****     {
 124:smtc_modem_core/modem_supervisor/modem_supervisor.c ****         task_manager.modem_task[task->id].time_to_execute_s = task->time_to_execute_s;
 278              		.loc 1 124 9 is_stmt 1 view .LVU65
 279              		.loc 1 124 61 is_stmt 0 view .LVU66
 280 000a 1423     		movs	r3, #20
 281 000c 5A43     		muls	r2, r3
 282 000e 0F4B     		ldr	r3, .L17
 283 0010 9B18     		adds	r3, r3, r2
 284 0012 4268     		ldr	r2, [r0, #4]
 285 0014 5A60     		str	r2, [r3, #4]
 125:smtc_modem_core/modem_supervisor/modem_supervisor.c ****         task_manager.modem_task[task->id].priority          = task->priority;
 286              		.loc 1 125 9 is_stmt 1 view .LVU67
 287              		.loc 1 125 67 is_stmt 0 view .LVU68
 288 0016 027A     		ldrb	r2, [r0, #8]
ARM GAS  /var/folders/bq/yv49bw8j2kd6w3hsq868qv180000gn/T//cck61hoc.s 			page 9


 289              		.loc 1 125 61 view .LVU69
 290 0018 1A72     		strb	r2, [r3, #8]
 126:smtc_modem_core/modem_supervisor/modem_supervisor.c ****         task_manager.modem_task[task->id].fPort             = task->fPort;
 291              		.loc 1 126 9 is_stmt 1 view .LVU70
 292              		.loc 1 126 67 is_stmt 0 view .LVU71
 293 001a 427A     		ldrb	r2, [r0, #9]
 294              		.loc 1 126 61 view .LVU72
 295 001c 5A72     		strb	r2, [r3, #9]
 127:smtc_modem_core/modem_supervisor/modem_supervisor.c ****         task_manager.modem_task[task->id].dataIn            = task->dataIn;
 296              		.loc 1 127 9 is_stmt 1 view .LVU73
 297              		.loc 1 127 61 is_stmt 0 view .LVU74
 298 001e C268     		ldr	r2, [r0, #12]
 299 0020 DA60     		str	r2, [r3, #12]
 128:smtc_modem_core/modem_supervisor/modem_supervisor.c ****         task_manager.modem_task[task->id].sizeIn            = task->sizeIn;
 300              		.loc 1 128 9 is_stmt 1 view .LVU75
 301              		.loc 1 128 67 is_stmt 0 view .LVU76
 302 0022 027C     		ldrb	r2, [r0, #16]
 303              		.loc 1 128 61 view .LVU77
 304 0024 1A74     		strb	r2, [r3, #16]
 129:smtc_modem_core/modem_supervisor/modem_supervisor.c ****         task_manager.modem_task[task->id].PacketType        = task->PacketType;
 305              		.loc 1 129 9 is_stmt 1 view .LVU78
 306              		.loc 1 129 67 is_stmt 0 view .LVU79
 307 0026 427C     		ldrb	r2, [r0, #17]
 130:smtc_modem_core/modem_supervisor/modem_supervisor.c **** 
 131:smtc_modem_core/modem_supervisor/modem_supervisor.c ****         return TASK_VALID;
 308              		.loc 1 131 16 view .LVU80
 309 0028 0020     		movs	r0, #0
 310              	.LVL26:
 129:smtc_modem_core/modem_supervisor/modem_supervisor.c ****         task_manager.modem_task[task->id].PacketType        = task->PacketType;
 311              		.loc 1 129 61 view .LVU81
 312 002a 5A74     		strb	r2, [r3, #17]
 313              		.loc 1 131 9 is_stmt 1 view .LVU82
 314              	.L16:
 132:smtc_modem_core/modem_supervisor/modem_supervisor.c ****     }
 133:smtc_modem_core/modem_supervisor/modem_supervisor.c ****     BSP_DBG_TRACE_ERROR( "modem_supervisor_add_task id = %d unknown\n", task->id );
 134:smtc_modem_core/modem_supervisor/modem_supervisor.c ****     return TASK_NOT_VALID;
 135:smtc_modem_core/modem_supervisor/modem_supervisor.c **** }
 315              		.loc 1 135 1 is_stmt 0 view .LVU83
 316              		@ sp needed
 317              	.LVL27:
 318              		.loc 1 135 1 view .LVU84
 319 002c 10BD     		pop	{r4, pc}
 320              	.LVL28:
 321              	.L15:
 322              	.LBB9:
 323              	.LBI9:
 116:smtc_modem_core/modem_supervisor/modem_supervisor.c **** {
 324              		.loc 1 116 15 is_stmt 1 view .LVU85
 325              	.LBB10:
 133:smtc_modem_core/modem_supervisor/modem_supervisor.c ****     return TASK_NOT_VALID;
 326              		.loc 1 133 5 view .LVU86
 133:smtc_modem_core/modem_supervisor/modem_supervisor.c ****     return TASK_NOT_VALID;
 327              		.loc 1 133 5 view .LVU87
 328 002e 0848     		ldr	r0, .L17+4
 329              	.LVL29:
 133:smtc_modem_core/modem_supervisor/modem_supervisor.c ****     return TASK_NOT_VALID;
 330              		.loc 1 133 5 is_stmt 0 view .LVU88
ARM GAS  /var/folders/bq/yv49bw8j2kd6w3hsq868qv180000gn/T//cck61hoc.s 			page 10


 331 0030 FFF7FEFF 		bl	bsp_trace_print
 332              	.LVL30:
 133:smtc_modem_core/modem_supervisor/modem_supervisor.c ****     return TASK_NOT_VALID;
 333              		.loc 1 133 5 is_stmt 1 view .LVU89
 334 0034 0748     		ldr	r0, .L17+8
 335 0036 FFF7FEFF 		bl	bsp_trace_print
 336              	.LVL31:
 133:smtc_modem_core/modem_supervisor/modem_supervisor.c ****     return TASK_NOT_VALID;
 337              		.loc 1 133 5 view .LVU90
 338 003a 2178     		ldrb	r1, [r4]
 339 003c 0648     		ldr	r0, .L17+12
 340 003e FFF7FEFF 		bl	bsp_trace_print
 341              	.LVL32:
 133:smtc_modem_core/modem_supervisor/modem_supervisor.c ****     return TASK_NOT_VALID;
 342              		.loc 1 133 5 view .LVU91
 343 0042 0648     		ldr	r0, .L17+16
 344 0044 FFF7FEFF 		bl	bsp_trace_print
 345              	.LVL33:
 133:smtc_modem_core/modem_supervisor/modem_supervisor.c ****     return TASK_NOT_VALID;
 346              		.loc 1 133 5 view .LVU92
 133:smtc_modem_core/modem_supervisor/modem_supervisor.c ****     return TASK_NOT_VALID;
 347              		.loc 1 133 83 view .LVU93
 134:smtc_modem_core/modem_supervisor/modem_supervisor.c **** }
 348              		.loc 1 134 5 view .LVU94
 133:smtc_modem_core/modem_supervisor/modem_supervisor.c ****     return TASK_NOT_VALID;
 349              		.loc 1 133 5 is_stmt 0 view .LVU95
 350 0048 0120     		movs	r0, #1
 351 004a EFE7     		b	.L16
 352              	.L18:
 353              		.align	2
 354              	.L17:
 355 004c 00000000 		.word	task_manager
 356 0050 00000000 		.word	.LC4
 357 0054 08000000 		.word	.LC6
 358 0058 00000000 		.word	.LC15
 359 005c 3E000000 		.word	.LC10
 360              	.LBE10:
 361              	.LBE9:
 362              		.cfi_endproc
 363              	.LFE12:
 365              		.section	.rodata.modem_supervisor_launch_task.str1.1,"aMS",%progbits,1
 366              	.LC18:
 367 0000 1B5B303B 		.ascii	"\033[0;32m\000"
 367      33326D00 
 368              	.LC20:
 369 0008 494E464F 		.ascii	"INFO : \000"
 369      203A2000 
 370              	.LC22:
 371 0010 4A4F494E 		.ascii	"JOIN_TASK\012\000"
 371      5F544153 
 371      4B0A00
 372              	.LC27:
 373 001b 44455649 		.ascii	"DEVICE ALREADY JOINED or TRY TO JOIN \012\000"
 373      43452041 
 373      4C524541 
 373      4459204A 
 373      4F494E45 
ARM GAS  /var/folders/bq/yv49bw8j2kd6w3hsq868qv180000gn/T//cck61hoc.s 			page 11


 374              	.LC31:
 375 0042 20557365 		.ascii	" User Tx LORa on Port %d \012\000"
 375      72205478 
 375      204C4F52 
 375      61206F6E 
 375      20506F72 
 376              	.LC33:
 377 005d 1B5B303B 		.ascii	"\033[0;33m\000"
 377      33336D00 
 378              	.LC35:
 379 0065 5741524E 		.ascii	"WARN : \000"
 379      203A2000 
 380              	.LC37:
 381 006d 54686520 		.ascii	"The payload can't be send! internal code: %x\012\000"
 381      7061796C 
 381      6F616420 
 381      63616E27 
 381      74206265 
 382              	.LC40:
 383 009b 20696E66 		.ascii	" info bit field = %lx\012\000"
 383      6F206269 
 383      74206669 
 383      656C6420 
 383      3D20256C 
 384              	.LC42:
 385 00b2 20696E66 		.ascii	" info bit fiel = %lx\012\000"
 385      6F206269 
 385      74206669 
 385      656C203D 
 385      20256C78 
 386              	.LC44:
 387 00c8 7061796C 		.ascii	"payload DM \000"
 387      6F616420 
 387      444D2000 
 388              	.LC46:
 389 00d4 2573202D 		.ascii	"%s - (%lu bytes):\012\000"
 389      2028256C 
 389      75206279 
 389      74657329 
 389      3A0A00
 390              	.LC48:
 391 00e7 0A00     		.ascii	"\012\000"
 392              	.LC50:
 393 00e9 20253032 		.ascii	" %02X\000"
 393      5800
 394              	.LC52:
 395 00ef 206F6E20 		.ascii	" on Port %d\012\000"
 395      506F7274 
 395      2025640A 
 395      00
 396              	.LC54:
 397 00fc 50657269 		.ascii	"Periodic DM can't be send! internal code: %x\012\000"
 397      6F646963 
 397      20444D20 
 397      63616E27 
 397      74206265 
 398              	.LC56:
ARM GAS  /var/folders/bq/yv49bw8j2kd6w3hsq868qv180000gn/T//cck61hoc.s 			page 12


 399 012a 444D2000 		.ascii	"DM \000"
 400              	.LC59:
 401 012e 444D2052 		.ascii	"DM Req \000"
 401      65712000 
 402              	.LC61:
 403 0136 52657175 		.ascii	"Requested DM can't be send! internal code: %x\012\000"
 403      65737465 
 403      6420444D 
 403      2063616E 
 403      27742062 
 404              	.LC63:
 405 0165 44455649 		.ascii	"DEVICE NOT JOIN \012\000"
 405      4345204E 
 405      4F54204A 
 405      4F494E20 
 405      0A00
 406              	.LC65:
 407 0177 46696C65 		.ascii	"FileUpload not init \012\000"
 407      55706C6F 
 407      6164206E 
 407      6F742069 
 407      6E697420 
 408              	.LC68:
 409 018d 46696C65 		.ascii	"File upload DONE\012\000"
 409      2075706C 
 409      6F616420 
 409      444F4E45 
 409      0A00
 410              		.section	.text.modem_supervisor_launch_task,"ax",%progbits
 411              		.align	1
 412              		.global	modem_supervisor_launch_task
 413              		.syntax unified
 414              		.code	16
 415              		.thumb_func
 416              		.fpu softvfp
 418              	modem_supervisor_launch_task:
 419              	.LVL34:
 420              	.LFB13:
 136:smtc_modem_core/modem_supervisor/modem_supervisor.c **** 
 137:smtc_modem_core/modem_supervisor/modem_supervisor.c **** void modem_supervisor_launch_task( task_id_t id )
 138:smtc_modem_core/modem_supervisor/modem_supervisor.c **** {
 421              		.loc 1 138 1 is_stmt 1 view -0
 422              		.cfi_startproc
 423              		@ args = 0, pretend = 0, frame = 280
 424              		@ frame_needed = 0, uses_anonymous_args = 0
 139:smtc_modem_core/modem_supervisor/modem_supervisor.c ****     lr1mac_states_t send_status;
 425              		.loc 1 139 5 view .LVU97
 140:smtc_modem_core/modem_supervisor/modem_supervisor.c ****     switch( id )
 426              		.loc 1 140 5 view .LVU98
 138:smtc_modem_core/modem_supervisor/modem_supervisor.c ****     lr1mac_states_t send_status;
 427              		.loc 1 138 1 is_stmt 0 view .LVU99
 428 0000 F0B5     		push	{r4, r5, r6, r7, lr}
 429              		.cfi_def_cfa_offset 20
 430              		.cfi_offset 4, -20
 431              		.cfi_offset 5, -16
 432              		.cfi_offset 6, -12
 433              		.cfi_offset 7, -8
ARM GAS  /var/folders/bq/yv49bw8j2kd6w3hsq868qv180000gn/T//cck61hoc.s 			page 13


 434              		.cfi_offset 14, -4
 435 0002 C9B0     		sub	sp, sp, #292
 436              		.cfi_def_cfa_offset 312
 138:smtc_modem_core/modem_supervisor/modem_supervisor.c ****     lr1mac_states_t send_status;
 437              		.loc 1 138 1 view .LVU100
 438 0004 0390     		str	r0, [sp, #12]
 439 0006 0828     		cmp	r0, #8
 440 0008 2BD8     		bhi	.L20
 441 000a FFF7FEFF 		bl	__gnu_thumb1_case_uhi
 442              	.L22:
 443 000e 3900     		.2byte	(.L28-.L22)/2
 444 0010 2A00     		.2byte	(.L20-.L22)/2
 445 0012 0900     		.2byte	(.L27-.L22)/2
 446 0014 6700     		.2byte	(.L26-.L22)/2
 447 0016 2501     		.2byte	(.L25-.L22)/2
 448 0018 6B01     		.2byte	(.L24-.L22)/2
 449 001a 2A00     		.2byte	(.L20-.L22)/2
 450 001c F701     		.2byte	(.L23-.L22)/2
 451 001e 0302     		.2byte	(.L21-.L22)/2
 452              		.p2align 1
 453              	.L27:
 141:smtc_modem_core/modem_supervisor/modem_supervisor.c ****     {
 142:smtc_modem_core/modem_supervisor/modem_supervisor.c ****     case JOIN_TASK:
 143:smtc_modem_core/modem_supervisor/modem_supervisor.c ****         BSP_DBG_TRACE_INFO( "JOIN_TASK\n" );
 454              		.loc 1 143 9 is_stmt 1 view .LVU101
 455              		.loc 1 143 9 view .LVU102
 456 0020 CF48     		ldr	r0, .L79
 457              	.LVL35:
 458              		.loc 1 143 9 is_stmt 0 view .LVU103
 459 0022 FFF7FEFF 		bl	bsp_trace_print
 460              	.LVL36:
 461              		.loc 1 143 9 is_stmt 1 view .LVU104
 462 0026 CF48     		ldr	r0, .L79+4
 463 0028 FFF7FEFF 		bl	bsp_trace_print
 464              	.LVL37:
 465              		.loc 1 143 9 view .LVU105
 466 002c CE48     		ldr	r0, .L79+8
 467 002e FFF7FEFF 		bl	bsp_trace_print
 468              	.LVL38:
 469              		.loc 1 143 9 view .LVU106
 470 0032 CE4C     		ldr	r4, .L79+12
 471 0034 2000     		movs	r0, r4
 472 0036 FFF7FEFF 		bl	bsp_trace_print
 473              	.LVL39:
 474              		.loc 1 143 9 view .LVU107
 475              		.loc 1 143 44 view .LVU108
 144:smtc_modem_core/modem_supervisor/modem_supervisor.c ****         if( get_join_state( ) == MODEM_JOINED )
 476              		.loc 1 144 9 view .LVU109
 477              		.loc 1 144 13 is_stmt 0 view .LVU110
 478 003a FFF7FEFF 		bl	get_join_state
 479              	.LVL40:
 480              		.loc 1 144 11 view .LVU111
 481 003e 0228     		cmp	r0, #2
 482 0040 14D1     		bne	.L29
 145:smtc_modem_core/modem_supervisor/modem_supervisor.c ****         {
 146:smtc_modem_core/modem_supervisor/modem_supervisor.c ****             BSP_DBG_TRACE_ERROR( "DEVICE ALREADY JOINED or TRY TO JOIN \n" );
 483              		.loc 1 146 13 is_stmt 1 view .LVU112
ARM GAS  /var/folders/bq/yv49bw8j2kd6w3hsq868qv180000gn/T//cck61hoc.s 			page 14


 484              		.loc 1 146 13 view .LVU113
 485 0042 CB48     		ldr	r0, .L79+16
 486 0044 FFF7FEFF 		bl	bsp_trace_print
 487              	.LVL41:
 488              		.loc 1 146 13 view .LVU114
 489 0048 CA48     		ldr	r0, .L79+20
 490 004a FFF7FEFF 		bl	bsp_trace_print
 491              	.LVL42:
 492              		.loc 1 146 13 view .LVU115
 493 004e CA48     		ldr	r0, .L79+24
 494 0050 FFF7FEFF 		bl	bsp_trace_print
 495              	.LVL43:
 496              		.loc 1 146 13 view .LVU116
 497 0054 2000     		movs	r0, r4
 498 0056 FFF7FEFF 		bl	bsp_trace_print
 499              	.LVL44:
 500              		.loc 1 146 13 view .LVU117
 501              		.loc 1 146 77 view .LVU118
 147:smtc_modem_core/modem_supervisor/modem_supervisor.c ****             task_manager.next_task_id = IDLE_TASK;
 502              		.loc 1 147 13 view .LVU119
 503              		.loc 1 147 39 is_stmt 0 view .LVU120
 504 005a 0622     		movs	r2, #6
 505 005c C74B     		ldr	r3, .L79+28
 506 005e F133     		adds	r3, r3, #241
 507 0060 1A70     		strb	r2, [r3]
 508              	.L20:
 148:smtc_modem_core/modem_supervisor/modem_supervisor.c ****         }
 149:smtc_modem_core/modem_supervisor/modem_supervisor.c ****         else if( get_join_state( ) == MODEM_JOIN_ONGOING )
 150:smtc_modem_core/modem_supervisor/modem_supervisor.c ****         {
 151:smtc_modem_core/modem_supervisor/modem_supervisor.c ****             lorawan_api_join( bsp_rtc_get_time_ms( ) + MODEM_TASK_DELAY_MS );
 152:smtc_modem_core/modem_supervisor/modem_supervisor.c ****         }
 153:smtc_modem_core/modem_supervisor/modem_supervisor.c ****         break;
 154:smtc_modem_core/modem_supervisor/modem_supervisor.c ****     case SEND_TASK: {
 155:smtc_modem_core/modem_supervisor/modem_supervisor.c ****         send_status = lorawan_api_payload_send(
 156:smtc_modem_core/modem_supervisor/modem_supervisor.c ****             task_manager.modem_task[id].fPort, task_manager.modem_task[id].dataIn, task_manager.mod
 157:smtc_modem_core/modem_supervisor/modem_supervisor.c ****             ( task_manager.modem_task[id].PacketType == TX_CONFIRMED ) ? CONF_DATA_UP : UNCONF_DATA
 158:smtc_modem_core/modem_supervisor/modem_supervisor.c ****             bsp_rtc_get_time_ms( ) + MODEM_TASK_DELAY_MS );
 159:smtc_modem_core/modem_supervisor/modem_supervisor.c **** 
 160:smtc_modem_core/modem_supervisor/modem_supervisor.c ****         if( send_status == LWPSTATE_SEND )
 161:smtc_modem_core/modem_supervisor/modem_supervisor.c ****         {
 162:smtc_modem_core/modem_supervisor/modem_supervisor.c ****             send_task_update_needed = true;
 163:smtc_modem_core/modem_supervisor/modem_supervisor.c ****             BSP_DBG_TRACE_PRINTF( " User Tx LORa on Port %d \n", task_manager.modem_task[id].fPort 
 164:smtc_modem_core/modem_supervisor/modem_supervisor.c ****         }
 165:smtc_modem_core/modem_supervisor/modem_supervisor.c ****         else
 166:smtc_modem_core/modem_supervisor/modem_supervisor.c ****         {
 167:smtc_modem_core/modem_supervisor/modem_supervisor.c ****             send_task_update_needed = false;
 168:smtc_modem_core/modem_supervisor/modem_supervisor.c ****             BSP_DBG_TRACE_WARNING( "The payload can't be send! internal code: %x\n", send_status );
 169:smtc_modem_core/modem_supervisor/modem_supervisor.c ****         }
 170:smtc_modem_core/modem_supervisor/modem_supervisor.c ****         break;
 171:smtc_modem_core/modem_supervisor/modem_supervisor.c ****     }
 172:smtc_modem_core/modem_supervisor/modem_supervisor.c ****     case SEND_AT_TIME_TASK:
 173:smtc_modem_core/modem_supervisor/modem_supervisor.c ****         break;
 174:smtc_modem_core/modem_supervisor/modem_supervisor.c **** 
 175:smtc_modem_core/modem_supervisor/modem_supervisor.c ****     case DM_TASK:
 176:smtc_modem_core/modem_supervisor/modem_supervisor.c ****         if( get_join_state( ) == MODEM_JOINED )
 177:smtc_modem_core/modem_supervisor/modem_supervisor.c ****         {
 178:smtc_modem_core/modem_supervisor/modem_supervisor.c ****             uint8_t  max_payload = lorawan_api_next_max_payload_length_get( );
ARM GAS  /var/folders/bq/yv49bw8j2kd6w3hsq868qv180000gn/T//cck61hoc.s 			page 15


 179:smtc_modem_core/modem_supervisor/modem_supervisor.c ****             uint8_t  payload[255];
 180:smtc_modem_core/modem_supervisor/modem_supervisor.c ****             uint8_t  payload_length;
 181:smtc_modem_core/modem_supervisor/modem_supervisor.c ****             uint32_t info_bitfield_periodic;
 182:smtc_modem_core/modem_supervisor/modem_supervisor.c ****             uint32_t info_bitfield_periodictmp;
 183:smtc_modem_core/modem_supervisor/modem_supervisor.c **** 
 184:smtc_modem_core/modem_supervisor/modem_supervisor.c ****             if( is_first_dm_after_join == true )
 185:smtc_modem_core/modem_supervisor/modem_supervisor.c ****             {
 186:smtc_modem_core/modem_supervisor/modem_supervisor.c ****                 info_bitfield_periodictmp = modem_get_dm_info_bitfield_periodic( );
 187:smtc_modem_core/modem_supervisor/modem_supervisor.c ****                 BSP_DBG_TRACE_PRINTF( " info bit field = %lx\n", info_bitfield_periodictmp );
 188:smtc_modem_core/modem_supervisor/modem_supervisor.c ****                 info_bitfield_periodic =
 189:smtc_modem_core/modem_supervisor/modem_supervisor.c ****                     info_bitfield_periodictmp +
 190:smtc_modem_core/modem_supervisor/modem_supervisor.c ****                     ( ( ( info_bitfield_periodictmp & ( 1 << e_inf_rstcount ) ) == 0 ) ? ( 1 << e_i
 191:smtc_modem_core/modem_supervisor/modem_supervisor.c ****                     ( ( ( info_bitfield_periodictmp & ( 1 << e_inf_session ) ) == 0 ) ? ( 1 << e_in
 192:smtc_modem_core/modem_supervisor/modem_supervisor.c ****                     ( ( ( info_bitfield_periodictmp & ( 1 << e_inf_firmware ) ) == 0 ) ? ( 1 << e_i
 193:smtc_modem_core/modem_supervisor/modem_supervisor.c **** 
 194:smtc_modem_core/modem_supervisor/modem_supervisor.c ****                 modem_set_dm_info_bitfield_periodic( info_bitfield_periodic );
 195:smtc_modem_core/modem_supervisor/modem_supervisor.c ****                 BSP_DBG_TRACE_PRINTF( " info bit fiel = %lx\n", info_bitfield_periodic );
 196:smtc_modem_core/modem_supervisor/modem_supervisor.c ****                 dm_status_payload( payload, &payload_length, max_payload, DM_INFO_PERIODIC );
 197:smtc_modem_core/modem_supervisor/modem_supervisor.c **** 
 198:smtc_modem_core/modem_supervisor/modem_supervisor.c ****                 send_status = lorawan_api_payload_send( get_modem_dm_port( ), payload, payload_leng
 199:smtc_modem_core/modem_supervisor/modem_supervisor.c ****                                                         bsp_rtc_get_time_ms( ) + MODEM_TASK_DELAY_M
 200:smtc_modem_core/modem_supervisor/modem_supervisor.c **** 
 201:smtc_modem_core/modem_supervisor/modem_supervisor.c ****                 if( send_status == LWPSTATE_SEND )
 202:smtc_modem_core/modem_supervisor/modem_supervisor.c ****                 {
 203:smtc_modem_core/modem_supervisor/modem_supervisor.c ****                     is_first_dm_after_join = false;
 204:smtc_modem_core/modem_supervisor/modem_supervisor.c ****                     BSP_DBG_TRACE_ARRAY( "payload DM ", payload, payload_length );
 205:smtc_modem_core/modem_supervisor/modem_supervisor.c ****                     BSP_DBG_TRACE_PRINTF( " on Port %d\n", get_modem_dm_port( ) );
 206:smtc_modem_core/modem_supervisor/modem_supervisor.c ****                     modem_set_dm_info_bitfield_periodic( info_bitfield_periodictmp );
 207:smtc_modem_core/modem_supervisor/modem_supervisor.c ****                 }
 208:smtc_modem_core/modem_supervisor/modem_supervisor.c ****                 else
 209:smtc_modem_core/modem_supervisor/modem_supervisor.c ****                 {
 210:smtc_modem_core/modem_supervisor/modem_supervisor.c ****                     BSP_DBG_TRACE_WARNING( "Periodic DM can't be send! internal code: %x\n", send_s
 211:smtc_modem_core/modem_supervisor/modem_supervisor.c ****                 }
 212:smtc_modem_core/modem_supervisor/modem_supervisor.c ****             }
 213:smtc_modem_core/modem_supervisor/modem_supervisor.c ****             else
 214:smtc_modem_core/modem_supervisor/modem_supervisor.c ****             {
 215:smtc_modem_core/modem_supervisor/modem_supervisor.c ****                 if( ( get_modem_dm_interval_second( ) > 0 ) && ( modem_get_dm_info_bitfield_periodi
 216:smtc_modem_core/modem_supervisor/modem_supervisor.c ****                 {
 217:smtc_modem_core/modem_supervisor/modem_supervisor.c ****                     dm_status_payload( payload, &payload_length, max_payload, DM_INFO_PERIODIC );
 218:smtc_modem_core/modem_supervisor/modem_supervisor.c ****                     send_status =
 219:smtc_modem_core/modem_supervisor/modem_supervisor.c ****                         lorawan_api_payload_send( get_modem_dm_port( ), payload, payload_length, UN
 220:smtc_modem_core/modem_supervisor/modem_supervisor.c ****                                                   bsp_rtc_get_time_ms( ) + MODEM_TASK_DELAY_MS );
 221:smtc_modem_core/modem_supervisor/modem_supervisor.c **** 
 222:smtc_modem_core/modem_supervisor/modem_supervisor.c ****                     if( send_status == LWPSTATE_SEND )
 223:smtc_modem_core/modem_supervisor/modem_supervisor.c ****                     {
 224:smtc_modem_core/modem_supervisor/modem_supervisor.c ****                         BSP_DBG_TRACE_ARRAY( "DM ", payload, payload_length );
 225:smtc_modem_core/modem_supervisor/modem_supervisor.c ****                         BSP_DBG_TRACE_PRINTF( " on Port %d\n", get_modem_dm_port( ) );
 226:smtc_modem_core/modem_supervisor/modem_supervisor.c ****                     }
 227:smtc_modem_core/modem_supervisor/modem_supervisor.c ****                     else
 228:smtc_modem_core/modem_supervisor/modem_supervisor.c ****                     {
 229:smtc_modem_core/modem_supervisor/modem_supervisor.c ****                         BSP_DBG_TRACE_WARNING( "Periodic DM can't be send! internal code: %x\n", se
 230:smtc_modem_core/modem_supervisor/modem_supervisor.c ****                     }
 231:smtc_modem_core/modem_supervisor/modem_supervisor.c ****                 }
 232:smtc_modem_core/modem_supervisor/modem_supervisor.c ****             }
 233:smtc_modem_core/modem_supervisor/modem_supervisor.c ****         }
 234:smtc_modem_core/modem_supervisor/modem_supervisor.c ****         break;
 235:smtc_modem_core/modem_supervisor/modem_supervisor.c ****     case DM_TASK_NOW:
ARM GAS  /var/folders/bq/yv49bw8j2kd6w3hsq868qv180000gn/T//cck61hoc.s 			page 16


 236:smtc_modem_core/modem_supervisor/modem_supervisor.c ****         if( get_join_state( ) == MODEM_JOINED )
 237:smtc_modem_core/modem_supervisor/modem_supervisor.c ****         {
 238:smtc_modem_core/modem_supervisor/modem_supervisor.c ****             uint8_t max_payload = lorawan_api_next_max_payload_length_get( );
 239:smtc_modem_core/modem_supervisor/modem_supervisor.c ****             uint8_t payload[255];
 240:smtc_modem_core/modem_supervisor/modem_supervisor.c ****             uint8_t payload_length;
 241:smtc_modem_core/modem_supervisor/modem_supervisor.c ****             is_pending_dm_status_payload_now = dm_status_payload( payload, &payload_length, max_pay
 242:smtc_modem_core/modem_supervisor/modem_supervisor.c **** 
 243:smtc_modem_core/modem_supervisor/modem_supervisor.c ****             send_status = lorawan_api_payload_send( get_modem_dm_port( ), payload, payload_length, 
 244:smtc_modem_core/modem_supervisor/modem_supervisor.c ****                                                     bsp_rtc_get_time_ms( ) + MODEM_TASK_DELAY_MS );
 245:smtc_modem_core/modem_supervisor/modem_supervisor.c ****             if( send_status == LWPSTATE_SEND )
 246:smtc_modem_core/modem_supervisor/modem_supervisor.c ****             {
 247:smtc_modem_core/modem_supervisor/modem_supervisor.c ****                 BSP_DBG_TRACE_ARRAY( "DM Req ", payload, payload_length );
 248:smtc_modem_core/modem_supervisor/modem_supervisor.c ****                 BSP_DBG_TRACE_PRINTF( " on Port %d\n", get_modem_dm_port( ) );
 249:smtc_modem_core/modem_supervisor/modem_supervisor.c ****             }
 250:smtc_modem_core/modem_supervisor/modem_supervisor.c ****             else
 251:smtc_modem_core/modem_supervisor/modem_supervisor.c ****             {
 252:smtc_modem_core/modem_supervisor/modem_supervisor.c ****                 BSP_DBG_TRACE_WARNING( "Requested DM can't be send! internal code: %x\n", send_stat
 253:smtc_modem_core/modem_supervisor/modem_supervisor.c ****             }
 254:smtc_modem_core/modem_supervisor/modem_supervisor.c ****         }
 255:smtc_modem_core/modem_supervisor/modem_supervisor.c ****         break;
 256:smtc_modem_core/modem_supervisor/modem_supervisor.c ****     case FILE_UPLOAD_TASK: {
 257:smtc_modem_core/modem_supervisor/modem_supervisor.c ****         int32_t size_file_upload = 1;
 258:smtc_modem_core/modem_supervisor/modem_supervisor.c ****         set_modem_status_file_upload( false );
 259:smtc_modem_core/modem_supervisor/modem_supervisor.c ****         if( get_join_state( ) != MODEM_JOINED )
 260:smtc_modem_core/modem_supervisor/modem_supervisor.c ****         {
 261:smtc_modem_core/modem_supervisor/modem_supervisor.c ****             BSP_DBG_TRACE_ERROR( "DEVICE NOT JOIN \n" );
 262:smtc_modem_core/modem_supervisor/modem_supervisor.c ****             break;
 263:smtc_modem_core/modem_supervisor/modem_supervisor.c ****         }
 264:smtc_modem_core/modem_supervisor/modem_supervisor.c ****         else if( modem_get_upload_state( ) != MODEM_UPLOAD_START )
 265:smtc_modem_core/modem_supervisor/modem_supervisor.c ****         {
 266:smtc_modem_core/modem_supervisor/modem_supervisor.c ****             BSP_DBG_TRACE_ERROR( "FileUpload not init \n" );
 267:smtc_modem_core/modem_supervisor/modem_supervisor.c ****             break;
 268:smtc_modem_core/modem_supervisor/modem_supervisor.c ****         }
 269:smtc_modem_core/modem_supervisor/modem_supervisor.c ****         size_file_upload = file_upload_gen_uplink( UploadPayload, lorawan_api_next_max_payload_leng
 270:smtc_modem_core/modem_supervisor/modem_supervisor.c ****                                                    lorawan_api_fcnt_up_get( ) );
 271:smtc_modem_core/modem_supervisor/modem_supervisor.c ****         if( size_file_upload > 0 )
 272:smtc_modem_core/modem_supervisor/modem_supervisor.c ****         {
 273:smtc_modem_core/modem_supervisor/modem_supervisor.c ****             set_modem_status_file_upload( true );
 274:smtc_modem_core/modem_supervisor/modem_supervisor.c ****             lorawan_api_payload_send( get_modem_dm_port( ), UploadPayload, size_file_upload, UNCONF
 275:smtc_modem_core/modem_supervisor/modem_supervisor.c ****                                       bsp_rtc_get_time_ms( ) + MODEM_TASK_DELAY_MS );
 276:smtc_modem_core/modem_supervisor/modem_supervisor.c ****         }
 277:smtc_modem_core/modem_supervisor/modem_supervisor.c ****         else
 278:smtc_modem_core/modem_supervisor/modem_supervisor.c ****         {
 279:smtc_modem_core/modem_supervisor/modem_supervisor.c ****             BSP_DBG_TRACE_WARNING( "File upload DONE\n" );
 280:smtc_modem_core/modem_supervisor/modem_supervisor.c ****             increment_asynchronous_msgnumber( RSP_FILEDONE, 0x00 );
 281:smtc_modem_core/modem_supervisor/modem_supervisor.c ****             modem_set_upload_state( MODEM_UPLOAD_NOT_INIT );
 282:smtc_modem_core/modem_supervisor/modem_supervisor.c ****         }
 283:smtc_modem_core/modem_supervisor/modem_supervisor.c ****         break;
 284:smtc_modem_core/modem_supervisor/modem_supervisor.c ****     }
 285:smtc_modem_core/modem_supervisor/modem_supervisor.c ****     case MUTE_TASK: {
 286:smtc_modem_core/modem_supervisor/modem_supervisor.c ****         if( get_modem_muted( ) == MODEM_TEMPORARY_MUTE )
 287:smtc_modem_core/modem_supervisor/modem_supervisor.c ****         {
 288:smtc_modem_core/modem_supervisor/modem_supervisor.c ****             dm_set_number_of_days_mute( dm_get_number_of_days_mute( ) - 1 );
 289:smtc_modem_core/modem_supervisor/modem_supervisor.c ****         }
 290:smtc_modem_core/modem_supervisor/modem_supervisor.c ****         break;
 291:smtc_modem_core/modem_supervisor/modem_supervisor.c ****     }
 292:smtc_modem_core/modem_supervisor/modem_supervisor.c ****     case RETRIEVE_DL_TASK: {
ARM GAS  /var/folders/bq/yv49bw8j2kd6w3hsq868qv180000gn/T//cck61hoc.s 			page 17


 293:smtc_modem_core/modem_supervisor/modem_supervisor.c ****         lorawan_api_payload_send( get_modem_dm_port( ), task_manager.modem_task[id].dataIn,
 294:smtc_modem_core/modem_supervisor/modem_supervisor.c ****                                   task_manager.modem_task[id].sizeIn, task_manager.modem_task[id].P
 295:smtc_modem_core/modem_supervisor/modem_supervisor.c ****                                   task_manager.modem_task[id].time_to_execute_s * 1000 );
 296:smtc_modem_core/modem_supervisor/modem_supervisor.c ****         break;
 297:smtc_modem_core/modem_supervisor/modem_supervisor.c ****     }
 298:smtc_modem_core/modem_supervisor/modem_supervisor.c ****     default:
 299:smtc_modem_core/modem_supervisor/modem_supervisor.c ****         break;
 300:smtc_modem_core/modem_supervisor/modem_supervisor.c ****     }
 301:smtc_modem_core/modem_supervisor/modem_supervisor.c ****     modem_supervisor_remove_task( id );
 509              		.loc 1 301 5 is_stmt 1 view .LVU121
 510 0062 0398     		ldr	r0, [sp, #12]
 511 0064 FFF7FEFF 		bl	modem_supervisor_remove_task
 512              	.LVL45:
 302:smtc_modem_core/modem_supervisor/modem_supervisor.c **** }
 513              		.loc 1 302 1 is_stmt 0 view .LVU122
 514 0068 49B0     		add	sp, sp, #292
 515              		@ sp needed
 516 006a F0BD     		pop	{r4, r5, r6, r7, pc}
 517              	.L29:
 149:smtc_modem_core/modem_supervisor/modem_supervisor.c ****         {
 518              		.loc 1 149 14 is_stmt 1 view .LVU123
 149:smtc_modem_core/modem_supervisor/modem_supervisor.c ****         {
 519              		.loc 1 149 18 is_stmt 0 view .LVU124
 520 006c FFF7FEFF 		bl	get_join_state
 521              	.LVL46:
 149:smtc_modem_core/modem_supervisor/modem_supervisor.c ****         {
 522              		.loc 1 149 16 view .LVU125
 523 0070 0128     		cmp	r0, #1
 524 0072 F6D1     		bne	.L20
 151:smtc_modem_core/modem_supervisor/modem_supervisor.c ****         }
 525              		.loc 1 151 13 is_stmt 1 view .LVU126
 151:smtc_modem_core/modem_supervisor/modem_supervisor.c ****         }
 526              		.loc 1 151 31 is_stmt 0 view .LVU127
 527 0074 FFF7FEFF 		bl	bsp_rtc_get_time_ms
 528              	.LVL47:
 151:smtc_modem_core/modem_supervisor/modem_supervisor.c ****         }
 529              		.loc 1 151 13 view .LVU128
 530 0078 C830     		adds	r0, r0, #200
 531 007a FFF7FEFF 		bl	lorawan_api_join
 532              	.LVL48:
 533 007e F0E7     		b	.L20
 534              	.LVL49:
 535              	.L28:
 155:smtc_modem_core/modem_supervisor/modem_supervisor.c ****             task_manager.modem_task[id].fPort, task_manager.modem_task[id].dataIn, task_manager.mod
 536              		.loc 1 155 9 is_stmt 1 view .LVU129
 155:smtc_modem_core/modem_supervisor/modem_supervisor.c ****             task_manager.modem_task[id].fPort, task_manager.modem_task[id].dataIn, task_manager.mod
 537              		.loc 1 155 23 is_stmt 0 view .LVU130
 538 0080 BE4C     		ldr	r4, .L79+28
 539 0082 0425     		movs	r5, #4
 540 0084 E368     		ldr	r3, [r4, #12]
 541 0086 667A     		ldrb	r6, [r4, #9]
 542 0088 0493     		str	r3, [sp, #16]
 543 008a 637C     		ldrb	r3, [r4, #17]
 544 008c 277C     		ldrb	r7, [r4, #16]
 545 008e 012B     		cmp	r3, #1
 546 0090 00D0     		beq	.L31
 547 0092 023D     		subs	r5, r5, #2
ARM GAS  /var/folders/bq/yv49bw8j2kd6w3hsq868qv180000gn/T//cck61hoc.s 			page 18


 548              	.L31:
 158:smtc_modem_core/modem_supervisor/modem_supervisor.c **** 
 549              		.loc 1 158 13 view .LVU131
 550 0094 FFF7FEFF 		bl	bsp_rtc_get_time_ms
 551              	.LVL50:
 155:smtc_modem_core/modem_supervisor/modem_supervisor.c ****             task_manager.modem_task[id].fPort, task_manager.modem_task[id].dataIn, task_manager.mod
 552              		.loc 1 155 23 view .LVU132
 553 0098 C830     		adds	r0, r0, #200
 554 009a 2B00     		movs	r3, r5
 555 009c 0090     		str	r0, [sp]
 556 009e 3A00     		movs	r2, r7
 557 00a0 3000     		movs	r0, r6
 558 00a2 0499     		ldr	r1, [sp, #16]
 559 00a4 FFF7FEFF 		bl	lorawan_api_payload_send
 560              	.LVL51:
 561 00a8 B54B     		ldr	r3, .L79+32
 562 00aa 0500     		movs	r5, r0
 563              	.LVL52:
 160:smtc_modem_core/modem_supervisor/modem_supervisor.c ****         {
 564              		.loc 1 160 9 is_stmt 1 view .LVU133
 160:smtc_modem_core/modem_supervisor/modem_supervisor.c ****         {
 565              		.loc 1 160 11 is_stmt 0 view .LVU134
 566 00ac 0128     		cmp	r0, #1
 567 00ae 05D1     		bne	.L32
 162:smtc_modem_core/modem_supervisor/modem_supervisor.c ****             BSP_DBG_TRACE_PRINTF( " User Tx LORa on Port %d \n", task_manager.modem_task[id].fPort 
 568              		.loc 1 162 13 is_stmt 1 view .LVU135
 162:smtc_modem_core/modem_supervisor/modem_supervisor.c ****             BSP_DBG_TRACE_PRINTF( " User Tx LORa on Port %d \n", task_manager.modem_task[id].fPort 
 569              		.loc 1 162 37 is_stmt 0 view .LVU136
 570 00b0 1870     		strb	r0, [r3]
 163:smtc_modem_core/modem_supervisor/modem_supervisor.c ****         }
 571              		.loc 1 163 13 is_stmt 1 view .LVU137
 572 00b2 617A     		ldrb	r1, [r4, #9]
 573 00b4 B348     		ldr	r0, .L79+36
 574              	.LVL53:
 575              	.L73:
 576              	.LBB11:
 225:smtc_modem_core/modem_supervisor/modem_supervisor.c ****                     }
 577              		.loc 1 225 25 is_stmt 0 discriminator 9 view .LVU138
 578 00b6 FFF7FEFF 		bl	bsp_trace_print
 579              	.LVL54:
 580 00ba D2E7     		b	.L20
 581              	.LVL55:
 582              	.L32:
 225:smtc_modem_core/modem_supervisor/modem_supervisor.c ****                     }
 583              		.loc 1 225 25 discriminator 9 view .LVU139
 584              	.LBE11:
 167:smtc_modem_core/modem_supervisor/modem_supervisor.c ****             BSP_DBG_TRACE_WARNING( "The payload can't be send! internal code: %x\n", send_status );
 585              		.loc 1 167 13 is_stmt 1 view .LVU140
 167:smtc_modem_core/modem_supervisor/modem_supervisor.c ****             BSP_DBG_TRACE_WARNING( "The payload can't be send! internal code: %x\n", send_status );
 586              		.loc 1 167 37 is_stmt 0 view .LVU141
 587 00bc 0022     		movs	r2, #0
 168:smtc_modem_core/modem_supervisor/modem_supervisor.c ****         }
 588              		.loc 1 168 13 view .LVU142
 589 00be B248     		ldr	r0, .L79+40
 590              	.LVL56:
 167:smtc_modem_core/modem_supervisor/modem_supervisor.c ****             BSP_DBG_TRACE_WARNING( "The payload can't be send! internal code: %x\n", send_status );
 591              		.loc 1 167 37 view .LVU143
ARM GAS  /var/folders/bq/yv49bw8j2kd6w3hsq868qv180000gn/T//cck61hoc.s 			page 19


 592 00c0 1A70     		strb	r2, [r3]
 168:smtc_modem_core/modem_supervisor/modem_supervisor.c ****         }
 593              		.loc 1 168 13 is_stmt 1 view .LVU144
 168:smtc_modem_core/modem_supervisor/modem_supervisor.c ****         }
 594              		.loc 1 168 13 view .LVU145
 595 00c2 FFF7FEFF 		bl	bsp_trace_print
 596              	.LVL57:
 168:smtc_modem_core/modem_supervisor/modem_supervisor.c ****         }
 597              		.loc 1 168 13 view .LVU146
 598 00c6 B148     		ldr	r0, .L79+44
 599 00c8 FFF7FEFF 		bl	bsp_trace_print
 600              	.LVL58:
 168:smtc_modem_core/modem_supervisor/modem_supervisor.c ****         }
 601              		.loc 1 168 13 view .LVU147
 602 00cc 2900     		movs	r1, r5
 603 00ce B048     		ldr	r0, .L79+48
 604              	.L78:
 605              	.LBB17:
 252:smtc_modem_core/modem_supervisor/modem_supervisor.c ****             }
 606              		.loc 1 252 17 is_stmt 0 view .LVU148
 607 00d0 FFF7FEFF 		bl	bsp_trace_print
 608              	.LVL59:
 252:smtc_modem_core/modem_supervisor/modem_supervisor.c ****             }
 609              		.loc 1 252 17 is_stmt 1 view .LVU149
 610              	.L75:
 611              	.LBE17:
 612              	.LBB19:
 266:smtc_modem_core/modem_supervisor/modem_supervisor.c ****             break;
 613              		.loc 1 266 13 view .LVU150
 614 00d4 A548     		ldr	r0, .L79+12
 615 00d6 FFF7FEFF 		bl	bsp_trace_print
 616              	.LVL60:
 266:smtc_modem_core/modem_supervisor/modem_supervisor.c ****             break;
 617              		.loc 1 266 13 view .LVU151
 266:smtc_modem_core/modem_supervisor/modem_supervisor.c ****             break;
 618              		.loc 1 266 60 view .LVU152
 267:smtc_modem_core/modem_supervisor/modem_supervisor.c ****         }
 619              		.loc 1 267 13 view .LVU153
 620 00da C2E7     		b	.L20
 621              	.LVL61:
 622              	.L26:
 267:smtc_modem_core/modem_supervisor/modem_supervisor.c ****         }
 623              		.loc 1 267 13 is_stmt 0 view .LVU154
 624              	.LBE19:
 176:smtc_modem_core/modem_supervisor/modem_supervisor.c ****         {
 625              		.loc 1 176 9 is_stmt 1 view .LVU155
 176:smtc_modem_core/modem_supervisor/modem_supervisor.c ****         {
 626              		.loc 1 176 13 is_stmt 0 view .LVU156
 627 00dc FFF7FEFF 		bl	get_join_state
 628              	.LVL62:
 176:smtc_modem_core/modem_supervisor/modem_supervisor.c ****         {
 629              		.loc 1 176 13 view .LVU157
 630 00e0 0490     		str	r0, [sp, #16]
 176:smtc_modem_core/modem_supervisor/modem_supervisor.c ****         {
 631              		.loc 1 176 11 view .LVU158
 632 00e2 0228     		cmp	r0, #2
 633 00e4 BDD1     		bne	.L20
ARM GAS  /var/folders/bq/yv49bw8j2kd6w3hsq868qv180000gn/T//cck61hoc.s 			page 20


 634              	.LBB20:
 178:smtc_modem_core/modem_supervisor/modem_supervisor.c ****             uint8_t  payload[255];
 635              		.loc 1 178 13 is_stmt 1 view .LVU159
 178:smtc_modem_core/modem_supervisor/modem_supervisor.c ****             uint8_t  payload[255];
 636              		.loc 1 178 36 is_stmt 0 view .LVU160
 637 00e6 FFF7FEFF 		bl	lorawan_api_next_max_payload_length_get
 638              	.LVL63:
 184:smtc_modem_core/modem_supervisor/modem_supervisor.c ****             {
 639              		.loc 1 184 15 view .LVU161
 640 00ea AA4B     		ldr	r3, .L79+52
 178:smtc_modem_core/modem_supervisor/modem_supervisor.c ****             uint8_t  payload[255];
 641              		.loc 1 178 22 view .LVU162
 642 00ec C6B2     		uxtb	r6, r0
 643              	.LVL64:
 179:smtc_modem_core/modem_supervisor/modem_supervisor.c ****             uint8_t  payload_length;
 644              		.loc 1 179 13 is_stmt 1 view .LVU163
 180:smtc_modem_core/modem_supervisor/modem_supervisor.c ****             uint32_t info_bitfield_periodic;
 645              		.loc 1 180 13 view .LVU164
 181:smtc_modem_core/modem_supervisor/modem_supervisor.c ****             uint32_t info_bitfield_periodictmp;
 646              		.loc 1 181 13 view .LVU165
 182:smtc_modem_core/modem_supervisor/modem_supervisor.c **** 
 647              		.loc 1 182 13 view .LVU166
 184:smtc_modem_core/modem_supervisor/modem_supervisor.c ****             {
 648              		.loc 1 184 13 view .LVU167
 184:smtc_modem_core/modem_supervisor/modem_supervisor.c ****             {
 649              		.loc 1 184 15 is_stmt 0 view .LVU168
 650 00ee 1F78     		ldrb	r7, [r3]
 651 00f0 002F     		cmp	r7, #0
 652 00f2 63D0     		beq	.L34
 186:smtc_modem_core/modem_supervisor/modem_supervisor.c ****                 BSP_DBG_TRACE_PRINTF( " info bit field = %lx\n", info_bitfield_periodictmp );
 653              		.loc 1 186 17 is_stmt 1 view .LVU169
 186:smtc_modem_core/modem_supervisor/modem_supervisor.c ****                 BSP_DBG_TRACE_PRINTF( " info bit field = %lx\n", info_bitfield_periodictmp );
 654              		.loc 1 186 45 is_stmt 0 view .LVU170
 655 00f4 FFF7FEFF 		bl	modem_get_dm_info_bitfield_periodic
 656              	.LVL65:
 190:smtc_modem_core/modem_supervisor/modem_supervisor.c ****                     ( ( ( info_bitfield_periodictmp & ( 1 << e_inf_session ) ) == 0 ) ? ( 1 << e_in
 657              		.loc 1 190 53 view .LVU171
 658 00f8 8025     		movs	r5, #128
 186:smtc_modem_core/modem_supervisor/modem_supervisor.c ****                 BSP_DBG_TRACE_PRINTF( " info bit field = %lx\n", info_bitfield_periodictmp );
 659              		.loc 1 186 45 view .LVU172
 660 00fa 0400     		movs	r4, r0
 661              	.LVL66:
 187:smtc_modem_core/modem_supervisor/modem_supervisor.c ****                 info_bitfield_periodic =
 662              		.loc 1 187 17 is_stmt 1 view .LVU173
 190:smtc_modem_core/modem_supervisor/modem_supervisor.c ****                     ( ( ( info_bitfield_periodictmp & ( 1 << e_inf_session ) ) == 0 ) ? ( 1 << e_in
 663              		.loc 1 190 53 is_stmt 0 view .LVU174
 664 00fc 2D02     		lsls	r5, r5, #8
 187:smtc_modem_core/modem_supervisor/modem_supervisor.c ****                 info_bitfield_periodic =
 665              		.loc 1 187 17 view .LVU175
 666 00fe 0100     		movs	r1, r0
 190:smtc_modem_core/modem_supervisor/modem_supervisor.c ****                     ( ( ( info_bitfield_periodictmp & ( 1 << e_inf_session ) ) == 0 ) ? ( 1 << e_in
 667              		.loc 1 190 53 view .LVU176
 668 0100 2540     		ands	r5, r4
 187:smtc_modem_core/modem_supervisor/modem_supervisor.c ****                 info_bitfield_periodic =
 669              		.loc 1 187 17 view .LVU177
 670 0102 A548     		ldr	r0, .L79+56
 671              	.LVL67:
ARM GAS  /var/folders/bq/yv49bw8j2kd6w3hsq868qv180000gn/T//cck61hoc.s 			page 21


 187:smtc_modem_core/modem_supervisor/modem_supervisor.c ****                 info_bitfield_periodic =
 672              		.loc 1 187 17 view .LVU178
 673 0104 FFF7FEFF 		bl	bsp_trace_print
 674              	.LVL68:
 188:smtc_modem_core/modem_supervisor/modem_supervisor.c ****                     info_bitfield_periodictmp +
 675              		.loc 1 188 17 is_stmt 1 view .LVU179
 190:smtc_modem_core/modem_supervisor/modem_supervisor.c ****                     ( ( ( info_bitfield_periodictmp & ( 1 << e_inf_session ) ) == 0 ) ? ( 1 << e_in
 676              		.loc 1 190 114 is_stmt 0 view .LVU180
 677 0108 6B42     		rsbs	r3, r5, #0
 678 010a 5D41     		adcs	r5, r5, r3
 191:smtc_modem_core/modem_supervisor/modem_supervisor.c ****                     ( ( ( info_bitfield_periodictmp & ( 1 << e_inf_firmware ) ) == 0 ) ? ( 1 << e_i
 679              		.loc 1 191 53 view .LVU181
 680 010c 8023     		movs	r3, #128
 681 010e DB02     		lsls	r3, r3, #11
 682 0110 2340     		ands	r3, r4
 191:smtc_modem_core/modem_supervisor/modem_supervisor.c ****                     ( ( ( info_bitfield_periodictmp & ( 1 << e_inf_firmware ) ) == 0 ) ? ( 1 << e_i
 683              		.loc 1 191 112 view .LVU182
 684 0112 5A42     		rsbs	r2, r3, #0
 685 0114 5341     		adcs	r3, r3, r2
 190:smtc_modem_core/modem_supervisor/modem_supervisor.c ****                     ( ( ( info_bitfield_periodictmp & ( 1 << e_inf_session ) ) == 0 ) ? ( 1 << e_in
 686              		.loc 1 190 114 view .LVU183
 687 0116 ED03     		lsls	r5, r5, #15
 191:smtc_modem_core/modem_supervisor/modem_supervisor.c ****                     ( ( ( info_bitfield_periodictmp & ( 1 << e_inf_firmware ) ) == 0 ) ? ( 1 << e_i
 688              		.loc 1 191 112 view .LVU184
 689 0118 9B04     		lsls	r3, r3, #18
 189:smtc_modem_core/modem_supervisor/modem_supervisor.c ****                     ( ( ( info_bitfield_periodictmp & ( 1 << e_inf_rstcount ) ) == 0 ) ? ( 1 << e_i
 690              		.loc 1 189 47 view .LVU185
 691 011a 2D19     		adds	r5, r5, r4
 190:smtc_modem_core/modem_supervisor/modem_supervisor.c ****                     ( ( ( info_bitfield_periodictmp & ( 1 << e_inf_session ) ) == 0 ) ? ( 1 << e_in
 692              		.loc 1 190 120 view .LVU186
 693 011c ED18     		adds	r5, r5, r3
 192:smtc_modem_core/modem_supervisor/modem_supervisor.c **** 
 694              		.loc 1 192 53 view .LVU187
 695 011e 8023     		movs	r3, #128
 696 0120 2340     		ands	r3, r4
 192:smtc_modem_core/modem_supervisor/modem_supervisor.c **** 
 697              		.loc 1 192 114 view .LVU188
 698 0122 5A42     		rsbs	r2, r3, #0
 699 0124 5341     		adcs	r3, r3, r2
 700 0126 DB01     		lsls	r3, r3, #7
 188:smtc_modem_core/modem_supervisor/modem_supervisor.c ****                     info_bitfield_periodictmp +
 701              		.loc 1 188 40 view .LVU189
 702 0128 ED18     		adds	r5, r5, r3
 703              	.LVL69:
 194:smtc_modem_core/modem_supervisor/modem_supervisor.c ****                 BSP_DBG_TRACE_PRINTF( " info bit fiel = %lx\n", info_bitfield_periodic );
 704              		.loc 1 194 17 is_stmt 1 view .LVU190
 705 012a 2800     		movs	r0, r5
 706 012c FFF7FEFF 		bl	modem_set_dm_info_bitfield_periodic
 707              	.LVL70:
 195:smtc_modem_core/modem_supervisor/modem_supervisor.c ****                 dm_status_payload( payload, &payload_length, max_payload, DM_INFO_PERIODIC );
 708              		.loc 1 195 17 view .LVU191
 709 0130 2900     		movs	r1, r5
 196:smtc_modem_core/modem_supervisor/modem_supervisor.c **** 
 710              		.loc 1 196 17 is_stmt 0 view .LVU192
 711 0132 0F25     		movs	r5, #15
 712              	.LVL71:
 195:smtc_modem_core/modem_supervisor/modem_supervisor.c ****                 dm_status_payload( payload, &payload_length, max_payload, DM_INFO_PERIODIC );
ARM GAS  /var/folders/bq/yv49bw8j2kd6w3hsq868qv180000gn/T//cck61hoc.s 			page 22


 713              		.loc 1 195 17 view .LVU193
 714 0134 9948     		ldr	r0, .L79+60
 715 0136 FFF7FEFF 		bl	bsp_trace_print
 716              	.LVL72:
 196:smtc_modem_core/modem_supervisor/modem_supervisor.c **** 
 717              		.loc 1 196 17 is_stmt 1 view .LVU194
 718 013a 04AB     		add	r3, sp, #16
 719 013c ED18     		adds	r5, r5, r3
 720 013e 08AF     		add	r7, sp, #32
 721 0140 3200     		movs	r2, r6
 722 0142 2900     		movs	r1, r5
 723 0144 0023     		movs	r3, #0
 724 0146 3800     		movs	r0, r7
 725 0148 FFF7FEFF 		bl	dm_status_payload
 726              	.LVL73:
 198:smtc_modem_core/modem_supervisor/modem_supervisor.c ****                                                         bsp_rtc_get_time_ms( ) + MODEM_TASK_DELAY_M
 727              		.loc 1 198 17 view .LVU195
 198:smtc_modem_core/modem_supervisor/modem_supervisor.c ****                                                         bsp_rtc_get_time_ms( ) + MODEM_TASK_DELAY_M
 728              		.loc 1 198 31 is_stmt 0 view .LVU196
 729 014c FFF7FEFF 		bl	get_modem_dm_port
 730              	.LVL74:
 731 0150 2B78     		ldrb	r3, [r5]
 732 0152 0600     		movs	r6, r0
 733              	.LVL75:
 198:smtc_modem_core/modem_supervisor/modem_supervisor.c ****                                                         bsp_rtc_get_time_ms( ) + MODEM_TASK_DELAY_M
 734              		.loc 1 198 31 view .LVU197
 735 0154 0593     		str	r3, [sp, #20]
 199:smtc_modem_core/modem_supervisor/modem_supervisor.c **** 
 736              		.loc 1 199 57 view .LVU198
 737 0156 FFF7FEFF 		bl	bsp_rtc_get_time_ms
 738              	.LVL76:
 198:smtc_modem_core/modem_supervisor/modem_supervisor.c ****                                                         bsp_rtc_get_time_ms( ) + MODEM_TASK_DELAY_M
 739              		.loc 1 198 31 view .LVU199
 740 015a C830     		adds	r0, r0, #200
 741 015c 0090     		str	r0, [sp]
 742 015e 3900     		movs	r1, r7
 743 0160 3000     		movs	r0, r6
 744 0162 049B     		ldr	r3, [sp, #16]
 745 0164 059A     		ldr	r2, [sp, #20]
 746 0166 FFF7FEFF 		bl	lorawan_api_payload_send
 747              	.LVL77:
 748 016a 0600     		movs	r6, r0
 749              	.LVL78:
 201:smtc_modem_core/modem_supervisor/modem_supervisor.c ****                 {
 750              		.loc 1 201 17 is_stmt 1 view .LVU200
 201:smtc_modem_core/modem_supervisor/modem_supervisor.c ****                 {
 751              		.loc 1 201 19 is_stmt 0 view .LVU201
 752 016c 0128     		cmp	r0, #1
 753 016e 6AD1     		bne	.L45
 203:smtc_modem_core/modem_supervisor/modem_supervisor.c ****                     BSP_DBG_TRACE_ARRAY( "payload DM ", payload, payload_length );
 754              		.loc 1 203 21 is_stmt 1 view .LVU202
 203:smtc_modem_core/modem_supervisor/modem_supervisor.c ****                     BSP_DBG_TRACE_ARRAY( "payload DM ", payload, payload_length );
 755              		.loc 1 203 44 is_stmt 0 view .LVU203
 756 0170 0026     		movs	r6, #0
 757 0172 884B     		ldr	r3, .L79+52
 204:smtc_modem_core/modem_supervisor/modem_supervisor.c ****                     BSP_DBG_TRACE_PRINTF( " on Port %d\n", get_modem_dm_port( ) );
 758              		.loc 1 204 21 view .LVU204
ARM GAS  /var/folders/bq/yv49bw8j2kd6w3hsq868qv180000gn/T//cck61hoc.s 			page 23


 759 0174 2A78     		ldrb	r2, [r5]
 760 0176 8A49     		ldr	r1, .L79+64
 761 0178 8A48     		ldr	r0, .L79+68
 762              	.LVL79:
 203:smtc_modem_core/modem_supervisor/modem_supervisor.c ****                     BSP_DBG_TRACE_ARRAY( "payload DM ", payload, payload_length );
 763              		.loc 1 203 44 view .LVU205
 764 017a 1E70     		strb	r6, [r3]
 204:smtc_modem_core/modem_supervisor/modem_supervisor.c ****                     BSP_DBG_TRACE_PRINTF( " on Port %d\n", get_modem_dm_port( ) );
 765              		.loc 1 204 21 is_stmt 1 view .LVU206
 204:smtc_modem_core/modem_supervisor/modem_supervisor.c ****                     BSP_DBG_TRACE_PRINTF( " on Port %d\n", get_modem_dm_port( ) );
 766              		.loc 1 204 21 view .LVU207
 767 017c FFF7FEFF 		bl	bsp_trace_print
 768              	.LVL80:
 204:smtc_modem_core/modem_supervisor/modem_supervisor.c ****                     BSP_DBG_TRACE_PRINTF( " on Port %d\n", get_modem_dm_port( ) );
 769              		.loc 1 204 21 view .LVU208
 770              	.LBB12:
 204:smtc_modem_core/modem_supervisor/modem_supervisor.c ****                     BSP_DBG_TRACE_PRINTF( " on Port %d\n", get_modem_dm_port( ) );
 771              		.loc 1 204 21 view .LVU209
 772              	.L39:
 204:smtc_modem_core/modem_supervisor/modem_supervisor.c ****                     BSP_DBG_TRACE_PRINTF( " on Port %d\n", get_modem_dm_port( ) );
 773              		.loc 1 204 21 discriminator 7 view .LVU210
 774 0180 2B78     		ldrb	r3, [r5]
 775 0182 B342     		cmp	r3, r6
 776 0184 0CD8     		bhi	.L41
 777              	.LBE12:
 204:smtc_modem_core/modem_supervisor/modem_supervisor.c ****                     BSP_DBG_TRACE_PRINTF( " on Port %d\n", get_modem_dm_port( ) );
 778              		.loc 1 204 21 discriminator 9 view .LVU211
 779 0186 8848     		ldr	r0, .L79+72
 780 0188 FFF7FEFF 		bl	bsp_trace_print
 781              	.LVL81:
 204:smtc_modem_core/modem_supervisor/modem_supervisor.c ****                     BSP_DBG_TRACE_PRINTF( " on Port %d\n", get_modem_dm_port( ) );
 782              		.loc 1 204 21 discriminator 9 view .LVU212
 204:smtc_modem_core/modem_supervisor/modem_supervisor.c ****                     BSP_DBG_TRACE_PRINTF( " on Port %d\n", get_modem_dm_port( ) );
 783              		.loc 1 204 82 discriminator 9 view .LVU213
 205:smtc_modem_core/modem_supervisor/modem_supervisor.c ****                     modem_set_dm_info_bitfield_periodic( info_bitfield_periodictmp );
 784              		.loc 1 205 21 discriminator 9 view .LVU214
 785 018c FFF7FEFF 		bl	get_modem_dm_port
 786              	.LVL82:
 787 0190 0100     		movs	r1, r0
 788 0192 8648     		ldr	r0, .L79+76
 789 0194 FFF7FEFF 		bl	bsp_trace_print
 790              	.LVL83:
 206:smtc_modem_core/modem_supervisor/modem_supervisor.c ****                 }
 791              		.loc 1 206 21 discriminator 9 view .LVU215
 792 0198 2000     		movs	r0, r4
 793 019a FFF7FEFF 		bl	modem_set_dm_info_bitfield_periodic
 794              	.LVL84:
 795 019e 60E7     		b	.L20
 796              	.L41:
 797              	.LBB13:
 204:smtc_modem_core/modem_supervisor/modem_supervisor.c ****                     BSP_DBG_TRACE_PRINTF( " on Port %d\n", get_modem_dm_port( ) );
 798              		.loc 1 204 21 discriminator 8 view .LVU216
 799 01a0 0F23     		movs	r3, #15
 800 01a2 1E42     		tst	r6, r3
 801 01a4 04D1     		bne	.L40
 204:smtc_modem_core/modem_supervisor/modem_supervisor.c ****                     BSP_DBG_TRACE_PRINTF( " on Port %d\n", get_modem_dm_port( ) );
 802              		.loc 1 204 21 is_stmt 0 discriminator 2 view .LVU217
ARM GAS  /var/folders/bq/yv49bw8j2kd6w3hsq868qv180000gn/T//cck61hoc.s 			page 24


 803 01a6 002E     		cmp	r6, #0
 804 01a8 02D0     		beq	.L40
 204:smtc_modem_core/modem_supervisor/modem_supervisor.c ****                     BSP_DBG_TRACE_PRINTF( " on Port %d\n", get_modem_dm_port( ) );
 805              		.loc 1 204 21 is_stmt 1 discriminator 4 view .LVU218
 806 01aa 7F48     		ldr	r0, .L79+72
 807 01ac FFF7FEFF 		bl	bsp_trace_print
 808              	.LVL85:
 809              	.L40:
 204:smtc_modem_core/modem_supervisor/modem_supervisor.c ****                     BSP_DBG_TRACE_PRINTF( " on Port %d\n", get_modem_dm_port( ) );
 810              		.loc 1 204 21 discriminator 6 view .LVU219
 811 01b0 B95D     		ldrb	r1, [r7, r6]
 812 01b2 7F48     		ldr	r0, .L79+80
 813 01b4 FFF7FEFF 		bl	bsp_trace_print
 814              	.LVL86:
 204:smtc_modem_core/modem_supervisor/modem_supervisor.c ****                     BSP_DBG_TRACE_PRINTF( " on Port %d\n", get_modem_dm_port( ) );
 815              		.loc 1 204 21 discriminator 6 view .LVU220
 816 01b8 0136     		adds	r6, r6, #1
 817              	.LVL87:
 204:smtc_modem_core/modem_supervisor/modem_supervisor.c ****                     BSP_DBG_TRACE_PRINTF( " on Port %d\n", get_modem_dm_port( ) );
 818              		.loc 1 204 21 is_stmt 0 discriminator 6 view .LVU221
 819 01ba E1E7     		b	.L39
 820              	.LVL88:
 821              	.L34:
 204:smtc_modem_core/modem_supervisor/modem_supervisor.c ****                     BSP_DBG_TRACE_PRINTF( " on Port %d\n", get_modem_dm_port( ) );
 822              		.loc 1 204 21 discriminator 6 view .LVU222
 823              	.LBE13:
 215:smtc_modem_core/modem_supervisor/modem_supervisor.c ****                 {
 824              		.loc 1 215 17 is_stmt 1 view .LVU223
 215:smtc_modem_core/modem_supervisor/modem_supervisor.c ****                 {
 825              		.loc 1 215 23 is_stmt 0 view .LVU224
 826 01bc FFF7FEFF 		bl	get_modem_dm_interval_second
 827              	.LVL89:
 215:smtc_modem_core/modem_supervisor/modem_supervisor.c ****                 {
 828              		.loc 1 215 19 view .LVU225
 829 01c0 0028     		cmp	r0, #0
 830 01c2 00D1     		bne	.LCB614
 831 01c4 4DE7     		b	.L20	@long jump
 832              	.LCB614:
 215:smtc_modem_core/modem_supervisor/modem_supervisor.c ****                 {
 833              		.loc 1 215 66 discriminator 1 view .LVU226
 834 01c6 FFF7FEFF 		bl	modem_get_dm_info_bitfield_periodic
 835              	.LVL90:
 215:smtc_modem_core/modem_supervisor/modem_supervisor.c ****                 {
 836              		.loc 1 215 61 discriminator 1 view .LVU227
 837 01ca 0028     		cmp	r0, #0
 838 01cc 00D1     		bne	.LCB618
 839 01ce 48E7     		b	.L20	@long jump
 840              	.LCB618:
 217:smtc_modem_core/modem_supervisor/modem_supervisor.c ****                     send_status =
 841              		.loc 1 217 21 is_stmt 1 view .LVU228
 842 01d0 0F24     		movs	r4, #15
 843 01d2 04AB     		add	r3, sp, #16
 844 01d4 E418     		adds	r4, r4, r3
 845 01d6 08AD     		add	r5, sp, #32
 846 01d8 3200     		movs	r2, r6
 847 01da 2100     		movs	r1, r4
 848 01dc 3B00     		movs	r3, r7
ARM GAS  /var/folders/bq/yv49bw8j2kd6w3hsq868qv180000gn/T//cck61hoc.s 			page 25


 849 01de 2800     		movs	r0, r5
 850 01e0 FFF7FEFF 		bl	dm_status_payload
 851              	.LVL91:
 218:smtc_modem_core/modem_supervisor/modem_supervisor.c ****                         lorawan_api_payload_send( get_modem_dm_port( ), payload, payload_length, UN
 852              		.loc 1 218 21 view .LVU229
 219:smtc_modem_core/modem_supervisor/modem_supervisor.c ****                                                   bsp_rtc_get_time_ms( ) + MODEM_TASK_DELAY_MS );
 853              		.loc 1 219 25 is_stmt 0 view .LVU230
 854 01e4 FFF7FEFF 		bl	get_modem_dm_port
 855              	.LVL92:
 856 01e8 2378     		ldrb	r3, [r4]
 857 01ea 0600     		movs	r6, r0
 858              	.LVL93:
 219:smtc_modem_core/modem_supervisor/modem_supervisor.c ****                                                   bsp_rtc_get_time_ms( ) + MODEM_TASK_DELAY_MS );
 859              		.loc 1 219 25 view .LVU231
 860 01ec 0593     		str	r3, [sp, #20]
 220:smtc_modem_core/modem_supervisor/modem_supervisor.c **** 
 861              		.loc 1 220 51 view .LVU232
 862 01ee FFF7FEFF 		bl	bsp_rtc_get_time_ms
 863              	.LVL94:
 219:smtc_modem_core/modem_supervisor/modem_supervisor.c ****                                                   bsp_rtc_get_time_ms( ) + MODEM_TASK_DELAY_MS );
 864              		.loc 1 219 25 view .LVU233
 865 01f2 C830     		adds	r0, r0, #200
 866 01f4 0090     		str	r0, [sp]
 867 01f6 2900     		movs	r1, r5
 868 01f8 3000     		movs	r0, r6
 869 01fa 049B     		ldr	r3, [sp, #16]
 870 01fc 059A     		ldr	r2, [sp, #20]
 871 01fe FFF7FEFF 		bl	lorawan_api_payload_send
 872              	.LVL95:
 873 0202 0600     		movs	r6, r0
 874              	.LVL96:
 222:smtc_modem_core/modem_supervisor/modem_supervisor.c ****                     {
 875              		.loc 1 222 21 is_stmt 1 view .LVU234
 222:smtc_modem_core/modem_supervisor/modem_supervisor.c ****                     {
 876              		.loc 1 222 23 is_stmt 0 view .LVU235
 877 0204 0128     		cmp	r0, #1
 878 0206 1ED1     		bne	.L45
 224:smtc_modem_core/modem_supervisor/modem_supervisor.c ****                         BSP_DBG_TRACE_PRINTF( " on Port %d\n", get_modem_dm_port( ) );
 879              		.loc 1 224 25 is_stmt 1 view .LVU236
 224:smtc_modem_core/modem_supervisor/modem_supervisor.c ****                         BSP_DBG_TRACE_PRINTF( " on Port %d\n", get_modem_dm_port( ) );
 880              		.loc 1 224 25 view .LVU237
 881 0208 2278     		ldrb	r2, [r4]
 882 020a 6A49     		ldr	r1, .L79+84
 883 020c 6548     		ldr	r0, .L79+68
 884              	.LVL97:
 885              	.LBB14:
 224:smtc_modem_core/modem_supervisor/modem_supervisor.c ****                         BSP_DBG_TRACE_PRINTF( " on Port %d\n", get_modem_dm_port( ) );
 886              		.loc 1 224 25 is_stmt 0 view .LVU238
 887 020e 3E00     		movs	r6, r7
 888              	.LBE14:
 889 0210 FFF7FEFF 		bl	bsp_trace_print
 890              	.LVL98:
 224:smtc_modem_core/modem_supervisor/modem_supervisor.c ****                         BSP_DBG_TRACE_PRINTF( " on Port %d\n", get_modem_dm_port( ) );
 891              		.loc 1 224 25 is_stmt 1 view .LVU239
 892              	.LBB15:
 224:smtc_modem_core/modem_supervisor/modem_supervisor.c ****                         BSP_DBG_TRACE_PRINTF( " on Port %d\n", get_modem_dm_port( ) );
 893              		.loc 1 224 25 view .LVU240
ARM GAS  /var/folders/bq/yv49bw8j2kd6w3hsq868qv180000gn/T//cck61hoc.s 			page 26


 224:smtc_modem_core/modem_supervisor/modem_supervisor.c ****                         BSP_DBG_TRACE_PRINTF( " on Port %d\n", get_modem_dm_port( ) );
 894              		.loc 1 224 25 is_stmt 0 view .LVU241
 895 0214 0F27     		movs	r7, #15
 896              	.LVL99:
 897              	.L46:
 224:smtc_modem_core/modem_supervisor/modem_supervisor.c ****                         BSP_DBG_TRACE_PRINTF( " on Port %d\n", get_modem_dm_port( ) );
 898              		.loc 1 224 25 is_stmt 1 discriminator 7 view .LVU242
 899 0216 2378     		ldrb	r3, [r4]
 900 0218 B342     		cmp	r3, r6
 901 021a 07D8     		bhi	.L48
 902              	.LVL100:
 903              	.L74:
 224:smtc_modem_core/modem_supervisor/modem_supervisor.c ****                         BSP_DBG_TRACE_PRINTF( " on Port %d\n", get_modem_dm_port( ) );
 904              		.loc 1 224 25 is_stmt 0 discriminator 7 view .LVU243
 905              	.LBE15:
 224:smtc_modem_core/modem_supervisor/modem_supervisor.c ****                         BSP_DBG_TRACE_PRINTF( " on Port %d\n", get_modem_dm_port( ) );
 906              		.loc 1 224 25 is_stmt 1 discriminator 9 view .LVU244
 907 021c 6248     		ldr	r0, .L79+72
 908 021e FFF7FEFF 		bl	bsp_trace_print
 909              	.LVL101:
 224:smtc_modem_core/modem_supervisor/modem_supervisor.c ****                         BSP_DBG_TRACE_PRINTF( " on Port %d\n", get_modem_dm_port( ) );
 910              		.loc 1 224 25 discriminator 9 view .LVU245
 224:smtc_modem_core/modem_supervisor/modem_supervisor.c ****                         BSP_DBG_TRACE_PRINTF( " on Port %d\n", get_modem_dm_port( ) );
 911              		.loc 1 224 78 discriminator 9 view .LVU246
 225:smtc_modem_core/modem_supervisor/modem_supervisor.c ****                     }
 912              		.loc 1 225 25 discriminator 9 view .LVU247
 913 0222 FFF7FEFF 		bl	get_modem_dm_port
 914              	.LVL102:
 915 0226 0100     		movs	r1, r0
 916 0228 6048     		ldr	r0, .L79+76
 917 022a 44E7     		b	.L73
 918              	.LVL103:
 919              	.L48:
 920              	.LBB16:
 224:smtc_modem_core/modem_supervisor/modem_supervisor.c ****                         BSP_DBG_TRACE_PRINTF( " on Port %d\n", get_modem_dm_port( ) );
 921              		.loc 1 224 25 discriminator 8 view .LVU248
 922 022c 3E42     		tst	r6, r7
 923 022e 04D1     		bne	.L47
 224:smtc_modem_core/modem_supervisor/modem_supervisor.c ****                         BSP_DBG_TRACE_PRINTF( " on Port %d\n", get_modem_dm_port( ) );
 924              		.loc 1 224 25 is_stmt 0 discriminator 2 view .LVU249
 925 0230 002E     		cmp	r6, #0
 926 0232 02D0     		beq	.L47
 224:smtc_modem_core/modem_supervisor/modem_supervisor.c ****                         BSP_DBG_TRACE_PRINTF( " on Port %d\n", get_modem_dm_port( ) );
 927              		.loc 1 224 25 is_stmt 1 discriminator 4 view .LVU250
 928 0234 5C48     		ldr	r0, .L79+72
 929 0236 FFF7FEFF 		bl	bsp_trace_print
 930              	.LVL104:
 931              	.L47:
 224:smtc_modem_core/modem_supervisor/modem_supervisor.c ****                         BSP_DBG_TRACE_PRINTF( " on Port %d\n", get_modem_dm_port( ) );
 932              		.loc 1 224 25 discriminator 6 view .LVU251
 933 023a A95D     		ldrb	r1, [r5, r6]
 934 023c 5C48     		ldr	r0, .L79+80
 935 023e FFF7FEFF 		bl	bsp_trace_print
 936              	.LVL105:
 224:smtc_modem_core/modem_supervisor/modem_supervisor.c ****                         BSP_DBG_TRACE_PRINTF( " on Port %d\n", get_modem_dm_port( ) );
 937              		.loc 1 224 25 discriminator 6 view .LVU252
 938 0242 0136     		adds	r6, r6, #1
ARM GAS  /var/folders/bq/yv49bw8j2kd6w3hsq868qv180000gn/T//cck61hoc.s 			page 27


 939              	.LVL106:
 224:smtc_modem_core/modem_supervisor/modem_supervisor.c ****                         BSP_DBG_TRACE_PRINTF( " on Port %d\n", get_modem_dm_port( ) );
 940              		.loc 1 224 25 is_stmt 0 discriminator 6 view .LVU253
 941 0244 E7E7     		b	.L46
 942              	.LVL107:
 943              	.L45:
 224:smtc_modem_core/modem_supervisor/modem_supervisor.c ****                         BSP_DBG_TRACE_PRINTF( " on Port %d\n", get_modem_dm_port( ) );
 944              		.loc 1 224 25 discriminator 6 view .LVU254
 945              	.LBE16:
 229:smtc_modem_core/modem_supervisor/modem_supervisor.c ****                     }
 946              		.loc 1 229 25 is_stmt 1 discriminator 1 view .LVU255
 229:smtc_modem_core/modem_supervisor/modem_supervisor.c ****                     }
 947              		.loc 1 229 25 discriminator 1 view .LVU256
 948 0246 5048     		ldr	r0, .L79+40
 949              	.LVL108:
 229:smtc_modem_core/modem_supervisor/modem_supervisor.c ****                     }
 950              		.loc 1 229 25 is_stmt 0 discriminator 1 view .LVU257
 951 0248 FFF7FEFF 		bl	bsp_trace_print
 952              	.LVL109:
 229:smtc_modem_core/modem_supervisor/modem_supervisor.c ****                     }
 953              		.loc 1 229 25 is_stmt 1 discriminator 1 view .LVU258
 954 024c 4F48     		ldr	r0, .L79+44
 955 024e FFF7FEFF 		bl	bsp_trace_print
 956              	.LVL110:
 229:smtc_modem_core/modem_supervisor/modem_supervisor.c ****                     }
 957              		.loc 1 229 25 discriminator 1 view .LVU259
 958 0252 3100     		movs	r1, r6
 959 0254 5848     		ldr	r0, .L79+88
 960 0256 3BE7     		b	.L78
 961              	.LVL111:
 962              	.L25:
 229:smtc_modem_core/modem_supervisor/modem_supervisor.c ****                     }
 963              		.loc 1 229 25 is_stmt 0 discriminator 1 view .LVU260
 964              	.LBE20:
 236:smtc_modem_core/modem_supervisor/modem_supervisor.c ****         {
 965              		.loc 1 236 9 is_stmt 1 view .LVU261
 236:smtc_modem_core/modem_supervisor/modem_supervisor.c ****         {
 966              		.loc 1 236 13 is_stmt 0 view .LVU262
 967 0258 FFF7FEFF 		bl	get_join_state
 968              	.LVL112:
 236:smtc_modem_core/modem_supervisor/modem_supervisor.c ****         {
 969              		.loc 1 236 13 view .LVU263
 970 025c 0500     		movs	r5, r0
 236:smtc_modem_core/modem_supervisor/modem_supervisor.c ****         {
 971              		.loc 1 236 11 view .LVU264
 972 025e 0228     		cmp	r0, #2
 973 0260 00D0     		beq	.LCB745
 974 0262 FEE6     		b	.L20	@long jump
 975              	.LCB745:
 976              	.LBB21:
 238:smtc_modem_core/modem_supervisor/modem_supervisor.c ****             uint8_t payload[255];
 977              		.loc 1 238 13 is_stmt 1 view .LVU265
 241:smtc_modem_core/modem_supervisor/modem_supervisor.c **** 
 978              		.loc 1 241 48 is_stmt 0 view .LVU266
 979 0264 0F24     		movs	r4, #15
 238:smtc_modem_core/modem_supervisor/modem_supervisor.c ****             uint8_t payload[255];
 980              		.loc 1 238 35 view .LVU267
ARM GAS  /var/folders/bq/yv49bw8j2kd6w3hsq868qv180000gn/T//cck61hoc.s 			page 28


 981 0266 FFF7FEFF 		bl	lorawan_api_next_max_payload_length_get
 982              	.LVL113:
 239:smtc_modem_core/modem_supervisor/modem_supervisor.c ****             uint8_t payload_length;
 983              		.loc 1 239 13 is_stmt 1 view .LVU268
 240:smtc_modem_core/modem_supervisor/modem_supervisor.c ****             is_pending_dm_status_payload_now = dm_status_payload( payload, &payload_length, max_pay
 984              		.loc 1 240 13 view .LVU269
 241:smtc_modem_core/modem_supervisor/modem_supervisor.c **** 
 985              		.loc 1 241 13 view .LVU270
 241:smtc_modem_core/modem_supervisor/modem_supervisor.c **** 
 986              		.loc 1 241 48 is_stmt 0 view .LVU271
 987 026a 04AB     		add	r3, sp, #16
 988 026c E418     		adds	r4, r4, r3
 989 026e 08AE     		add	r6, sp, #32
 990 0270 C2B2     		uxtb	r2, r0
 991 0272 2100     		movs	r1, r4
 992 0274 0123     		movs	r3, #1
 993 0276 3000     		movs	r0, r6
 994              	.LVL114:
 241:smtc_modem_core/modem_supervisor/modem_supervisor.c **** 
 995              		.loc 1 241 48 view .LVU272
 996 0278 FFF7FEFF 		bl	dm_status_payload
 997              	.LVL115:
 241:smtc_modem_core/modem_supervisor/modem_supervisor.c **** 
 998              		.loc 1 241 46 view .LVU273
 999 027c 4F4B     		ldr	r3, .L79+92
 1000 027e 1870     		strb	r0, [r3]
 243:smtc_modem_core/modem_supervisor/modem_supervisor.c ****                                                     bsp_rtc_get_time_ms( ) + MODEM_TASK_DELAY_MS );
 1001              		.loc 1 243 13 is_stmt 1 view .LVU274
 243:smtc_modem_core/modem_supervisor/modem_supervisor.c ****                                                     bsp_rtc_get_time_ms( ) + MODEM_TASK_DELAY_MS );
 1002              		.loc 1 243 27 is_stmt 0 view .LVU275
 1003 0280 FFF7FEFF 		bl	get_modem_dm_port
 1004              	.LVL116:
 1005 0284 2378     		ldrb	r3, [r4]
 1006 0286 0700     		movs	r7, r0
 1007 0288 0493     		str	r3, [sp, #16]
 244:smtc_modem_core/modem_supervisor/modem_supervisor.c ****             if( send_status == LWPSTATE_SEND )
 1008              		.loc 1 244 53 view .LVU276
 1009 028a FFF7FEFF 		bl	bsp_rtc_get_time_ms
 1010              	.LVL117:
 243:smtc_modem_core/modem_supervisor/modem_supervisor.c ****                                                     bsp_rtc_get_time_ms( ) + MODEM_TASK_DELAY_MS );
 1011              		.loc 1 243 27 view .LVU277
 1012 028e C830     		adds	r0, r0, #200
 1013 0290 2B00     		movs	r3, r5
 1014 0292 0090     		str	r0, [sp]
 1015 0294 3100     		movs	r1, r6
 1016 0296 3800     		movs	r0, r7
 1017 0298 049A     		ldr	r2, [sp, #16]
 1018 029a FFF7FEFF 		bl	lorawan_api_payload_send
 1019              	.LVL118:
 1020 029e 0500     		movs	r5, r0
 1021              	.LVL119:
 245:smtc_modem_core/modem_supervisor/modem_supervisor.c ****             {
 1022              		.loc 1 245 13 is_stmt 1 view .LVU278
 245:smtc_modem_core/modem_supervisor/modem_supervisor.c ****             {
 1023              		.loc 1 245 15 is_stmt 0 view .LVU279
 1024 02a0 0128     		cmp	r0, #1
 1025 02a2 16D1     		bne	.L49
ARM GAS  /var/folders/bq/yv49bw8j2kd6w3hsq868qv180000gn/T//cck61hoc.s 			page 29


 247:smtc_modem_core/modem_supervisor/modem_supervisor.c ****                 BSP_DBG_TRACE_PRINTF( " on Port %d\n", get_modem_dm_port( ) );
 1026              		.loc 1 247 17 is_stmt 1 view .LVU280
 247:smtc_modem_core/modem_supervisor/modem_supervisor.c ****                 BSP_DBG_TRACE_PRINTF( " on Port %d\n", get_modem_dm_port( ) );
 1027              		.loc 1 247 17 view .LVU281
 1028 02a4 2278     		ldrb	r2, [r4]
 1029 02a6 4649     		ldr	r1, .L79+96
 1030 02a8 3E48     		ldr	r0, .L79+68
 1031              	.LVL120:
 247:smtc_modem_core/modem_supervisor/modem_supervisor.c ****                 BSP_DBG_TRACE_PRINTF( " on Port %d\n", get_modem_dm_port( ) );
 1032              		.loc 1 247 17 is_stmt 0 view .LVU282
 1033 02aa FFF7FEFF 		bl	bsp_trace_print
 1034              	.LVL121:
 247:smtc_modem_core/modem_supervisor/modem_supervisor.c ****                 BSP_DBG_TRACE_PRINTF( " on Port %d\n", get_modem_dm_port( ) );
 1035              		.loc 1 247 17 is_stmt 1 view .LVU283
 1036              	.LBB18:
 247:smtc_modem_core/modem_supervisor/modem_supervisor.c ****                 BSP_DBG_TRACE_PRINTF( " on Port %d\n", get_modem_dm_port( ) );
 1037              		.loc 1 247 17 view .LVU284
 247:smtc_modem_core/modem_supervisor/modem_supervisor.c ****                 BSP_DBG_TRACE_PRINTF( " on Port %d\n", get_modem_dm_port( ) );
 1038              		.loc 1 247 17 is_stmt 0 view .LVU285
 1039 02ae 0025     		movs	r5, #0
 1040 02b0 0F27     		movs	r7, #15
 1041              	.LVL122:
 1042              	.L50:
 247:smtc_modem_core/modem_supervisor/modem_supervisor.c ****                 BSP_DBG_TRACE_PRINTF( " on Port %d\n", get_modem_dm_port( ) );
 1043              		.loc 1 247 17 is_stmt 1 discriminator 7 view .LVU286
 1044 02b2 2378     		ldrb	r3, [r4]
 1045 02b4 AB42     		cmp	r3, r5
 1046 02b6 B1D9     		bls	.L74
 247:smtc_modem_core/modem_supervisor/modem_supervisor.c ****                 BSP_DBG_TRACE_PRINTF( " on Port %d\n", get_modem_dm_port( ) );
 1047              		.loc 1 247 17 discriminator 8 view .LVU287
 1048 02b8 3D42     		tst	r5, r7
 1049 02ba 04D1     		bne	.L51
 247:smtc_modem_core/modem_supervisor/modem_supervisor.c ****                 BSP_DBG_TRACE_PRINTF( " on Port %d\n", get_modem_dm_port( ) );
 1050              		.loc 1 247 17 is_stmt 0 discriminator 2 view .LVU288
 1051 02bc 002D     		cmp	r5, #0
 1052 02be 02D0     		beq	.L51
 247:smtc_modem_core/modem_supervisor/modem_supervisor.c ****                 BSP_DBG_TRACE_PRINTF( " on Port %d\n", get_modem_dm_port( ) );
 1053              		.loc 1 247 17 is_stmt 1 discriminator 4 view .LVU289
 1054 02c0 3948     		ldr	r0, .L79+72
 1055 02c2 FFF7FEFF 		bl	bsp_trace_print
 1056              	.LVL123:
 1057              	.L51:
 247:smtc_modem_core/modem_supervisor/modem_supervisor.c ****                 BSP_DBG_TRACE_PRINTF( " on Port %d\n", get_modem_dm_port( ) );
 1058              		.loc 1 247 17 discriminator 6 view .LVU290
 1059 02c6 715D     		ldrb	r1, [r6, r5]
 1060 02c8 3948     		ldr	r0, .L79+80
 1061 02ca FFF7FEFF 		bl	bsp_trace_print
 1062              	.LVL124:
 247:smtc_modem_core/modem_supervisor/modem_supervisor.c ****                 BSP_DBG_TRACE_PRINTF( " on Port %d\n", get_modem_dm_port( ) );
 1063              		.loc 1 247 17 discriminator 6 view .LVU291
 1064 02ce 0135     		adds	r5, r5, #1
 1065              	.LVL125:
 247:smtc_modem_core/modem_supervisor/modem_supervisor.c ****                 BSP_DBG_TRACE_PRINTF( " on Port %d\n", get_modem_dm_port( ) );
 1066              		.loc 1 247 17 is_stmt 0 discriminator 6 view .LVU292
 1067 02d0 EFE7     		b	.L50
 1068              	.LVL126:
 1069              	.L49:
ARM GAS  /var/folders/bq/yv49bw8j2kd6w3hsq868qv180000gn/T//cck61hoc.s 			page 30


 247:smtc_modem_core/modem_supervisor/modem_supervisor.c ****                 BSP_DBG_TRACE_PRINTF( " on Port %d\n", get_modem_dm_port( ) );
 1070              		.loc 1 247 17 discriminator 6 view .LVU293
 1071              	.LBE18:
 252:smtc_modem_core/modem_supervisor/modem_supervisor.c ****             }
 1072              		.loc 1 252 17 is_stmt 1 view .LVU294
 252:smtc_modem_core/modem_supervisor/modem_supervisor.c ****             }
 1073              		.loc 1 252 17 view .LVU295
 1074 02d2 2D48     		ldr	r0, .L79+40
 1075              	.LVL127:
 252:smtc_modem_core/modem_supervisor/modem_supervisor.c ****             }
 1076              		.loc 1 252 17 is_stmt 0 view .LVU296
 1077 02d4 FFF7FEFF 		bl	bsp_trace_print
 1078              	.LVL128:
 252:smtc_modem_core/modem_supervisor/modem_supervisor.c ****             }
 1079              		.loc 1 252 17 is_stmt 1 view .LVU297
 1080 02d8 2C48     		ldr	r0, .L79+44
 1081 02da FFF7FEFF 		bl	bsp_trace_print
 1082              	.LVL129:
 252:smtc_modem_core/modem_supervisor/modem_supervisor.c ****             }
 1083              		.loc 1 252 17 view .LVU298
 1084 02de 2900     		movs	r1, r5
 1085 02e0 3848     		ldr	r0, .L79+100
 1086 02e2 F5E6     		b	.L78
 1087              	.LVL130:
 1088              	.L24:
 252:smtc_modem_core/modem_supervisor/modem_supervisor.c ****             }
 1089              		.loc 1 252 17 is_stmt 0 view .LVU299
 1090              	.LBE21:
 1091              	.LBB22:
 257:smtc_modem_core/modem_supervisor/modem_supervisor.c ****         set_modem_status_file_upload( false );
 1092              		.loc 1 257 9 is_stmt 1 view .LVU300
 258:smtc_modem_core/modem_supervisor/modem_supervisor.c ****         if( get_join_state( ) != MODEM_JOINED )
 1093              		.loc 1 258 9 view .LVU301
 1094 02e4 0020     		movs	r0, #0
 1095              	.LVL131:
 258:smtc_modem_core/modem_supervisor/modem_supervisor.c ****         if( get_join_state( ) != MODEM_JOINED )
 1096              		.loc 1 258 9 is_stmt 0 view .LVU302
 1097 02e6 FFF7FEFF 		bl	set_modem_status_file_upload
 1098              	.LVL132:
 259:smtc_modem_core/modem_supervisor/modem_supervisor.c ****         {
 1099              		.loc 1 259 9 is_stmt 1 view .LVU303
 259:smtc_modem_core/modem_supervisor/modem_supervisor.c ****         {
 1100              		.loc 1 259 13 is_stmt 0 view .LVU304
 1101 02ea FFF7FEFF 		bl	get_join_state
 1102              	.LVL133:
 1103 02ee 0500     		movs	r5, r0
 259:smtc_modem_core/modem_supervisor/modem_supervisor.c ****         {
 1104              		.loc 1 259 11 view .LVU305
 1105 02f0 0228     		cmp	r0, #2
 1106 02f2 09D0     		beq	.L54
 261:smtc_modem_core/modem_supervisor/modem_supervisor.c ****             break;
 1107              		.loc 1 261 13 is_stmt 1 view .LVU306
 261:smtc_modem_core/modem_supervisor/modem_supervisor.c ****             break;
 1108              		.loc 1 261 13 view .LVU307
 1109 02f4 1E48     		ldr	r0, .L79+16
 1110 02f6 FFF7FEFF 		bl	bsp_trace_print
 1111              	.LVL134:
ARM GAS  /var/folders/bq/yv49bw8j2kd6w3hsq868qv180000gn/T//cck61hoc.s 			page 31


 261:smtc_modem_core/modem_supervisor/modem_supervisor.c ****             break;
 1112              		.loc 1 261 13 view .LVU308
 1113 02fa 1E48     		ldr	r0, .L79+20
 1114 02fc FFF7FEFF 		bl	bsp_trace_print
 1115              	.LVL135:
 261:smtc_modem_core/modem_supervisor/modem_supervisor.c ****             break;
 1116              		.loc 1 261 13 view .LVU309
 1117 0300 3148     		ldr	r0, .L79+104
 1118              	.L76:
 266:smtc_modem_core/modem_supervisor/modem_supervisor.c ****             break;
 1119              		.loc 1 266 13 is_stmt 0 view .LVU310
 1120 0302 FFF7FEFF 		bl	bsp_trace_print
 1121              	.LVL136:
 1122 0306 E5E6     		b	.L75
 1123              	.L54:
 264:smtc_modem_core/modem_supervisor/modem_supervisor.c ****         {
 1124              		.loc 1 264 14 is_stmt 1 view .LVU311
 264:smtc_modem_core/modem_supervisor/modem_supervisor.c ****         {
 1125              		.loc 1 264 18 is_stmt 0 view .LVU312
 1126 0308 FFF7FEFF 		bl	modem_get_upload_state
 1127              	.LVL137:
 264:smtc_modem_core/modem_supervisor/modem_supervisor.c ****         {
 1128              		.loc 1 264 16 view .LVU313
 1129 030c 0328     		cmp	r0, #3
 1130 030e 07D0     		beq	.L55
 266:smtc_modem_core/modem_supervisor/modem_supervisor.c ****             break;
 1131              		.loc 1 266 13 is_stmt 1 view .LVU314
 266:smtc_modem_core/modem_supervisor/modem_supervisor.c ****             break;
 1132              		.loc 1 266 13 view .LVU315
 1133 0310 1748     		ldr	r0, .L79+16
 1134 0312 FFF7FEFF 		bl	bsp_trace_print
 1135              	.LVL138:
 266:smtc_modem_core/modem_supervisor/modem_supervisor.c ****             break;
 1136              		.loc 1 266 13 view .LVU316
 1137 0316 1748     		ldr	r0, .L79+20
 1138 0318 FFF7FEFF 		bl	bsp_trace_print
 1139              	.LVL139:
 266:smtc_modem_core/modem_supervisor/modem_supervisor.c ****             break;
 1140              		.loc 1 266 13 view .LVU317
 1141 031c 2B48     		ldr	r0, .L79+108
 1142 031e F0E7     		b	.L76
 1143              	.L55:
 269:smtc_modem_core/modem_supervisor/modem_supervisor.c ****                                                    lorawan_api_fcnt_up_get( ) );
 1144              		.loc 1 269 9 view .LVU318
 269:smtc_modem_core/modem_supervisor/modem_supervisor.c ****                                                    lorawan_api_fcnt_up_get( ) );
 1145              		.loc 1 269 67 is_stmt 0 view .LVU319
 1146 0320 FFF7FEFF 		bl	lorawan_api_next_max_payload_length_get
 1147              	.LVL140:
 1148 0324 0400     		movs	r4, r0
 269:smtc_modem_core/modem_supervisor/modem_supervisor.c ****                                                    lorawan_api_fcnt_up_get( ) );
 1149              		.loc 1 269 28 view .LVU320
 1150 0326 FFF7FEFF 		bl	lorawan_api_fcnt_up_get
 1151              	.LVL141:
 1152 032a 294F     		ldr	r7, .L79+112
 1153 032c 0300     		movs	r3, r0
 1154 032e 2100     		movs	r1, r4
 1155 0330 0022     		movs	r2, #0
ARM GAS  /var/folders/bq/yv49bw8j2kd6w3hsq868qv180000gn/T//cck61hoc.s 			page 32


 1156 0332 3800     		movs	r0, r7
 1157 0334 FFF7FEFF 		bl	file_upload_gen_uplink
 1158              	.LVL142:
 1159 0338 041E     		subs	r4, r0, #0
 1160              	.LVL143:
 271:smtc_modem_core/modem_supervisor/modem_supervisor.c ****         {
 1161              		.loc 1 271 9 is_stmt 1 view .LVU321
 271:smtc_modem_core/modem_supervisor/modem_supervisor.c ****         {
 1162              		.loc 1 271 11 is_stmt 0 view .LVU322
 1163 033a 4BDD     		ble	.L56
 273:smtc_modem_core/modem_supervisor/modem_supervisor.c ****             lorawan_api_payload_send( get_modem_dm_port( ), UploadPayload, size_file_upload, UNCONF
 1164              		.loc 1 273 13 is_stmt 1 view .LVU323
 1165 033c 0120     		movs	r0, #1
 1166              	.LVL144:
 273:smtc_modem_core/modem_supervisor/modem_supervisor.c ****             lorawan_api_payload_send( get_modem_dm_port( ), UploadPayload, size_file_upload, UNCONF
 1167              		.loc 1 273 13 is_stmt 0 view .LVU324
 1168 033e FFF7FEFF 		bl	set_modem_status_file_upload
 1169              	.LVL145:
 274:smtc_modem_core/modem_supervisor/modem_supervisor.c ****                                       bsp_rtc_get_time_ms( ) + MODEM_TASK_DELAY_MS );
 1170              		.loc 1 274 13 is_stmt 1 view .LVU325
 1171 0342 FFF7FEFF 		bl	get_modem_dm_port
 1172              	.LVL146:
 1173 0346 0600     		movs	r6, r0
 275:smtc_modem_core/modem_supervisor/modem_supervisor.c ****         }
 1174              		.loc 1 275 39 is_stmt 0 view .LVU326
 1175 0348 FFF7FEFF 		bl	bsp_rtc_get_time_ms
 1176              	.LVL147:
 274:smtc_modem_core/modem_supervisor/modem_supervisor.c ****                                       bsp_rtc_get_time_ms( ) + MODEM_TASK_DELAY_MS );
 1177              		.loc 1 274 13 view .LVU327
 1178 034c C830     		adds	r0, r0, #200
 1179 034e 0090     		str	r0, [sp]
 1180 0350 2B00     		movs	r3, r5
 1181 0352 3900     		movs	r1, r7
 1182 0354 3000     		movs	r0, r6
 1183 0356 E2B2     		uxtb	r2, r4
 1184              	.LVL148:
 1185              	.L77:
 274:smtc_modem_core/modem_supervisor/modem_supervisor.c ****                                       bsp_rtc_get_time_ms( ) + MODEM_TASK_DELAY_MS );
 1186              		.loc 1 274 13 view .LVU328
 1187              	.LBE22:
 293:smtc_modem_core/modem_supervisor/modem_supervisor.c ****                                   task_manager.modem_task[id].sizeIn, task_manager.modem_task[id].P
 1188              		.loc 1 293 9 view .LVU329
 1189 0358 FFF7FEFF 		bl	lorawan_api_payload_send
 1190              	.LVL149:
 296:smtc_modem_core/modem_supervisor/modem_supervisor.c ****     }
 1191              		.loc 1 296 9 is_stmt 1 view .LVU330
 1192 035c 81E6     		b	.L20
 1193              	.L80:
 1194 035e C046     		.align	2
 1195              	.L79:
 1196 0360 00000000 		.word	.LC18
 1197 0364 08000000 		.word	.LC20
 1198 0368 10000000 		.word	.LC22
 1199 036c 3E000000 		.word	.LC10
 1200 0370 00000000 		.word	.LC4
 1201 0374 08000000 		.word	.LC6
 1202 0378 1B000000 		.word	.LC27
ARM GAS  /var/folders/bq/yv49bw8j2kd6w3hsq868qv180000gn/T//cck61hoc.s 			page 33


 1203 037c 00000000 		.word	task_manager
 1204 0380 00000000 		.word	.LANCHOR1
 1205 0384 42000000 		.word	.LC31
 1206 0388 5D000000 		.word	.LC33
 1207 038c 65000000 		.word	.LC35
 1208 0390 6D000000 		.word	.LC37
 1209 0394 00000000 		.word	.LANCHOR2
 1210 0398 9B000000 		.word	.LC40
 1211 039c B2000000 		.word	.LC42
 1212 03a0 C8000000 		.word	.LC44
 1213 03a4 D4000000 		.word	.LC46
 1214 03a8 E7000000 		.word	.LC48
 1215 03ac EF000000 		.word	.LC52
 1216 03b0 E9000000 		.word	.LC50
 1217 03b4 2A010000 		.word	.LC56
 1218 03b8 FC000000 		.word	.LC54
 1219 03bc 00000000 		.word	.LANCHOR3
 1220 03c0 2E010000 		.word	.LC59
 1221 03c4 36010000 		.word	.LC61
 1222 03c8 65010000 		.word	.LC63
 1223 03cc 77010000 		.word	.LC65
 1224 03d0 00000000 		.word	UploadPayload
 1225              	.LVL150:
 1226              	.L56:
 1227              	.LBB23:
 279:smtc_modem_core/modem_supervisor/modem_supervisor.c ****             increment_asynchronous_msgnumber( RSP_FILEDONE, 0x00 );
 1228              		.loc 1 279 13 view .LVU331
 279:smtc_modem_core/modem_supervisor/modem_supervisor.c ****             increment_asynchronous_msgnumber( RSP_FILEDONE, 0x00 );
 1229              		.loc 1 279 13 view .LVU332
 1230 03d4 1948     		ldr	r0, .L81
 1231              	.LVL151:
 279:smtc_modem_core/modem_supervisor/modem_supervisor.c ****             increment_asynchronous_msgnumber( RSP_FILEDONE, 0x00 );
 1232              		.loc 1 279 13 is_stmt 0 view .LVU333
 1233 03d6 FFF7FEFF 		bl	bsp_trace_print
 1234              	.LVL152:
 279:smtc_modem_core/modem_supervisor/modem_supervisor.c ****             increment_asynchronous_msgnumber( RSP_FILEDONE, 0x00 );
 1235              		.loc 1 279 13 is_stmt 1 view .LVU334
 1236 03da 1948     		ldr	r0, .L81+4
 1237 03dc FFF7FEFF 		bl	bsp_trace_print
 1238              	.LVL153:
 279:smtc_modem_core/modem_supervisor/modem_supervisor.c ****             increment_asynchronous_msgnumber( RSP_FILEDONE, 0x00 );
 1239              		.loc 1 279 13 view .LVU335
 1240 03e0 1848     		ldr	r0, .L81+8
 1241 03e2 FFF7FEFF 		bl	bsp_trace_print
 1242              	.LVL154:
 279:smtc_modem_core/modem_supervisor/modem_supervisor.c ****             increment_asynchronous_msgnumber( RSP_FILEDONE, 0x00 );
 1243              		.loc 1 279 13 view .LVU336
 1244 03e6 1848     		ldr	r0, .L81+12
 1245 03e8 FFF7FEFF 		bl	bsp_trace_print
 1246              	.LVL155:
 279:smtc_modem_core/modem_supervisor/modem_supervisor.c ****             increment_asynchronous_msgnumber( RSP_FILEDONE, 0x00 );
 1247              		.loc 1 279 13 view .LVU337
 279:smtc_modem_core/modem_supervisor/modem_supervisor.c ****             increment_asynchronous_msgnumber( RSP_FILEDONE, 0x00 );
 1248              		.loc 1 279 58 view .LVU338
 280:smtc_modem_core/modem_supervisor/modem_supervisor.c ****             modem_set_upload_state( MODEM_UPLOAD_NOT_INIT );
 1249              		.loc 1 280 13 view .LVU339
 1250 03ec 0021     		movs	r1, #0
ARM GAS  /var/folders/bq/yv49bw8j2kd6w3hsq868qv180000gn/T//cck61hoc.s 			page 34


 1251 03ee 0520     		movs	r0, #5
 1252 03f0 FFF7FEFF 		bl	increment_asynchronous_msgnumber
 1253              	.LVL156:
 281:smtc_modem_core/modem_supervisor/modem_supervisor.c ****         }
 1254              		.loc 1 281 13 view .LVU340
 1255 03f4 0020     		movs	r0, #0
 1256 03f6 FFF7FEFF 		bl	modem_set_upload_state
 1257              	.LVL157:
 1258 03fa 32E6     		b	.L20
 1259              	.LVL158:
 1260              	.L23:
 281:smtc_modem_core/modem_supervisor/modem_supervisor.c ****         }
 1261              		.loc 1 281 13 is_stmt 0 view .LVU341
 1262              	.LBE23:
 286:smtc_modem_core/modem_supervisor/modem_supervisor.c ****         {
 1263              		.loc 1 286 9 is_stmt 1 view .LVU342
 286:smtc_modem_core/modem_supervisor/modem_supervisor.c ****         {
 1264              		.loc 1 286 13 is_stmt 0 view .LVU343
 1265 03fc FFF7FEFF 		bl	get_modem_muted
 1266              	.LVL159:
 286:smtc_modem_core/modem_supervisor/modem_supervisor.c ****         {
 1267              		.loc 1 286 11 view .LVU344
 1268 0400 0128     		cmp	r0, #1
 1269 0402 00D0     		beq	.LCB1010
 1270 0404 2DE6     		b	.L20	@long jump
 1271              	.LCB1010:
 288:smtc_modem_core/modem_supervisor/modem_supervisor.c ****         }
 1272              		.loc 1 288 13 is_stmt 1 view .LVU345
 288:smtc_modem_core/modem_supervisor/modem_supervisor.c ****         }
 1273              		.loc 1 288 41 is_stmt 0 view .LVU346
 1274 0406 FFF7FEFF 		bl	dm_get_number_of_days_mute
 1275              	.LVL160:
 288:smtc_modem_core/modem_supervisor/modem_supervisor.c ****         }
 1276              		.loc 1 288 13 view .LVU347
 1277 040a 0138     		subs	r0, r0, #1
 1278 040c C0B2     		uxtb	r0, r0
 1279 040e FFF7FEFF 		bl	dm_set_number_of_days_mute
 1280              	.LVL161:
 1281 0412 26E6     		b	.L20
 1282              	.LVL162:
 1283              	.L21:
 293:smtc_modem_core/modem_supervisor/modem_supervisor.c ****                                   task_manager.modem_task[id].sizeIn, task_manager.modem_task[id].P
 1284              		.loc 1 293 9 is_stmt 1 view .LVU348
 1285 0414 FFF7FEFF 		bl	get_modem_dm_port
 1286              	.LVL163:
 293:smtc_modem_core/modem_supervisor/modem_supervisor.c ****                                   task_manager.modem_task[id].sizeIn, task_manager.modem_task[id].P
 1287              		.loc 1 293 9 is_stmt 0 view .LVU349
 1288 0418 0C49     		ldr	r1, .L81+16
 1289 041a 0B00     		movs	r3, r1
 1290 041c 0A00     		movs	r2, r1
 1291 041e 0C00     		movs	r4, r1
 295:smtc_modem_core/modem_supervisor/modem_supervisor.c ****         break;
 1292              		.loc 1 295 62 view .LVU350
 1293 0420 A431     		adds	r1, r1, #164
 293:smtc_modem_core/modem_supervisor/modem_supervisor.c ****                                   task_manager.modem_task[id].sizeIn, task_manager.modem_task[id].P
 1294              		.loc 1 293 9 view .LVU351
 1295 0422 0D68     		ldr	r5, [r1]
ARM GAS  /var/folders/bq/yv49bw8j2kd6w3hsq868qv180000gn/T//cck61hoc.s 			page 35


 1296 0424 FA21     		movs	r1, #250
 1297 0426 8900     		lsls	r1, r1, #2
 1298 0428 6943     		muls	r1, r5
 1299 042a B133     		adds	r3, r3, #177
 1300 042c B032     		adds	r2, r2, #176
 1301 042e 1B78     		ldrb	r3, [r3]
 1302 0430 1278     		ldrb	r2, [r2]
 1303 0432 AC34     		adds	r4, r4, #172
 1304 0434 0091     		str	r1, [sp]
 1305 0436 2168     		ldr	r1, [r4]
 1306 0438 8EE7     		b	.L77
 1307              	.L82:
 1308 043a C046     		.align	2
 1309              	.L81:
 1310 043c 5D000000 		.word	.LC33
 1311 0440 65000000 		.word	.LC35
 1312 0444 8D010000 		.word	.LC68
 1313 0448 3E000000 		.word	.LC10
 1314 044c 00000000 		.word	task_manager
 1315              		.cfi_endproc
 1316              	.LFE13:
 1318              		.section	.rodata.modem_supervisor_update_task.str1.1,"aMS",%progbits,1
 1319              	.LC77:
 1320 0000 4C502073 		.ascii	"LP state error Occur \012\000"
 1320      74617465 
 1320      20657272 
 1320      6F72204F 
 1320      63637572 
 1321              		.section	.text.modem_supervisor_update_task,"ax",%progbits
 1322              		.align	1
 1323              		.global	modem_supervisor_update_task
 1324              		.syntax unified
 1325              		.code	16
 1326              		.thumb_func
 1327              		.fpu softvfp
 1329              	modem_supervisor_update_task:
 1330              	.LVL164:
 1331              	.LFB14:
 303:smtc_modem_core/modem_supervisor/modem_supervisor.c **** 
 304:smtc_modem_core/modem_supervisor/modem_supervisor.c **** void modem_supervisor_update_task( task_id_t id )
 305:smtc_modem_core/modem_supervisor/modem_supervisor.c **** {
 1332              		.loc 1 305 1 is_stmt 1 view -0
 1333              		.cfi_startproc
 1334              		@ args = 0, pretend = 0, frame = 288
 1335              		@ frame_needed = 0, uses_anonymous_args = 0
 306:smtc_modem_core/modem_supervisor/modem_supervisor.c ****     s_modem_dwn_t dwnframe;
 1336              		.loc 1 306 5 view .LVU353
 307:smtc_modem_core/modem_supervisor/modem_supervisor.c ****     if( lorawan_api_state_get( ) == LWPSTATE_ERROR )
 1337              		.loc 1 307 5 view .LVU354
 305:smtc_modem_core/modem_supervisor/modem_supervisor.c ****     s_modem_dwn_t dwnframe;
 1338              		.loc 1 305 1 is_stmt 0 view .LVU355
 1339 0000 F0B5     		push	{r4, r5, r6, r7, lr}
 1340              		.cfi_def_cfa_offset 20
 1341              		.cfi_offset 4, -20
 1342              		.cfi_offset 5, -16
 1343              		.cfi_offset 6, -12
 1344              		.cfi_offset 7, -8
ARM GAS  /var/folders/bq/yv49bw8j2kd6w3hsq868qv180000gn/T//cck61hoc.s 			page 36


 1345              		.cfi_offset 14, -4
 1346 0002 C9B0     		sub	sp, sp, #292
 1347              		.cfi_def_cfa_offset 312
 305:smtc_modem_core/modem_supervisor/modem_supervisor.c ****     s_modem_dwn_t dwnframe;
 1348              		.loc 1 305 1 view .LVU356
 1349 0004 0400     		movs	r4, r0
 1350              		.loc 1 307 9 view .LVU357
 1351 0006 FFF7FEFF 		bl	lorawan_api_state_get
 1352              	.LVL165:
 1353              		.loc 1 307 7 view .LVU358
 1354 000a 0828     		cmp	r0, #8
 1355 000c 0DD1     		bne	.L84
 308:smtc_modem_core/modem_supervisor/modem_supervisor.c ****     {
 309:smtc_modem_core/modem_supervisor/modem_supervisor.c ****         BSP_DBG_TRACE_ERROR( "LP state error Occur \n" );
 1356              		.loc 1 309 9 is_stmt 1 view .LVU359
 1357              		.loc 1 309 9 view .LVU360
 1358 000e 6048     		ldr	r0, .L120
 1359 0010 FFF7FEFF 		bl	bsp_trace_print
 1360              	.LVL166:
 1361              		.loc 1 309 9 view .LVU361
 1362 0014 5F48     		ldr	r0, .L120+4
 1363 0016 FFF7FEFF 		bl	bsp_trace_print
 1364              	.LVL167:
 1365              		.loc 1 309 9 view .LVU362
 1366 001a 5F48     		ldr	r0, .L120+8
 1367 001c FFF7FEFF 		bl	bsp_trace_print
 1368              	.LVL168:
 1369              		.loc 1 309 9 view .LVU363
 1370 0020 5E48     		ldr	r0, .L120+12
 1371 0022 FFF7FEFF 		bl	bsp_trace_print
 1372              	.LVL169:
 1373              		.loc 1 309 9 view .LVU364
 1374              		.loc 1 309 57 view .LVU365
 310:smtc_modem_core/modem_supervisor/modem_supervisor.c ****         bsp_mcu_reset( );
 1375              		.loc 1 310 9 view .LVU366
 1376 0026 FFF7FEFF 		bl	bsp_mcu_reset
 1377              	.LVL170:
 1378              	.L84:
 311:smtc_modem_core/modem_supervisor/modem_supervisor.c ****     }
 312:smtc_modem_core/modem_supervisor/modem_supervisor.c ****     if( ( AvailableRxPacket != NO_LORA_RXPACKET_AVAILABLE ) && ( get_join_state( ) == MODEM_JOINED 
 1379              		.loc 1 312 5 view .LVU367
 1380              		.loc 1 312 29 is_stmt 0 view .LVU368
 1381 002a 5D4D     		ldr	r5, .L120+16
 1382              		.loc 1 312 7 view .LVU369
 1383 002c 2B78     		ldrb	r3, [r5]
 1384 002e 002B     		cmp	r3, #0
 1385 0030 16D0     		beq	.L86
 1386              		.loc 1 312 66 discriminator 1 view .LVU370
 1387 0032 FFF7FEFF 		bl	get_join_state
 1388              	.LVL171:
 1389              		.loc 1 312 61 discriminator 1 view .LVU371
 1390 0036 0228     		cmp	r0, #2
 1391 0038 12D1     		bne	.L86
 313:smtc_modem_core/modem_supervisor/modem_supervisor.c ****     {
 314:smtc_modem_core/modem_supervisor/modem_supervisor.c ****         set_modem_downlink_frame( );
 1392              		.loc 1 314 9 is_stmt 1 view .LVU372
 315:smtc_modem_core/modem_supervisor/modem_supervisor.c ****         get_modem_downlink_frame( &dwnframe );
ARM GAS  /var/folders/bq/yv49bw8j2kd6w3hsq868qv180000gn/T//cck61hoc.s 			page 37


 1393              		.loc 1 315 9 is_stmt 0 view .LVU373
 1394 003a 05AE     		add	r6, sp, #20
 314:smtc_modem_core/modem_supervisor/modem_supervisor.c ****         get_modem_downlink_frame( &dwnframe );
 1395              		.loc 1 314 9 view .LVU374
 1396 003c FFF7FEFF 		bl	set_modem_downlink_frame
 1397              	.LVL172:
 1398              		.loc 1 315 9 is_stmt 1 view .LVU375
 1399 0040 3000     		movs	r0, r6
 1400 0042 FFF7FEFF 		bl	get_modem_downlink_frame
 1401              	.LVL173:
 316:smtc_modem_core/modem_supervisor/modem_supervisor.c ****         if( dwnframe.port == get_modem_dm_port( ) )
 1402              		.loc 1 316 9 view .LVU376
 1403              		.loc 1 316 21 is_stmt 0 view .LVU377
 1404 0046 3678     		ldrb	r6, [r6]
 1405              		.loc 1 316 30 view .LVU378
 1406 0048 FFF7FEFF 		bl	get_modem_dm_port
 1407              	.LVL174:
 1408              		.loc 1 316 11 view .LVU379
 1409 004c 8642     		cmp	r6, r0
 1410 004e 11D1     		bne	.L88
 317:smtc_modem_core/modem_supervisor/modem_supervisor.c ****         {
 318:smtc_modem_core/modem_supervisor/modem_supervisor.c ****             dm_downlink( dwnframe.data, dwnframe.length );
 1411              		.loc 1 318 13 is_stmt 1 view .LVU380
 1412 0050 1423     		movs	r3, #20
 1413 0052 1520     		movs	r0, #21
 1414 0054 FF33     		adds	r3, r3, #255
 1415 0056 6B44     		add	r3, r3, sp
 1416 0058 5978     		ldrb	r1, [r3, #1]
 1417 005a 6844     		add	r0, r0, sp
 1418 005c FFF7FEFF 		bl	dm_downlink
 1419              	.LVL175:
 1420              	.L86:
 319:smtc_modem_core/modem_supervisor/modem_supervisor.c ****         }
 320:smtc_modem_core/modem_supervisor/modem_supervisor.c ****         else
 321:smtc_modem_core/modem_supervisor/modem_supervisor.c ****         {
 322:smtc_modem_core/modem_supervisor/modem_supervisor.c ****             increment_asynchronous_msgnumber( RSP_DOWNDATA, 0 );
 323:smtc_modem_core/modem_supervisor/modem_supervisor.c ****         }
 324:smtc_modem_core/modem_supervisor/modem_supervisor.c ****     }
 325:smtc_modem_core/modem_supervisor/modem_supervisor.c ****     switch( id )
 1421              		.loc 1 325 5 view .LVU381
 1422 0060 082C     		cmp	r4, #8
 1423 0062 30D8     		bhi	.L89
 1424 0064 2000     		movs	r0, r4
 1425 0066 FFF7FEFF 		bl	__gnu_thumb1_case_uqi
 1426              	.L91:
 1427 006a 4A       		.byte	(.L97-.L91)/2
 1428 006b 2E       		.byte	(.L89-.L91)/2
 1429 006c 0A       		.byte	(.L96-.L91)/2
 1430 006d 3C       		.byte	(.L95-.L91)/2
 1431 006e 43       		.byte	(.L94-.L91)/2
 1432 006f 5D       		.byte	(.L93-.L91)/2
 1433 0070 2E       		.byte	(.L89-.L91)/2
 1434 0071 77       		.byte	(.L92-.L91)/2
 1435 0072 7E       		.byte	(.L90-.L91)/2
 1436 0073 00       		.p2align 1
 1437              	.L88:
 322:smtc_modem_core/modem_supervisor/modem_supervisor.c ****         }
ARM GAS  /var/folders/bq/yv49bw8j2kd6w3hsq868qv180000gn/T//cck61hoc.s 			page 38


 1438              		.loc 1 322 13 view .LVU382
 1439 0074 0021     		movs	r1, #0
 1440 0076 0420     		movs	r0, #4
 1441 0078 FFF7FEFF 		bl	increment_asynchronous_msgnumber
 1442              	.LVL176:
 1443 007c F0E7     		b	.L86
 1444              	.L96:
 326:smtc_modem_core/modem_supervisor/modem_supervisor.c ****     {
 327:smtc_modem_core/modem_supervisor/modem_supervisor.c ****     case JOIN_TASK:
 328:smtc_modem_core/modem_supervisor/modem_supervisor.c ****         if( ( get_join_state( ) == MODEM_JOIN_ONGOING ) && ( lorawan_api_isjoined( ) == JOINED ) )
 1445              		.loc 1 328 9 view .LVU383
 1446              		.loc 1 328 15 is_stmt 0 view .LVU384
 1447 007e FFF7FEFF 		bl	get_join_state
 1448              	.LVL177:
 1449              		.loc 1 328 11 view .LVU385
 1450 0082 0128     		cmp	r0, #1
 1451 0084 16D1     		bne	.L98
 1452              		.loc 1 328 62 discriminator 1 view .LVU386
 1453 0086 FFF7FEFF 		bl	lorawan_api_isjoined
 1454              	.LVL178:
 1455 008a 0400     		movs	r4, r0
 1456              		.loc 1 328 57 discriminator 1 view .LVU387
 1457 008c 0128     		cmp	r0, #1
 1458 008e 11D1     		bne	.L98
 329:smtc_modem_core/modem_supervisor/modem_supervisor.c ****         {
 330:smtc_modem_core/modem_supervisor/modem_supervisor.c ****             set_modem_status_joining( false );
 1459              		.loc 1 330 13 is_stmt 1 view .LVU388
 1460 0090 0020     		movs	r0, #0
 1461 0092 FFF7FEFF 		bl	set_modem_status_joining
 1462              	.LVL179:
 331:smtc_modem_core/modem_supervisor/modem_supervisor.c ****             set_modem_downlink_frame( );
 1463              		.loc 1 331 13 view .LVU389
 1464 0096 FFF7FEFF 		bl	set_modem_downlink_frame
 1465              	.LVL180:
 332:smtc_modem_core/modem_supervisor/modem_supervisor.c ****             increment_asynchronous_msgnumber( RSP_JOINED, 0 );
 1466              		.loc 1 332 13 view .LVU390
 1467 009a 0021     		movs	r1, #0
 1468 009c 0220     		movs	r0, #2
 1469 009e FFF7FEFF 		bl	increment_asynchronous_msgnumber
 1470              	.LVL181:
 333:smtc_modem_core/modem_supervisor/modem_supervisor.c ****             set_modem_status_modem_joined( true );
 1471              		.loc 1 333 13 view .LVU391
 1472 00a2 2000     		movs	r0, r4
 1473 00a4 FFF7FEFF 		bl	set_modem_status_modem_joined
 1474              	.LVL182:
 334:smtc_modem_core/modem_supervisor/modem_supervisor.c ****             // as soon as modem is joined, modem send has to sent a dm report every DM_PERIOD_AFTER
 335:smtc_modem_core/modem_supervisor/modem_supervisor.c ****             is_first_dm_after_join = true;
 1475              		.loc 1 335 13 view .LVU392
 336:smtc_modem_core/modem_supervisor/modem_supervisor.c ****             modem_supervisor_add_task_dm_status( DM_PERIOD_AFTER_JOIN );
 1476              		.loc 1 336 13 is_stmt 0 view .LVU393
 1477 00a8 0A20     		movs	r0, #10
 335:smtc_modem_core/modem_supervisor/modem_supervisor.c ****             modem_supervisor_add_task_dm_status( DM_PERIOD_AFTER_JOIN );
 1478              		.loc 1 335 36 view .LVU394
 1479 00aa 3E4B     		ldr	r3, .L120+20
 1480 00ac 1C70     		strb	r4, [r3]
 1481              		.loc 1 336 13 is_stmt 1 view .LVU395
 1482              	.L119:
ARM GAS  /var/folders/bq/yv49bw8j2kd6w3hsq868qv180000gn/T//cck61hoc.s 			page 39


 337:smtc_modem_core/modem_supervisor/modem_supervisor.c ****         }
 338:smtc_modem_core/modem_supervisor/modem_supervisor.c ****         else if( get_join_state( ) == MODEM_JOIN_ONGOING )
 339:smtc_modem_core/modem_supervisor/modem_supervisor.c ****         {
 340:smtc_modem_core/modem_supervisor/modem_supervisor.c ****             set_modem_status_joining( false );
 341:smtc_modem_core/modem_supervisor/modem_supervisor.c ****             modem_supervisor_add_task_join( );  // relaunch join only if no leave cmd
 342:smtc_modem_core/modem_supervisor/modem_supervisor.c ****         }
 343:smtc_modem_core/modem_supervisor/modem_supervisor.c ****         else if( ( lorawan_api_isjoined( ) == JOINED ) )  //
 344:smtc_modem_core/modem_supervisor/modem_supervisor.c ****         {
 345:smtc_modem_core/modem_supervisor/modem_supervisor.c ****             set_modem_status_joining( false );
 346:smtc_modem_core/modem_supervisor/modem_supervisor.c ****             lorawan_api_join_status_clear( );  // => manage case leave cmd between end of join and 
 347:smtc_modem_core/modem_supervisor/modem_supervisor.c ****         }
 348:smtc_modem_core/modem_supervisor/modem_supervisor.c ****         break;
 349:smtc_modem_core/modem_supervisor/modem_supervisor.c ****     case DM_TASK:
 350:smtc_modem_core/modem_supervisor/modem_supervisor.c ****         if( get_modem_dm_interval_second( ) > 0 )
 351:smtc_modem_core/modem_supervisor/modem_supervisor.c ****         {
 352:smtc_modem_core/modem_supervisor/modem_supervisor.c ****             modem_supervisor_add_task_dm_status( get_modem_dm_interval_second( ) );
 1483              		.loc 1 352 13 is_stmt 0 view .LVU396
 1484 00ae FFF7FEFF 		bl	modem_supervisor_add_task_dm_status
 1485              	.LVL183:
 1486 00b2 08E0     		b	.L89
 1487              	.L98:
 338:smtc_modem_core/modem_supervisor/modem_supervisor.c ****         {
 1488              		.loc 1 338 14 is_stmt 1 view .LVU397
 338:smtc_modem_core/modem_supervisor/modem_supervisor.c ****         {
 1489              		.loc 1 338 18 is_stmt 0 view .LVU398
 1490 00b4 FFF7FEFF 		bl	get_join_state
 1491              	.LVL184:
 338:smtc_modem_core/modem_supervisor/modem_supervisor.c ****         {
 1492              		.loc 1 338 16 view .LVU399
 1493 00b8 0128     		cmp	r0, #1
 1494 00ba 08D1     		bne	.L99
 340:smtc_modem_core/modem_supervisor/modem_supervisor.c ****             modem_supervisor_add_task_join( );  // relaunch join only if no leave cmd
 1495              		.loc 1 340 13 is_stmt 1 view .LVU400
 1496 00bc 0020     		movs	r0, #0
 1497 00be FFF7FEFF 		bl	set_modem_status_joining
 1498              	.LVL185:
 341:smtc_modem_core/modem_supervisor/modem_supervisor.c ****         }
 1499              		.loc 1 341 13 view .LVU401
 1500 00c2 FFF7FEFF 		bl	modem_supervisor_add_task_join
 1501              	.LVL186:
 1502              	.L89:
 353:smtc_modem_core/modem_supervisor/modem_supervisor.c ****         }
 354:smtc_modem_core/modem_supervisor/modem_supervisor.c ****         break;
 355:smtc_modem_core/modem_supervisor/modem_supervisor.c ****     case DM_TASK_NOW:
 356:smtc_modem_core/modem_supervisor/modem_supervisor.c ****         if( is_pending_dm_status_payload_now )
 357:smtc_modem_core/modem_supervisor/modem_supervisor.c ****         {
 358:smtc_modem_core/modem_supervisor/modem_supervisor.c ****             modem_supervisor_add_task_dm_status_now( );
 359:smtc_modem_core/modem_supervisor/modem_supervisor.c ****         }
 360:smtc_modem_core/modem_supervisor/modem_supervisor.c ****         break;
 361:smtc_modem_core/modem_supervisor/modem_supervisor.c ****     case SEND_TASK:
 362:smtc_modem_core/modem_supervisor/modem_supervisor.c ****         if( send_task_update_needed == true )
 363:smtc_modem_core/modem_supervisor/modem_supervisor.c ****         {
 364:smtc_modem_core/modem_supervisor/modem_supervisor.c ****             if( lorawan_api_rx_ack_bit_get( ) == 1 )
 365:smtc_modem_core/modem_supervisor/modem_supervisor.c ****             {
 366:smtc_modem_core/modem_supervisor/modem_supervisor.c ****                 increment_asynchronous_msgnumber( RSP_TXDONE, MODEM_TX_SUCCESS_WITH_ACK );
 367:smtc_modem_core/modem_supervisor/modem_supervisor.c ****             }
 368:smtc_modem_core/modem_supervisor/modem_supervisor.c ****             else
ARM GAS  /var/folders/bq/yv49bw8j2kd6w3hsq868qv180000gn/T//cck61hoc.s 			page 40


 369:smtc_modem_core/modem_supervisor/modem_supervisor.c ****             {
 370:smtc_modem_core/modem_supervisor/modem_supervisor.c ****                 increment_asynchronous_msgnumber( RSP_TXDONE, MODEM_TX_SUCCESS );
 371:smtc_modem_core/modem_supervisor/modem_supervisor.c ****             }
 372:smtc_modem_core/modem_supervisor/modem_supervisor.c ****         }
 373:smtc_modem_core/modem_supervisor/modem_supervisor.c ****         else
 374:smtc_modem_core/modem_supervisor/modem_supervisor.c ****         {
 375:smtc_modem_core/modem_supervisor/modem_supervisor.c ****             increment_asynchronous_msgnumber( RSP_TXDONE, MODEM_TX_FAILED );
 376:smtc_modem_core/modem_supervisor/modem_supervisor.c ****         }
 377:smtc_modem_core/modem_supervisor/modem_supervisor.c ****         // Re-enable the duty cycle in case of Emergency Tx was sent
 378:smtc_modem_core/modem_supervisor/modem_supervisor.c ****         lorawan_api_duty_cycle_enable_set( true );
 379:smtc_modem_core/modem_supervisor/modem_supervisor.c ****         break;
 380:smtc_modem_core/modem_supervisor/modem_supervisor.c ****     case FILE_UPLOAD_TASK: {
 381:smtc_modem_core/modem_supervisor/modem_supervisor.c ****         if( get_modem_status_file_upload( ) == true )
 382:smtc_modem_core/modem_supervisor/modem_supervisor.c ****         {
 383:smtc_modem_core/modem_supervisor/modem_supervisor.c ****             smodem_task upload_task;  // as soon as you join you send dm report every DM_PERIOD_AFT
 384:smtc_modem_core/modem_supervisor/modem_supervisor.c ****             upload_task.id       = FILE_UPLOAD_TASK;
 385:smtc_modem_core/modem_supervisor/modem_supervisor.c ****             upload_task.priority = TASK_HIGH_PRIORITY;
 386:smtc_modem_core/modem_supervisor/modem_supervisor.c ****             upload_task.time_to_execute_s =
 387:smtc_modem_core/modem_supervisor/modem_supervisor.c ****                 bsp_rtc_get_time_s( ) + modem_upload_avgdelay_get( ) + bsp_rng_get_random_in_range(
 388:smtc_modem_core/modem_supervisor/modem_supervisor.c ****             modem_supervisor_add_task( &upload_task );
 389:smtc_modem_core/modem_supervisor/modem_supervisor.c ****         }
 390:smtc_modem_core/modem_supervisor/modem_supervisor.c ****         break;
 391:smtc_modem_core/modem_supervisor/modem_supervisor.c ****     }
 392:smtc_modem_core/modem_supervisor/modem_supervisor.c ****     case MUTE_TASK: {
 393:smtc_modem_core/modem_supervisor/modem_supervisor.c ****         if( get_modem_muted( ) == MODEM_TEMPORARY_MUTE )
 394:smtc_modem_core/modem_supervisor/modem_supervisor.c ****         {
 395:smtc_modem_core/modem_supervisor/modem_supervisor.c ****             modem_supervisor_add_task_modem_mute( );
 396:smtc_modem_core/modem_supervisor/modem_supervisor.c ****         }
 397:smtc_modem_core/modem_supervisor/modem_supervisor.c ****         break;
 398:smtc_modem_core/modem_supervisor/modem_supervisor.c ****     }
 399:smtc_modem_core/modem_supervisor/modem_supervisor.c ****     case RETRIEVE_DL_TASK: {
 400:smtc_modem_core/modem_supervisor/modem_supervisor.c ****         s_dm_retrieve_pending_dl_t retrieve;
 401:smtc_modem_core/modem_supervisor/modem_supervisor.c ****         get_dm_retrieve_pending_dl( &retrieve );
 402:smtc_modem_core/modem_supervisor/modem_supervisor.c ****         retrieve.up_count--;
 403:smtc_modem_core/modem_supervisor/modem_supervisor.c **** 
 404:smtc_modem_core/modem_supervisor/modem_supervisor.c ****         set_dm_retrieve_pending_dl( retrieve.up_count, retrieve.up_delay );
 405:smtc_modem_core/modem_supervisor/modem_supervisor.c ****         if( retrieve.up_count > 0 )
 406:smtc_modem_core/modem_supervisor/modem_supervisor.c ****         {
 407:smtc_modem_core/modem_supervisor/modem_supervisor.c ****             modem_supervisor_add_task_retrieve_dl( retrieve.up_delay );
 408:smtc_modem_core/modem_supervisor/modem_supervisor.c ****         }
 409:smtc_modem_core/modem_supervisor/modem_supervisor.c **** 
 410:smtc_modem_core/modem_supervisor/modem_supervisor.c ****         break;
 411:smtc_modem_core/modem_supervisor/modem_supervisor.c ****     }
 412:smtc_modem_core/modem_supervisor/modem_supervisor.c ****     default:
 413:smtc_modem_core/modem_supervisor/modem_supervisor.c ****         break;
 414:smtc_modem_core/modem_supervisor/modem_supervisor.c ****     }
 415:smtc_modem_core/modem_supervisor/modem_supervisor.c ****     AvailableRxPacket = NO_LORA_RXPACKET_AVAILABLE;
 1503              		.loc 1 415 5 view .LVU402
 1504              		.loc 1 415 23 is_stmt 0 view .LVU403
 1505 00c6 0023     		movs	r3, #0
 1506 00c8 2B70     		strb	r3, [r5]
 416:smtc_modem_core/modem_supervisor/modem_supervisor.c **** }
 1507              		.loc 1 416 1 view .LVU404
 1508 00ca 49B0     		add	sp, sp, #292
 1509              		@ sp needed
 1510 00cc F0BD     		pop	{r4, r5, r6, r7, pc}
 1511              	.L99:
ARM GAS  /var/folders/bq/yv49bw8j2kd6w3hsq868qv180000gn/T//cck61hoc.s 			page 41


 343:smtc_modem_core/modem_supervisor/modem_supervisor.c ****         {
 1512              		.loc 1 343 14 is_stmt 1 view .LVU405
 343:smtc_modem_core/modem_supervisor/modem_supervisor.c ****         {
 1513              		.loc 1 343 20 is_stmt 0 view .LVU406
 1514 00ce FFF7FEFF 		bl	lorawan_api_isjoined
 1515              	.LVL187:
 343:smtc_modem_core/modem_supervisor/modem_supervisor.c ****         {
 1516              		.loc 1 343 16 view .LVU407
 1517 00d2 0128     		cmp	r0, #1
 1518 00d4 F7D1     		bne	.L89
 345:smtc_modem_core/modem_supervisor/modem_supervisor.c ****             lorawan_api_join_status_clear( );  // => manage case leave cmd between end of join and 
 1519              		.loc 1 345 13 is_stmt 1 view .LVU408
 1520 00d6 0020     		movs	r0, #0
 1521 00d8 FFF7FEFF 		bl	set_modem_status_joining
 1522              	.LVL188:
 346:smtc_modem_core/modem_supervisor/modem_supervisor.c ****         }
 1523              		.loc 1 346 13 view .LVU409
 1524 00dc FFF7FEFF 		bl	lorawan_api_join_status_clear
 1525              	.LVL189:
 1526 00e0 F1E7     		b	.L89
 1527              	.L95:
 350:smtc_modem_core/modem_supervisor/modem_supervisor.c ****         {
 1528              		.loc 1 350 9 view .LVU410
 350:smtc_modem_core/modem_supervisor/modem_supervisor.c ****         {
 1529              		.loc 1 350 13 is_stmt 0 view .LVU411
 1530 00e2 FFF7FEFF 		bl	get_modem_dm_interval_second
 1531              	.LVL190:
 350:smtc_modem_core/modem_supervisor/modem_supervisor.c ****         {
 1532              		.loc 1 350 11 view .LVU412
 1533 00e6 0028     		cmp	r0, #0
 1534 00e8 EDD0     		beq	.L89
 352:smtc_modem_core/modem_supervisor/modem_supervisor.c ****         }
 1535              		.loc 1 352 13 is_stmt 1 view .LVU413
 1536 00ea FFF7FEFF 		bl	get_modem_dm_interval_second
 1537              	.LVL191:
 1538 00ee DEE7     		b	.L119
 1539              	.L94:
 356:smtc_modem_core/modem_supervisor/modem_supervisor.c ****         {
 1540              		.loc 1 356 9 view .LVU414
 356:smtc_modem_core/modem_supervisor/modem_supervisor.c ****         {
 1541              		.loc 1 356 13 is_stmt 0 view .LVU415
 1542 00f0 2D4B     		ldr	r3, .L120+24
 356:smtc_modem_core/modem_supervisor/modem_supervisor.c ****         {
 1543              		.loc 1 356 11 view .LVU416
 1544 00f2 1B78     		ldrb	r3, [r3]
 1545 00f4 002B     		cmp	r3, #0
 1546 00f6 E6D0     		beq	.L89
 358:smtc_modem_core/modem_supervisor/modem_supervisor.c ****         }
 1547              		.loc 1 358 13 is_stmt 1 view .LVU417
 1548 00f8 FFF7FEFF 		bl	modem_supervisor_add_task_dm_status_now
 1549              	.LVL192:
 1550 00fc E3E7     		b	.L89
 1551              	.L97:
 362:smtc_modem_core/modem_supervisor/modem_supervisor.c ****         {
 1552              		.loc 1 362 9 view .LVU418
 362:smtc_modem_core/modem_supervisor/modem_supervisor.c ****         {
 1553              		.loc 1 362 37 is_stmt 0 view .LVU419
ARM GAS  /var/folders/bq/yv49bw8j2kd6w3hsq868qv180000gn/T//cck61hoc.s 			page 42


 1554 00fe 2B4B     		ldr	r3, .L120+28
 362:smtc_modem_core/modem_supervisor/modem_supervisor.c ****         {
 1555              		.loc 1 362 11 view .LVU420
 1556 0100 1978     		ldrb	r1, [r3]
 1557 0102 0029     		cmp	r1, #0
 1558 0104 0CD0     		beq	.L102
 364:smtc_modem_core/modem_supervisor/modem_supervisor.c ****             {
 1559              		.loc 1 364 13 is_stmt 1 view .LVU421
 364:smtc_modem_core/modem_supervisor/modem_supervisor.c ****             {
 1560              		.loc 1 364 17 is_stmt 0 view .LVU422
 1561 0106 FFF7FEFF 		bl	lorawan_api_rx_ack_bit_get
 1562              	.LVL193:
 370:smtc_modem_core/modem_supervisor/modem_supervisor.c ****             }
 1563              		.loc 1 370 17 view .LVU423
 1564 010a 0121     		movs	r1, #1
 364:smtc_modem_core/modem_supervisor/modem_supervisor.c ****             {
 1565              		.loc 1 364 15 view .LVU424
 1566 010c 0128     		cmp	r0, #1
 1567 010e 07D1     		bne	.L102
 366:smtc_modem_core/modem_supervisor/modem_supervisor.c ****             }
 1568              		.loc 1 366 17 is_stmt 1 view .LVU425
 1569 0110 0221     		movs	r1, #2
 1570 0112 4018     		adds	r0, r0, r1
 1571              	.L118:
 375:smtc_modem_core/modem_supervisor/modem_supervisor.c ****         }
 1572              		.loc 1 375 13 is_stmt 0 view .LVU426
 1573 0114 FFF7FEFF 		bl	increment_asynchronous_msgnumber
 1574              	.LVL194:
 378:smtc_modem_core/modem_supervisor/modem_supervisor.c ****         break;
 1575              		.loc 1 378 9 is_stmt 1 view .LVU427
 1576 0118 0120     		movs	r0, #1
 1577 011a FFF7FEFF 		bl	lorawan_api_duty_cycle_enable_set
 1578              	.LVL195:
 379:smtc_modem_core/modem_supervisor/modem_supervisor.c ****     case FILE_UPLOAD_TASK: {
 1579              		.loc 1 379 9 view .LVU428
 1580 011e D2E7     		b	.L89
 1581              	.L102:
 375:smtc_modem_core/modem_supervisor/modem_supervisor.c ****         }
 1582              		.loc 1 375 13 view .LVU429
 1583 0120 0320     		movs	r0, #3
 1584 0122 F7E7     		b	.L118
 1585              	.L93:
 381:smtc_modem_core/modem_supervisor/modem_supervisor.c ****         {
 1586              		.loc 1 381 9 view .LVU430
 381:smtc_modem_core/modem_supervisor/modem_supervisor.c ****         {
 1587              		.loc 1 381 13 is_stmt 0 view .LVU431
 1588 0124 FFF7FEFF 		bl	get_modem_status_file_upload
 1589              	.LVL196:
 381:smtc_modem_core/modem_supervisor/modem_supervisor.c ****         {
 1590              		.loc 1 381 11 view .LVU432
 1591 0128 0028     		cmp	r0, #0
 1592 012a CCD0     		beq	.L89
 1593              	.LBB24:
 383:smtc_modem_core/modem_supervisor/modem_supervisor.c ****             upload_task.id       = FILE_UPLOAD_TASK;
 1594              		.loc 1 383 13 is_stmt 1 view .LVU433
 384:smtc_modem_core/modem_supervisor/modem_supervisor.c ****             upload_task.priority = TASK_HIGH_PRIORITY;
 1595              		.loc 1 384 13 view .LVU434
ARM GAS  /var/folders/bq/yv49bw8j2kd6w3hsq868qv180000gn/T//cck61hoc.s 			page 43


 384:smtc_modem_core/modem_supervisor/modem_supervisor.c ****             upload_task.priority = TASK_HIGH_PRIORITY;
 1596              		.loc 1 384 34 is_stmt 0 view .LVU435
 1597 012c 6A46     		mov	r2, sp
 1598 012e 0523     		movs	r3, #5
 385:smtc_modem_core/modem_supervisor/modem_supervisor.c ****             upload_task.time_to_execute_s =
 1599              		.loc 1 385 34 view .LVU436
 1600 0130 0127     		movs	r7, #1
 384:smtc_modem_core/modem_supervisor/modem_supervisor.c ****             upload_task.priority = TASK_HIGH_PRIORITY;
 1601              		.loc 1 384 34 view .LVU437
 1602 0132 1370     		strb	r3, [r2]
 385:smtc_modem_core/modem_supervisor/modem_supervisor.c ****             upload_task.time_to_execute_s =
 1603              		.loc 1 385 13 is_stmt 1 view .LVU438
 385:smtc_modem_core/modem_supervisor/modem_supervisor.c ****             upload_task.time_to_execute_s =
 1604              		.loc 1 385 34 is_stmt 0 view .LVU439
 1605 0134 1772     		strb	r7, [r2, #8]
 386:smtc_modem_core/modem_supervisor/modem_supervisor.c ****                 bsp_rtc_get_time_s( ) + modem_upload_avgdelay_get( ) + bsp_rng_get_random_in_range(
 1606              		.loc 1 386 13 is_stmt 1 view .LVU440
 387:smtc_modem_core/modem_supervisor/modem_supervisor.c ****             modem_supervisor_add_task( &upload_task );
 1607              		.loc 1 387 17 is_stmt 0 view .LVU441
 1608 0136 FFF7FEFF 		bl	bsp_rtc_get_time_s
 1609              	.LVL197:
 1610 013a 0400     		movs	r4, r0
 387:smtc_modem_core/modem_supervisor/modem_supervisor.c ****             modem_supervisor_add_task( &upload_task );
 1611              		.loc 1 387 41 view .LVU442
 1612 013c FFF7FEFF 		bl	modem_upload_avgdelay_get
 1613              	.LVL198:
 387:smtc_modem_core/modem_supervisor/modem_supervisor.c ****             modem_supervisor_add_task( &upload_task );
 1614              		.loc 1 387 72 view .LVU443
 1615 0140 0321     		movs	r1, #3
 387:smtc_modem_core/modem_supervisor/modem_supervisor.c ****             modem_supervisor_add_task( &upload_task );
 1616              		.loc 1 387 41 view .LVU444
 1617 0142 0600     		movs	r6, r0
 387:smtc_modem_core/modem_supervisor/modem_supervisor.c ****             modem_supervisor_add_task( &upload_task );
 1618              		.loc 1 387 72 view .LVU445
 1619 0144 3800     		movs	r0, r7
 1620 0146 FFF7FEFF 		bl	bsp_rng_get_random_in_range
 1621              	.LVL199:
 387:smtc_modem_core/modem_supervisor/modem_supervisor.c ****             modem_supervisor_add_task( &upload_task );
 1622              		.loc 1 387 70 view .LVU446
 1623 014a 2018     		adds	r0, r4, r0
 1624 014c 8019     		adds	r0, r0, r6
 386:smtc_modem_core/modem_supervisor/modem_supervisor.c ****                 bsp_rtc_get_time_s( ) + modem_upload_avgdelay_get( ) + bsp_rng_get_random_in_range(
 1625              		.loc 1 386 43 view .LVU447
 1626 014e 0190     		str	r0, [sp, #4]
 388:smtc_modem_core/modem_supervisor/modem_supervisor.c ****         }
 1627              		.loc 1 388 13 is_stmt 1 view .LVU448
 1628 0150 6846     		mov	r0, sp
 1629 0152 FFF7FEFF 		bl	modem_supervisor_add_task
 1630              	.LVL200:
 1631 0156 B6E7     		b	.L89
 1632              	.L92:
 1633              	.LBE24:
 393:smtc_modem_core/modem_supervisor/modem_supervisor.c ****         {
 1634              		.loc 1 393 9 view .LVU449
 393:smtc_modem_core/modem_supervisor/modem_supervisor.c ****         {
 1635              		.loc 1 393 13 is_stmt 0 view .LVU450
 1636 0158 FFF7FEFF 		bl	get_modem_muted
ARM GAS  /var/folders/bq/yv49bw8j2kd6w3hsq868qv180000gn/T//cck61hoc.s 			page 44


 1637              	.LVL201:
 393:smtc_modem_core/modem_supervisor/modem_supervisor.c ****         {
 1638              		.loc 1 393 11 view .LVU451
 1639 015c 0128     		cmp	r0, #1
 1640 015e B2D1     		bne	.L89
 395:smtc_modem_core/modem_supervisor/modem_supervisor.c ****         }
 1641              		.loc 1 395 13 is_stmt 1 view .LVU452
 1642 0160 FFF7FEFF 		bl	modem_supervisor_add_task_modem_mute
 1643              	.LVL202:
 1644 0164 AFE7     		b	.L89
 1645              	.L90:
 1646              	.LBB25:
 400:smtc_modem_core/modem_supervisor/modem_supervisor.c ****         get_dm_retrieve_pending_dl( &retrieve );
 1647              		.loc 1 400 9 view .LVU453
 401:smtc_modem_core/modem_supervisor/modem_supervisor.c ****         retrieve.up_count--;
 1648              		.loc 1 401 9 view .LVU454
 1649 0166 6846     		mov	r0, sp
 1650 0168 FFF7FEFF 		bl	get_dm_retrieve_pending_dl
 1651              	.LVL203:
 402:smtc_modem_core/modem_supervisor/modem_supervisor.c **** 
 1652              		.loc 1 402 9 view .LVU455
 402:smtc_modem_core/modem_supervisor/modem_supervisor.c **** 
 1653              		.loc 1 402 26 is_stmt 0 view .LVU456
 1654 016c 6B46     		mov	r3, sp
 1655 016e 1878     		ldrb	r0, [r3]
 404:smtc_modem_core/modem_supervisor/modem_supervisor.c ****         if( retrieve.up_count > 0 )
 1656              		.loc 1 404 9 view .LVU457
 1657 0170 5978     		ldrb	r1, [r3, #1]
 402:smtc_modem_core/modem_supervisor/modem_supervisor.c **** 
 1658              		.loc 1 402 26 view .LVU458
 1659 0172 0138     		subs	r0, r0, #1
 1660 0174 C0B2     		uxtb	r0, r0
 1661 0176 1870     		strb	r0, [r3]
 404:smtc_modem_core/modem_supervisor/modem_supervisor.c ****         if( retrieve.up_count > 0 )
 1662              		.loc 1 404 9 is_stmt 1 view .LVU459
 1663 0178 FFF7FEFF 		bl	set_dm_retrieve_pending_dl
 1664              	.LVL204:
 405:smtc_modem_core/modem_supervisor/modem_supervisor.c ****         {
 1665              		.loc 1 405 9 view .LVU460
 405:smtc_modem_core/modem_supervisor/modem_supervisor.c ****         {
 1666              		.loc 1 405 11 is_stmt 0 view .LVU461
 1667 017c 6B46     		mov	r3, sp
 1668 017e 1B78     		ldrb	r3, [r3]
 1669 0180 002B     		cmp	r3, #0
 1670 0182 A0D0     		beq	.L89
 407:smtc_modem_core/modem_supervisor/modem_supervisor.c ****         }
 1671              		.loc 1 407 13 is_stmt 1 view .LVU462
 1672 0184 6B46     		mov	r3, sp
 1673 0186 5878     		ldrb	r0, [r3, #1]
 1674 0188 FFF7FEFF 		bl	modem_supervisor_add_task_retrieve_dl
 1675              	.LVL205:
 410:smtc_modem_core/modem_supervisor/modem_supervisor.c ****     }
 1676              		.loc 1 410 9 view .LVU463
 1677 018c 9BE7     		b	.L89
 1678              	.L121:
 1679 018e C046     		.align	2
 1680              	.L120:
ARM GAS  /var/folders/bq/yv49bw8j2kd6w3hsq868qv180000gn/T//cck61hoc.s 			page 45


 1681 0190 00000000 		.word	.LC4
 1682 0194 08000000 		.word	.LC6
 1683 0198 00000000 		.word	.LC77
 1684 019c 3E000000 		.word	.LC10
 1685 01a0 00000000 		.word	.LANCHOR4
 1686 01a4 00000000 		.word	.LANCHOR2
 1687 01a8 00000000 		.word	.LANCHOR3
 1688 01ac 00000000 		.word	.LANCHOR1
 1689              	.LBE25:
 1690              		.cfi_endproc
 1691              	.LFE14:
 1693              		.global	__aeabi_idiv
 1694              		.section	.rodata.modem_supervisor_scheduler.str1.1,"aMS",%progbits,1
 1695              	.LC87:
 1696 0000 44757479 		.ascii	"Duty Cycle, remaining time: %ds\012\000"
 1696      20437963 
 1696      6C652C20 
 1696      72656D61 
 1696      696E696E 
 1697              		.section	.text.modem_supervisor_scheduler,"ax",%progbits
 1698              		.align	1
 1699              		.global	modem_supervisor_scheduler
 1700              		.syntax unified
 1701              		.code	16
 1702              		.thumb_func
 1703              		.fpu softvfp
 1705              	modem_supervisor_scheduler:
 1706              	.LFB15:
 417:smtc_modem_core/modem_supervisor/modem_supervisor.c **** 
 418:smtc_modem_core/modem_supervisor/modem_supervisor.c **** uint32_t modem_supervisor_scheduler( void )
 419:smtc_modem_core/modem_supervisor/modem_supervisor.c **** {
 1707              		.loc 1 419 1 view -0
 1708              		.cfi_startproc
 1709              		@ args = 0, pretend = 0, frame = 16
 1710              		@ frame_needed = 0, uses_anonymous_args = 0
 420:smtc_modem_core/modem_supervisor/modem_supervisor.c ****     // Check first if stack state is idle
 421:smtc_modem_core/modem_supervisor/modem_supervisor.c ****     if( lorawan_api_state_get( ) != LWPSTATE_IDLE )
 1711              		.loc 1 421 5 view .LVU465
 419:smtc_modem_core/modem_supervisor/modem_supervisor.c ****     // Check first if stack state is idle
 1712              		.loc 1 419 1 is_stmt 0 view .LVU466
 1713 0000 F0B5     		push	{r4, r5, r6, r7, lr}
 1714              		.cfi_def_cfa_offset 20
 1715              		.cfi_offset 4, -20
 1716              		.cfi_offset 5, -16
 1717              		.cfi_offset 6, -12
 1718              		.cfi_offset 7, -8
 1719              		.cfi_offset 14, -4
 1720 0002 85B0     		sub	sp, sp, #20
 1721              		.cfi_def_cfa_offset 40
 1722              		.loc 1 421 9 view .LVU467
 1723 0004 FFF7FEFF 		bl	lorawan_api_state_get
 1724              	.LVL206:
 1725 0008 071E     		subs	r7, r0, #0
 1726              		.loc 1 421 7 view .LVU468
 1727 000a 00D0     		beq	.LCB1376
 1728 000c 6DE0     		b	.L133	@long jump
 1729              	.LCB1376:
ARM GAS  /var/folders/bq/yv49bw8j2kd6w3hsq868qv180000gn/T//cck61hoc.s 			page 46


 422:smtc_modem_core/modem_supervisor/modem_supervisor.c ****     {
 423:smtc_modem_core/modem_supervisor/modem_supervisor.c ****         return ( CALL_LR1MAC_PERIOD_MS );
 424:smtc_modem_core/modem_supervisor/modem_supervisor.c ****     }
 425:smtc_modem_core/modem_supervisor/modem_supervisor.c **** 
 426:smtc_modem_core/modem_supervisor/modem_supervisor.c ****     if( task_manager.next_task_id != IDLE_TASK )
 1730              		.loc 1 426 5 is_stmt 1 view .LVU469
 1731              		.loc 1 426 21 is_stmt 0 view .LVU470
 1732 000e 384C     		ldr	r4, .L145
 1733 0010 2500     		movs	r5, r4
 1734 0012 F135     		adds	r5, r5, #241
 1735 0014 2878     		ldrb	r0, [r5]
 1736              		.loc 1 426 7 view .LVU471
 1737 0016 0628     		cmp	r0, #6
 1738 0018 03D0     		beq	.L124
 427:smtc_modem_core/modem_supervisor/modem_supervisor.c ****     {
 428:smtc_modem_core/modem_supervisor/modem_supervisor.c ****         modem_supervisor_update_task( task_manager.next_task_id );
 1739              		.loc 1 428 9 is_stmt 1 view .LVU472
 1740 001a FFF7FEFF 		bl	modem_supervisor_update_task
 1741              	.LVL207:
 429:smtc_modem_core/modem_supervisor/modem_supervisor.c ****         task_manager.next_task_id = IDLE_TASK;
 1742              		.loc 1 429 9 view .LVU473
 1743              		.loc 1 429 35 is_stmt 0 view .LVU474
 1744 001e 0623     		movs	r3, #6
 1745 0020 2B70     		strb	r3, [r5]
 1746              	.L124:
 419:smtc_modem_core/modem_supervisor/modem_supervisor.c ****     // Check first if stack state is idle
 1747              		.loc 1 419 1 view .LVU475
 1748 0022 0023     		movs	r3, #0
 1749 0024 0193     		str	r3, [sp, #4]
 1750 0026 334B     		ldr	r3, .L145+4
 1751 0028 2600     		movs	r6, r4
 1752 002a 0093     		str	r3, [sp]
 1753 002c 0423     		movs	r3, #4
 1754 002e 2500     		movs	r5, r4
 1755 0030 0293     		str	r3, [sp, #8]
 1756              	.L126:
 1757              	.LVL208:
 1758              	.LBB26:
 430:smtc_modem_core/modem_supervisor/modem_supervisor.c ****     }
 431:smtc_modem_core/modem_supervisor/modem_supervisor.c **** 
 432:smtc_modem_core/modem_supervisor/modem_supervisor.c ****     eTask_priority next_task_priority = TASK_FINISH;
 433:smtc_modem_core/modem_supervisor/modem_supervisor.c ****     int32_t        next_task_time     = MODEM_MAX_TIME;
 434:smtc_modem_core/modem_supervisor/modem_supervisor.c **** 
 435:smtc_modem_core/modem_supervisor/modem_supervisor.c ****     // Find the highest priority task in the past
 436:smtc_modem_core/modem_supervisor/modem_supervisor.c ****     for( task_id_t i = 0; i < NUMBER_OF_TASKS; i++ )
 437:smtc_modem_core/modem_supervisor/modem_supervisor.c ****     {
 438:smtc_modem_core/modem_supervisor/modem_supervisor.c ****         if( task_manager.modem_task[i].priority != TASK_FINISH )
 1759              		.loc 1 438 9 is_stmt 1 view .LVU476
 1760              		.loc 1 438 11 is_stmt 0 view .LVU477
 1761 0032 2B7A     		ldrb	r3, [r5, #8]
 1762 0034 042B     		cmp	r3, #4
 1763 0036 11D0     		beq	.L125
 1764              	.LBB27:
 439:smtc_modem_core/modem_supervisor/modem_supervisor.c ****         {
 440:smtc_modem_core/modem_supervisor/modem_supervisor.c ****             int32_t next_task_time_tmp =
 1765              		.loc 1 440 13 is_stmt 1 view .LVU478
 441:smtc_modem_core/modem_supervisor/modem_supervisor.c ****                 ( int32_t )( task_manager.modem_task[i].time_to_execute_s - bsp_rtc_get_time_s( ) )
ARM GAS  /var/folders/bq/yv49bw8j2kd6w3hsq868qv180000gn/T//cck61hoc.s 			page 47


 1766              		.loc 1 441 56 is_stmt 0 view .LVU479
 1767 0038 6B68     		ldr	r3, [r5, #4]
 1768 003a 0393     		str	r3, [sp, #12]
 1769              		.loc 1 441 77 view .LVU480
 1770 003c FFF7FEFF 		bl	bsp_rtc_get_time_s
 1771              	.LVL209:
 1772              		.loc 1 441 75 view .LVU481
 1773 0040 039B     		ldr	r3, [sp, #12]
 1774 0042 191A     		subs	r1, r3, r0
 1775              	.LVL210:
 442:smtc_modem_core/modem_supervisor/modem_supervisor.c **** 
 443:smtc_modem_core/modem_supervisor/modem_supervisor.c ****             if( ( next_task_time_tmp <= 0 ) && ( task_manager.modem_task[i].priority < next_task_pr
 1776              		.loc 1 443 13 is_stmt 1 view .LVU482
 1777              		.loc 1 443 15 is_stmt 0 view .LVU483
 1778 0044 0029     		cmp	r1, #0
 1779 0046 09DC     		bgt	.L125
 1780              		.loc 1 443 76 discriminator 1 view .LVU484
 1781 0048 2B7A     		ldrb	r3, [r5, #8]
 1782              		.loc 1 443 45 discriminator 1 view .LVU485
 1783 004a 029A     		ldr	r2, [sp, #8]
 1784 004c 9342     		cmp	r3, r2
 1785 004e 05D2     		bcs	.L125
 444:smtc_modem_core/modem_supervisor/modem_supervisor.c ****             {
 445:smtc_modem_core/modem_supervisor/modem_supervisor.c ****                 next_task_priority        = task_manager.modem_task[i].priority;
 1786              		.loc 1 445 17 is_stmt 1 view .LVU486
 1787              	.LVL211:
 446:smtc_modem_core/modem_supervisor/modem_supervisor.c ****                 next_task_time            = next_task_time_tmp;
 1788              		.loc 1 446 17 view .LVU487
 447:smtc_modem_core/modem_supervisor/modem_supervisor.c ****                 task_manager.next_task_id = ( task_id_t ) i;
 1789              		.loc 1 447 17 view .LVU488
 1790              		.loc 1 447 43 is_stmt 0 view .LVU489
 1791 0050 2200     		movs	r2, r4
 1792 0052 0198     		ldr	r0, [sp, #4]
 1793 0054 F132     		adds	r2, r2, #241
 1794 0056 1070     		strb	r0, [r2]
 1795 0058 0091     		str	r1, [sp]
 1796 005a 0293     		str	r3, [sp, #8]
 1797              	.LVL212:
 1798              	.L125:
 1799              		.loc 1 447 43 view .LVU490
 1800              	.LBE27:
 436:smtc_modem_core/modem_supervisor/modem_supervisor.c ****     {
 1801              		.loc 1 436 48 is_stmt 1 discriminator 2 view .LVU491
 436:smtc_modem_core/modem_supervisor/modem_supervisor.c ****     {
 1802              		.loc 1 436 49 is_stmt 0 discriminator 2 view .LVU492
 1803 005c 019B     		ldr	r3, [sp, #4]
 1804 005e 1435     		adds	r5, r5, #20
 1805 0060 0133     		adds	r3, r3, #1
 1806 0062 DBB2     		uxtb	r3, r3
 1807 0064 0193     		str	r3, [sp, #4]
 1808              	.LVL213:
 436:smtc_modem_core/modem_supervisor/modem_supervisor.c ****     {
 1809              		.loc 1 436 27 is_stmt 1 discriminator 2 view .LVU493
 436:smtc_modem_core/modem_supervisor/modem_supervisor.c ****     {
 1810              		.loc 1 436 5 is_stmt 0 discriminator 2 view .LVU494
 1811 0066 0C2B     		cmp	r3, #12
 1812 0068 E3D1     		bne	.L126
ARM GAS  /var/folders/bq/yv49bw8j2kd6w3hsq868qv180000gn/T//cck61hoc.s 			page 48


 1813              	.LBE26:
 448:smtc_modem_core/modem_supervisor/modem_supervisor.c ****             }
 449:smtc_modem_core/modem_supervisor/modem_supervisor.c ****         }
 450:smtc_modem_core/modem_supervisor/modem_supervisor.c ****     }
 451:smtc_modem_core/modem_supervisor/modem_supervisor.c **** 
 452:smtc_modem_core/modem_supervisor/modem_supervisor.c ****     // No task in the past was found, select the least in the future for wake up
 453:smtc_modem_core/modem_supervisor/modem_supervisor.c ****     if( next_task_priority == TASK_FINISH )
 1814              		.loc 1 453 5 is_stmt 1 view .LVU495
 1815              		.loc 1 453 7 is_stmt 0 view .LVU496
 1816 006a 029B     		ldr	r3, [sp, #8]
 1817 006c 042B     		cmp	r3, #4
 1818 006e 12D1     		bne	.L127
 1819              	.L129:
 1820              	.LVL214:
 1821              	.LBB28:
 454:smtc_modem_core/modem_supervisor/modem_supervisor.c ****     {
 455:smtc_modem_core/modem_supervisor/modem_supervisor.c ****         for( task_id_t i = 0; i < NUMBER_OF_TASKS; i++ )
 456:smtc_modem_core/modem_supervisor/modem_supervisor.c ****         {
 457:smtc_modem_core/modem_supervisor/modem_supervisor.c ****             if( task_manager.modem_task[i].priority != TASK_FINISH )
 1822              		.loc 1 457 13 is_stmt 1 view .LVU497
 1823              		.loc 1 457 15 is_stmt 0 view .LVU498
 1824 0070 337A     		ldrb	r3, [r6, #8]
 1825 0072 042B     		cmp	r3, #4
 1826 0074 0AD0     		beq	.L128
 1827              	.LBB29:
 458:smtc_modem_core/modem_supervisor/modem_supervisor.c ****             {
 459:smtc_modem_core/modem_supervisor/modem_supervisor.c ****                 int32_t next_task_time_tmp =
 1828              		.loc 1 459 17 is_stmt 1 view .LVU499
 460:smtc_modem_core/modem_supervisor/modem_supervisor.c ****                     ( int32_t )( task_manager.modem_task[i].time_to_execute_s - bsp_rtc_get_time_s(
 1829              		.loc 1 460 60 is_stmt 0 view .LVU500
 1830 0076 7568     		ldr	r5, [r6, #4]
 1831              		.loc 1 460 81 view .LVU501
 1832 0078 FFF7FEFF 		bl	bsp_rtc_get_time_s
 1833              	.LVL215:
 461:smtc_modem_core/modem_supervisor/modem_supervisor.c ****                 if( next_task_time_tmp < next_task_time )
 1834              		.loc 1 461 19 view .LVU502
 1835 007c 009B     		ldr	r3, [sp]
 460:smtc_modem_core/modem_supervisor/modem_supervisor.c ****                     ( int32_t )( task_manager.modem_task[i].time_to_execute_s - bsp_rtc_get_time_s(
 1836              		.loc 1 460 79 view .LVU503
 1837 007e 2D1A     		subs	r5, r5, r0
 1838              	.LVL216:
 1839              		.loc 1 461 17 is_stmt 1 view .LVU504
 1840              		.loc 1 461 19 is_stmt 0 view .LVU505
 1841 0080 9D42     		cmp	r5, r3
 1842 0082 03DA     		bge	.L128
 462:smtc_modem_core/modem_supervisor/modem_supervisor.c ****                 {
 463:smtc_modem_core/modem_supervisor/modem_supervisor.c ****                     next_task_time            = next_task_time_tmp;
 1843              		.loc 1 463 21 is_stmt 1 view .LVU506
 1844              	.LVL217:
 464:smtc_modem_core/modem_supervisor/modem_supervisor.c ****                     task_manager.next_task_id = ( task_id_t ) i;
 1845              		.loc 1 464 21 view .LVU507
 1846              		.loc 1 464 47 is_stmt 0 view .LVU508
 1847 0084 2300     		movs	r3, r4
 1848 0086 F133     		adds	r3, r3, #241
 1849 0088 1F70     		strb	r7, [r3]
 1850 008a 0095     		str	r5, [sp]
 1851              	.LVL218:
ARM GAS  /var/folders/bq/yv49bw8j2kd6w3hsq868qv180000gn/T//cck61hoc.s 			page 49


 1852              	.L128:
 1853              		.loc 1 464 47 view .LVU509
 1854              	.LBE29:
 455:smtc_modem_core/modem_supervisor/modem_supervisor.c ****         {
 1855              		.loc 1 455 52 is_stmt 1 discriminator 2 view .LVU510
 455:smtc_modem_core/modem_supervisor/modem_supervisor.c ****         {
 1856              		.loc 1 455 53 is_stmt 0 discriminator 2 view .LVU511
 1857 008c 0137     		adds	r7, r7, #1
 1858              	.LVL219:
 455:smtc_modem_core/modem_supervisor/modem_supervisor.c ****         {
 1859              		.loc 1 455 53 discriminator 2 view .LVU512
 1860 008e FFB2     		uxtb	r7, r7
 1861              	.LVL220:
 455:smtc_modem_core/modem_supervisor/modem_supervisor.c ****         {
 1862              		.loc 1 455 31 is_stmt 1 discriminator 2 view .LVU513
 1863 0090 1436     		adds	r6, r6, #20
 455:smtc_modem_core/modem_supervisor/modem_supervisor.c ****         {
 1864              		.loc 1 455 9 is_stmt 0 discriminator 2 view .LVU514
 1865 0092 0C2F     		cmp	r7, #12
 1866 0094 ECD1     		bne	.L129
 1867              	.LVL221:
 1868              	.L127:
 455:smtc_modem_core/modem_supervisor/modem_supervisor.c ****         {
 1869              		.loc 1 455 9 discriminator 2 view .LVU515
 1870              	.LBE28:
 465:smtc_modem_core/modem_supervisor/modem_supervisor.c ****                 }
 466:smtc_modem_core/modem_supervisor/modem_supervisor.c ****             }
 467:smtc_modem_core/modem_supervisor/modem_supervisor.c ****         }
 468:smtc_modem_core/modem_supervisor/modem_supervisor.c ****     }
 469:smtc_modem_core/modem_supervisor/modem_supervisor.c **** 
 470:smtc_modem_core/modem_supervisor/modem_supervisor.c ****     int32_t next_free_dtc = lorawan_api_next_free_duty_cycle_ms_get( );
 1871              		.loc 1 470 5 is_stmt 1 view .LVU516
 1872              		.loc 1 470 29 is_stmt 0 view .LVU517
 1873 0096 FFF7FEFF 		bl	lorawan_api_next_free_duty_cycle_ms_get
 1874              	.LVL222:
 1875 009a 051E     		subs	r5, r0, #0
 1876              	.LVL223:
 471:smtc_modem_core/modem_supervisor/modem_supervisor.c ****     if( next_free_dtc > 0 )
 1877              		.loc 1 471 5 is_stmt 1 view .LVU518
 1878              		.loc 1 471 7 is_stmt 0 view .LVU519
 1879 009c 11DD     		ble	.L130
 472:smtc_modem_core/modem_supervisor/modem_supervisor.c ****     {
 473:smtc_modem_core/modem_supervisor/modem_supervisor.c ****         next_free_dtc = ( next_free_dtc / 1000 ) + 1;
 1880              		.loc 1 473 9 is_stmt 1 view .LVU520
 1881              		.loc 1 473 41 is_stmt 0 view .LVU521
 1882 009e FA21     		movs	r1, #250
 1883 00a0 8900     		lsls	r1, r1, #2
 1884 00a2 FFF7FEFF 		bl	__aeabi_idiv
 1885              	.LVL224:
 1886              		.loc 1 473 23 view .LVU522
 1887 00a6 451C     		adds	r5, r0, #1
 1888              	.LVL225:
 474:smtc_modem_core/modem_supervisor/modem_supervisor.c ****         BSP_DBG_TRACE_WARNING( "Duty Cycle, remaining time: %ds\n", next_free_dtc );
 1889              		.loc 1 474 9 is_stmt 1 view .LVU523
 1890              		.loc 1 474 9 view .LVU524
 1891 00a8 1348     		ldr	r0, .L145+8
 1892 00aa FFF7FEFF 		bl	bsp_trace_print
ARM GAS  /var/folders/bq/yv49bw8j2kd6w3hsq868qv180000gn/T//cck61hoc.s 			page 50


 1893              	.LVL226:
 1894              		.loc 1 474 9 view .LVU525
 1895 00ae 1348     		ldr	r0, .L145+12
 1896 00b0 FFF7FEFF 		bl	bsp_trace_print
 1897              	.LVL227:
 1898              		.loc 1 474 9 view .LVU526
 1899 00b4 1248     		ldr	r0, .L145+16
 1900 00b6 2900     		movs	r1, r5
 1901 00b8 FFF7FEFF 		bl	bsp_trace_print
 1902              	.LVL228:
 1903              		.loc 1 474 9 view .LVU527
 1904 00bc 1148     		ldr	r0, .L145+20
 1905 00be FFF7FEFF 		bl	bsp_trace_print
 1906              	.LVL229:
 1907              	.L130:
 1908              		.loc 1 474 9 discriminator 1 view .LVU528
 1909              		.loc 1 474 84 discriminator 1 view .LVU529
 475:smtc_modem_core/modem_supervisor/modem_supervisor.c ****     }
 476:smtc_modem_core/modem_supervisor/modem_supervisor.c **** 
 477:smtc_modem_core/modem_supervisor/modem_supervisor.c ****     next_task_time = ( next_task_time > next_free_dtc ) ? next_task_time : next_free_dtc;
 1910              		.loc 1 477 5 discriminator 1 view .LVU530
 1911              		.loc 1 477 20 is_stmt 0 discriminator 1 view .LVU531
 1912 00c2 0098     		ldr	r0, [sp]
 1913 00c4 A842     		cmp	r0, r5
 1914 00c6 00DA     		bge	.L131
 1915 00c8 2800     		movs	r0, r5
 1916              	.L131:
 1917              	.LVL230:
 478:smtc_modem_core/modem_supervisor/modem_supervisor.c **** 
 479:smtc_modem_core/modem_supervisor/modem_supervisor.c ****     if( next_task_time > 0 )
 1918              		.loc 1 479 5 is_stmt 1 discriminator 1 view .LVU532
 1919              		.loc 1 479 7 is_stmt 0 discriminator 1 view .LVU533
 1920 00ca 0028     		cmp	r0, #0
 1921 00cc 07DD     		ble	.L132
 480:smtc_modem_core/modem_supervisor/modem_supervisor.c ****     {
 481:smtc_modem_core/modem_supervisor/modem_supervisor.c ****         task_manager.sleep_duration = next_task_time;
 1922              		.loc 1 481 9 is_stmt 1 view .LVU534
 1923              		.loc 1 481 37 is_stmt 0 view .LVU535
 1924 00ce 2300     		movs	r3, r4
 1925 00d0 F433     		adds	r3, r3, #244
 1926 00d2 1860     		str	r0, [r3]
 482:smtc_modem_core/modem_supervisor/modem_supervisor.c ****         task_manager.next_task_id   = IDLE_TASK;
 1927              		.loc 1 482 9 is_stmt 1 view .LVU536
 1928              		.loc 1 482 37 is_stmt 0 view .LVU537
 1929 00d4 0623     		movs	r3, #6
 1930 00d6 F134     		adds	r4, r4, #241
 1931 00d8 2370     		strb	r3, [r4]
 483:smtc_modem_core/modem_supervisor/modem_supervisor.c ****         return ( next_task_time );
 1932              		.loc 1 483 9 is_stmt 1 view .LVU538
 1933              	.LVL231:
 1934              	.L122:
 484:smtc_modem_core/modem_supervisor/modem_supervisor.c ****     }
 485:smtc_modem_core/modem_supervisor/modem_supervisor.c ****     else
 486:smtc_modem_core/modem_supervisor/modem_supervisor.c ****     {
 487:smtc_modem_core/modem_supervisor/modem_supervisor.c ****         modem_supervisor_launch_task( task_manager.next_task_id );
 488:smtc_modem_core/modem_supervisor/modem_supervisor.c ****         return 0;
 489:smtc_modem_core/modem_supervisor/modem_supervisor.c ****     }
ARM GAS  /var/folders/bq/yv49bw8j2kd6w3hsq868qv180000gn/T//cck61hoc.s 			page 51


 490:smtc_modem_core/modem_supervisor/modem_supervisor.c **** }
 1935              		.loc 1 490 1 is_stmt 0 view .LVU539
 1936 00da 05B0     		add	sp, sp, #20
 1937              		@ sp needed
 1938 00dc F0BD     		pop	{r4, r5, r6, r7, pc}
 1939              	.LVL232:
 1940              	.L132:
 487:smtc_modem_core/modem_supervisor/modem_supervisor.c ****         return 0;
 1941              		.loc 1 487 9 is_stmt 1 view .LVU540
 1942 00de F134     		adds	r4, r4, #241
 1943 00e0 2078     		ldrb	r0, [r4]
 1944              	.LVL233:
 487:smtc_modem_core/modem_supervisor/modem_supervisor.c ****         return 0;
 1945              		.loc 1 487 9 is_stmt 0 view .LVU541
 1946 00e2 FFF7FEFF 		bl	modem_supervisor_launch_task
 1947              	.LVL234:
 488:smtc_modem_core/modem_supervisor/modem_supervisor.c ****     }
 1948              		.loc 1 488 9 is_stmt 1 view .LVU542
 488:smtc_modem_core/modem_supervisor/modem_supervisor.c ****     }
 1949              		.loc 1 488 16 is_stmt 0 view .LVU543
 1950 00e6 0020     		movs	r0, #0
 1951 00e8 F7E7     		b	.L122
 1952              	.LVL235:
 1953              	.L133:
 423:smtc_modem_core/modem_supervisor/modem_supervisor.c ****     }
 1954              		.loc 1 423 16 view .LVU544
 1955 00ea C820     		movs	r0, #200
 1956 00ec 4000     		lsls	r0, r0, #1
 1957 00ee F4E7     		b	.L122
 1958              	.L146:
 1959              		.align	2
 1960              	.L145:
 1961 00f0 00000000 		.word	task_manager
 1962 00f4 FFFF1F00 		.word	2097151
 1963 00f8 5D000000 		.word	.LC33
 1964 00fc 65000000 		.word	.LC35
 1965 0100 00000000 		.word	.LC87
 1966 0104 3E000000 		.word	.LC10
 1967              		.cfi_endproc
 1968              	.LFE15:
 1970              		.section	.rodata.modem_supervisor_engine.str1.1,"aMS",%progbits,1
 1971              	.LC97:
 1972 0000 4E657874 		.ascii	"Next task in %lu\012\000"
 1972      20746173 
 1972      6B20696E 
 1972      20256C75 
 1972      0A00
 1973              		.section	.text.modem_supervisor_engine,"ax",%progbits
 1974              		.align	1
 1975              		.global	modem_supervisor_engine
 1976              		.syntax unified
 1977              		.code	16
 1978              		.thumb_func
 1979              		.fpu softvfp
 1981              	modem_supervisor_engine:
 1982              	.LFB16:
 491:smtc_modem_core/modem_supervisor/modem_supervisor.c **** 
ARM GAS  /var/folders/bq/yv49bw8j2kd6w3hsq868qv180000gn/T//cck61hoc.s 			page 52


 492:smtc_modem_core/modem_supervisor/modem_supervisor.c **** uint32_t modem_supervisor_engine( void )
 493:smtc_modem_core/modem_supervisor/modem_supervisor.c **** {
 1983              		.loc 1 493 1 is_stmt 1 view -0
 1984              		.cfi_startproc
 1985              		@ args = 0, pretend = 0, frame = 0
 1986              		@ frame_needed = 0, uses_anonymous_args = 0
 494:smtc_modem_core/modem_supervisor/modem_supervisor.c ****     // manage reset requested by the host
 495:smtc_modem_core/modem_supervisor/modem_supervisor.c ****     if( get_modem_reset_requested( ) == true )
 1987              		.loc 1 495 5 view .LVU546
 493:smtc_modem_core/modem_supervisor/modem_supervisor.c ****     // manage reset requested by the host
 1988              		.loc 1 493 1 is_stmt 0 view .LVU547
 1989 0000 70B5     		push	{r4, r5, r6, lr}
 1990              		.cfi_def_cfa_offset 16
 1991              		.cfi_offset 4, -16
 1992              		.cfi_offset 5, -12
 1993              		.cfi_offset 6, -8
 1994              		.cfi_offset 14, -4
 1995              		.loc 1 495 9 view .LVU548
 1996 0002 FFF7FEFF 		bl	get_modem_reset_requested
 1997              	.LVL236:
 1998              		.loc 1 495 7 view .LVU549
 1999 0006 0028     		cmp	r0, #0
 2000 0008 06D0     		beq	.L148
 496:smtc_modem_core/modem_supervisor/modem_supervisor.c ****     {
 497:smtc_modem_core/modem_supervisor/modem_supervisor.c ****         bsp_disable_irq( );
 2001              		.loc 1 497 9 is_stmt 1 view .LVU550
 2002 000a FFF7FEFF 		bl	bsp_disable_irq
 2003              	.LVL237:
 498:smtc_modem_core/modem_supervisor/modem_supervisor.c ****         // workaround to avoid issue when reset too fast after a store context
 499:smtc_modem_core/modem_supervisor/modem_supervisor.c ****         bsp_mcu_wait_us( 2000000 );
 2004              		.loc 1 499 9 view .LVU551
 2005 000e 3548     		ldr	r0, .L184
 2006 0010 FFF7FEFF 		bl	bsp_mcu_wait_us
 2007              	.LVL238:
 500:smtc_modem_core/modem_supervisor/modem_supervisor.c **** 
 501:smtc_modem_core/modem_supervisor/modem_supervisor.c ****         bsp_mcu_reset( );
 2008              		.loc 1 501 9 view .LVU552
 2009 0014 FFF7FEFF 		bl	bsp_mcu_reset
 2010              	.LVL239:
 2011              	.L148:
 502:smtc_modem_core/modem_supervisor/modem_supervisor.c ****     }
 503:smtc_modem_core/modem_supervisor/modem_supervisor.c **** 
 504:smtc_modem_core/modem_supervisor/modem_supervisor.c ****     uint32_t alarm                 = modem_get_user_alarm( );
 2012              		.loc 1 504 5 view .LVU553
 2013              		.loc 1 504 38 is_stmt 0 view .LVU554
 2014 0018 FFF7FEFF 		bl	modem_get_user_alarm
 2015              	.LVL240:
 2016 001c 041E     		subs	r4, r0, #0
 2017              	.LVL241:
 505:smtc_modem_core/modem_supervisor/modem_supervisor.c ****     int32_t  user_alarm_in_seconds = MODEM_MAX_ALARM_S;
 2018              		.loc 1 505 5 is_stmt 1 view .LVU555
 506:smtc_modem_core/modem_supervisor/modem_supervisor.c ****     // manage the user alarm
 507:smtc_modem_core/modem_supervisor/modem_supervisor.c ****     if( alarm != 0 )
 2019              		.loc 1 507 5 view .LVU556
 2020              		.loc 1 507 7 is_stmt 0 view .LVU557
 2021 001e 0BD0     		beq	.L161
 508:smtc_modem_core/modem_supervisor/modem_supervisor.c ****     {
ARM GAS  /var/folders/bq/yv49bw8j2kd6w3hsq868qv180000gn/T//cck61hoc.s 			page 53


 509:smtc_modem_core/modem_supervisor/modem_supervisor.c ****         user_alarm_in_seconds = ( int32_t )( alarm - bsp_rtc_get_time_s( ) );
 2022              		.loc 1 509 9 is_stmt 1 view .LVU558
 2023              		.loc 1 509 54 is_stmt 0 view .LVU559
 2024 0020 FFF7FEFF 		bl	bsp_rtc_get_time_s
 2025              	.LVL242:
 2026              		.loc 1 509 52 view .LVU560
 2027 0024 241A     		subs	r4, r4, r0
 2028              	.LVL243:
 510:smtc_modem_core/modem_supervisor/modem_supervisor.c **** 
 511:smtc_modem_core/modem_supervisor/modem_supervisor.c ****         if( user_alarm_in_seconds <= 0 )
 2029              		.loc 1 511 9 is_stmt 1 view .LVU561
 2030              		.loc 1 511 11 is_stmt 0 view .LVU562
 2031 0026 002C     		cmp	r4, #0
 2032 0028 07DC     		bgt	.L149
 512:smtc_modem_core/modem_supervisor/modem_supervisor.c ****         {
 513:smtc_modem_core/modem_supervisor/modem_supervisor.c ****             increment_asynchronous_msgnumber( RSP_ALARM, 0 );
 2033              		.loc 1 513 13 is_stmt 1 view .LVU563
 2034 002a 0120     		movs	r0, #1
 2035 002c 0021     		movs	r1, #0
 2036 002e FFF7FEFF 		bl	increment_asynchronous_msgnumber
 2037              	.LVL244:
 514:smtc_modem_core/modem_supervisor/modem_supervisor.c ****             modem_set_user_alarm( 0 );
 2038              		.loc 1 514 13 view .LVU564
 2039 0032 0020     		movs	r0, #0
 2040 0034 FFF7FEFF 		bl	modem_set_user_alarm
 2041              	.LVL245:
 515:smtc_modem_core/modem_supervisor/modem_supervisor.c ****             user_alarm_in_seconds = MODEM_MAX_ALARM_S;
 2042              		.loc 1 515 13 view .LVU565
 2043              	.L161:
 505:smtc_modem_core/modem_supervisor/modem_supervisor.c ****     // manage the user alarm
 2044              		.loc 1 505 14 is_stmt 0 view .LVU566
 2045 0038 2B4C     		ldr	r4, .L184+4
 2046              	.LVL246:
 2047              	.L149:
 516:smtc_modem_core/modem_supervisor/modem_supervisor.c ****         }
 517:smtc_modem_core/modem_supervisor/modem_supervisor.c ****     }
 518:smtc_modem_core/modem_supervisor/modem_supervisor.c ****     uint32_t sleep_time;
 2048              		.loc 1 518 5 is_stmt 1 view .LVU567
 519:smtc_modem_core/modem_supervisor/modem_supervisor.c ****     bsp_watchdog_reload( );
 2049              		.loc 1 519 5 view .LVU568
 2050 003a FFF7FEFF 		bl	bsp_watchdog_reload
 2051              	.LVL247:
 520:smtc_modem_core/modem_supervisor/modem_supervisor.c **** 
 521:smtc_modem_core/modem_supervisor/modem_supervisor.c ****     // case Lorawan stack already in use
 522:smtc_modem_core/modem_supervisor/modem_supervisor.c ****     LpState = lorawan_api_state_get( );
 2052              		.loc 1 522 5 view .LVU569
 2053              		.loc 1 522 15 is_stmt 0 view .LVU570
 2054 003e FFF7FEFF 		bl	lorawan_api_state_get
 2055              	.LVL248:
 523:smtc_modem_core/modem_supervisor/modem_supervisor.c ****     if( ( LpState != LWPSTATE_IDLE ) && ( LpState != LWPSTATE_ERROR ) && ( LpState != LWPSTATE_INVA
 2056              		.loc 1 523 5 is_stmt 1 view .LVU571
 2057              		.loc 1 523 7 is_stmt 0 view .LVU572
 2058 0042 0028     		cmp	r0, #0
 2059 0044 09D0     		beq	.L150
 2060              		.loc 1 523 71 discriminator 2 view .LVU573
 2061 0046 0738     		subs	r0, r0, #7
 2062 0048 C0B2     		uxtb	r0, r0
ARM GAS  /var/folders/bq/yv49bw8j2kd6w3hsq868qv180000gn/T//cck61hoc.s 			page 54


 2063 004a 0128     		cmp	r0, #1
 2064 004c 05D9     		bls	.L150
 524:smtc_modem_core/modem_supervisor/modem_supervisor.c ****     {
 525:smtc_modem_core/modem_supervisor/modem_supervisor.c ****         LpState = lorawan_api_process( &AvailableRxPacket );
 2065              		.loc 1 525 9 is_stmt 1 view .LVU574
 2066              		.loc 1 525 19 is_stmt 0 view .LVU575
 2067 004e 2748     		ldr	r0, .L184+8
 2068 0050 FFF7FEFF 		bl	lorawan_api_process
 2069              	.LVL249:
 526:smtc_modem_core/modem_supervisor/modem_supervisor.c ****         return ( CALL_LR1MAC_PERIOD_MS );
 2070              		.loc 1 526 9 is_stmt 1 view .LVU576
 2071              		.loc 1 526 16 is_stmt 0 view .LVU577
 2072 0054 C820     		movs	r0, #200
 2073 0056 4000     		lsls	r0, r0, #1
 2074              	.LVL250:
 2075              	.L147:
 527:smtc_modem_core/modem_supervisor/modem_supervisor.c ****     }
 528:smtc_modem_core/modem_supervisor/modem_supervisor.c **** 
 529:smtc_modem_core/modem_supervisor/modem_supervisor.c ****     // Call modem_supervisor_update_task to update asynchronous messages number
 530:smtc_modem_core/modem_supervisor/modem_supervisor.c ****     if( task_manager.next_task_id != IDLE_TASK )
 531:smtc_modem_core/modem_supervisor/modem_supervisor.c ****     {
 532:smtc_modem_core/modem_supervisor/modem_supervisor.c ****         modem_supervisor_update_task( task_manager.next_task_id );
 533:smtc_modem_core/modem_supervisor/modem_supervisor.c ****         task_manager.next_task_id = IDLE_TASK;
 534:smtc_modem_core/modem_supervisor/modem_supervisor.c ****     }
 535:smtc_modem_core/modem_supervisor/modem_supervisor.c **** 
 536:smtc_modem_core/modem_supervisor/modem_supervisor.c ****     uint8_t msgnumber_tmp;
 537:smtc_modem_core/modem_supervisor/modem_supervisor.c ****     do
 538:smtc_modem_core/modem_supervisor/modem_supervisor.c ****     {
 539:smtc_modem_core/modem_supervisor/modem_supervisor.c ****         if( ( get_asynchronous_msgnumber( ) > 0 ) && ( *app_callback != NULL ) )
 540:smtc_modem_core/modem_supervisor/modem_supervisor.c ****         {
 541:smtc_modem_core/modem_supervisor/modem_supervisor.c ****             app_callback( );
 542:smtc_modem_core/modem_supervisor/modem_supervisor.c ****         }
 543:smtc_modem_core/modem_supervisor/modem_supervisor.c ****         msgnumber_tmp = get_asynchronous_msgnumber( );
 544:smtc_modem_core/modem_supervisor/modem_supervisor.c ****     } while( msgnumber_tmp < get_asynchronous_msgnumber( ) );
 545:smtc_modem_core/modem_supervisor/modem_supervisor.c **** 
 546:smtc_modem_core/modem_supervisor/modem_supervisor.c ****     // Don't call the supervisor if modem is suspend
 547:smtc_modem_core/modem_supervisor/modem_supervisor.c ****     if( ( get_modem_suspend( ) == MODEM_NOT_SUSPEND ) && ( get_modem_muted( ) != MODEM_INFINITE_MUT
 548:smtc_modem_core/modem_supervisor/modem_supervisor.c ****     {
 549:smtc_modem_core/modem_supervisor/modem_supervisor.c ****         // you reach this step only if lorawan stack is in idle mode
 550:smtc_modem_core/modem_supervisor/modem_supervisor.c ****         sleep_time = modem_supervisor_scheduler( );
 551:smtc_modem_core/modem_supervisor/modem_supervisor.c ****     }
 552:smtc_modem_core/modem_supervisor/modem_supervisor.c ****     else
 553:smtc_modem_core/modem_supervisor/modem_supervisor.c ****     {
 554:smtc_modem_core/modem_supervisor/modem_supervisor.c ****         // Set Max time (7FFFFFFF>>10 ie /1024 to be compatible with *1000)
 555:smtc_modem_core/modem_supervisor/modem_supervisor.c ****         sleep_time = 0x1FFFFF;
 556:smtc_modem_core/modem_supervisor/modem_supervisor.c ****     }
 557:smtc_modem_core/modem_supervisor/modem_supervisor.c **** 
 558:smtc_modem_core/modem_supervisor/modem_supervisor.c ****     alarm = modem_get_user_alarm( );
 559:smtc_modem_core/modem_supervisor/modem_supervisor.c ****     if( alarm != 0 )
 560:smtc_modem_core/modem_supervisor/modem_supervisor.c ****     {
 561:smtc_modem_core/modem_supervisor/modem_supervisor.c ****         user_alarm_in_seconds = ( int32_t )( alarm - bsp_rtc_get_time_s( ) );
 562:smtc_modem_core/modem_supervisor/modem_supervisor.c ****         if( user_alarm_in_seconds <= 0 )
 563:smtc_modem_core/modem_supervisor/modem_supervisor.c ****         {
 564:smtc_modem_core/modem_supervisor/modem_supervisor.c ****             user_alarm_in_seconds = 0;
 565:smtc_modem_core/modem_supervisor/modem_supervisor.c ****         }
 566:smtc_modem_core/modem_supervisor/modem_supervisor.c ****     }
 567:smtc_modem_core/modem_supervisor/modem_supervisor.c **** 
ARM GAS  /var/folders/bq/yv49bw8j2kd6w3hsq868qv180000gn/T//cck61hoc.s 			page 55


 568:smtc_modem_core/modem_supervisor/modem_supervisor.c ****     sleep_time = MIN( sleep_time, ( uint32_t ) user_alarm_in_seconds );
 569:smtc_modem_core/modem_supervisor/modem_supervisor.c ****     BSP_DBG_TRACE_INFO( "Next task in %lu\n", sleep_time );
 570:smtc_modem_core/modem_supervisor/modem_supervisor.c ****     return ( 1000 * sleep_time );
 571:smtc_modem_core/modem_supervisor/modem_supervisor.c **** }
 2076              		.loc 1 571 1 view .LVU578
 2077              		@ sp needed
 2078 0058 70BD     		pop	{r4, r5, r6, pc}
 2079              	.LVL251:
 2080              	.L150:
 530:smtc_modem_core/modem_supervisor/modem_supervisor.c ****     {
 2081              		.loc 1 530 5 is_stmt 1 view .LVU579
 530:smtc_modem_core/modem_supervisor/modem_supervisor.c ****     {
 2082              		.loc 1 530 21 is_stmt 0 view .LVU580
 2083 005a 254D     		ldr	r5, .L184+12
 2084 005c F135     		adds	r5, r5, #241
 2085 005e 2878     		ldrb	r0, [r5]
 530:smtc_modem_core/modem_supervisor/modem_supervisor.c ****     {
 2086              		.loc 1 530 7 view .LVU581
 2087 0060 0628     		cmp	r0, #6
 2088 0062 03D0     		beq	.L154
 532:smtc_modem_core/modem_supervisor/modem_supervisor.c ****         task_manager.next_task_id = IDLE_TASK;
 2089              		.loc 1 532 9 is_stmt 1 view .LVU582
 2090 0064 FFF7FEFF 		bl	modem_supervisor_update_task
 2091              	.LVL252:
 533:smtc_modem_core/modem_supervisor/modem_supervisor.c ****     }
 2092              		.loc 1 533 9 view .LVU583
 533:smtc_modem_core/modem_supervisor/modem_supervisor.c ****     }
 2093              		.loc 1 533 35 is_stmt 0 view .LVU584
 2094 0068 0623     		movs	r3, #6
 2095 006a 2B70     		strb	r3, [r5]
 2096              	.L154:
 536:smtc_modem_core/modem_supervisor/modem_supervisor.c ****     do
 2097              		.loc 1 536 5 is_stmt 1 view .LVU585
 537:smtc_modem_core/modem_supervisor/modem_supervisor.c ****     {
 2098              		.loc 1 537 5 view .LVU586
 539:smtc_modem_core/modem_supervisor/modem_supervisor.c ****         {
 2099              		.loc 1 539 9 view .LVU587
 539:smtc_modem_core/modem_supervisor/modem_supervisor.c ****         {
 2100              		.loc 1 539 15 is_stmt 0 view .LVU588
 2101 006c FFF7FEFF 		bl	get_asynchronous_msgnumber
 2102              	.LVL253:
 539:smtc_modem_core/modem_supervisor/modem_supervisor.c ****         {
 2103              		.loc 1 539 11 view .LVU589
 2104 0070 0028     		cmp	r0, #0
 2105 0072 04D0     		beq	.L153
 539:smtc_modem_core/modem_supervisor/modem_supervisor.c ****         {
 2106              		.loc 1 539 70 discriminator 1 view .LVU590
 2107 0074 1F4B     		ldr	r3, .L184+16
 2108 0076 1B68     		ldr	r3, [r3]
 539:smtc_modem_core/modem_supervisor/modem_supervisor.c ****         {
 2109              		.loc 1 539 51 discriminator 1 view .LVU591
 2110 0078 002B     		cmp	r3, #0
 2111 007a 00D0     		beq	.L153
 541:smtc_modem_core/modem_supervisor/modem_supervisor.c ****         }
 2112              		.loc 1 541 13 is_stmt 1 view .LVU592
 2113 007c 9847     		blx	r3
 2114              	.LVL254:
ARM GAS  /var/folders/bq/yv49bw8j2kd6w3hsq868qv180000gn/T//cck61hoc.s 			page 56


 2115              	.L153:
 543:smtc_modem_core/modem_supervisor/modem_supervisor.c ****     } while( msgnumber_tmp < get_asynchronous_msgnumber( ) );
 2116              		.loc 1 543 9 view .LVU593
 543:smtc_modem_core/modem_supervisor/modem_supervisor.c ****     } while( msgnumber_tmp < get_asynchronous_msgnumber( ) );
 2117              		.loc 1 543 25 is_stmt 0 view .LVU594
 2118 007e FFF7FEFF 		bl	get_asynchronous_msgnumber
 2119              	.LVL255:
 2120 0082 0500     		movs	r5, r0
 2121              	.LVL256:
 544:smtc_modem_core/modem_supervisor/modem_supervisor.c **** 
 2122              		.loc 1 544 12 is_stmt 1 view .LVU595
 544:smtc_modem_core/modem_supervisor/modem_supervisor.c **** 
 2123              		.loc 1 544 30 is_stmt 0 view .LVU596
 2124 0084 FFF7FEFF 		bl	get_asynchronous_msgnumber
 2125              	.LVL257:
 544:smtc_modem_core/modem_supervisor/modem_supervisor.c **** 
 2126              		.loc 1 544 5 view .LVU597
 2127 0088 A842     		cmp	r0, r5
 2128 008a EFD8     		bhi	.L154
 547:smtc_modem_core/modem_supervisor/modem_supervisor.c ****     {
 2129              		.loc 1 547 5 is_stmt 1 view .LVU598
 547:smtc_modem_core/modem_supervisor/modem_supervisor.c ****     {
 2130              		.loc 1 547 11 is_stmt 0 view .LVU599
 2131 008c FFF7FEFF 		bl	get_modem_suspend
 2132              	.LVL258:
 547:smtc_modem_core/modem_supervisor/modem_supervisor.c ****     {
 2133              		.loc 1 547 7 view .LVU600
 2134 0090 0028     		cmp	r0, #0
 2135 0092 1AD0     		beq	.L155
 2136              	.L157:
 555:smtc_modem_core/modem_supervisor/modem_supervisor.c ****     }
 2137              		.loc 1 555 20 view .LVU601
 2138 0094 184D     		ldr	r5, .L184+20
 2139              	.LVL259:
 2140              	.L156:
 558:smtc_modem_core/modem_supervisor/modem_supervisor.c ****     if( alarm != 0 )
 2141              		.loc 1 558 5 is_stmt 1 view .LVU602
 558:smtc_modem_core/modem_supervisor/modem_supervisor.c ****     if( alarm != 0 )
 2142              		.loc 1 558 13 is_stmt 0 view .LVU603
 2143 0096 FFF7FEFF 		bl	modem_get_user_alarm
 2144              	.LVL260:
 2145 009a 061E     		subs	r6, r0, #0
 2146              	.LVL261:
 559:smtc_modem_core/modem_supervisor/modem_supervisor.c ****     {
 2147              		.loc 1 559 5 is_stmt 1 view .LVU604
 559:smtc_modem_core/modem_supervisor/modem_supervisor.c ****     {
 2148              		.loc 1 559 7 is_stmt 0 view .LVU605
 2149 009c 1DD0     		beq	.L158
 561:smtc_modem_core/modem_supervisor/modem_supervisor.c ****         if( user_alarm_in_seconds <= 0 )
 2150              		.loc 1 561 9 is_stmt 1 view .LVU606
 561:smtc_modem_core/modem_supervisor/modem_supervisor.c ****         if( user_alarm_in_seconds <= 0 )
 2151              		.loc 1 561 54 is_stmt 0 view .LVU607
 2152 009e FFF7FEFF 		bl	bsp_rtc_get_time_s
 2153              	.LVL262:
 562:smtc_modem_core/modem_supervisor/modem_supervisor.c ****         {
 2154              		.loc 1 562 9 is_stmt 1 view .LVU608
 561:smtc_modem_core/modem_supervisor/modem_supervisor.c ****         if( user_alarm_in_seconds <= 0 )
ARM GAS  /var/folders/bq/yv49bw8j2kd6w3hsq868qv180000gn/T//cck61hoc.s 			page 57


 2155              		.loc 1 561 52 is_stmt 0 view .LVU609
 2156 00a2 341A     		subs	r4, r6, r0
 2157              	.LVL263:
 561:smtc_modem_core/modem_supervisor/modem_supervisor.c ****         if( user_alarm_in_seconds <= 0 )
 2158              		.loc 1 561 52 view .LVU610
 2159 00a4 19D5     		bpl	.L158
 2160 00a6 0024     		movs	r4, #0
 2161              	.LVL264:
 2162              	.L160:
 569:smtc_modem_core/modem_supervisor/modem_supervisor.c ****     return ( 1000 * sleep_time );
 2163              		.loc 1 569 5 is_stmt 1 view .LVU611
 569:smtc_modem_core/modem_supervisor/modem_supervisor.c ****     return ( 1000 * sleep_time );
 2164              		.loc 1 569 5 view .LVU612
 2165 00a8 1448     		ldr	r0, .L184+24
 2166 00aa FFF7FEFF 		bl	bsp_trace_print
 2167              	.LVL265:
 569:smtc_modem_core/modem_supervisor/modem_supervisor.c ****     return ( 1000 * sleep_time );
 2168              		.loc 1 569 5 view .LVU613
 2169 00ae 1448     		ldr	r0, .L184+28
 2170 00b0 FFF7FEFF 		bl	bsp_trace_print
 2171              	.LVL266:
 569:smtc_modem_core/modem_supervisor/modem_supervisor.c ****     return ( 1000 * sleep_time );
 2172              		.loc 1 569 5 view .LVU614
 2173 00b4 2100     		movs	r1, r4
 2174 00b6 1348     		ldr	r0, .L184+32
 2175 00b8 FFF7FEFF 		bl	bsp_trace_print
 2176              	.LVL267:
 569:smtc_modem_core/modem_supervisor/modem_supervisor.c ****     return ( 1000 * sleep_time );
 2177              		.loc 1 569 5 view .LVU615
 2178 00bc 1248     		ldr	r0, .L184+36
 2179 00be FFF7FEFF 		bl	bsp_trace_print
 2180              	.LVL268:
 569:smtc_modem_core/modem_supervisor/modem_supervisor.c ****     return ( 1000 * sleep_time );
 2181              		.loc 1 569 5 view .LVU616
 569:smtc_modem_core/modem_supervisor/modem_supervisor.c ****     return ( 1000 * sleep_time );
 2182              		.loc 1 569 59 view .LVU617
 570:smtc_modem_core/modem_supervisor/modem_supervisor.c **** }
 2183              		.loc 1 570 5 view .LVU618
 570:smtc_modem_core/modem_supervisor/modem_supervisor.c **** }
 2184              		.loc 1 570 19 is_stmt 0 view .LVU619
 2185 00c2 FA20     		movs	r0, #250
 2186 00c4 8000     		lsls	r0, r0, #2
 2187 00c6 6043     		muls	r0, r4
 2188 00c8 C6E7     		b	.L147
 2189              	.LVL269:
 2190              	.L155:
 547:smtc_modem_core/modem_supervisor/modem_supervisor.c ****     {
 2191              		.loc 1 547 60 discriminator 1 view .LVU620
 2192 00ca FFF7FEFF 		bl	get_modem_muted
 2193              	.LVL270:
 547:smtc_modem_core/modem_supervisor/modem_supervisor.c ****     {
 2194              		.loc 1 547 55 discriminator 1 view .LVU621
 2195 00ce FF28     		cmp	r0, #255
 2196 00d0 E0D0     		beq	.L157
 550:smtc_modem_core/modem_supervisor/modem_supervisor.c ****     }
 2197              		.loc 1 550 9 is_stmt 1 view .LVU622
 550:smtc_modem_core/modem_supervisor/modem_supervisor.c ****     }
ARM GAS  /var/folders/bq/yv49bw8j2kd6w3hsq868qv180000gn/T//cck61hoc.s 			page 58


 2198              		.loc 1 550 22 is_stmt 0 view .LVU623
 2199 00d2 FFF7FEFF 		bl	modem_supervisor_scheduler
 2200              	.LVL271:
 2201 00d6 0500     		movs	r5, r0
 2202              	.LVL272:
 550:smtc_modem_core/modem_supervisor/modem_supervisor.c ****     }
 2203              		.loc 1 550 20 view .LVU624
 2204 00d8 DDE7     		b	.L156
 2205              	.LVL273:
 2206              	.L158:
 568:smtc_modem_core/modem_supervisor/modem_supervisor.c ****     BSP_DBG_TRACE_INFO( "Next task in %lu\n", sleep_time );
 2207              		.loc 1 568 5 is_stmt 1 view .LVU625
 568:smtc_modem_core/modem_supervisor/modem_supervisor.c ****     BSP_DBG_TRACE_INFO( "Next task in %lu\n", sleep_time );
 2208              		.loc 1 568 16 is_stmt 0 view .LVU626
 2209 00da AC42     		cmp	r4, r5
 2210 00dc E4D9     		bls	.L160
 568:smtc_modem_core/modem_supervisor/modem_supervisor.c ****     BSP_DBG_TRACE_INFO( "Next task in %lu\n", sleep_time );
 2211              		.loc 1 568 16 view .LVU627
 2212 00de 2C00     		movs	r4, r5
 2213              	.LVL274:
 568:smtc_modem_core/modem_supervisor/modem_supervisor.c ****     BSP_DBG_TRACE_INFO( "Next task in %lu\n", sleep_time );
 2214              		.loc 1 568 16 view .LVU628
 2215 00e0 E2E7     		b	.L160
 2216              	.L185:
 2217 00e2 C046     		.align	2
 2218              	.L184:
 2219 00e4 80841E00 		.word	2000000
 2220 00e8 FFFFFF7F 		.word	2147483647
 2221 00ec 00000000 		.word	.LANCHOR4
 2222 00f0 00000000 		.word	task_manager
 2223 00f4 00000000 		.word	.LANCHOR0
 2224 00f8 FFFF1F00 		.word	2097151
 2225 00fc 00000000 		.word	.LC18
 2226 0100 08000000 		.word	.LC20
 2227 0104 00000000 		.word	.LC97
 2228 0108 3E000000 		.word	.LC10
 2229              		.cfi_endproc
 2230              	.LFE16:
 2232              		.section	.bss.AvailableRxPacket,"aw",%nobits
 2233              		.set	.LANCHOR4,. + 0
 2236              	AvailableRxPacket:
 2237 0000 00       		.space	1
 2238              		.section	.bss.UploadPayload,"aw",%nobits
 2239              		.align	2
 2242              	UploadPayload:
 2243 0000 00000000 		.space	255
 2243      00000000 
 2243      00000000 
 2243      00000000 
 2243      00000000 
 2244              		.section	.bss.app_callback,"aw",%nobits
 2245              		.align	2
 2246              		.set	.LANCHOR0,. + 0
 2249              	app_callback:
 2250 0000 00000000 		.space	4
 2251              		.section	.bss.is_pending_dm_status_payload_now,"aw",%nobits
 2252              		.set	.LANCHOR3,. + 0
ARM GAS  /var/folders/bq/yv49bw8j2kd6w3hsq868qv180000gn/T//cck61hoc.s 			page 59


 2255              	is_pending_dm_status_payload_now:
 2256 0000 00       		.space	1
 2257              		.section	.bss.send_task_update_needed,"aw",%nobits
 2258              		.set	.LANCHOR1,. + 0
 2261              	send_task_update_needed:
 2262 0000 00       		.space	1
 2263              		.section	.bss.task_manager,"aw",%nobits
 2264              		.align	2
 2267              	task_manager:
 2268 0000 00000000 		.space	248
 2268      00000000 
 2268      00000000 
 2268      00000000 
 2268      00000000 
 2269              		.section	.data.is_first_dm_after_join,"aw"
 2270              		.set	.LANCHOR2,. + 0
 2273              	is_first_dm_after_join:
 2274 0000 01       		.byte	1
 2275              		.text
 2276              	.Letext0:
 2277              		.file 2 "/Applications/STM32CubeIDE.app/Contents/Eclipse/plugins/com.st.stm32cube.ide.mcu.external
 2278              		.file 3 "/Applications/STM32CubeIDE.app/Contents/Eclipse/plugins/com.st.stm32cube.ide.mcu.external
 2279              		.file 4 "smtc_ral/src/ral_defs.h"
 2280              		.file 5 "radio_planner/src/radio_planner_types.h"
 2281              		.file 6 "radio_planner/src/radio_planner_stats.h"
 2282              		.file 7 "radio_planner/src/radio_planner.h"
 2283              		.file 8 "smtc_modem_core/modem_supervisor/modem_supervisor.h"
 2284              		.file 9 "/Applications/STM32CubeIDE.app/Contents/Eclipse/plugins/com.st.stm32cube.ide.mcu.external
 2285              		.file 10 "/Applications/STM32CubeIDE.app/Contents/Eclipse/plugins/com.st.stm32cube.ide.mcu.externa
 2286              		.file 11 "/Applications/STM32CubeIDE.app/Contents/Eclipse/plugins/com.st.stm32cube.ide.mcu.externa
 2287              		.file 12 "/Applications/STM32CubeIDE.app/Contents/Eclipse/plugins/com.st.stm32cube.ide.mcu.externa
 2288              		.file 13 "smtc_modem_core/device_management/device_management_defs.h"
 2289              		.file 14 "lr1mac/src/lr1mac_defs.h"
 2290              		.file 15 "lr1mac/src/smtc_real/src/smtc_real_defs.h"
 2291              		.file 16 "smtc_modem_core/modem_api.h"
 2292              		.file 17 "smtc_modem_core/device_management/modem_context.h"
 2293              		.file 18 "smtc_bsp/smtc_bsp_mcu.h"
 2294              		.file 19 "smtc_bsp/smtc_bsp_rtc.h"
 2295              		.file 20 "smtc_bsp/smtc_bsp_watchdog.h"
 2296              		.file 21 "smtc_modem_core/lorawan_api/lorawan_api.h"
 2297              		.file 22 "smtc_bsp/smtc_bsp_rng.h"
 2298              		.file 23 "smtc_modem_core/device_management/dm_downlink.h"
 2299              		.file 24 "smtc_modem_core/modem_services/file_upload.h"
ARM GAS  /var/folders/bq/yv49bw8j2kd6w3hsq868qv180000gn/T//cck61hoc.s 			page 60

