ARM GAS  /var/folders/bq/yv49bw8j2kd6w3hsq868qv180000gn/T//ccEK2k0g.s 			page 1


   1              		.cpu cortex-m0plus
   2              		.eabi_attribute 23, 1
   3              		.eabi_attribute 24, 1
   4              		.eabi_attribute 25, 1
   5              		.eabi_attribute 26, 1
   6              		.eabi_attribute 30, 4
   7              		.eabi_attribute 34, 0
   8              		.eabi_attribute 18, 4
   9              		.file	"modem_context.c"
  10              		.text
  11              	.Ltext0:
  12              		.cfi_sections	.debug_frame
  13              		.section	.text.modem_event_init,"ax",%progbits
  14              		.align	1
  15              		.global	modem_event_init
  16              		.arch armv6s-m
  17              		.syntax unified
  18              		.code	16
  19              		.thumb_func
  20              		.fpu softvfp
  22              	modem_event_init:
  23              	.LFB11:
  24              		.file 1 "smtc_modem_core/device_management/modem_context.c"
   1:smtc_modem_core/device_management/modem_context.c **** /*!
   2:smtc_modem_core/device_management/modem_context.c ****  * \file      modem_context.c
   3:smtc_modem_core/device_management/modem_context.c ****  *
   4:smtc_modem_core/device_management/modem_context.c ****  * \brief     share functions + context of the soft modem .
   5:smtc_modem_core/device_management/modem_context.c ****  *
   6:smtc_modem_core/device_management/modem_context.c ****  * Revised BSD License
   7:smtc_modem_core/device_management/modem_context.c ****  * Copyright Semtech Corporation 2020. All rights reserved.
   8:smtc_modem_core/device_management/modem_context.c ****  *
   9:smtc_modem_core/device_management/modem_context.c ****  * Redistribution and use in source and binary forms, with or without
  10:smtc_modem_core/device_management/modem_context.c ****  * modification, are permitted provided that the following conditions are met:
  11:smtc_modem_core/device_management/modem_context.c ****  *     * Redistributions of source code must retain the above copyright
  12:smtc_modem_core/device_management/modem_context.c ****  *       notice, this list of conditions and the following disclaimer.
  13:smtc_modem_core/device_management/modem_context.c ****  *     * Redistributions in binary form must reproduce the above copyright
  14:smtc_modem_core/device_management/modem_context.c ****  *       notice, this list of conditions and the following disclaimer in the
  15:smtc_modem_core/device_management/modem_context.c ****  *       documentation and/or other materials provided with the distribution.
  16:smtc_modem_core/device_management/modem_context.c ****  *     * Neither the name of the Semtech corporation nor the
  17:smtc_modem_core/device_management/modem_context.c ****  *       names of its contributors may be used to endorse or promote products
  18:smtc_modem_core/device_management/modem_context.c ****  *       derived from this software without specific prior written permission.
  19:smtc_modem_core/device_management/modem_context.c ****  *
  20:smtc_modem_core/device_management/modem_context.c ****  * THIS SOFTWARE IS PROVIDED BY THE COPYRIGHT HOLDERS AND CONTRIBUTORS "AS IS"
  21:smtc_modem_core/device_management/modem_context.c ****  * AND ANY EXPRESS OR IMPLIED WARRANTIES, INCLUDING, BUT NOT LIMITED TO, THE
  22:smtc_modem_core/device_management/modem_context.c ****  * IMPLIED WARRANTIES OF MERCHANTABILITY AND FITNESS FOR A PARTICULAR PURPOSE
  23:smtc_modem_core/device_management/modem_context.c ****  * ARE DISCLAIMED. IN NO EVENT SHALL SEMTECH CORPORATION BE LIABLE FOR ANY DIRECT,
  24:smtc_modem_core/device_management/modem_context.c ****  * INDIRECT, INCIDENTAL, SPECIAL, EXEMPLARY, OR CONSEQUENTIAL DAMAGES
  25:smtc_modem_core/device_management/modem_context.c ****  * (INCLUDING, BUT NOT LIMITED TO, PROCUREMENT OF SUBSTITUTE GOODS OR SERVICES;
  26:smtc_modem_core/device_management/modem_context.c ****  * LOSS OF USE, DATA, OR PROFITS; OR BUSINESS INTERRUPTION) HOWEVER CAUSED AND
  27:smtc_modem_core/device_management/modem_context.c ****  * ON ANY THEORY OF LIABILITY, WHETHER IN CONTRACT, STRICT LIABILITY, OR TORT
  28:smtc_modem_core/device_management/modem_context.c ****  * (INCLUDING NEGLIGENCE OR OTHERWISE) ARISING IN ANY WAY OUT OF THE USE OF THIS
  29:smtc_modem_core/device_management/modem_context.c ****  * SOFTWARE, EVEN IF ADVISED OF THE POSSIBILITY OF SUCH DAMAGE.
  30:smtc_modem_core/device_management/modem_context.c ****  */
  31:smtc_modem_core/device_management/modem_context.c **** 
  32:smtc_modem_core/device_management/modem_context.c **** /*
  33:smtc_modem_core/device_management/modem_context.c ****  * -----------------------------------------------------------------------------
  34:smtc_modem_core/device_management/modem_context.c ****  * --- DEPENDENCIES ------------------------------------------------------------
ARM GAS  /var/folders/bq/yv49bw8j2kd6w3hsq868qv180000gn/T//ccEK2k0g.s 			page 2


  35:smtc_modem_core/device_management/modem_context.c ****  */
  36:smtc_modem_core/device_management/modem_context.c **** #include <stdint.h>   // C99 types
  37:smtc_modem_core/device_management/modem_context.c **** #include <stdbool.h>  // bool type
  38:smtc_modem_core/device_management/modem_context.c **** 
  39:smtc_modem_core/device_management/modem_context.c **** #include "modem_context.h"
  40:smtc_modem_core/device_management/modem_context.c **** #include "smtc_bsp.h"
  41:smtc_modem_core/device_management/modem_context.c **** #include "smtc_real.h"
  42:smtc_modem_core/device_management/modem_context.c **** #include "device_management_defs.h"
  43:smtc_modem_core/device_management/modem_context.c **** #include "lorawan_api.h"
  44:smtc_modem_core/device_management/modem_context.c **** #include "modem_utilities.h"  // for crc
  45:smtc_modem_core/device_management/modem_context.c **** #include "modem_api.h"
  46:smtc_modem_core/device_management/modem_context.c **** 
  47:smtc_modem_core/device_management/modem_context.c **** /*
  48:smtc_modem_core/device_management/modem_context.c ****  * -----------------------------------------------------------------------------
  49:smtc_modem_core/device_management/modem_context.c ****  * --- PRIVATE VARIABLES -------------------------------------------------------
  50:smtc_modem_core/device_management/modem_context.c ****  */
  51:smtc_modem_core/device_management/modem_context.c **** 
  52:smtc_modem_core/device_management/modem_context.c **** static uint8_t                modem_status         = 0;
  53:smtc_modem_core/device_management/modem_context.c **** static uint8_t                modem_dm_interval    = DEFAULT_DM_REPORTING_INTERVAL;
  54:smtc_modem_core/device_management/modem_context.c **** static uint8_t                modem_dm_port        = DEFAULT_DM_PORT;
  55:smtc_modem_core/device_management/modem_context.c **** static uint8_t                modem_appstatus[8]   = { 0 };
  56:smtc_modem_core/device_management/modem_context.c **** static modem_class_t          modem_dm_class       = MODEM_CLASS_A;
  57:smtc_modem_core/device_management/modem_context.c **** static e_modem_suspend_t      is_modem_suspend     = MODEM_NOT_SUSPEND;
  58:smtc_modem_core/device_management/modem_context.c **** static uint32_t               modem_start_time     = 0;
  59:smtc_modem_core/device_management/modem_context.c **** static uint8_t                modem_dm_upload_sctr = 0;
  60:smtc_modem_core/device_management/modem_context.c **** static e_modem_upload_state_t modem_upload_state   = MODEM_UPLOAD_NOT_INIT;
  61:smtc_modem_core/device_management/modem_context.c **** static s_modem_stream_t       modem_stream_state   = {  //
  62:smtc_modem_core/device_management/modem_context.c ****     .port       = DEFAULT_DM_PORT,              //
  63:smtc_modem_core/device_management/modem_context.c ****     .state      = MODEM_STREAM_NOT_INIT,        //
  64:smtc_modem_core/device_management/modem_context.c ****     .encryption = false
  65:smtc_modem_core/device_management/modem_context.c **** };
  66:smtc_modem_core/device_management/modem_context.c **** 
  67:smtc_modem_core/device_management/modem_context.c **** static uint32_t dm_info_bitfield_periodic       = DEFAULT_DM_REPORTING_FIELDS;  // context for peri
  68:smtc_modem_core/device_management/modem_context.c **** static uint32_t dm_info_bitfield_now            = 0;                            // User GetInfo
  69:smtc_modem_core/device_management/modem_context.c **** static uint8_t  tag_number                      = 0;
  70:smtc_modem_core/device_management/modem_context.c **** static uint8_t  tag_number_now                  = 0;
  71:smtc_modem_core/device_management/modem_context.c **** static uint8_t  number_of_muted_day             = 0;
  72:smtc_modem_core/device_management/modem_context.c **** static s_dm_retrieve_pending_dl_t dm_pending_dl = { .up_count = 0, .up_delay = 0 };
  73:smtc_modem_core/device_management/modem_context.c **** static uint32_t                   user_alarm    = 0;
  74:smtc_modem_core/device_management/modem_context.c **** 
  75:smtc_modem_core/device_management/modem_context.c **** static uint8_t asynchronous_msgnumber = 0;
  76:smtc_modem_core/device_management/modem_context.c **** 
  77:smtc_modem_core/device_management/modem_context.c **** static uint8_t modem_event_count[RSP_NUMBER];
  78:smtc_modem_core/device_management/modem_context.c **** static uint8_t modem_event_status[RSP_NUMBER];
  79:smtc_modem_core/device_management/modem_context.c **** static uint8_t asynch_msg[RSP_NUMBER];
  80:smtc_modem_core/device_management/modem_context.c **** 
  81:smtc_modem_core/device_management/modem_context.c **** static s_modem_dwn_t modem_dwn_pkt;
  82:smtc_modem_core/device_management/modem_context.c **** static bool          is_modem_reset_requested = false;
  83:smtc_modem_core/device_management/modem_context.c **** static bool          is_modem_charge_loaded   = false;
  84:smtc_modem_core/device_management/modem_context.c **** static uint32_t      modem_charge_offset      = 0;
  85:smtc_modem_core/device_management/modem_context.c **** 
  86:smtc_modem_core/device_management/modem_context.c **** /*
  87:smtc_modem_core/device_management/modem_context.c ****  * -----------------------------------------------------------------------------
  88:smtc_modem_core/device_management/modem_context.c ****  * --- PRIVATE FUNCTIONS DEFINITION --------------------------------------------
  89:smtc_modem_core/device_management/modem_context.c ****  */
  90:smtc_modem_core/device_management/modem_context.c **** 
  91:smtc_modem_core/device_management/modem_context.c **** /*!
ARM GAS  /var/folders/bq/yv49bw8j2kd6w3hsq868qv180000gn/T//ccEK2k0g.s 			page 3


  92:smtc_modem_core/device_management/modem_context.c ****  * \brief   convert requested DM bytes fields to bitfield
  93:smtc_modem_core/device_management/modem_context.c ****  *
  94:smtc_modem_core/device_management/modem_context.c ****  * \param [in]  requested_info_list     Array of bytes with requested DM code in
  95:smtc_modem_core/device_management/modem_context.c ****  * each bytes \param [in]  len                     Number of byte that composed
  96:smtc_modem_core/device_management/modem_context.c ****  * requested_info_list \param [in]  bitfields *             Returned bitfield
  97:smtc_modem_core/device_management/modem_context.c ****  * \param [out] e_set_error_t             Return SET_OK in case of failure, else
  98:smtc_modem_core/device_management/modem_context.c ****  * false
  99:smtc_modem_core/device_management/modem_context.c ****  */
 100:smtc_modem_core/device_management/modem_context.c **** static e_set_error_t convert_requested_dm_info_bytes_to_bitfield( uint8_t* requested_info_list, uin
 101:smtc_modem_core/device_management/modem_context.c ****                                                                   uint32_t* bitfields )
 102:smtc_modem_core/device_management/modem_context.c **** {
 103:smtc_modem_core/device_management/modem_context.c ****     e_set_error_t ret = SET_OK;
 104:smtc_modem_core/device_management/modem_context.c ****     for( uint8_t i = 0; i < len; i++ )
 105:smtc_modem_core/device_management/modem_context.c ****     {
 106:smtc_modem_core/device_management/modem_context.c ****         // Ignore DM status with variable length and forbiden fields
 107:smtc_modem_core/device_management/modem_context.c ****         if( ( requested_info_list[i] == e_inf_crashlog ) || ( requested_info_list[i] == e_inf_uploa
 108:smtc_modem_core/device_management/modem_context.c ****             ( requested_info_list[i] == e_inf_stream ) || ( requested_info_list[i] == e_inf_alcsync
 109:smtc_modem_core/device_management/modem_context.c ****             ( requested_info_list[i] == e_inf_rfu_0 ) || ( requested_info_list[i] == e_inf_rfu_1 ) 
 110:smtc_modem_core/device_management/modem_context.c ****             ( requested_info_list[i] >= e_inf_max ) )
 111:smtc_modem_core/device_management/modem_context.c ****         {
 112:smtc_modem_core/device_management/modem_context.c ****             ret = SET_ERROR;
 113:smtc_modem_core/device_management/modem_context.c ****             BSP_DBG_TRACE_ERROR( "invalid DM info code (0x%02x)\n", requested_info_list[i] );
 114:smtc_modem_core/device_management/modem_context.c ****             return ret;
 115:smtc_modem_core/device_management/modem_context.c ****         }
 116:smtc_modem_core/device_management/modem_context.c ****     }
 117:smtc_modem_core/device_management/modem_context.c ****     // Reset bitfield
 118:smtc_modem_core/device_management/modem_context.c ****     *bitfields = 0;
 119:smtc_modem_core/device_management/modem_context.c ****     for( uint8_t i = 0; i < len; i++ )
 120:smtc_modem_core/device_management/modem_context.c ****     {
 121:smtc_modem_core/device_management/modem_context.c ****         *bitfields |= ( 1 << requested_info_list[i] );
 122:smtc_modem_core/device_management/modem_context.c ****     }
 123:smtc_modem_core/device_management/modem_context.c ****     return ret;
 124:smtc_modem_core/device_management/modem_context.c **** }
 125:smtc_modem_core/device_management/modem_context.c **** 
 126:smtc_modem_core/device_management/modem_context.c **** /*!
 127:smtc_modem_core/device_management/modem_context.c ****  * \brief   Check if the biggest requested DM status field can be inserted
 128:smtc_modem_core/device_management/modem_context.c ****  *          in the payload in regard of the max payload size requested
 129:smtc_modem_core/device_management/modem_context.c ****  *
 130:smtc_modem_core/device_management/modem_context.c ****  * \param [in]  info_requested              Requested bitfield
 131:smtc_modem_core/device_management/modem_context.c ****  * \param [in]  max_size                    Max size of the payload
 132:smtc_modem_core/device_management/modem_context.c ****  * \param [out] e_dm_cmd_length_valid       Return valid or not
 133:smtc_modem_core/device_management/modem_context.c ****  */
 134:smtc_modem_core/device_management/modem_context.c **** static e_dm_cmd_length_valid check_dm_status_max_size( uint32_t info_requested, uint8_t max_size )
 135:smtc_modem_core/device_management/modem_context.c **** {
 136:smtc_modem_core/device_management/modem_context.c ****     for( uint8_t i = 0; i < e_inf_max; i++ )
 137:smtc_modem_core/device_management/modem_context.c ****     {
 138:smtc_modem_core/device_management/modem_context.c ****         if( ( info_requested & ( 1 << i ) ) )
 139:smtc_modem_core/device_management/modem_context.c ****         {
 140:smtc_modem_core/device_management/modem_context.c ****             if( max_size < dm_info_field_sz[i] )
 141:smtc_modem_core/device_management/modem_context.c ****             {
 142:smtc_modem_core/device_management/modem_context.c ****                 BSP_DBG_TRACE_ERROR(
 143:smtc_modem_core/device_management/modem_context.c ****                     "max_size must be greater than the smallest requested "
 144:smtc_modem_core/device_management/modem_context.c ****                     "information\n" );
 145:smtc_modem_core/device_management/modem_context.c ****                 return DM_CMD_LENGTH_NOT_VALID;
 146:smtc_modem_core/device_management/modem_context.c ****             }
 147:smtc_modem_core/device_management/modem_context.c ****         }
 148:smtc_modem_core/device_management/modem_context.c ****     }
ARM GAS  /var/folders/bq/yv49bw8j2kd6w3hsq868qv180000gn/T//ccEK2k0g.s 			page 4


 149:smtc_modem_core/device_management/modem_context.c ****     return DM_CMD_LENGTH_VALID;
 150:smtc_modem_core/device_management/modem_context.c **** }
 151:smtc_modem_core/device_management/modem_context.c **** 
 152:smtc_modem_core/device_management/modem_context.c **** /*
 153:smtc_modem_core/device_management/modem_context.c ****  * -----------------------------------------------------------------------------
 154:smtc_modem_core/device_management/modem_context.c ****  * --- PUBLIC FUNCTIONS DEFINITION ---------------------------------------------
 155:smtc_modem_core/device_management/modem_context.c ****  */
 156:smtc_modem_core/device_management/modem_context.c **** 
 157:smtc_modem_core/device_management/modem_context.c **** void modem_event_init( void )
 158:smtc_modem_core/device_management/modem_context.c **** {
  25              		.loc 1 158 1 view -0
  26              		.cfi_startproc
  27              		@ args = 0, pretend = 0, frame = 0
  28              		@ frame_needed = 0, uses_anonymous_args = 0
  29              		@ link register save eliminated.
 159:smtc_modem_core/device_management/modem_context.c ****     for( int i = 0; i < RSP_NUMBER; i++ )
  30              		.loc 1 159 5 view .LVU1
  31              	.LBB36:
  32              		.loc 1 159 10 view .LVU2
  33              	.LVL0:
  34              		.loc 1 159 21 view .LVU3
  35              		.loc 1 159 14 is_stmt 0 view .LVU4
  36 0000 0023     		movs	r3, #0
  37              	.LBB37:
  38              	.LBB38:
 160:smtc_modem_core/device_management/modem_context.c ****     {
 161:smtc_modem_core/device_management/modem_context.c ****         set_modem_event_count( ( modem_rsp_event_t ) i, 0 );
 162:smtc_modem_core/device_management/modem_context.c ****         set_modem_event_status( ( modem_rsp_event_t ) i, 0 );
 163:smtc_modem_core/device_management/modem_context.c ****     }
 164:smtc_modem_core/device_management/modem_context.c **** }
 165:smtc_modem_core/device_management/modem_context.c **** 
 166:smtc_modem_core/device_management/modem_context.c **** uint8_t get_modem_event_count( modem_rsp_event_t event_type )
 167:smtc_modem_core/device_management/modem_context.c **** {
 168:smtc_modem_core/device_management/modem_context.c ****     if( event_type >= RSP_NUMBER )
 169:smtc_modem_core/device_management/modem_context.c ****     {
 170:smtc_modem_core/device_management/modem_context.c ****         bsp_mcu_panic( );
 171:smtc_modem_core/device_management/modem_context.c ****     }
 172:smtc_modem_core/device_management/modem_context.c **** 
 173:smtc_modem_core/device_management/modem_context.c ****     return ( modem_event_count[event_type] );
 174:smtc_modem_core/device_management/modem_context.c **** }
 175:smtc_modem_core/device_management/modem_context.c **** 
 176:smtc_modem_core/device_management/modem_context.c **** void set_modem_event_count( modem_rsp_event_t event_type, uint8_t value )
 177:smtc_modem_core/device_management/modem_context.c **** {
 178:smtc_modem_core/device_management/modem_context.c ****     if( event_type < RSP_NUMBER )
 179:smtc_modem_core/device_management/modem_context.c ****     {
 180:smtc_modem_core/device_management/modem_context.c ****         modem_event_count[event_type] = value;
  39              		.loc 1 180 39 view .LVU5
  40 0002 1A00     		movs	r2, r3
  41 0004 0348     		ldr	r0, .L4
  42              	.LBE38:
  43              	.LBE37:
  44              	.LBB40:
  45              	.LBB41:
 181:smtc_modem_core/device_management/modem_context.c ****     }
 182:smtc_modem_core/device_management/modem_context.c **** }
 183:smtc_modem_core/device_management/modem_context.c **** 
 184:smtc_modem_core/device_management/modem_context.c **** void increment_modem_event_count( modem_rsp_event_t event_type )
ARM GAS  /var/folders/bq/yv49bw8j2kd6w3hsq868qv180000gn/T//ccEK2k0g.s 			page 5


 185:smtc_modem_core/device_management/modem_context.c **** {
 186:smtc_modem_core/device_management/modem_context.c ****     if( event_type < RSP_NUMBER )
 187:smtc_modem_core/device_management/modem_context.c ****     {
 188:smtc_modem_core/device_management/modem_context.c ****         if( modem_event_count[event_type] < 255 )
 189:smtc_modem_core/device_management/modem_context.c ****         {
 190:smtc_modem_core/device_management/modem_context.c ****             modem_event_count[event_type]++;
 191:smtc_modem_core/device_management/modem_context.c ****         }
 192:smtc_modem_core/device_management/modem_context.c ****     }
 193:smtc_modem_core/device_management/modem_context.c **** }
 194:smtc_modem_core/device_management/modem_context.c **** 
 195:smtc_modem_core/device_management/modem_context.c **** uint8_t get_modem_event_status( modem_rsp_event_t event_type )
 196:smtc_modem_core/device_management/modem_context.c **** {
 197:smtc_modem_core/device_management/modem_context.c ****     if( event_type >= RSP_NUMBER )
 198:smtc_modem_core/device_management/modem_context.c ****     {
 199:smtc_modem_core/device_management/modem_context.c ****         bsp_mcu_panic( );
 200:smtc_modem_core/device_management/modem_context.c ****     }
 201:smtc_modem_core/device_management/modem_context.c ****     return ( modem_event_status[event_type] );
 202:smtc_modem_core/device_management/modem_context.c **** }
 203:smtc_modem_core/device_management/modem_context.c **** 
 204:smtc_modem_core/device_management/modem_context.c **** void set_modem_event_status( modem_rsp_event_t event_type, uint8_t status )
 205:smtc_modem_core/device_management/modem_context.c **** {
 206:smtc_modem_core/device_management/modem_context.c ****     if( event_type < RSP_NUMBER )
 207:smtc_modem_core/device_management/modem_context.c ****     {
 208:smtc_modem_core/device_management/modem_context.c ****         modem_event_status[event_type] = status;
  46              		.loc 1 208 40 view .LVU6
  47 0006 0449     		ldr	r1, .L4+4
  48              	.LVL1:
  49              	.L2:
  50              		.loc 1 208 40 view .LVU7
  51              	.LBE41:
  52              	.LBE40:
 161:smtc_modem_core/device_management/modem_context.c ****         set_modem_event_status( ( modem_rsp_event_t ) i, 0 );
  53              		.loc 1 161 9 is_stmt 1 discriminator 3 view .LVU8
  54              	.LBB43:
  55              	.LBI37:
 176:smtc_modem_core/device_management/modem_context.c **** {
  56              		.loc 1 176 6 discriminator 3 view .LVU9
  57              	.LBB39:
 178:smtc_modem_core/device_management/modem_context.c ****     {
  58              		.loc 1 178 5 discriminator 3 view .LVU10
 180:smtc_modem_core/device_management/modem_context.c ****     }
  59              		.loc 1 180 9 discriminator 3 view .LVU11
 180:smtc_modem_core/device_management/modem_context.c ****     }
  60              		.loc 1 180 39 is_stmt 0 discriminator 3 view .LVU12
  61 0008 1A54     		strb	r2, [r3, r0]
  62              	.LVL2:
 180:smtc_modem_core/device_management/modem_context.c ****     }
  63              		.loc 1 180 39 discriminator 3 view .LVU13
  64              	.LBE39:
  65              	.LBE43:
 162:smtc_modem_core/device_management/modem_context.c ****     }
  66              		.loc 1 162 9 is_stmt 1 discriminator 3 view .LVU14
  67              	.LBB44:
  68              	.LBI40:
 204:smtc_modem_core/device_management/modem_context.c **** {
  69              		.loc 1 204 6 discriminator 3 view .LVU15
  70              	.LBB42:
ARM GAS  /var/folders/bq/yv49bw8j2kd6w3hsq868qv180000gn/T//ccEK2k0g.s 			page 6


 206:smtc_modem_core/device_management/modem_context.c ****     {
  71              		.loc 1 206 5 discriminator 3 view .LVU16
  72              		.loc 1 208 9 discriminator 3 view .LVU17
  73              		.loc 1 208 40 is_stmt 0 discriminator 3 view .LVU18
  74 000a 5A54     		strb	r2, [r3, r1]
  75              	.LVL3:
  76              		.loc 1 208 40 discriminator 3 view .LVU19
  77              	.LBE42:
  78              	.LBE44:
 159:smtc_modem_core/device_management/modem_context.c ****     {
  79              		.loc 1 159 37 is_stmt 1 discriminator 3 view .LVU20
 159:smtc_modem_core/device_management/modem_context.c ****     {
  80              		.loc 1 159 38 is_stmt 0 discriminator 3 view .LVU21
  81 000c 0133     		adds	r3, r3, #1
  82              	.LVL4:
 159:smtc_modem_core/device_management/modem_context.c ****     {
  83              		.loc 1 159 21 is_stmt 1 discriminator 3 view .LVU22
 159:smtc_modem_core/device_management/modem_context.c ****     {
  84              		.loc 1 159 5 is_stmt 0 discriminator 3 view .LVU23
  85 000e 0B2B     		cmp	r3, #11
  86 0010 FAD1     		bne	.L2
  87              	.LBE36:
 164:smtc_modem_core/device_management/modem_context.c **** 
  88              		.loc 1 164 1 view .LVU24
  89              		@ sp needed
  90 0012 7047     		bx	lr
  91              	.L5:
  92              		.align	2
  93              	.L4:
  94 0014 00000000 		.word	.LANCHOR0
  95 0018 00000000 		.word	.LANCHOR1
  96              		.cfi_endproc
  97              	.LFE11:
  99              		.section	.text.get_modem_event_count,"ax",%progbits
 100              		.align	1
 101              		.global	get_modem_event_count
 102              		.syntax unified
 103              		.code	16
 104              		.thumb_func
 105              		.fpu softvfp
 107              	get_modem_event_count:
 108              	.LVL5:
 109              	.LFB12:
 167:smtc_modem_core/device_management/modem_context.c ****     if( event_type >= RSP_NUMBER )
 110              		.loc 1 167 1 is_stmt 1 view -0
 111              		.cfi_startproc
 112              		@ args = 0, pretend = 0, frame = 0
 113              		@ frame_needed = 0, uses_anonymous_args = 0
 168:smtc_modem_core/device_management/modem_context.c ****     {
 114              		.loc 1 168 5 view .LVU26
 167:smtc_modem_core/device_management/modem_context.c ****     if( event_type >= RSP_NUMBER )
 115              		.loc 1 167 1 is_stmt 0 view .LVU27
 116 0000 10B5     		push	{r4, lr}
 117              		.cfi_def_cfa_offset 8
 118              		.cfi_offset 4, -8
 119              		.cfi_offset 14, -4
 167:smtc_modem_core/device_management/modem_context.c ****     if( event_type >= RSP_NUMBER )
ARM GAS  /var/folders/bq/yv49bw8j2kd6w3hsq868qv180000gn/T//ccEK2k0g.s 			page 7


 120              		.loc 1 167 1 view .LVU28
 121 0002 0400     		movs	r4, r0
 168:smtc_modem_core/device_management/modem_context.c ****     {
 122              		.loc 1 168 7 view .LVU29
 123 0004 0A28     		cmp	r0, #10
 124 0006 01D9     		bls	.L7
 170:smtc_modem_core/device_management/modem_context.c ****     }
 125              		.loc 1 170 9 is_stmt 1 view .LVU30
 126 0008 FFF7FEFF 		bl	bsp_mcu_panic
 127              	.LVL6:
 128              	.L7:
 173:smtc_modem_core/device_management/modem_context.c **** }
 129              		.loc 1 173 5 view .LVU31
 173:smtc_modem_core/device_management/modem_context.c **** }
 130              		.loc 1 173 31 is_stmt 0 view .LVU32
 131 000c 014B     		ldr	r3, .L8
 174:smtc_modem_core/device_management/modem_context.c **** 
 132              		.loc 1 174 1 view .LVU33
 133              		@ sp needed
 173:smtc_modem_core/device_management/modem_context.c **** }
 134              		.loc 1 173 31 view .LVU34
 135 000e 185D     		ldrb	r0, [r3, r4]
 174:smtc_modem_core/device_management/modem_context.c **** 
 136              		.loc 1 174 1 view .LVU35
 137 0010 10BD     		pop	{r4, pc}
 138              	.L9:
 139 0012 C046     		.align	2
 140              	.L8:
 141 0014 00000000 		.word	.LANCHOR0
 142              		.cfi_endproc
 143              	.LFE12:
 145              		.section	.text.set_modem_event_count,"ax",%progbits
 146              		.align	1
 147              		.global	set_modem_event_count
 148              		.syntax unified
 149              		.code	16
 150              		.thumb_func
 151              		.fpu softvfp
 153              	set_modem_event_count:
 154              	.LVL7:
 155              	.LFB13:
 177:smtc_modem_core/device_management/modem_context.c ****     if( event_type < RSP_NUMBER )
 156              		.loc 1 177 1 is_stmt 1 view -0
 157              		.cfi_startproc
 158              		@ args = 0, pretend = 0, frame = 0
 159              		@ frame_needed = 0, uses_anonymous_args = 0
 160              		@ link register save eliminated.
 178:smtc_modem_core/device_management/modem_context.c ****     {
 161              		.loc 1 178 5 view .LVU37
 178:smtc_modem_core/device_management/modem_context.c ****     {
 162              		.loc 1 178 7 is_stmt 0 view .LVU38
 163 0000 0A28     		cmp	r0, #10
 164 0002 01D8     		bhi	.L10
 180:smtc_modem_core/device_management/modem_context.c ****     }
 165              		.loc 1 180 9 is_stmt 1 view .LVU39
 180:smtc_modem_core/device_management/modem_context.c ****     }
 166              		.loc 1 180 39 is_stmt 0 view .LVU40
ARM GAS  /var/folders/bq/yv49bw8j2kd6w3hsq868qv180000gn/T//ccEK2k0g.s 			page 8


 167 0004 014B     		ldr	r3, .L12
 168 0006 1954     		strb	r1, [r3, r0]
 169              	.L10:
 182:smtc_modem_core/device_management/modem_context.c **** 
 170              		.loc 1 182 1 view .LVU41
 171              		@ sp needed
 172 0008 7047     		bx	lr
 173              	.L13:
 174 000a C046     		.align	2
 175              	.L12:
 176 000c 00000000 		.word	.LANCHOR0
 177              		.cfi_endproc
 178              	.LFE13:
 180              		.section	.text.increment_modem_event_count,"ax",%progbits
 181              		.align	1
 182              		.global	increment_modem_event_count
 183              		.syntax unified
 184              		.code	16
 185              		.thumb_func
 186              		.fpu softvfp
 188              	increment_modem_event_count:
 189              	.LVL8:
 190              	.LFB14:
 185:smtc_modem_core/device_management/modem_context.c ****     if( event_type < RSP_NUMBER )
 191              		.loc 1 185 1 is_stmt 1 view -0
 192              		.cfi_startproc
 193              		@ args = 0, pretend = 0, frame = 0
 194              		@ frame_needed = 0, uses_anonymous_args = 0
 195              		@ link register save eliminated.
 186:smtc_modem_core/device_management/modem_context.c ****     {
 196              		.loc 1 186 5 view .LVU43
 186:smtc_modem_core/device_management/modem_context.c ****     {
 197              		.loc 1 186 7 is_stmt 0 view .LVU44
 198 0000 0A28     		cmp	r0, #10
 199 0002 05D8     		bhi	.L14
 200              	.LVL9:
 201              	.LBB47:
 202              	.LBI47:
 184:smtc_modem_core/device_management/modem_context.c **** {
 203              		.loc 1 184 6 is_stmt 1 view .LVU45
 204              	.LBB48:
 188:smtc_modem_core/device_management/modem_context.c ****         {
 205              		.loc 1 188 9 view .LVU46
 188:smtc_modem_core/device_management/modem_context.c ****         {
 206              		.loc 1 188 30 is_stmt 0 view .LVU47
 207 0004 034A     		ldr	r2, .L19
 208 0006 135C     		ldrb	r3, [r2, r0]
 188:smtc_modem_core/device_management/modem_context.c ****         {
 209              		.loc 1 188 11 view .LVU48
 210 0008 FF2B     		cmp	r3, #255
 211 000a 01D0     		beq	.L14
 190:smtc_modem_core/device_management/modem_context.c ****         }
 212              		.loc 1 190 13 is_stmt 1 view .LVU49
 190:smtc_modem_core/device_management/modem_context.c ****         }
 213              		.loc 1 190 42 is_stmt 0 view .LVU50
 214 000c 0133     		adds	r3, r3, #1
 215 000e 1354     		strb	r3, [r2, r0]
ARM GAS  /var/folders/bq/yv49bw8j2kd6w3hsq868qv180000gn/T//ccEK2k0g.s 			page 9


 216              	.LVL10:
 217              	.L14:
 190:smtc_modem_core/device_management/modem_context.c ****         }
 218              		.loc 1 190 42 view .LVU51
 219              	.LBE48:
 220              	.LBE47:
 193:smtc_modem_core/device_management/modem_context.c **** 
 221              		.loc 1 193 1 view .LVU52
 222              		@ sp needed
 223 0010 7047     		bx	lr
 224              	.L20:
 225 0012 C046     		.align	2
 226              	.L19:
 227 0014 00000000 		.word	.LANCHOR0
 228              		.cfi_endproc
 229              	.LFE14:
 231              		.section	.text.get_modem_event_status,"ax",%progbits
 232              		.align	1
 233              		.global	get_modem_event_status
 234              		.syntax unified
 235              		.code	16
 236              		.thumb_func
 237              		.fpu softvfp
 239              	get_modem_event_status:
 240              	.LVL11:
 241              	.LFB15:
 196:smtc_modem_core/device_management/modem_context.c ****     if( event_type >= RSP_NUMBER )
 242              		.loc 1 196 1 is_stmt 1 view -0
 243              		.cfi_startproc
 244              		@ args = 0, pretend = 0, frame = 0
 245              		@ frame_needed = 0, uses_anonymous_args = 0
 197:smtc_modem_core/device_management/modem_context.c ****     {
 246              		.loc 1 197 5 view .LVU54
 196:smtc_modem_core/device_management/modem_context.c ****     if( event_type >= RSP_NUMBER )
 247              		.loc 1 196 1 is_stmt 0 view .LVU55
 248 0000 10B5     		push	{r4, lr}
 249              		.cfi_def_cfa_offset 8
 250              		.cfi_offset 4, -8
 251              		.cfi_offset 14, -4
 196:smtc_modem_core/device_management/modem_context.c ****     if( event_type >= RSP_NUMBER )
 252              		.loc 1 196 1 view .LVU56
 253 0002 0400     		movs	r4, r0
 197:smtc_modem_core/device_management/modem_context.c ****     {
 254              		.loc 1 197 7 view .LVU57
 255 0004 0A28     		cmp	r0, #10
 256 0006 01D9     		bls	.L22
 199:smtc_modem_core/device_management/modem_context.c ****     }
 257              		.loc 1 199 9 is_stmt 1 view .LVU58
 258 0008 FFF7FEFF 		bl	bsp_mcu_panic
 259              	.LVL12:
 260              	.L22:
 201:smtc_modem_core/device_management/modem_context.c **** }
 261              		.loc 1 201 5 view .LVU59
 201:smtc_modem_core/device_management/modem_context.c **** }
 262              		.loc 1 201 32 is_stmt 0 view .LVU60
 263 000c 014B     		ldr	r3, .L23
 202:smtc_modem_core/device_management/modem_context.c **** 
ARM GAS  /var/folders/bq/yv49bw8j2kd6w3hsq868qv180000gn/T//ccEK2k0g.s 			page 10


 264              		.loc 1 202 1 view .LVU61
 265              		@ sp needed
 201:smtc_modem_core/device_management/modem_context.c **** }
 266              		.loc 1 201 32 view .LVU62
 267 000e 185D     		ldrb	r0, [r3, r4]
 202:smtc_modem_core/device_management/modem_context.c **** 
 268              		.loc 1 202 1 view .LVU63
 269 0010 10BD     		pop	{r4, pc}
 270              	.L24:
 271 0012 C046     		.align	2
 272              	.L23:
 273 0014 00000000 		.word	.LANCHOR1
 274              		.cfi_endproc
 275              	.LFE15:
 277              		.section	.text.set_modem_event_status,"ax",%progbits
 278              		.align	1
 279              		.global	set_modem_event_status
 280              		.syntax unified
 281              		.code	16
 282              		.thumb_func
 283              		.fpu softvfp
 285              	set_modem_event_status:
 286              	.LVL13:
 287              	.LFB16:
 205:smtc_modem_core/device_management/modem_context.c ****     if( event_type < RSP_NUMBER )
 288              		.loc 1 205 1 is_stmt 1 view -0
 289              		.cfi_startproc
 290              		@ args = 0, pretend = 0, frame = 0
 291              		@ frame_needed = 0, uses_anonymous_args = 0
 292              		@ link register save eliminated.
 206:smtc_modem_core/device_management/modem_context.c ****     {
 293              		.loc 1 206 5 view .LVU65
 206:smtc_modem_core/device_management/modem_context.c ****     {
 294              		.loc 1 206 7 is_stmt 0 view .LVU66
 295 0000 0A28     		cmp	r0, #10
 296 0002 01D8     		bhi	.L25
 297              		.loc 1 208 9 is_stmt 1 view .LVU67
 298              		.loc 1 208 40 is_stmt 0 view .LVU68
 299 0004 014B     		ldr	r3, .L27
 300 0006 1954     		strb	r1, [r3, r0]
 301              	.L25:
 209:smtc_modem_core/device_management/modem_context.c ****     }
 210:smtc_modem_core/device_management/modem_context.c **** }
 302              		.loc 1 210 1 view .LVU69
 303              		@ sp needed
 304 0008 7047     		bx	lr
 305              	.L28:
 306 000a C046     		.align	2
 307              	.L27:
 308 000c 00000000 		.word	.LANCHOR1
 309              		.cfi_endproc
 310              	.LFE16:
 312              		.section	.text.decrement_asynchronous_msgnumber,"ax",%progbits
 313              		.align	1
 314              		.global	decrement_asynchronous_msgnumber
 315              		.syntax unified
 316              		.code	16
ARM GAS  /var/folders/bq/yv49bw8j2kd6w3hsq868qv180000gn/T//ccEK2k0g.s 			page 11


 317              		.thumb_func
 318              		.fpu softvfp
 320              	decrement_asynchronous_msgnumber:
 321              	.LFB17:
 211:smtc_modem_core/device_management/modem_context.c **** 
 212:smtc_modem_core/device_management/modem_context.c **** void decrement_asynchronous_msgnumber( void )
 213:smtc_modem_core/device_management/modem_context.c **** {
 322              		.loc 1 213 1 is_stmt 1 view -0
 323              		.cfi_startproc
 324              		@ args = 0, pretend = 0, frame = 0
 325              		@ frame_needed = 0, uses_anonymous_args = 0
 326              		@ link register save eliminated.
 214:smtc_modem_core/device_management/modem_context.c ****     if( asynchronous_msgnumber > 0 )
 327              		.loc 1 214 5 view .LVU71
 328              		.loc 1 214 32 is_stmt 0 view .LVU72
 329 0000 034A     		ldr	r2, .L34
 330 0002 1378     		ldrb	r3, [r2]
 331              		.loc 1 214 7 view .LVU73
 332 0004 002B     		cmp	r3, #0
 333 0006 01D0     		beq	.L30
 215:smtc_modem_core/device_management/modem_context.c ****     {
 216:smtc_modem_core/device_management/modem_context.c ****         asynchronous_msgnumber--;
 334              		.loc 1 216 9 is_stmt 1 view .LVU74
 335              		.loc 1 216 31 is_stmt 0 view .LVU75
 336 0008 013B     		subs	r3, r3, #1
 337 000a DBB2     		uxtb	r3, r3
 338              	.L30:
 217:smtc_modem_core/device_management/modem_context.c ****     }
 218:smtc_modem_core/device_management/modem_context.c ****     else
 219:smtc_modem_core/device_management/modem_context.c ****     {
 220:smtc_modem_core/device_management/modem_context.c ****         asynchronous_msgnumber = 0;
 221:smtc_modem_core/device_management/modem_context.c ****     }
 222:smtc_modem_core/device_management/modem_context.c **** }
 339              		.loc 1 222 1 view .LVU76
 340              		@ sp needed
 341 000c 1370     		strb	r3, [r2]
 342 000e 7047     		bx	lr
 343              	.L35:
 344              		.align	2
 345              	.L34:
 346 0010 00000000 		.word	.LANCHOR2
 347              		.cfi_endproc
 348              	.LFE17:
 350              		.section	.text.get_asynchronous_msgnumber,"ax",%progbits
 351              		.align	1
 352              		.global	get_asynchronous_msgnumber
 353              		.syntax unified
 354              		.code	16
 355              		.thumb_func
 356              		.fpu softvfp
 358              	get_asynchronous_msgnumber:
 359              	.LFB18:
 223:smtc_modem_core/device_management/modem_context.c **** 
 224:smtc_modem_core/device_management/modem_context.c **** uint8_t get_asynchronous_msgnumber( void )
 225:smtc_modem_core/device_management/modem_context.c **** {
 360              		.loc 1 225 1 is_stmt 1 view -0
 361              		.cfi_startproc
ARM GAS  /var/folders/bq/yv49bw8j2kd6w3hsq868qv180000gn/T//ccEK2k0g.s 			page 12


 362              		@ args = 0, pretend = 0, frame = 0
 363              		@ frame_needed = 0, uses_anonymous_args = 0
 364              		@ link register save eliminated.
 226:smtc_modem_core/device_management/modem_context.c ****     return ( asynchronous_msgnumber );
 365              		.loc 1 226 5 view .LVU78
 366              		.loc 1 226 12 is_stmt 0 view .LVU79
 367 0000 014B     		ldr	r3, .L37
 227:smtc_modem_core/device_management/modem_context.c **** }
 368              		.loc 1 227 1 view .LVU80
 369              		@ sp needed
 226:smtc_modem_core/device_management/modem_context.c ****     return ( asynchronous_msgnumber );
 370              		.loc 1 226 12 view .LVU81
 371 0002 1878     		ldrb	r0, [r3]
 372              		.loc 1 227 1 view .LVU82
 373 0004 7047     		bx	lr
 374              	.L38:
 375 0006 C046     		.align	2
 376              	.L37:
 377 0008 00000000 		.word	.LANCHOR2
 378              		.cfi_endproc
 379              	.LFE18:
 381              		.section	.rodata.increment_asynchronous_msgnumber.str1.1,"aMS",%progbits,1
 382              	.LC10:
 383 0000 1B5B303B 		.ascii	"\033[0;31m\000"
 383      33316D00 
 384              	.LC12:
 385 0008 4552524F 		.ascii	"ERROR: \000"
 385      523A2000 
 386              	.LC14:
 387 0010 204D6F64 		.ascii	" Modem reach the max number of asynch message\000"
 387      656D2072 
 387      65616368 
 387      20746865 
 387      206D6178 
 388              	.LC16:
 389 003e 1B5B306D 		.ascii	"\033[0m\000"
 389      00
 390              	.LC19:
 391 0043 1B5B303B 		.ascii	"\033[0;32m\000"
 391      33326D00 
 392              	.LC21:
 393 004b 494E464F 		.ascii	"INFO : \000"
 393      203A2000 
 394              	.LC23:
 395 0053 696E6372 		.ascii	"increment event RSP_JOINED\012\000"
 395      656D656E 
 395      74206576 
 395      656E7420 
 395      5253505F 
 396              	.LC25:
 397 006f 696E6372 		.ascii	"increment event RSP_ALARM\012\000"
 397      656D656E 
 397      74206576 
 397      656E7420 
 397      5253505F 
 398              	.LC27:
 399 008a 696E6372 		.ascii	"increment event RSP_DOWNDATA\012\000"
ARM GAS  /var/folders/bq/yv49bw8j2kd6w3hsq868qv180000gn/T//ccEK2k0g.s 			page 13


 399      656D656E 
 399      74206576 
 399      656E7420 
 399      5253505F 
 400              	.LC30:
 401 00a8 6576656E 		.ascii	"event count tx done = %d\012\000"
 401      7420636F 
 401      756E7420 
 401      74782064 
 401      6F6E6520 
 402              	.LC32:
 403 00c2 696E6372 		.ascii	"increment event RSP_FILEDONE\012\000"
 403      656D656E 
 403      74206576 
 403      656E7420 
 403      5253505F 
 404              	.LC34:
 405 00e0 696E6372 		.ascii	"increment event RSP_STREAMDONE\012\000"
 405      656D656E 
 405      74206576 
 405      656E7420 
 405      5253505F 
 406              	.LC36:
 407 0100 696E6372 		.ascii	"increment event RSP_SETCONF\012\000"
 407      656D656E 
 407      74206576 
 407      656E7420 
 407      5253505F 
 408              	.LC38:
 409 011d 696E6372 		.ascii	"increment event RSP_MUTE\012\000"
 409      656D656E 
 409      74206576 
 409      656E7420 
 409      5253505F 
 410              		.section	.text.increment_asynchronous_msgnumber,"ax",%progbits
 411              		.align	1
 412              		.global	increment_asynchronous_msgnumber
 413              		.syntax unified
 414              		.code	16
 415              		.thumb_func
 416              		.fpu softvfp
 418              	increment_asynchronous_msgnumber:
 419              	.LVL14:
 420              	.LFB19:
 228:smtc_modem_core/device_management/modem_context.c **** 
 229:smtc_modem_core/device_management/modem_context.c **** void increment_asynchronous_msgnumber( modem_rsp_event_t event_type, uint8_t status )
 230:smtc_modem_core/device_management/modem_context.c **** {
 421              		.loc 1 230 1 is_stmt 1 view -0
 422              		.cfi_startproc
 423              		@ args = 0, pretend = 0, frame = 0
 424              		@ frame_needed = 0, uses_anonymous_args = 0
 231:smtc_modem_core/device_management/modem_context.c ****     // Next condition should never append because only one asynch msg by type of message
 232:smtc_modem_core/device_management/modem_context.c ****     if( asynchronous_msgnumber > RSP_NUMBER )
 425              		.loc 1 232 5 view .LVU84
 230:smtc_modem_core/device_management/modem_context.c ****     // Next condition should never append because only one asynch msg by type of message
 426              		.loc 1 230 1 is_stmt 0 view .LVU85
 427 0000 F8B5     		push	{r3, r4, r5, r6, r7, lr}
ARM GAS  /var/folders/bq/yv49bw8j2kd6w3hsq868qv180000gn/T//ccEK2k0g.s 			page 14


 428              		.cfi_def_cfa_offset 24
 429              		.cfi_offset 3, -24
 430              		.cfi_offset 4, -20
 431              		.cfi_offset 5, -16
 432              		.cfi_offset 6, -12
 433              		.cfi_offset 7, -8
 434              		.cfi_offset 14, -4
 435              		.loc 1 232 32 view .LVU86
 436 0002 3C4F     		ldr	r7, .L55
 230:smtc_modem_core/device_management/modem_context.c ****     // Next condition should never append because only one asynch msg by type of message
 437              		.loc 1 230 1 view .LVU87
 438 0004 0400     		movs	r4, r0
 439              		.loc 1 232 7 view .LVU88
 440 0006 3B78     		ldrb	r3, [r7]
 230:smtc_modem_core/device_management/modem_context.c ****     // Next condition should never append because only one asynch msg by type of message
 441              		.loc 1 230 1 view .LVU89
 442 0008 0D00     		movs	r5, r1
 443              		.loc 1 232 7 view .LVU90
 444 000a 0B2B     		cmp	r3, #11
 445 000c 0CD9     		bls	.L40
 233:smtc_modem_core/device_management/modem_context.c ****     {
 234:smtc_modem_core/device_management/modem_context.c ****         BSP_DBG_TRACE_ERROR( " Modem reach the max number of asynch message" );
 446              		.loc 1 234 9 is_stmt 1 view .LVU91
 447              		.loc 1 234 9 view .LVU92
 448 000e 3A48     		ldr	r0, .L55+4
 449              	.LVL15:
 450              		.loc 1 234 9 is_stmt 0 view .LVU93
 451 0010 FFF7FEFF 		bl	bsp_trace_print
 452              	.LVL16:
 453              		.loc 1 234 9 is_stmt 1 view .LVU94
 454 0014 3948     		ldr	r0, .L55+8
 455 0016 FFF7FEFF 		bl	bsp_trace_print
 456              	.LVL17:
 457              		.loc 1 234 9 view .LVU95
 458 001a 3948     		ldr	r0, .L55+12
 459 001c FFF7FEFF 		bl	bsp_trace_print
 460              	.LVL18:
 461              		.loc 1 234 9 view .LVU96
 462 0020 3848     		ldr	r0, .L55+16
 463 0022 FFF7FEFF 		bl	bsp_trace_print
 464              	.LVL19:
 465              		.loc 1 234 9 view .LVU97
 466              		.loc 1 234 79 view .LVU98
 235:smtc_modem_core/device_management/modem_context.c ****         return;
 467              		.loc 1 235 9 view .LVU99
 468              	.L39:
 236:smtc_modem_core/device_management/modem_context.c ****     }
 237:smtc_modem_core/device_management/modem_context.c ****     uint8_t tmp;
 238:smtc_modem_core/device_management/modem_context.c ****     tmp = get_modem_event_count( event_type );
 239:smtc_modem_core/device_management/modem_context.c ****     if( tmp == 0 )
 240:smtc_modem_core/device_management/modem_context.c ****     {
 241:smtc_modem_core/device_management/modem_context.c ****         asynchronous_msgnumber++;
 242:smtc_modem_core/device_management/modem_context.c ****     }
 243:smtc_modem_core/device_management/modem_context.c **** 
 244:smtc_modem_core/device_management/modem_context.c ****     increment_modem_event_count( event_type );
 245:smtc_modem_core/device_management/modem_context.c ****     set_modem_event_status( event_type, status );
 246:smtc_modem_core/device_management/modem_context.c **** 
ARM GAS  /var/folders/bq/yv49bw8j2kd6w3hsq868qv180000gn/T//ccEK2k0g.s 			page 15


 247:smtc_modem_core/device_management/modem_context.c ****     switch( event_type )
 248:smtc_modem_core/device_management/modem_context.c ****     {
 249:smtc_modem_core/device_management/modem_context.c ****     case RSP_JOINED:
 250:smtc_modem_core/device_management/modem_context.c ****         BSP_DBG_TRACE_INFO( "increment event RSP_JOINED\n" );
 251:smtc_modem_core/device_management/modem_context.c ****         break;
 252:smtc_modem_core/device_management/modem_context.c ****     case RSP_ALARM:
 253:smtc_modem_core/device_management/modem_context.c ****         BSP_DBG_TRACE_INFO( "increment event RSP_ALARM\n" );
 254:smtc_modem_core/device_management/modem_context.c ****         break;
 255:smtc_modem_core/device_management/modem_context.c ****     case RSP_DOWNDATA:
 256:smtc_modem_core/device_management/modem_context.c ****         BSP_DBG_TRACE_INFO( "increment event RSP_DOWNDATA\n" );
 257:smtc_modem_core/device_management/modem_context.c ****         break;
 258:smtc_modem_core/device_management/modem_context.c ****     case RSP_TXDONE:
 259:smtc_modem_core/device_management/modem_context.c ****         BSP_DBG_TRACE_INFO( "event count tx done = %d\n", get_modem_event_count( RSP_TXDONE ) );
 260:smtc_modem_core/device_management/modem_context.c ****         break;
 261:smtc_modem_core/device_management/modem_context.c ****     case RSP_FILEDONE:
 262:smtc_modem_core/device_management/modem_context.c ****         BSP_DBG_TRACE_INFO( "increment event RSP_FILEDONE\n" );
 263:smtc_modem_core/device_management/modem_context.c ****         break;
 264:smtc_modem_core/device_management/modem_context.c ****     case RSP_STREAMDONE:
 265:smtc_modem_core/device_management/modem_context.c ****         BSP_DBG_TRACE_INFO( "increment event RSP_STREAMDONE\n" );
 266:smtc_modem_core/device_management/modem_context.c ****         break;
 267:smtc_modem_core/device_management/modem_context.c ****     case RSP_SETCONF:
 268:smtc_modem_core/device_management/modem_context.c ****         BSP_DBG_TRACE_INFO( "increment event RSP_SETCONF\n" );
 269:smtc_modem_core/device_management/modem_context.c ****         break;
 270:smtc_modem_core/device_management/modem_context.c ****     case RSP_MUTE:
 271:smtc_modem_core/device_management/modem_context.c ****         BSP_DBG_TRACE_INFO( "increment event RSP_MUTE\n" );
 272:smtc_modem_core/device_management/modem_context.c ****         break;
 273:smtc_modem_core/device_management/modem_context.c ****     default:
 274:smtc_modem_core/device_management/modem_context.c **** 
 275:smtc_modem_core/device_management/modem_context.c ****         break;
 276:smtc_modem_core/device_management/modem_context.c ****     }
 277:smtc_modem_core/device_management/modem_context.c ****     asynch_msg[asynchronous_msgnumber] = event_type;
 278:smtc_modem_core/device_management/modem_context.c **** }
 469              		.loc 1 278 1 is_stmt 0 view .LVU100
 470              		@ sp needed
 471 0026 F8BD     		pop	{r3, r4, r5, r6, r7, pc}
 472              	.LVL20:
 473              	.L40:
 474              	.LBB55:
 475              	.LBI55:
 229:smtc_modem_core/device_management/modem_context.c **** {
 476              		.loc 1 229 6 is_stmt 1 view .LVU101
 477              	.LBB56:
 237:smtc_modem_core/device_management/modem_context.c ****     tmp = get_modem_event_count( event_type );
 478              		.loc 1 237 5 view .LVU102
 238:smtc_modem_core/device_management/modem_context.c ****     if( tmp == 0 )
 479              		.loc 1 238 5 view .LVU103
 238:smtc_modem_core/device_management/modem_context.c ****     if( tmp == 0 )
 480              		.loc 1 238 11 is_stmt 0 view .LVU104
 481 0028 FFF7FEFF 		bl	get_modem_event_count
 482              	.LVL21:
 239:smtc_modem_core/device_management/modem_context.c ****     {
 483              		.loc 1 239 5 is_stmt 1 view .LVU105
 239:smtc_modem_core/device_management/modem_context.c ****     {
 484              		.loc 1 239 7 is_stmt 0 view .LVU106
 485 002c 0028     		cmp	r0, #0
 486 002e 02D1     		bne	.L42
 241:smtc_modem_core/device_management/modem_context.c ****     }
ARM GAS  /var/folders/bq/yv49bw8j2kd6w3hsq868qv180000gn/T//ccEK2k0g.s 			page 16


 487              		.loc 1 241 9 is_stmt 1 view .LVU107
 241:smtc_modem_core/device_management/modem_context.c ****     }
 488              		.loc 1 241 31 is_stmt 0 view .LVU108
 489 0030 3B78     		ldrb	r3, [r7]
 490 0032 0133     		adds	r3, r3, #1
 491 0034 3B70     		strb	r3, [r7]
 492              	.L42:
 244:smtc_modem_core/device_management/modem_context.c ****     set_modem_event_status( event_type, status );
 493              		.loc 1 244 5 is_stmt 1 view .LVU109
 494 0036 2000     		movs	r0, r4
 495              	.LVL22:
 244:smtc_modem_core/device_management/modem_context.c ****     set_modem_event_status( event_type, status );
 496              		.loc 1 244 5 is_stmt 0 view .LVU110
 497 0038 FFF7FEFF 		bl	increment_modem_event_count
 498              	.LVL23:
 245:smtc_modem_core/device_management/modem_context.c **** 
 499              		.loc 1 245 5 is_stmt 1 view .LVU111
 500              	.LBB57:
 501              	.LBI57:
 204:smtc_modem_core/device_management/modem_context.c **** {
 502              		.loc 1 204 6 view .LVU112
 503              	.LBB58:
 206:smtc_modem_core/device_management/modem_context.c ****     {
 504              		.loc 1 206 5 view .LVU113
 206:smtc_modem_core/device_management/modem_context.c ****     {
 505              		.loc 1 206 7 is_stmt 0 view .LVU114
 506 003c 0A2C     		cmp	r4, #10
 507 003e 35D8     		bhi	.L43
 208:smtc_modem_core/device_management/modem_context.c ****     }
 508              		.loc 1 208 9 is_stmt 1 view .LVU115
 208:smtc_modem_core/device_management/modem_context.c ****     }
 509              		.loc 1 208 40 is_stmt 0 view .LVU116
 510 0040 314B     		ldr	r3, .L55+20
 511 0042 601E     		subs	r0, r4, #1
 512 0044 1D55     		strb	r5, [r3, r4]
 513              	.LVL24:
 208:smtc_modem_core/device_management/modem_context.c ****     }
 514              		.loc 1 208 40 view .LVU117
 515              	.LBE58:
 516              	.LBE57:
 247:smtc_modem_core/device_management/modem_context.c ****     {
 517              		.loc 1 247 5 is_stmt 1 view .LVU118
 518 0046 0728     		cmp	r0, #7
 519 0048 30D8     		bhi	.L43
 247:smtc_modem_core/device_management/modem_context.c ****     {
 520              		.loc 1 247 5 is_stmt 0 view .LVU119
 521 004a 2E4D     		ldr	r5, .L55+16
 522              	.LVL25:
 247:smtc_modem_core/device_management/modem_context.c ****     {
 523              		.loc 1 247 5 view .LVU120
 524 004c 2F4B     		ldr	r3, .L55+24
 525              	.LVL26:
 247:smtc_modem_core/device_management/modem_context.c ****     {
 526              		.loc 1 247 5 view .LVU121
 527 004e 304E     		ldr	r6, .L55+28
 528 0050 FFF7FEFF 		bl	__gnu_thumb1_case_uqi
 529              	.L45:
ARM GAS  /var/folders/bq/yv49bw8j2kd6w3hsq868qv180000gn/T//ccEK2k0g.s 			page 17


 530 0054 0E       		.byte	(.L52-.L45)/2
 531 0055 04       		.byte	(.L51-.L45)/2
 532 0056 1E       		.byte	(.L50-.L45)/2
 533 0057 16       		.byte	(.L49-.L45)/2
 534 0058 30       		.byte	(.L48-.L45)/2
 535 0059 40       		.byte	(.L47-.L45)/2
 536 005a 48       		.byte	(.L46-.L45)/2
 537 005b 38       		.byte	(.L44-.L45)/2
 538              		.p2align 1
 539              	.L51:
 250:smtc_modem_core/device_management/modem_context.c ****         break;
 540              		.loc 1 250 9 is_stmt 1 view .LVU122
 250:smtc_modem_core/device_management/modem_context.c ****         break;
 541              		.loc 1 250 9 view .LVU123
 542 005c 1800     		movs	r0, r3
 543 005e FFF7FEFF 		bl	bsp_trace_print
 544              	.LVL27:
 250:smtc_modem_core/device_management/modem_context.c ****         break;
 545              		.loc 1 250 9 view .LVU124
 546 0062 3000     		movs	r0, r6
 547 0064 FFF7FEFF 		bl	bsp_trace_print
 548              	.LVL28:
 250:smtc_modem_core/device_management/modem_context.c ****         break;
 549              		.loc 1 250 9 view .LVU125
 550 0068 2A48     		ldr	r0, .L55+32
 551              	.L53:
 271:smtc_modem_core/device_management/modem_context.c ****         break;
 552              		.loc 1 271 9 is_stmt 0 view .LVU126
 553 006a FFF7FEFF 		bl	bsp_trace_print
 554              	.LVL29:
 555 006e 1AE0     		b	.L54
 556              	.LVL30:
 557              	.L52:
 253:smtc_modem_core/device_management/modem_context.c ****         break;
 558              		.loc 1 253 9 is_stmt 1 view .LVU127
 253:smtc_modem_core/device_management/modem_context.c ****         break;
 559              		.loc 1 253 9 view .LVU128
 560 0070 1800     		movs	r0, r3
 561 0072 FFF7FEFF 		bl	bsp_trace_print
 562              	.LVL31:
 253:smtc_modem_core/device_management/modem_context.c ****         break;
 563              		.loc 1 253 9 view .LVU129
 564 0076 3000     		movs	r0, r6
 565 0078 FFF7FEFF 		bl	bsp_trace_print
 566              	.LVL32:
 253:smtc_modem_core/device_management/modem_context.c ****         break;
 567              		.loc 1 253 9 view .LVU130
 568 007c 2648     		ldr	r0, .L55+36
 569 007e F4E7     		b	.L53
 570              	.LVL33:
 571              	.L49:
 256:smtc_modem_core/device_management/modem_context.c ****         break;
 572              		.loc 1 256 9 view .LVU131
 256:smtc_modem_core/device_management/modem_context.c ****         break;
 573              		.loc 1 256 9 view .LVU132
 574 0080 1800     		movs	r0, r3
 575 0082 FFF7FEFF 		bl	bsp_trace_print
ARM GAS  /var/folders/bq/yv49bw8j2kd6w3hsq868qv180000gn/T//ccEK2k0g.s 			page 18


 576              	.LVL34:
 256:smtc_modem_core/device_management/modem_context.c ****         break;
 577              		.loc 1 256 9 view .LVU133
 578 0086 3000     		movs	r0, r6
 579 0088 FFF7FEFF 		bl	bsp_trace_print
 580              	.LVL35:
 256:smtc_modem_core/device_management/modem_context.c ****         break;
 581              		.loc 1 256 9 view .LVU134
 582 008c 2348     		ldr	r0, .L55+40
 583 008e ECE7     		b	.L53
 584              	.LVL36:
 585              	.L50:
 259:smtc_modem_core/device_management/modem_context.c ****         break;
 586              		.loc 1 259 9 view .LVU135
 259:smtc_modem_core/device_management/modem_context.c ****         break;
 587              		.loc 1 259 9 view .LVU136
 588 0090 1800     		movs	r0, r3
 589 0092 FFF7FEFF 		bl	bsp_trace_print
 590              	.LVL37:
 259:smtc_modem_core/device_management/modem_context.c ****         break;
 591              		.loc 1 259 9 view .LVU137
 592 0096 3000     		movs	r0, r6
 593 0098 FFF7FEFF 		bl	bsp_trace_print
 594              	.LVL38:
 259:smtc_modem_core/device_management/modem_context.c ****         break;
 595              		.loc 1 259 9 view .LVU138
 596              	.LBB59:
 597              	.LBI59:
 166:smtc_modem_core/device_management/modem_context.c **** {
 598              		.loc 1 166 9 view .LVU139
 599              	.LBB60:
 168:smtc_modem_core/device_management/modem_context.c ****     {
 600              		.loc 1 168 5 view .LVU140
 173:smtc_modem_core/device_management/modem_context.c **** }
 601              		.loc 1 173 5 view .LVU141
 173:smtc_modem_core/device_management/modem_context.c **** }
 602              		.loc 1 173 31 is_stmt 0 view .LVU142
 603 009c 204B     		ldr	r3, .L55+44
 604              	.LBE60:
 605              	.LBE59:
 259:smtc_modem_core/device_management/modem_context.c ****         break;
 606              		.loc 1 259 9 view .LVU143
 607 009e 2148     		ldr	r0, .L55+48
 608 00a0 D978     		ldrb	r1, [r3, #3]
 609 00a2 FFF7FEFF 		bl	bsp_trace_print
 610              	.LVL39:
 259:smtc_modem_core/device_management/modem_context.c ****         break;
 611              		.loc 1 259 9 is_stmt 1 view .LVU144
 612              	.L54:
 271:smtc_modem_core/device_management/modem_context.c ****         break;
 613              		.loc 1 271 9 view .LVU145
 614 00a6 2800     		movs	r0, r5
 615 00a8 FFF7FEFF 		bl	bsp_trace_print
 616              	.LVL40:
 271:smtc_modem_core/device_management/modem_context.c ****         break;
 617              		.loc 1 271 9 view .LVU146
 271:smtc_modem_core/device_management/modem_context.c ****         break;
ARM GAS  /var/folders/bq/yv49bw8j2kd6w3hsq868qv180000gn/T//ccEK2k0g.s 			page 19


 618              		.loc 1 271 59 view .LVU147
 272:smtc_modem_core/device_management/modem_context.c ****     default:
 619              		.loc 1 272 9 view .LVU148
 620              	.L43:
 277:smtc_modem_core/device_management/modem_context.c **** }
 621              		.loc 1 277 5 view .LVU149
 277:smtc_modem_core/device_management/modem_context.c **** }
 622              		.loc 1 277 15 is_stmt 0 view .LVU150
 623 00ac 3B78     		ldrb	r3, [r7]
 277:smtc_modem_core/device_management/modem_context.c **** }
 624              		.loc 1 277 40 view .LVU151
 625 00ae 1E4A     		ldr	r2, .L55+52
 626 00b0 D454     		strb	r4, [r2, r3]
 627              	.LVL41:
 277:smtc_modem_core/device_management/modem_context.c **** }
 628              		.loc 1 277 40 view .LVU152
 629 00b2 B8E7     		b	.L39
 630              	.LVL42:
 631              	.L48:
 262:smtc_modem_core/device_management/modem_context.c ****         break;
 632              		.loc 1 262 9 is_stmt 1 view .LVU153
 262:smtc_modem_core/device_management/modem_context.c ****         break;
 633              		.loc 1 262 9 view .LVU154
 634 00b4 1800     		movs	r0, r3
 635 00b6 FFF7FEFF 		bl	bsp_trace_print
 636              	.LVL43:
 262:smtc_modem_core/device_management/modem_context.c ****         break;
 637              		.loc 1 262 9 view .LVU155
 638 00ba 3000     		movs	r0, r6
 639 00bc FFF7FEFF 		bl	bsp_trace_print
 640              	.LVL44:
 262:smtc_modem_core/device_management/modem_context.c ****         break;
 641              		.loc 1 262 9 view .LVU156
 642 00c0 1A48     		ldr	r0, .L55+56
 643 00c2 D2E7     		b	.L53
 644              	.LVL45:
 645              	.L44:
 265:smtc_modem_core/device_management/modem_context.c ****         break;
 646              		.loc 1 265 9 view .LVU157
 265:smtc_modem_core/device_management/modem_context.c ****         break;
 647              		.loc 1 265 9 view .LVU158
 648 00c4 1800     		movs	r0, r3
 649 00c6 FFF7FEFF 		bl	bsp_trace_print
 650              	.LVL46:
 265:smtc_modem_core/device_management/modem_context.c ****         break;
 651              		.loc 1 265 9 view .LVU159
 652 00ca 3000     		movs	r0, r6
 653 00cc FFF7FEFF 		bl	bsp_trace_print
 654              	.LVL47:
 265:smtc_modem_core/device_management/modem_context.c ****         break;
 655              		.loc 1 265 9 view .LVU160
 656 00d0 1748     		ldr	r0, .L55+60
 657 00d2 CAE7     		b	.L53
 658              	.LVL48:
 659              	.L47:
 268:smtc_modem_core/device_management/modem_context.c ****         break;
 660              		.loc 1 268 9 view .LVU161
ARM GAS  /var/folders/bq/yv49bw8j2kd6w3hsq868qv180000gn/T//ccEK2k0g.s 			page 20


 268:smtc_modem_core/device_management/modem_context.c ****         break;
 661              		.loc 1 268 9 view .LVU162
 662 00d4 1800     		movs	r0, r3
 663 00d6 FFF7FEFF 		bl	bsp_trace_print
 664              	.LVL49:
 268:smtc_modem_core/device_management/modem_context.c ****         break;
 665              		.loc 1 268 9 view .LVU163
 666 00da 3000     		movs	r0, r6
 667 00dc FFF7FEFF 		bl	bsp_trace_print
 668              	.LVL50:
 268:smtc_modem_core/device_management/modem_context.c ****         break;
 669              		.loc 1 268 9 view .LVU164
 670 00e0 1448     		ldr	r0, .L55+64
 671 00e2 C2E7     		b	.L53
 672              	.LVL51:
 673              	.L46:
 271:smtc_modem_core/device_management/modem_context.c ****         break;
 674              		.loc 1 271 9 view .LVU165
 271:smtc_modem_core/device_management/modem_context.c ****         break;
 675              		.loc 1 271 9 view .LVU166
 676 00e4 1800     		movs	r0, r3
 677 00e6 FFF7FEFF 		bl	bsp_trace_print
 678              	.LVL52:
 271:smtc_modem_core/device_management/modem_context.c ****         break;
 679              		.loc 1 271 9 view .LVU167
 680 00ea 3000     		movs	r0, r6
 681 00ec FFF7FEFF 		bl	bsp_trace_print
 682              	.LVL53:
 271:smtc_modem_core/device_management/modem_context.c ****         break;
 683              		.loc 1 271 9 view .LVU168
 684 00f0 1148     		ldr	r0, .L55+68
 685 00f2 BAE7     		b	.L53
 686              	.L56:
 687              		.align	2
 688              	.L55:
 689 00f4 00000000 		.word	.LANCHOR2
 690 00f8 00000000 		.word	.LC10
 691 00fc 08000000 		.word	.LC12
 692 0100 10000000 		.word	.LC14
 693 0104 3E000000 		.word	.LC16
 694 0108 00000000 		.word	.LANCHOR1
 695 010c 43000000 		.word	.LC19
 696 0110 4B000000 		.word	.LC21
 697 0114 53000000 		.word	.LC23
 698 0118 6F000000 		.word	.LC25
 699 011c 8A000000 		.word	.LC27
 700 0120 00000000 		.word	.LANCHOR0
 701 0124 A8000000 		.word	.LC30
 702 0128 00000000 		.word	.LANCHOR3
 703 012c C2000000 		.word	.LC32
 704 0130 E0000000 		.word	.LC34
 705 0134 00010000 		.word	.LC36
 706 0138 1D010000 		.word	.LC38
 707              	.LBE56:
 708              	.LBE55:
 709              		.cfi_endproc
 710              	.LFE19:
ARM GAS  /var/folders/bq/yv49bw8j2kd6w3hsq868qv180000gn/T//ccEK2k0g.s 			page 21


 712              		.section	.text.get_last_msg_event,"ax",%progbits
 713              		.align	1
 714              		.global	get_last_msg_event
 715              		.syntax unified
 716              		.code	16
 717              		.thumb_func
 718              		.fpu softvfp
 720              	get_last_msg_event:
 721              	.LFB20:
 279:smtc_modem_core/device_management/modem_context.c **** 
 280:smtc_modem_core/device_management/modem_context.c **** modem_rsp_event_t get_last_msg_event( void )
 281:smtc_modem_core/device_management/modem_context.c **** {
 722              		.loc 1 281 1 view -0
 723              		.cfi_startproc
 724              		@ args = 0, pretend = 0, frame = 0
 725              		@ frame_needed = 0, uses_anonymous_args = 0
 726              		@ link register save eliminated.
 282:smtc_modem_core/device_management/modem_context.c ****     return ( modem_rsp_event_t ) asynch_msg[asynchronous_msgnumber];
 727              		.loc 1 282 5 view .LVU170
 728              		.loc 1 282 12 is_stmt 0 view .LVU171
 729 0000 024B     		ldr	r3, .L58
 730 0002 034A     		ldr	r2, .L58+4
 731 0004 1B78     		ldrb	r3, [r3]
 283:smtc_modem_core/device_management/modem_context.c **** }
 732              		.loc 1 283 1 view .LVU172
 733              		@ sp needed
 282:smtc_modem_core/device_management/modem_context.c ****     return ( modem_rsp_event_t ) asynch_msg[asynchronous_msgnumber];
 734              		.loc 1 282 12 view .LVU173
 735 0006 D05C     		ldrb	r0, [r2, r3]
 736              		.loc 1 283 1 view .LVU174
 737 0008 7047     		bx	lr
 738              	.L59:
 739 000a C046     		.align	2
 740              	.L58:
 741 000c 00000000 		.word	.LANCHOR2
 742 0010 00000000 		.word	.LANCHOR3
 743              		.cfi_endproc
 744              	.LFE20:
 746              		.section	.text.get_modem_uptime_s,"ax",%progbits
 747              		.align	1
 748              		.global	get_modem_uptime_s
 749              		.syntax unified
 750              		.code	16
 751              		.thumb_func
 752              		.fpu softvfp
 754              	get_modem_uptime_s:
 755              	.LFB21:
 284:smtc_modem_core/device_management/modem_context.c **** 
 285:smtc_modem_core/device_management/modem_context.c **** uint32_t get_modem_uptime_s( void )
 286:smtc_modem_core/device_management/modem_context.c **** {
 756              		.loc 1 286 1 is_stmt 1 view -0
 757              		.cfi_startproc
 758              		@ args = 0, pretend = 0, frame = 0
 759              		@ frame_needed = 0, uses_anonymous_args = 0
 287:smtc_modem_core/device_management/modem_context.c ****     return ( bsp_rtc_get_time_s( ) - modem_start_time );
 760              		.loc 1 287 5 view .LVU176
 286:smtc_modem_core/device_management/modem_context.c ****     return ( bsp_rtc_get_time_s( ) - modem_start_time );
ARM GAS  /var/folders/bq/yv49bw8j2kd6w3hsq868qv180000gn/T//ccEK2k0g.s 			page 22


 761              		.loc 1 286 1 is_stmt 0 view .LVU177
 762 0000 10B5     		push	{r4, lr}
 763              		.cfi_def_cfa_offset 8
 764              		.cfi_offset 4, -8
 765              		.cfi_offset 14, -4
 766              		.loc 1 287 14 view .LVU178
 767 0002 FFF7FEFF 		bl	bsp_rtc_get_time_s
 768              	.LVL54:
 769              		.loc 1 287 36 view .LVU179
 770 0006 024B     		ldr	r3, .L61
 288:smtc_modem_core/device_management/modem_context.c **** }
 771              		.loc 1 288 1 view .LVU180
 772              		@ sp needed
 287:smtc_modem_core/device_management/modem_context.c ****     return ( bsp_rtc_get_time_s( ) - modem_start_time );
 773              		.loc 1 287 36 view .LVU181
 774 0008 1B68     		ldr	r3, [r3]
 775 000a C01A     		subs	r0, r0, r3
 776              		.loc 1 288 1 view .LVU182
 777 000c 10BD     		pop	{r4, pc}
 778              	.L62:
 779 000e C046     		.align	2
 780              	.L61:
 781 0010 00000000 		.word	.LANCHOR4
 782              		.cfi_endproc
 783              	.LFE21:
 785              		.section	.text.set_modem_start_time_s,"ax",%progbits
 786              		.align	1
 787              		.global	set_modem_start_time_s
 788              		.syntax unified
 789              		.code	16
 790              		.thumb_func
 791              		.fpu softvfp
 793              	set_modem_start_time_s:
 794              	.LVL55:
 795              	.LFB22:
 289:smtc_modem_core/device_management/modem_context.c **** 
 290:smtc_modem_core/device_management/modem_context.c **** void set_modem_start_time_s( uint32_t time )
 291:smtc_modem_core/device_management/modem_context.c **** {
 796              		.loc 1 291 1 is_stmt 1 view -0
 797              		.cfi_startproc
 798              		@ args = 0, pretend = 0, frame = 0
 799              		@ frame_needed = 0, uses_anonymous_args = 0
 800              		@ link register save eliminated.
 292:smtc_modem_core/device_management/modem_context.c ****     static bool was_set = false;
 801              		.loc 1 292 5 view .LVU184
 293:smtc_modem_core/device_management/modem_context.c ****     if( !was_set )
 802              		.loc 1 293 5 view .LVU185
 803              		.loc 1 293 9 is_stmt 0 view .LVU186
 804 0000 044B     		ldr	r3, .L65
 805              		.loc 1 293 7 view .LVU187
 806 0002 1A78     		ldrb	r2, [r3]
 807 0004 002A     		cmp	r2, #0
 808 0006 03D1     		bne	.L63
 294:smtc_modem_core/device_management/modem_context.c ****     {
 295:smtc_modem_core/device_management/modem_context.c ****         was_set          = true;
 809              		.loc 1 295 9 is_stmt 1 view .LVU188
 810              		.loc 1 295 26 is_stmt 0 view .LVU189
ARM GAS  /var/folders/bq/yv49bw8j2kd6w3hsq868qv180000gn/T//ccEK2k0g.s 			page 23


 811 0008 0132     		adds	r2, r2, #1
 812 000a 1A70     		strb	r2, [r3]
 296:smtc_modem_core/device_management/modem_context.c ****         modem_start_time = time;
 813              		.loc 1 296 9 is_stmt 1 view .LVU190
 814              		.loc 1 296 26 is_stmt 0 view .LVU191
 815 000c 024B     		ldr	r3, .L65+4
 816 000e 1860     		str	r0, [r3]
 817              	.L63:
 297:smtc_modem_core/device_management/modem_context.c ****     }
 298:smtc_modem_core/device_management/modem_context.c **** }
 818              		.loc 1 298 1 view .LVU192
 819              		@ sp needed
 820 0010 7047     		bx	lr
 821              	.L66:
 822 0012 C046     		.align	2
 823              	.L65:
 824 0014 00000000 		.word	.LANCHOR5
 825 0018 00000000 		.word	.LANCHOR4
 826              		.cfi_endproc
 827              	.LFE22:
 829              		.section	.text.get_modem_dm_interval,"ax",%progbits
 830              		.align	1
 831              		.global	get_modem_dm_interval
 832              		.syntax unified
 833              		.code	16
 834              		.thumb_func
 835              		.fpu softvfp
 837              	get_modem_dm_interval:
 838              	.LFB24:
 299:smtc_modem_core/device_management/modem_context.c **** 
 300:smtc_modem_core/device_management/modem_context.c **** e_set_error_t set_modem_dm_interval( uint8_t interval )
 301:smtc_modem_core/device_management/modem_context.c **** {
 302:smtc_modem_core/device_management/modem_context.c ****     if( modem_dm_interval != interval )
 303:smtc_modem_core/device_management/modem_context.c ****     {
 304:smtc_modem_core/device_management/modem_context.c ****         modem_dm_interval = interval;
 305:smtc_modem_core/device_management/modem_context.c ****         modem_store_context( );
 306:smtc_modem_core/device_management/modem_context.c ****     }
 307:smtc_modem_core/device_management/modem_context.c **** 
 308:smtc_modem_core/device_management/modem_context.c ****     return ( SET_OK );
 309:smtc_modem_core/device_management/modem_context.c **** }
 310:smtc_modem_core/device_management/modem_context.c **** uint8_t get_modem_dm_interval( void )
 311:smtc_modem_core/device_management/modem_context.c **** {
 839              		.loc 1 311 1 is_stmt 1 view -0
 840              		.cfi_startproc
 841              		@ args = 0, pretend = 0, frame = 0
 842              		@ frame_needed = 0, uses_anonymous_args = 0
 843              		@ link register save eliminated.
 312:smtc_modem_core/device_management/modem_context.c ****     return ( modem_dm_interval );
 844              		.loc 1 312 5 view .LVU194
 845              		.loc 1 312 12 is_stmt 0 view .LVU195
 846 0000 014B     		ldr	r3, .L68
 313:smtc_modem_core/device_management/modem_context.c **** }
 847              		.loc 1 313 1 view .LVU196
 848              		@ sp needed
 312:smtc_modem_core/device_management/modem_context.c ****     return ( modem_dm_interval );
 849              		.loc 1 312 12 view .LVU197
 850 0002 1878     		ldrb	r0, [r3]
ARM GAS  /var/folders/bq/yv49bw8j2kd6w3hsq868qv180000gn/T//ccEK2k0g.s 			page 24


 851              		.loc 1 313 1 view .LVU198
 852 0004 7047     		bx	lr
 853              	.L69:
 854 0006 C046     		.align	2
 855              	.L68:
 856 0008 00000000 		.word	.LANCHOR6
 857              		.cfi_endproc
 858              	.LFE24:
 860              		.section	.text.get_modem_dm_interval_second,"ax",%progbits
 861              		.align	1
 862              		.global	get_modem_dm_interval_second
 863              		.syntax unified
 864              		.code	16
 865              		.thumb_func
 866              		.fpu softvfp
 868              	get_modem_dm_interval_second:
 869              	.LFB25:
 314:smtc_modem_core/device_management/modem_context.c **** uint32_t get_modem_dm_interval_second( void )
 315:smtc_modem_core/device_management/modem_context.c **** {
 870              		.loc 1 315 1 is_stmt 1 view -0
 871              		.cfi_startproc
 872              		@ args = 0, pretend = 0, frame = 0
 873              		@ frame_needed = 0, uses_anonymous_args = 0
 874              		@ link register save eliminated.
 316:smtc_modem_core/device_management/modem_context.c ****     uint8_t  dm_interval = get_modem_dm_interval( );
 875              		.loc 1 316 5 view .LVU200
 876              	.LBB61:
 877              	.LBI61:
 310:smtc_modem_core/device_management/modem_context.c **** {
 878              		.loc 1 310 9 view .LVU201
 879              	.LBB62:
 312:smtc_modem_core/device_management/modem_context.c **** }
 880              		.loc 1 312 5 view .LVU202
 881 0000 3F22     		movs	r2, #63
 312:smtc_modem_core/device_management/modem_context.c **** }
 882              		.loc 1 312 12 is_stmt 0 view .LVU203
 883 0002 094B     		ldr	r3, .L76
 884 0004 1878     		ldrb	r0, [r3]
 885              	.LVL56:
 312:smtc_modem_core/device_management/modem_context.c **** }
 886              		.loc 1 312 12 view .LVU204
 887              	.LBE62:
 888              	.LBE61:
 317:smtc_modem_core/device_management/modem_context.c ****     uint32_t temp;
 889              		.loc 1 317 5 is_stmt 1 view .LVU205
 318:smtc_modem_core/device_management/modem_context.c ****     switch( ( dm_interval >> 6 ) & 0x03 )
 890              		.loc 1 318 5 view .LVU206
 891              		.loc 1 318 34 is_stmt 0 view .LVU207
 892 0006 8309     		lsrs	r3, r0, #6
 893 0008 1040     		ands	r0, r2
 894              	.LVL57:
 895              		.loc 1 318 5 view .LVU208
 896 000a 022B     		cmp	r3, #2
 897 000c 06D0     		beq	.L71
 898 000e 032B     		cmp	r3, #3
 899 0010 07D0     		beq	.L72
 900 0012 012B     		cmp	r3, #1
ARM GAS  /var/folders/bq/yv49bw8j2kd6w3hsq868qv180000gn/T//ccEK2k0g.s 			page 25


 901 0014 01D1     		bne	.L70
 319:smtc_modem_core/device_management/modem_context.c ****     {
 320:smtc_modem_core/device_management/modem_context.c ****     case DM_INTERVAL_UNIT_SEC:
 321:smtc_modem_core/device_management/modem_context.c ****         temp = ( dm_interval & 0x3F );
 322:smtc_modem_core/device_management/modem_context.c ****         break;
 323:smtc_modem_core/device_management/modem_context.c ****     case DM_INTERVAL_UNIT_DAY:
 324:smtc_modem_core/device_management/modem_context.c ****         temp = ( dm_interval & 0x3F ) * 3600 * 24;
 902              		.loc 1 324 9 is_stmt 1 view .LVU209
 903              		.loc 1 324 46 is_stmt 0 view .LVU210
 904 0016 054B     		ldr	r3, .L76+4
 905              	.L75:
 325:smtc_modem_core/device_management/modem_context.c ****         break;
 326:smtc_modem_core/device_management/modem_context.c ****     case DM_INTERVAL_UNIT_HOUR:
 327:smtc_modem_core/device_management/modem_context.c ****         temp = ( dm_interval & 0x3F ) * 3600;
 328:smtc_modem_core/device_management/modem_context.c ****         break;
 329:smtc_modem_core/device_management/modem_context.c ****     case DM_INTERVAL_UNIT_MIN:
 330:smtc_modem_core/device_management/modem_context.c ****         temp = ( dm_interval & 0x3F ) * 60;
 906              		.loc 1 330 39 view .LVU211
 907 0018 5843     		muls	r0, r3
 908              	.LVL58:
 331:smtc_modem_core/device_management/modem_context.c ****         break;
 909              		.loc 1 331 9 is_stmt 1 view .LVU212
 332:smtc_modem_core/device_management/modem_context.c ****     default:  // never reach
 333:smtc_modem_core/device_management/modem_context.c ****         BSP_DBG_TRACE_ERROR( "in get_modem_dm_interval_second \n" );
 334:smtc_modem_core/device_management/modem_context.c ****         bsp_mcu_panic( );
 335:smtc_modem_core/device_management/modem_context.c ****         break;
 336:smtc_modem_core/device_management/modem_context.c ****     }
 337:smtc_modem_core/device_management/modem_context.c ****     return temp;
 910              		.loc 1 337 5 view .LVU213
 911              	.L70:
 338:smtc_modem_core/device_management/modem_context.c **** }
 912              		.loc 1 338 1 is_stmt 0 view .LVU214
 913              		@ sp needed
 914 001a 7047     		bx	lr
 915              	.L71:
 327:smtc_modem_core/device_management/modem_context.c ****         break;
 916              		.loc 1 327 9 is_stmt 1 view .LVU215
 327:smtc_modem_core/device_management/modem_context.c ****         break;
 917              		.loc 1 327 39 is_stmt 0 view .LVU216
 918 001c E123     		movs	r3, #225
 919 001e 1B01     		lsls	r3, r3, #4
 920 0020 FAE7     		b	.L75
 921              	.L72:
 330:smtc_modem_core/device_management/modem_context.c ****         break;
 922              		.loc 1 330 9 is_stmt 1 view .LVU217
 330:smtc_modem_core/device_management/modem_context.c ****         break;
 923              		.loc 1 330 39 is_stmt 0 view .LVU218
 924 0022 3C23     		movs	r3, #60
 925 0024 F8E7     		b	.L75
 926              	.L77:
 927 0026 C046     		.align	2
 928              	.L76:
 929 0028 00000000 		.word	.LANCHOR6
 930 002c 80510100 		.word	86400
 931              		.cfi_endproc
 932              	.LFE25:
 934              		.section	.rodata.set_modem_class.str1.1,"aMS",%progbits,1
ARM GAS  /var/folders/bq/yv49bw8j2kd6w3hsq868qv180000gn/T//ccEK2k0g.s 			page 26


 935              	.LC50:
 936 0000 6D6F6465 		.ascii	"modem class invalid\000"
 936      6D20636C 
 936      61737320 
 936      696E7661 
 936      6C696400 
 937              		.section	.text.set_modem_class,"ax",%progbits
 938              		.align	1
 939              		.global	set_modem_class
 940              		.syntax unified
 941              		.code	16
 942              		.thumb_func
 943              		.fpu softvfp
 945              	set_modem_class:
 946              	.LVL59:
 947              	.LFB26:
 339:smtc_modem_core/device_management/modem_context.c **** 
 340:smtc_modem_core/device_management/modem_context.c **** e_set_error_t set_modem_class( modem_class_t LoRaWAN_class )
 341:smtc_modem_core/device_management/modem_context.c **** {
 948              		.loc 1 341 1 is_stmt 1 view -0
 949              		.cfi_startproc
 950              		@ args = 0, pretend = 0, frame = 0
 951              		@ frame_needed = 0, uses_anonymous_args = 0
 342:smtc_modem_core/device_management/modem_context.c ****     if( LoRaWAN_class != MODEM_CLASS_A )
 952              		.loc 1 342 5 view .LVU220
 341:smtc_modem_core/device_management/modem_context.c ****     if( LoRaWAN_class != MODEM_CLASS_A )
 953              		.loc 1 341 1 is_stmt 0 view .LVU221
 954 0000 10B5     		push	{r4, lr}
 955              		.cfi_def_cfa_offset 8
 956              		.cfi_offset 4, -8
 957              		.cfi_offset 14, -4
 958              		.loc 1 342 7 view .LVU222
 959 0002 0028     		cmp	r0, #0
 960 0004 0DD0     		beq	.L79
 343:smtc_modem_core/device_management/modem_context.c ****     {
 344:smtc_modem_core/device_management/modem_context.c ****         BSP_DBG_TRACE_ERROR( "modem class invalid" );
 961              		.loc 1 344 9 is_stmt 1 view .LVU223
 962              		.loc 1 344 9 view .LVU224
 963 0006 0948     		ldr	r0, .L81
 964              	.LVL60:
 965              		.loc 1 344 9 is_stmt 0 view .LVU225
 966 0008 FFF7FEFF 		bl	bsp_trace_print
 967              	.LVL61:
 968              		.loc 1 344 9 is_stmt 1 view .LVU226
 969 000c 0848     		ldr	r0, .L81+4
 970 000e FFF7FEFF 		bl	bsp_trace_print
 971              	.LVL62:
 972              		.loc 1 344 9 view .LVU227
 973 0012 0848     		ldr	r0, .L81+8
 974 0014 FFF7FEFF 		bl	bsp_trace_print
 975              	.LVL63:
 976              		.loc 1 344 9 view .LVU228
 977 0018 0748     		ldr	r0, .L81+12
 978 001a FFF7FEFF 		bl	bsp_trace_print
 979              	.LVL64:
 980              		.loc 1 344 9 view .LVU229
 981              		.loc 1 344 53 view .LVU230
ARM GAS  /var/folders/bq/yv49bw8j2kd6w3hsq868qv180000gn/T//ccEK2k0g.s 			page 27


 345:smtc_modem_core/device_management/modem_context.c ****         return ( SET_ERROR );
 982              		.loc 1 345 9 view .LVU231
 983              		.loc 1 345 16 is_stmt 0 view .LVU232
 984 001e 0020     		movs	r0, #0
 985              	.L80:
 346:smtc_modem_core/device_management/modem_context.c ****     }
 347:smtc_modem_core/device_management/modem_context.c ****     else
 348:smtc_modem_core/device_management/modem_context.c ****     {
 349:smtc_modem_core/device_management/modem_context.c ****         modem_dm_class = LoRaWAN_class;
 350:smtc_modem_core/device_management/modem_context.c ****         return ( SET_OK );
 351:smtc_modem_core/device_management/modem_context.c ****     }
 352:smtc_modem_core/device_management/modem_context.c **** }
 986              		.loc 1 352 1 view .LVU233
 987              		@ sp needed
 988 0020 10BD     		pop	{r4, pc}
 989              	.LVL65:
 990              	.L79:
 349:smtc_modem_core/device_management/modem_context.c ****         return ( SET_OK );
 991              		.loc 1 349 9 is_stmt 1 view .LVU234
 349:smtc_modem_core/device_management/modem_context.c ****         return ( SET_OK );
 992              		.loc 1 349 24 is_stmt 0 view .LVU235
 993 0022 064B     		ldr	r3, .L81+16
 994 0024 1870     		strb	r0, [r3]
 350:smtc_modem_core/device_management/modem_context.c ****     }
 995              		.loc 1 350 9 is_stmt 1 view .LVU236
 350:smtc_modem_core/device_management/modem_context.c ****     }
 996              		.loc 1 350 16 is_stmt 0 view .LVU237
 997 0026 0120     		movs	r0, #1
 998              	.LVL66:
 350:smtc_modem_core/device_management/modem_context.c ****     }
 999              		.loc 1 350 16 view .LVU238
 1000 0028 FAE7     		b	.L80
 1001              	.L82:
 1002 002a C046     		.align	2
 1003              	.L81:
 1004 002c 00000000 		.word	.LC10
 1005 0030 08000000 		.word	.LC12
 1006 0034 00000000 		.word	.LC50
 1007 0038 3E000000 		.word	.LC16
 1008 003c 00000000 		.word	.LANCHOR7
 1009              		.cfi_endproc
 1010              	.LFE26:
 1012              		.section	.text.get_modem_class,"ax",%progbits
 1013              		.align	1
 1014              		.global	get_modem_class
 1015              		.syntax unified
 1016              		.code	16
 1017              		.thumb_func
 1018              		.fpu softvfp
 1020              	get_modem_class:
 1021              	.LFB27:
 353:smtc_modem_core/device_management/modem_context.c **** 
 354:smtc_modem_core/device_management/modem_context.c **** modem_class_t get_modem_class( void )
 355:smtc_modem_core/device_management/modem_context.c **** {
 1022              		.loc 1 355 1 is_stmt 1 view -0
 1023              		.cfi_startproc
 1024              		@ args = 0, pretend = 0, frame = 0
ARM GAS  /var/folders/bq/yv49bw8j2kd6w3hsq868qv180000gn/T//ccEK2k0g.s 			page 28


 1025              		@ frame_needed = 0, uses_anonymous_args = 0
 1026              		@ link register save eliminated.
 356:smtc_modem_core/device_management/modem_context.c ****     return ( modem_dm_class );
 1027              		.loc 1 356 5 view .LVU240
 1028              		.loc 1 356 12 is_stmt 0 view .LVU241
 1029 0000 014B     		ldr	r3, .L84
 357:smtc_modem_core/device_management/modem_context.c **** }
 1030              		.loc 1 357 1 view .LVU242
 1031              		@ sp needed
 356:smtc_modem_core/device_management/modem_context.c ****     return ( modem_dm_class );
 1032              		.loc 1 356 12 view .LVU243
 1033 0002 1878     		ldrb	r0, [r3]
 1034              		.loc 1 357 1 view .LVU244
 1035 0004 7047     		bx	lr
 1036              	.L85:
 1037 0006 C046     		.align	2
 1038              	.L84:
 1039 0008 00000000 		.word	.LANCHOR7
 1040              		.cfi_endproc
 1041              	.LFE27:
 1043              		.section	.text.get_modem_dm_port,"ax",%progbits
 1044              		.align	1
 1045              		.global	get_modem_dm_port
 1046              		.syntax unified
 1047              		.code	16
 1048              		.thumb_func
 1049              		.fpu softvfp
 1051              	get_modem_dm_port:
 1052              	.LFB29:
 358:smtc_modem_core/device_management/modem_context.c **** 
 359:smtc_modem_core/device_management/modem_context.c **** e_set_error_t set_modem_dm_port( uint8_t port )
 360:smtc_modem_core/device_management/modem_context.c **** {
 361:smtc_modem_core/device_management/modem_context.c ****     if( ( port == 0 ) || ( port >= 224 ) )
 362:smtc_modem_core/device_management/modem_context.c ****     {
 363:smtc_modem_core/device_management/modem_context.c ****         BSP_DBG_TRACE_ERROR( "modem port invalid\n" );
 364:smtc_modem_core/device_management/modem_context.c ****         return ( SET_ERROR );
 365:smtc_modem_core/device_management/modem_context.c ****     }
 366:smtc_modem_core/device_management/modem_context.c ****     else
 367:smtc_modem_core/device_management/modem_context.c ****     {
 368:smtc_modem_core/device_management/modem_context.c ****         if( modem_dm_port != port )
 369:smtc_modem_core/device_management/modem_context.c ****         {
 370:smtc_modem_core/device_management/modem_context.c ****             modem_dm_port = port;
 371:smtc_modem_core/device_management/modem_context.c ****             modem_store_context( );
 372:smtc_modem_core/device_management/modem_context.c ****         }
 373:smtc_modem_core/device_management/modem_context.c ****         return ( SET_OK );
 374:smtc_modem_core/device_management/modem_context.c ****     }
 375:smtc_modem_core/device_management/modem_context.c **** }
 376:smtc_modem_core/device_management/modem_context.c **** 
 377:smtc_modem_core/device_management/modem_context.c **** uint8_t get_modem_dm_port( void )
 378:smtc_modem_core/device_management/modem_context.c **** {
 1053              		.loc 1 378 1 is_stmt 1 view -0
 1054              		.cfi_startproc
 1055              		@ args = 0, pretend = 0, frame = 0
 1056              		@ frame_needed = 0, uses_anonymous_args = 0
 1057              		@ link register save eliminated.
 379:smtc_modem_core/device_management/modem_context.c ****     return ( modem_dm_port );
 1058              		.loc 1 379 5 view .LVU246
ARM GAS  /var/folders/bq/yv49bw8j2kd6w3hsq868qv180000gn/T//ccEK2k0g.s 			page 29


 1059              		.loc 1 379 12 is_stmt 0 view .LVU247
 1060 0000 014B     		ldr	r3, .L87
 380:smtc_modem_core/device_management/modem_context.c **** }
 1061              		.loc 1 380 1 view .LVU248
 1062              		@ sp needed
 379:smtc_modem_core/device_management/modem_context.c ****     return ( modem_dm_port );
 1063              		.loc 1 379 12 view .LVU249
 1064 0002 1878     		ldrb	r0, [r3]
 1065              		.loc 1 380 1 view .LVU250
 1066 0004 7047     		bx	lr
 1067              	.L88:
 1068 0006 C046     		.align	2
 1069              	.L87:
 1070 0008 00000000 		.word	.LANCHOR8
 1071              		.cfi_endproc
 1072              	.LFE29:
 1074              		.section	.rodata.get_modem_adr.str1.1,"aMS",%progbits,1
 1075              	.LC58:
 1076 0000 756E6B6E 		.ascii	"unknown default case : get_modem_adr \012\000"
 1076      6F776E20 
 1076      64656661 
 1076      756C7420 
 1076      63617365 
 1077              		.section	.text.get_modem_adr,"ax",%progbits
 1078              		.align	1
 1079              		.global	get_modem_adr
 1080              		.syntax unified
 1081              		.code	16
 1082              		.thumb_func
 1083              		.fpu softvfp
 1085              	get_modem_adr:
 1086              	.LFB30:
 381:smtc_modem_core/device_management/modem_context.c **** 
 382:smtc_modem_core/device_management/modem_context.c **** dr_strategy_t get_modem_adr( void )
 383:smtc_modem_core/device_management/modem_context.c **** {
 1087              		.loc 1 383 1 is_stmt 1 view -0
 1088              		.cfi_startproc
 1089              		@ args = 0, pretend = 0, frame = 0
 1090              		@ frame_needed = 0, uses_anonymous_args = 0
 384:smtc_modem_core/device_management/modem_context.c ****     uint8_t user_dr = ( uint8_t )( lorawan_api_dr_strategy_get( ) );
 1091              		.loc 1 384 5 view .LVU252
 383:smtc_modem_core/device_management/modem_context.c ****     uint8_t user_dr = ( uint8_t )( lorawan_api_dr_strategy_get( ) );
 1092              		.loc 1 383 1 is_stmt 0 view .LVU253
 1093 0000 10B5     		push	{r4, lr}
 1094              		.cfi_def_cfa_offset 8
 1095              		.cfi_offset 4, -8
 1096              		.cfi_offset 14, -4
 1097              		.loc 1 384 36 view .LVU254
 1098 0002 FFF7FEFF 		bl	lorawan_api_dr_strategy_get
 1099              	.LVL67:
 385:smtc_modem_core/device_management/modem_context.c ****     if( user_dr > USER_DR_DISTRIBUTION )
 1100              		.loc 1 385 5 is_stmt 1 view .LVU255
 1101              		.loc 1 385 7 is_stmt 0 view .LVU256
 1102 0006 0328     		cmp	r0, #3
 1103 0008 0ED9     		bls	.L90
 1104              	.LBB65:
 1105              	.LBI65:
ARM GAS  /var/folders/bq/yv49bw8j2kd6w3hsq868qv180000gn/T//ccEK2k0g.s 			page 30


 382:smtc_modem_core/device_management/modem_context.c **** {
 1106              		.loc 1 382 15 is_stmt 1 view .LVU257
 1107              	.LBB66:
 386:smtc_modem_core/device_management/modem_context.c ****     {
 387:smtc_modem_core/device_management/modem_context.c ****         BSP_DBG_TRACE_ERROR( "unknown default case : get_modem_adr \n" );
 1108              		.loc 1 387 9 view .LVU258
 1109              		.loc 1 387 9 view .LVU259
 1110 000a 0848     		ldr	r0, .L91
 1111              	.LVL68:
 1112              		.loc 1 387 9 is_stmt 0 view .LVU260
 1113 000c FFF7FEFF 		bl	bsp_trace_print
 1114              	.LVL69:
 1115              		.loc 1 387 9 is_stmt 1 view .LVU261
 1116 0010 0748     		ldr	r0, .L91+4
 1117 0012 FFF7FEFF 		bl	bsp_trace_print
 1118              	.LVL70:
 1119              		.loc 1 387 9 view .LVU262
 1120 0016 0748     		ldr	r0, .L91+8
 1121 0018 FFF7FEFF 		bl	bsp_trace_print
 1122              	.LVL71:
 1123              		.loc 1 387 9 view .LVU263
 1124 001c 0648     		ldr	r0, .L91+12
 1125 001e FFF7FEFF 		bl	bsp_trace_print
 1126              	.LVL72:
 1127              		.loc 1 387 9 view .LVU264
 1128              		.loc 1 387 73 view .LVU265
 388:smtc_modem_core/device_management/modem_context.c ****         bsp_mcu_panic( );
 1129              		.loc 1 388 9 view .LVU266
 1130 0022 FFF7FEFF 		bl	bsp_mcu_panic
 1131              	.LVL73:
 389:smtc_modem_core/device_management/modem_context.c ****         return 0;  // not reached
 1132              		.loc 1 389 9 view .LVU267
 388:smtc_modem_core/device_management/modem_context.c ****         bsp_mcu_panic( );
 1133              		.loc 1 388 9 is_stmt 0 view .LVU268
 1134 0026 0020     		movs	r0, #0
 1135              	.L90:
 1136              	.LBE66:
 1137              	.LBE65:
 390:smtc_modem_core/device_management/modem_context.c ****     }
 391:smtc_modem_core/device_management/modem_context.c ****     else
 392:smtc_modem_core/device_management/modem_context.c ****     {
 393:smtc_modem_core/device_management/modem_context.c ****         return ( dr_strategy_t ) user_dr;
 394:smtc_modem_core/device_management/modem_context.c ****     }
 395:smtc_modem_core/device_management/modem_context.c **** }
 1138              		.loc 1 395 1 view .LVU269
 1139              		@ sp needed
 1140 0028 10BD     		pop	{r4, pc}
 1141              	.L92:
 1142 002a C046     		.align	2
 1143              	.L91:
 1144 002c 00000000 		.word	.LC10
 1145 0030 08000000 		.word	.LC12
 1146 0034 00000000 		.word	.LC58
 1147 0038 3E000000 		.word	.LC16
 1148              		.cfi_endproc
 1149              	.LFE30:
 1151              		.section	.text.get_modem_region,"ax",%progbits
ARM GAS  /var/folders/bq/yv49bw8j2kd6w3hsq868qv180000gn/T//ccEK2k0g.s 			page 31


 1152              		.align	1
 1153              		.global	get_modem_region
 1154              		.syntax unified
 1155              		.code	16
 1156              		.thumb_func
 1157              		.fpu softvfp
 1159              	get_modem_region:
 1160              	.LFB31:
 396:smtc_modem_core/device_management/modem_context.c **** 
 397:smtc_modem_core/device_management/modem_context.c **** uint8_t get_modem_region( void )
 398:smtc_modem_core/device_management/modem_context.c **** {
 1161              		.loc 1 398 1 is_stmt 1 view -0
 1162              		.cfi_startproc
 1163              		@ args = 0, pretend = 0, frame = 0
 1164              		@ frame_needed = 0, uses_anonymous_args = 0
 399:smtc_modem_core/device_management/modem_context.c ****     return lorawan_api_get_region( );
 1165              		.loc 1 399 5 view .LVU271
 398:smtc_modem_core/device_management/modem_context.c ****     return lorawan_api_get_region( );
 1166              		.loc 1 398 1 is_stmt 0 view .LVU272
 1167 0000 10B5     		push	{r4, lr}
 1168              		.cfi_def_cfa_offset 8
 1169              		.cfi_offset 4, -8
 1170              		.cfi_offset 14, -4
 1171              		.loc 1 399 12 view .LVU273
 1172 0002 FFF7FEFF 		bl	lorawan_api_get_region
 1173              	.LVL74:
 400:smtc_modem_core/device_management/modem_context.c **** }
 1174              		.loc 1 400 1 view .LVU274
 1175              		@ sp needed
 1176 0006 10BD     		pop	{r4, pc}
 1177              		.cfi_endproc
 1178              	.LFE31:
 1180              		.section	.text.set_modem_region,"ax",%progbits
 1181              		.align	1
 1182              		.global	set_modem_region
 1183              		.syntax unified
 1184              		.code	16
 1185              		.thumb_func
 1186              		.fpu softvfp
 1188              	set_modem_region:
 1189              	.LVL75:
 1190              	.LFB32:
 401:smtc_modem_core/device_management/modem_context.c **** 
 402:smtc_modem_core/device_management/modem_context.c **** e_set_error_t set_modem_region( uint8_t region )
 403:smtc_modem_core/device_management/modem_context.c **** {
 1191              		.loc 1 403 1 is_stmt 1 view -0
 1192              		.cfi_startproc
 1193              		@ args = 0, pretend = 0, frame = 0
 1194              		@ frame_needed = 0, uses_anonymous_args = 0
 404:smtc_modem_core/device_management/modem_context.c ****     if( lorawan_api_set_region( ( smtc_real_region_types_t ) region ) != OKLORAWAN )
 1195              		.loc 1 404 5 view .LVU276
 403:smtc_modem_core/device_management/modem_context.c ****     if( lorawan_api_set_region( ( smtc_real_region_types_t ) region ) != OKLORAWAN )
 1196              		.loc 1 403 1 is_stmt 0 view .LVU277
 1197 0000 10B5     		push	{r4, lr}
 1198              		.cfi_def_cfa_offset 8
 1199              		.cfi_offset 4, -8
 1200              		.cfi_offset 14, -4
ARM GAS  /var/folders/bq/yv49bw8j2kd6w3hsq868qv180000gn/T//ccEK2k0g.s 			page 32


 1201              		.loc 1 404 9 view .LVU278
 1202 0002 FFF7FEFF 		bl	lorawan_api_set_region
 1203              	.LVL76:
 1204              		.loc 1 404 7 view .LVU279
 1205 0006 4342     		rsbs	r3, r0, #0
 1206 0008 5841     		adcs	r0, r0, r3
 405:smtc_modem_core/device_management/modem_context.c ****     {
 406:smtc_modem_core/device_management/modem_context.c ****         return SET_ERROR;
 407:smtc_modem_core/device_management/modem_context.c ****     }
 408:smtc_modem_core/device_management/modem_context.c ****     return SET_OK;
 409:smtc_modem_core/device_management/modem_context.c **** }
 1207              		.loc 1 409 1 view .LVU280
 1208              		@ sp needed
 1209 000a C0B2     		uxtb	r0, r0
 1210 000c 10BD     		pop	{r4, pc}
 1211              		.cfi_endproc
 1212              	.LFE32:
 1214              		.section	.text.set_modem_appstatus,"ax",%progbits
 1215              		.align	1
 1216              		.global	set_modem_appstatus
 1217              		.syntax unified
 1218              		.code	16
 1219              		.thumb_func
 1220              		.fpu softvfp
 1222              	set_modem_appstatus:
 1223              	.LVL77:
 1224              	.LFB34:
 410:smtc_modem_core/device_management/modem_context.c **** 
 411:smtc_modem_core/device_management/modem_context.c **** eModemJoinState_t get_join_state( void )
 412:smtc_modem_core/device_management/modem_context.c **** {
 413:smtc_modem_core/device_management/modem_context.c ****     eModemJoinState_t joinstate;
 414:smtc_modem_core/device_management/modem_context.c ****     if( get_modem_status_joining( ) == true )
 415:smtc_modem_core/device_management/modem_context.c ****     {
 416:smtc_modem_core/device_management/modem_context.c ****         joinstate = MODEM_JOIN_ONGOING;
 417:smtc_modem_core/device_management/modem_context.c ****     }
 418:smtc_modem_core/device_management/modem_context.c ****     else if( lorawan_api_isjoined( ) == NOT_JOINED )
 419:smtc_modem_core/device_management/modem_context.c ****     {
 420:smtc_modem_core/device_management/modem_context.c ****         joinstate = MODEM_NOT_JOINED;
 421:smtc_modem_core/device_management/modem_context.c ****     }
 422:smtc_modem_core/device_management/modem_context.c ****     else
 423:smtc_modem_core/device_management/modem_context.c ****     {
 424:smtc_modem_core/device_management/modem_context.c ****         joinstate = MODEM_JOINED;
 425:smtc_modem_core/device_management/modem_context.c ****     }
 426:smtc_modem_core/device_management/modem_context.c ****     return ( joinstate );
 427:smtc_modem_core/device_management/modem_context.c **** }
 428:smtc_modem_core/device_management/modem_context.c **** 
 429:smtc_modem_core/device_management/modem_context.c **** void set_modem_appstatus( uint8_t* app_status )
 430:smtc_modem_core/device_management/modem_context.c **** {
 1225              		.loc 1 430 1 is_stmt 1 view -0
 1226              		.cfi_startproc
 1227              		@ args = 0, pretend = 0, frame = 0
 1228              		@ frame_needed = 0, uses_anonymous_args = 0
 431:smtc_modem_core/device_management/modem_context.c ****     memcpy( modem_appstatus, app_status, dm_info_field_sz[e_inf_appstatus] );
 1229              		.loc 1 431 5 view .LVU282
 430:smtc_modem_core/device_management/modem_context.c ****     memcpy( modem_appstatus, app_status, dm_info_field_sz[e_inf_appstatus] );
 1230              		.loc 1 430 1 is_stmt 0 view .LVU283
 1231 0000 10B5     		push	{r4, lr}
ARM GAS  /var/folders/bq/yv49bw8j2kd6w3hsq868qv180000gn/T//ccEK2k0g.s 			page 33


 1232              		.cfi_def_cfa_offset 8
 1233              		.cfi_offset 4, -8
 1234              		.cfi_offset 14, -4
 430:smtc_modem_core/device_management/modem_context.c ****     memcpy( modem_appstatus, app_status, dm_info_field_sz[e_inf_appstatus] );
 1235              		.loc 1 430 1 view .LVU284
 1236 0002 0100     		movs	r1, r0
 1237              		.loc 1 431 5 view .LVU285
 1238 0004 0822     		movs	r2, #8
 1239 0006 0248     		ldr	r0, .L96
 1240              	.LVL78:
 1241              		.loc 1 431 5 view .LVU286
 1242 0008 FFF7FEFF 		bl	memcpy
 1243              	.LVL79:
 432:smtc_modem_core/device_management/modem_context.c **** }
 1244              		.loc 1 432 1 view .LVU287
 1245              		@ sp needed
 1246 000c 10BD     		pop	{r4, pc}
 1247              	.L97:
 1248 000e C046     		.align	2
 1249              	.L96:
 1250 0010 00000000 		.word	.LANCHOR9
 1251              		.cfi_endproc
 1252              	.LFE34:
 1254              		.section	.text.get_modem_appstatus,"ax",%progbits
 1255              		.align	1
 1256              		.global	get_modem_appstatus
 1257              		.syntax unified
 1258              		.code	16
 1259              		.thumb_func
 1260              		.fpu softvfp
 1262              	get_modem_appstatus:
 1263              	.LVL80:
 1264              	.LFB35:
 433:smtc_modem_core/device_management/modem_context.c **** 
 434:smtc_modem_core/device_management/modem_context.c **** void get_modem_appstatus( uint8_t* app_status )
 435:smtc_modem_core/device_management/modem_context.c **** {
 1265              		.loc 1 435 1 is_stmt 1 view -0
 1266              		.cfi_startproc
 1267              		@ args = 0, pretend = 0, frame = 0
 1268              		@ frame_needed = 0, uses_anonymous_args = 0
 436:smtc_modem_core/device_management/modem_context.c ****     memcpy( app_status, modem_appstatus, dm_info_field_sz[e_inf_appstatus] );
 1269              		.loc 1 436 5 view .LVU289
 435:smtc_modem_core/device_management/modem_context.c ****     memcpy( app_status, modem_appstatus, dm_info_field_sz[e_inf_appstatus] );
 1270              		.loc 1 435 1 is_stmt 0 view .LVU290
 1271 0000 10B5     		push	{r4, lr}
 1272              		.cfi_def_cfa_offset 8
 1273              		.cfi_offset 4, -8
 1274              		.cfi_offset 14, -4
 1275              		.loc 1 436 5 view .LVU291
 1276 0002 0822     		movs	r2, #8
 1277 0004 0149     		ldr	r1, .L99
 1278 0006 FFF7FEFF 		bl	memcpy
 1279              	.LVL81:
 437:smtc_modem_core/device_management/modem_context.c **** }
 1280              		.loc 1 437 1 view .LVU292
 1281              		@ sp needed
 1282 000a 10BD     		pop	{r4, pc}
ARM GAS  /var/folders/bq/yv49bw8j2kd6w3hsq868qv180000gn/T//ccEK2k0g.s 			page 34


 1283              	.L100:
 1284              		.align	2
 1285              	.L99:
 1286 000c 00000000 		.word	.LANCHOR9
 1287              		.cfi_endproc
 1288              	.LFE35:
 1290              		.section	.text.modem_supervisor_add_task_dm_status_now,"ax",%progbits
 1291              		.align	1
 1292              		.global	modem_supervisor_add_task_dm_status_now
 1293              		.syntax unified
 1294              		.code	16
 1295              		.thumb_func
 1296              		.fpu softvfp
 1298              	modem_supervisor_add_task_dm_status_now:
 1299              	.LFB38:
 438:smtc_modem_core/device_management/modem_context.c **** 
 439:smtc_modem_core/device_management/modem_context.c **** void modem_supervisor_add_task_join( void )
 440:smtc_modem_core/device_management/modem_context.c **** {
 441:smtc_modem_core/device_management/modem_context.c ****     smodem_task task_join;
 442:smtc_modem_core/device_management/modem_context.c ****     task_join.id       = JOIN_TASK;
 443:smtc_modem_core/device_management/modem_context.c ****     task_join.priority = TASK_HIGH_PRIORITY;
 444:smtc_modem_core/device_management/modem_context.c **** #ifdef TEST_BYPASS_JOIN_DUTY_CYCLE
 445:smtc_modem_core/device_management/modem_context.c ****     task_join.time_to_execute_s = bsp_rng_get_random_in_range( 0, 5 );
 446:smtc_modem_core/device_management/modem_context.c **** #else
 447:smtc_modem_core/device_management/modem_context.c ****     task_join.time_to_execute_s = lorawan_api_next_join_time_second_get( ) + bsp_rng_get_random_in_
 448:smtc_modem_core/device_management/modem_context.c **** #endif
 449:smtc_modem_core/device_management/modem_context.c ****     BSP_DBG_TRACE_PRINTF( " Start a New join at %ld seconds \n", task_join.time_to_execute_s );
 450:smtc_modem_core/device_management/modem_context.c ****     set_modem_status_joining( true );
 451:smtc_modem_core/device_management/modem_context.c ****     modem_supervisor_add_task( &task_join );
 452:smtc_modem_core/device_management/modem_context.c **** }
 453:smtc_modem_core/device_management/modem_context.c **** 
 454:smtc_modem_core/device_management/modem_context.c **** void modem_supervisor_add_task_dm_status( uint32_t next_execute )
 455:smtc_modem_core/device_management/modem_context.c **** {
 456:smtc_modem_core/device_management/modem_context.c ****     smodem_task task_dm;
 457:smtc_modem_core/device_management/modem_context.c ****     task_dm.id                = DM_TASK;
 458:smtc_modem_core/device_management/modem_context.c ****     task_dm.priority          = TASK_LOW_PRIORITY;
 459:smtc_modem_core/device_management/modem_context.c ****     task_dm.PacketType        = UNCONF_DATA_UP;
 460:smtc_modem_core/device_management/modem_context.c ****     task_dm.time_to_execute_s = bsp_rtc_get_time_s( ) + next_execute;
 461:smtc_modem_core/device_management/modem_context.c ****     if( get_join_state( ) == MODEM_JOINED )
 462:smtc_modem_core/device_management/modem_context.c ****     {
 463:smtc_modem_core/device_management/modem_context.c ****         modem_supervisor_add_task( &task_dm );
 464:smtc_modem_core/device_management/modem_context.c ****     }
 465:smtc_modem_core/device_management/modem_context.c **** }
 466:smtc_modem_core/device_management/modem_context.c **** 
 467:smtc_modem_core/device_management/modem_context.c **** void modem_supervisor_add_task_dm_status_now( void )
 468:smtc_modem_core/device_management/modem_context.c **** {
 1300              		.loc 1 468 1 is_stmt 1 view -0
 1301              		.cfi_startproc
 1302              		@ args = 0, pretend = 0, frame = 24
 1303              		@ frame_needed = 0, uses_anonymous_args = 0
 469:smtc_modem_core/device_management/modem_context.c ****     smodem_task task_dm;
 1304              		.loc 1 469 5 view .LVU294
 470:smtc_modem_core/device_management/modem_context.c ****     task_dm.id         = DM_TASK_NOW;
 1305              		.loc 1 470 5 view .LVU295
 1306              		.loc 1 470 24 is_stmt 0 view .LVU296
 1307 0000 0423     		movs	r3, #4
 468:smtc_modem_core/device_management/modem_context.c ****     smodem_task task_dm;
ARM GAS  /var/folders/bq/yv49bw8j2kd6w3hsq868qv180000gn/T//ccEK2k0g.s 			page 35


 1308              		.loc 1 468 1 view .LVU297
 1309 0002 70B5     		push	{r4, r5, r6, lr}
 1310              		.cfi_def_cfa_offset 16
 1311              		.cfi_offset 4, -16
 1312              		.cfi_offset 5, -12
 1313              		.cfi_offset 6, -8
 1314              		.cfi_offset 14, -4
 471:smtc_modem_core/device_management/modem_context.c ****     task_dm.priority   = TASK_LOW_PRIORITY;
 472:smtc_modem_core/device_management/modem_context.c ****     task_dm.PacketType = UNCONF_DATA_UP;
 1315              		.loc 1 472 24 view .LVU298
 1316 0004 0226     		movs	r6, #2
 468:smtc_modem_core/device_management/modem_context.c ****     smodem_task task_dm;
 1317              		.loc 1 468 1 view .LVU299
 1318 0006 86B0     		sub	sp, sp, #24
 1319              		.cfi_def_cfa_offset 40
 470:smtc_modem_core/device_management/modem_context.c ****     task_dm.priority   = TASK_LOW_PRIORITY;
 1320              		.loc 1 470 24 view .LVU300
 1321 0008 01AC     		add	r4, sp, #4
 1322 000a 2370     		strb	r3, [r4]
 471:smtc_modem_core/device_management/modem_context.c ****     task_dm.priority   = TASK_LOW_PRIORITY;
 1323              		.loc 1 471 5 is_stmt 1 view .LVU301
 471:smtc_modem_core/device_management/modem_context.c ****     task_dm.priority   = TASK_LOW_PRIORITY;
 1324              		.loc 1 471 24 is_stmt 0 view .LVU302
 1325 000c 013B     		subs	r3, r3, #1
 1326 000e 2372     		strb	r3, [r4, #8]
 1327              		.loc 1 472 5 is_stmt 1 view .LVU303
 1328              		.loc 1 472 24 is_stmt 0 view .LVU304
 1329 0010 6674     		strb	r6, [r4, #17]
 473:smtc_modem_core/device_management/modem_context.c ****     task_dm.time_to_execute_s =
 1330              		.loc 1 473 5 is_stmt 1 view .LVU305
 474:smtc_modem_core/device_management/modem_context.c ****         bsp_rtc_get_time_s( ) + bsp_rng_get_random_in_range( DM_STATUS_NOW_MIN_TIME, DM_STATUS_NOW_
 1331              		.loc 1 474 9 is_stmt 0 view .LVU306
 1332 0012 FFF7FEFF 		bl	bsp_rtc_get_time_s
 1333              	.LVL82:
 1334              		.loc 1 474 33 view .LVU307
 1335 0016 0521     		movs	r1, #5
 1336              		.loc 1 474 9 view .LVU308
 1337 0018 0500     		movs	r5, r0
 1338              		.loc 1 474 33 view .LVU309
 1339 001a 3000     		movs	r0, r6
 1340 001c FFF7FEFF 		bl	bsp_rng_get_random_in_range
 1341              	.LVL83:
 1342              		.loc 1 474 31 view .LVU310
 1343 0020 2D18     		adds	r5, r5, r0
 475:smtc_modem_core/device_management/modem_context.c ****     modem_supervisor_add_task( &task_dm );
 1344              		.loc 1 475 5 view .LVU311
 1345 0022 2000     		movs	r0, r4
 473:smtc_modem_core/device_management/modem_context.c ****     task_dm.time_to_execute_s =
 1346              		.loc 1 473 31 view .LVU312
 1347 0024 6560     		str	r5, [r4, #4]
 1348              		.loc 1 475 5 is_stmt 1 view .LVU313
 1349 0026 FFF7FEFF 		bl	modem_supervisor_add_task
 1350              	.LVL84:
 476:smtc_modem_core/device_management/modem_context.c **** }
 1351              		.loc 1 476 1 is_stmt 0 view .LVU314
 1352 002a 06B0     		add	sp, sp, #24
 1353              		@ sp needed
ARM GAS  /var/folders/bq/yv49bw8j2kd6w3hsq868qv180000gn/T//ccEK2k0g.s 			page 36


 1354 002c 70BD     		pop	{r4, r5, r6, pc}
 1355              		.cfi_endproc
 1356              	.LFE38:
 1358              		.section	.text.modem_supervisor_add_task_modem_mute,"ax",%progbits
 1359              		.align	1
 1360              		.global	modem_supervisor_add_task_modem_mute
 1361              		.syntax unified
 1362              		.code	16
 1363              		.thumb_func
 1364              		.fpu softvfp
 1366              	modem_supervisor_add_task_modem_mute:
 1367              	.LFB41:
 477:smtc_modem_core/device_management/modem_context.c **** 
 478:smtc_modem_core/device_management/modem_context.c **** void modem_supervisor_add_task_alc_sync_time_req( uint32_t next_execute )
 479:smtc_modem_core/device_management/modem_context.c **** {
 480:smtc_modem_core/device_management/modem_context.c ****     smodem_task task_dm;
 481:smtc_modem_core/device_management/modem_context.c ****     task_dm.id                = ALC_SYNC_TIME_REQ_TASK;
 482:smtc_modem_core/device_management/modem_context.c ****     task_dm.priority          = TASK_HIGH_PRIORITY;
 483:smtc_modem_core/device_management/modem_context.c ****     task_dm.PacketType        = UNCONF_DATA_UP;
 484:smtc_modem_core/device_management/modem_context.c ****     task_dm.time_to_execute_s = bsp_rtc_get_time_s( ) + next_execute;
 485:smtc_modem_core/device_management/modem_context.c ****     if( get_join_state( ) == MODEM_JOINED )
 486:smtc_modem_core/device_management/modem_context.c ****     {
 487:smtc_modem_core/device_management/modem_context.c ****         modem_supervisor_add_task( &task_dm );
 488:smtc_modem_core/device_management/modem_context.c ****     }
 489:smtc_modem_core/device_management/modem_context.c **** }
 490:smtc_modem_core/device_management/modem_context.c **** 
 491:smtc_modem_core/device_management/modem_context.c **** void modem_supervisor_add_task_alc_sync_ans( uint32_t next_execute )
 492:smtc_modem_core/device_management/modem_context.c **** {
 493:smtc_modem_core/device_management/modem_context.c ****     smodem_task task_dm;
 494:smtc_modem_core/device_management/modem_context.c ****     task_dm.id                = ALC_SYNC_ANS_TASK;
 495:smtc_modem_core/device_management/modem_context.c ****     task_dm.priority          = TASK_HIGH_PRIORITY;
 496:smtc_modem_core/device_management/modem_context.c ****     task_dm.PacketType        = UNCONF_DATA_UP;
 497:smtc_modem_core/device_management/modem_context.c ****     task_dm.time_to_execute_s = bsp_rtc_get_time_s( ) + next_execute;
 498:smtc_modem_core/device_management/modem_context.c ****     if( get_join_state( ) == MODEM_JOINED )
 499:smtc_modem_core/device_management/modem_context.c ****     {
 500:smtc_modem_core/device_management/modem_context.c ****         modem_supervisor_add_task( &task_dm );
 501:smtc_modem_core/device_management/modem_context.c ****     }
 502:smtc_modem_core/device_management/modem_context.c **** }
 503:smtc_modem_core/device_management/modem_context.c **** 
 504:smtc_modem_core/device_management/modem_context.c **** void modem_supervisor_add_task_modem_mute( void )
 505:smtc_modem_core/device_management/modem_context.c **** {
 1368              		.loc 1 505 1 is_stmt 1 view -0
 1369              		.cfi_startproc
 1370              		@ args = 0, pretend = 0, frame = 24
 1371              		@ frame_needed = 0, uses_anonymous_args = 0
 506:smtc_modem_core/device_management/modem_context.c ****     smodem_task task_dm;
 1372              		.loc 1 506 5 view .LVU316
 507:smtc_modem_core/device_management/modem_context.c ****     task_dm.id                = MUTE_TASK;
 1373              		.loc 1 507 5 view .LVU317
 505:smtc_modem_core/device_management/modem_context.c ****     smodem_task task_dm;
 1374              		.loc 1 505 1 is_stmt 0 view .LVU318
 1375 0000 7FB5     		push	{r0, r1, r2, r3, r4, r5, r6, lr}
 1376              		.cfi_def_cfa_offset 32
 1377              		.cfi_offset 0, -32
 1378              		.cfi_offset 1, -28
 1379              		.cfi_offset 2, -24
 1380              		.cfi_offset 3, -20
ARM GAS  /var/folders/bq/yv49bw8j2kd6w3hsq868qv180000gn/T//ccEK2k0g.s 			page 37


 1381              		.cfi_offset 4, -16
 1382              		.cfi_offset 5, -12
 1383              		.cfi_offset 6, -8
 1384              		.cfi_offset 14, -4
 1385              		.loc 1 507 31 view .LVU319
 1386 0002 0723     		movs	r3, #7
 1387 0004 6A46     		mov	r2, sp
 1388 0006 1371     		strb	r3, [r2, #4]
 508:smtc_modem_core/device_management/modem_context.c ****     task_dm.priority          = TASK_MEDIUM_HIGH_PRIORITY;
 1389              		.loc 1 508 5 is_stmt 1 view .LVU320
 1390              		.loc 1 508 31 is_stmt 0 view .LVU321
 1391 0008 053B     		subs	r3, r3, #5
 1392 000a 1373     		strb	r3, [r2, #12]
 509:smtc_modem_core/device_management/modem_context.c ****     task_dm.time_to_execute_s = bsp_rtc_get_time_s( ) + 86400;  // Every 24h
 1393              		.loc 1 509 5 is_stmt 1 view .LVU322
 1394              		.loc 1 509 33 is_stmt 0 view .LVU323
 1395 000c FFF7FEFF 		bl	bsp_rtc_get_time_s
 1396              	.LVL85:
 1397              		.loc 1 509 55 view .LVU324
 1398 0010 034B     		ldr	r3, .L103
 1399 0012 C018     		adds	r0, r0, r3
 1400              		.loc 1 509 31 view .LVU325
 1401 0014 0290     		str	r0, [sp, #8]
 510:smtc_modem_core/device_management/modem_context.c ****     modem_supervisor_add_task( &task_dm );
 1402              		.loc 1 510 5 is_stmt 1 view .LVU326
 1403 0016 01A8     		add	r0, sp, #4
 1404 0018 FFF7FEFF 		bl	modem_supervisor_add_task
 1405              	.LVL86:
 511:smtc_modem_core/device_management/modem_context.c **** }
 1406              		.loc 1 511 1 is_stmt 0 view .LVU327
 1407 001c 07B0     		add	sp, sp, #28
 1408              		@ sp needed
 1409 001e 00BD     		pop	{pc}
 1410              	.L104:
 1411              		.align	2
 1412              	.L103:
 1413 0020 80510100 		.word	86400
 1414              		.cfi_endproc
 1415              	.LFE41:
 1417              		.section	.rodata.modem_supervisor_add_task_stream.str1.1,"aMS",%progbits,1
 1418              	.LC66:
 1419 0000 53757065 		.ascii	"Supervisor add stream task\012\000"
 1419      72766973 
 1419      6F722061 
 1419      64642073 
 1419      74726561 
 1420              		.section	.text.modem_supervisor_add_task_stream,"ax",%progbits
 1421              		.align	1
 1422              		.global	modem_supervisor_add_task_stream
 1423              		.syntax unified
 1424              		.code	16
 1425              		.thumb_func
 1426              		.fpu softvfp
 1428              	modem_supervisor_add_task_stream:
 1429              	.LFB43:
 512:smtc_modem_core/device_management/modem_context.c **** 
 513:smtc_modem_core/device_management/modem_context.c **** void modem_supervisor_add_task_retrieve_dl( uint32_t next_execute )
ARM GAS  /var/folders/bq/yv49bw8j2kd6w3hsq868qv180000gn/T//ccEK2k0g.s 			page 38


 514:smtc_modem_core/device_management/modem_context.c **** {
 515:smtc_modem_core/device_management/modem_context.c ****     BSP_DBG_TRACE_WARNING( "modem_supervisor_add_task_retrieve_dl\n" );
 516:smtc_modem_core/device_management/modem_context.c ****     smodem_task task_dm;
 517:smtc_modem_core/device_management/modem_context.c ****     task_dm.id                = RETRIEVE_DL_TASK;
 518:smtc_modem_core/device_management/modem_context.c ****     task_dm.priority          = TASK_LOW_PRIORITY;
 519:smtc_modem_core/device_management/modem_context.c ****     task_dm.PacketType        = UNCONF_DATA_UP;
 520:smtc_modem_core/device_management/modem_context.c ****     task_dm.sizeIn            = 0;
 521:smtc_modem_core/device_management/modem_context.c ****     task_dm.time_to_execute_s = bsp_rtc_get_time_s( ) + next_execute;
 522:smtc_modem_core/device_management/modem_context.c ****     if( get_join_state( ) == MODEM_JOINED )
 523:smtc_modem_core/device_management/modem_context.c ****     {
 524:smtc_modem_core/device_management/modem_context.c ****         modem_supervisor_add_task( &task_dm );
 525:smtc_modem_core/device_management/modem_context.c ****     }
 526:smtc_modem_core/device_management/modem_context.c **** }
 527:smtc_modem_core/device_management/modem_context.c **** 
 528:smtc_modem_core/device_management/modem_context.c **** void modem_supervisor_add_task_stream( void )
 529:smtc_modem_core/device_management/modem_context.c **** {
 1430              		.loc 1 529 1 is_stmt 1 view -0
 1431              		.cfi_startproc
 1432              		@ args = 0, pretend = 0, frame = 24
 1433              		@ frame_needed = 0, uses_anonymous_args = 0
 530:smtc_modem_core/device_management/modem_context.c ****     // Modem supervisor copy everything,
 531:smtc_modem_core/device_management/modem_context.c ****     // so this is safe even when it is going to be invalidated.
 532:smtc_modem_core/device_management/modem_context.c ****     smodem_task stream_task;
 1434              		.loc 1 532 5 view .LVU329
 533:smtc_modem_core/device_management/modem_context.c **** 
 534:smtc_modem_core/device_management/modem_context.c ****     stream_task.id                = STREAM_TASK;
 1435              		.loc 1 534 5 view .LVU330
 1436              		.loc 1 534 35 is_stmt 0 view .LVU331
 1437 0000 0923     		movs	r3, #9
 529:smtc_modem_core/device_management/modem_context.c ****     // Modem supervisor copy everything,
 1438              		.loc 1 529 1 view .LVU332
 1439 0002 10B5     		push	{r4, lr}
 1440              		.cfi_def_cfa_offset 8
 1441              		.cfi_offset 4, -8
 1442              		.cfi_offset 14, -4
 1443 0004 86B0     		sub	sp, sp, #24
 1444              		.cfi_def_cfa_offset 32
 1445              		.loc 1 534 35 view .LVU333
 1446 0006 01AC     		add	r4, sp, #4
 1447 0008 2370     		strb	r3, [r4]
 535:smtc_modem_core/device_management/modem_context.c ****     stream_task.time_to_execute_s = bsp_rtc_get_time_s( ) + 1;  // TODO define when to launch the t
 1448              		.loc 1 535 5 is_stmt 1 view .LVU334
 1449              		.loc 1 535 37 is_stmt 0 view .LVU335
 1450 000a FFF7FEFF 		bl	bsp_rtc_get_time_s
 1451              	.LVL87:
 536:smtc_modem_core/device_management/modem_context.c ****     stream_task.priority          = TASK_HIGH_PRIORITY;
 1452              		.loc 1 536 35 view .LVU336
 1453 000e 0123     		movs	r3, #1
 1454 0010 2372     		strb	r3, [r4, #8]
 1455              	.LBB67:
 1456              	.LBB68:
 537:smtc_modem_core/device_management/modem_context.c ****     stream_task.fPort             = modem_get_stream_port( );
 538:smtc_modem_core/device_management/modem_context.c ****     // stream_task.dataIn        not used in task
 539:smtc_modem_core/device_management/modem_context.c ****     // stream_task.sizeIn        not used in task
 540:smtc_modem_core/device_management/modem_context.c ****     // stream_task.PacketType    not used in task
 541:smtc_modem_core/device_management/modem_context.c ****     modem_supervisor_add_task( &stream_task );
 542:smtc_modem_core/device_management/modem_context.c ****     BSP_DBG_TRACE_INFO( "Supervisor add stream task\n" );
ARM GAS  /var/folders/bq/yv49bw8j2kd6w3hsq868qv180000gn/T//ccEK2k0g.s 			page 39


 543:smtc_modem_core/device_management/modem_context.c **** }
 544:smtc_modem_core/device_management/modem_context.c **** 
 545:smtc_modem_core/device_management/modem_context.c **** /*!
 546:smtc_modem_core/device_management/modem_context.c ****  * \brief   return the modem status
 547:smtc_modem_core/device_management/modem_context.c ****  * \remark
 548:smtc_modem_core/device_management/modem_context.c ****  * \param [IN] void
 549:smtc_modem_core/device_management/modem_context.c ****  * \param [OUT] modem status bit 6 : streaming in progress
 550:smtc_modem_core/device_management/modem_context.c ****  *                           bit 5 : file upload in progress
 551:smtc_modem_core/device_management/modem_context.c ****  *                           bit 4 : radio suspend
 552:smtc_modem_core/device_management/modem_context.c ****  *                           bit 3 : modem join
 553:smtc_modem_core/device_management/modem_context.c ****  *                           bit 2 : modem mute
 554:smtc_modem_core/device_management/modem_context.c ****  *                           bit 1 : reset after panic
 555:smtc_modem_core/device_management/modem_context.c ****  *                           bit 0 : reset after brownout
 556:smtc_modem_core/device_management/modem_context.c ****  * */
 557:smtc_modem_core/device_management/modem_context.c **** uint8_t get_modem_status( void )
 558:smtc_modem_core/device_management/modem_context.c **** {
 559:smtc_modem_core/device_management/modem_context.c ****     // If the stack is no more join, the modem status was not aware of the disconnection
 560:smtc_modem_core/device_management/modem_context.c ****     if( get_join_state( ) != MODEM_JOINED )
 561:smtc_modem_core/device_management/modem_context.c ****     {
 562:smtc_modem_core/device_management/modem_context.c ****         set_modem_status_modem_joined( false );
 563:smtc_modem_core/device_management/modem_context.c ****     }
 564:smtc_modem_core/device_management/modem_context.c ****     return ( modem_status );
 565:smtc_modem_core/device_management/modem_context.c **** }
 566:smtc_modem_core/device_management/modem_context.c **** 
 567:smtc_modem_core/device_management/modem_context.c **** void set_modem_status_reset_after_brownout( bool value )
 568:smtc_modem_core/device_management/modem_context.c **** {
 569:smtc_modem_core/device_management/modem_context.c ****     modem_status = ( value == true ) ? ( modem_status | ( 1 << modem_status_brownout ) )
 570:smtc_modem_core/device_management/modem_context.c ****                                      : ( modem_status & ~( 1 << modem_status_brownout ) );
 571:smtc_modem_core/device_management/modem_context.c **** }
 572:smtc_modem_core/device_management/modem_context.c **** 
 573:smtc_modem_core/device_management/modem_context.c **** void set_modem_status_reset_after_crash( bool value )
 574:smtc_modem_core/device_management/modem_context.c **** {
 575:smtc_modem_core/device_management/modem_context.c ****     modem_status = ( value == true ) ? ( modem_status | ( 1 << modem_status_crash ) )
 576:smtc_modem_core/device_management/modem_context.c ****                                      : ( modem_status & ~( 1 << modem_status_crash ) );
 577:smtc_modem_core/device_management/modem_context.c **** }
 578:smtc_modem_core/device_management/modem_context.c **** 
 579:smtc_modem_core/device_management/modem_context.c **** void set_modem_status_modem_mute( bool value )
 580:smtc_modem_core/device_management/modem_context.c **** {
 581:smtc_modem_core/device_management/modem_context.c ****     modem_status = ( value == true ) ? ( modem_status | ( 1 << modem_status_mute ) )
 582:smtc_modem_core/device_management/modem_context.c ****                                      : ( modem_status & ~( 1 << modem_status_mute ) );
 583:smtc_modem_core/device_management/modem_context.c **** }
 584:smtc_modem_core/device_management/modem_context.c **** 
 585:smtc_modem_core/device_management/modem_context.c **** void set_modem_status_modem_joined( bool value )
 586:smtc_modem_core/device_management/modem_context.c **** {
 587:smtc_modem_core/device_management/modem_context.c ****     modem_status = ( value == true ) ? ( modem_status | ( 1 << modem_status_joined ) )
 588:smtc_modem_core/device_management/modem_context.c ****                                      : ( modem_status & ~( 1 << modem_status_joined ) );
 589:smtc_modem_core/device_management/modem_context.c **** }
 590:smtc_modem_core/device_management/modem_context.c **** 
 591:smtc_modem_core/device_management/modem_context.c **** void set_modem_status_radio_suspend( bool value )
 592:smtc_modem_core/device_management/modem_context.c **** {
 593:smtc_modem_core/device_management/modem_context.c ****     modem_status = ( value == true ) ? ( modem_status | ( 1 << modem_status_suspend ) )
 594:smtc_modem_core/device_management/modem_context.c ****                                      : ( modem_status & ~( 1 << modem_status_suspend ) );
 595:smtc_modem_core/device_management/modem_context.c **** }
 596:smtc_modem_core/device_management/modem_context.c **** 
 597:smtc_modem_core/device_management/modem_context.c **** void set_modem_status_file_upload( bool value )
 598:smtc_modem_core/device_management/modem_context.c **** {
 599:smtc_modem_core/device_management/modem_context.c ****     modem_status = ( value == true ) ? ( modem_status | ( 1 << modem_status_upload ) )
ARM GAS  /var/folders/bq/yv49bw8j2kd6w3hsq868qv180000gn/T//ccEK2k0g.s 			page 40


 600:smtc_modem_core/device_management/modem_context.c ****                                      : ( modem_status & ~( 1 << modem_status_upload ) );
 601:smtc_modem_core/device_management/modem_context.c **** }
 602:smtc_modem_core/device_management/modem_context.c **** 
 603:smtc_modem_core/device_management/modem_context.c **** void set_modem_status_joining( bool value )
 604:smtc_modem_core/device_management/modem_context.c **** {
 605:smtc_modem_core/device_management/modem_context.c ****     modem_status = ( value == true ) ? ( modem_status | ( 1 << modem_status_joining ) )
 606:smtc_modem_core/device_management/modem_context.c ****                                      : ( modem_status & ~( 1 << modem_status_joining ) );
 607:smtc_modem_core/device_management/modem_context.c **** }
 608:smtc_modem_core/device_management/modem_context.c **** 
 609:smtc_modem_core/device_management/modem_context.c **** void set_modem_status_streaming( bool value )
 610:smtc_modem_core/device_management/modem_context.c **** {
 611:smtc_modem_core/device_management/modem_context.c ****     modem_status = ( value == true ) ? ( modem_status | ( 1 << modem_status_streaming ) )
 612:smtc_modem_core/device_management/modem_context.c ****                                      : ( modem_status & ~( 1 << modem_status_streaming ) );
 613:smtc_modem_core/device_management/modem_context.c **** }
 614:smtc_modem_core/device_management/modem_context.c **** 
 615:smtc_modem_core/device_management/modem_context.c **** bool get_modem_status_reset_after_crash( void )
 616:smtc_modem_core/device_management/modem_context.c **** {
 617:smtc_modem_core/device_management/modem_context.c ****     return ( ( modem_status >> modem_status_crash ) & 0x01 );
 618:smtc_modem_core/device_management/modem_context.c **** }
 619:smtc_modem_core/device_management/modem_context.c **** 
 620:smtc_modem_core/device_management/modem_context.c **** bool get_modem_status_file_upload( void )
 621:smtc_modem_core/device_management/modem_context.c **** {
 622:smtc_modem_core/device_management/modem_context.c ****     return ( ( modem_status >> modem_status_upload ) & 0x01 );
 623:smtc_modem_core/device_management/modem_context.c **** }
 624:smtc_modem_core/device_management/modem_context.c **** 
 625:smtc_modem_core/device_management/modem_context.c **** bool get_modem_status_joining( void )
 626:smtc_modem_core/device_management/modem_context.c **** {
 627:smtc_modem_core/device_management/modem_context.c ****     return ( ( modem_status >> modem_status_joining ) & 0x01 );
 628:smtc_modem_core/device_management/modem_context.c **** }
 629:smtc_modem_core/device_management/modem_context.c **** 
 630:smtc_modem_core/device_management/modem_context.c **** bool get_modem_status_streaming( void )
 631:smtc_modem_core/device_management/modem_context.c **** {
 632:smtc_modem_core/device_management/modem_context.c ****     return ( ( modem_status >> modem_status_streaming ) & 0x01 );
 633:smtc_modem_core/device_management/modem_context.c **** }
 634:smtc_modem_core/device_management/modem_context.c **** 
 635:smtc_modem_core/device_management/modem_context.c **** void reset_modem_charge( void )
 636:smtc_modem_core/device_management/modem_context.c **** {
 637:smtc_modem_core/device_management/modem_context.c ****     radio_planner_t* rp = modem_get_radio_planner( );
 638:smtc_modem_core/device_management/modem_context.c ****     rp_stats_init( &rp->stats );
 639:smtc_modem_core/device_management/modem_context.c **** }
 640:smtc_modem_core/device_management/modem_context.c **** 
 641:smtc_modem_core/device_management/modem_context.c **** uint32_t get_modem_charge_ma_s( void )
 642:smtc_modem_core/device_management/modem_context.c **** {
 643:smtc_modem_core/device_management/modem_context.c ****     radio_planner_t* rp                = modem_get_radio_planner( );
 644:smtc_modem_core/device_management/modem_context.c ****     uint32_t         total_consumption = rp->stats.tx_total_consumption_ma + rp->stats.rx_total_con
 645:smtc_modem_core/device_management/modem_context.c ****     return ( ( total_consumption / 1000 ) + modem_charge_offset );
 646:smtc_modem_core/device_management/modem_context.c **** }
 647:smtc_modem_core/device_management/modem_context.c **** 
 648:smtc_modem_core/device_management/modem_context.c **** uint32_t get_modem_charge_ma_h( void )
 649:smtc_modem_core/device_management/modem_context.c **** {
 650:smtc_modem_core/device_management/modem_context.c ****     return get_modem_charge_ma_s( ) / 3600;
 651:smtc_modem_core/device_management/modem_context.c **** }
 652:smtc_modem_core/device_management/modem_context.c **** 
 653:smtc_modem_core/device_management/modem_context.c **** uint8_t get_modem_voltage( void )
 654:smtc_modem_core/device_management/modem_context.c **** {
 655:smtc_modem_core/device_management/modem_context.c ****     return ( uint8_t ) bsp_mcu_get_mcu_voltage( );
 656:smtc_modem_core/device_management/modem_context.c **** }
ARM GAS  /var/folders/bq/yv49bw8j2kd6w3hsq868qv180000gn/T//ccEK2k0g.s 			page 41


 657:smtc_modem_core/device_management/modem_context.c **** uint8_t get_modem_temp( void )
 658:smtc_modem_core/device_management/modem_context.c **** {
 659:smtc_modem_core/device_management/modem_context.c ****     return ( uint8_t ) bsp_mcu_get_mcu_temperature( );
 660:smtc_modem_core/device_management/modem_context.c **** }
 661:smtc_modem_core/device_management/modem_context.c **** 
 662:smtc_modem_core/device_management/modem_context.c **** e_dm_cmd_length_valid dm_check_dminfo_size( e_dm_info_t cmd, uint8_t length )
 663:smtc_modem_core/device_management/modem_context.c **** {
 664:smtc_modem_core/device_management/modem_context.c ****     if( cmd >= e_inf_max )
 665:smtc_modem_core/device_management/modem_context.c ****     {
 666:smtc_modem_core/device_management/modem_context.c ****         BSP_DBG_TRACE_ERROR( "Invalid DM command\n" );
 667:smtc_modem_core/device_management/modem_context.c ****         return DM_CMD_LENGTH_NOT_VALID;
 668:smtc_modem_core/device_management/modem_context.c ****     }
 669:smtc_modem_core/device_management/modem_context.c **** 
 670:smtc_modem_core/device_management/modem_context.c ****     if( length != dm_info_field_sz[cmd] )
 671:smtc_modem_core/device_management/modem_context.c ****     {
 672:smtc_modem_core/device_management/modem_context.c ****         BSP_DBG_TRACE_ERROR( "Invalid DM command size\n" );
 673:smtc_modem_core/device_management/modem_context.c ****         return DM_CMD_LENGTH_NOT_VALID;
 674:smtc_modem_core/device_management/modem_context.c ****     }
 675:smtc_modem_core/device_management/modem_context.c **** 
 676:smtc_modem_core/device_management/modem_context.c ****     return DM_CMD_LENGTH_VALID;
 677:smtc_modem_core/device_management/modem_context.c **** }
 678:smtc_modem_core/device_management/modem_context.c **** 
 679:smtc_modem_core/device_management/modem_context.c **** e_dm_error_t dm_set_conf( e_dm_info_t tag, uint8_t* data, uint8_t length )
 680:smtc_modem_core/device_management/modem_context.c **** {
 681:smtc_modem_core/device_management/modem_context.c ****     e_dm_error_t ret = DM_OK;
 682:smtc_modem_core/device_management/modem_context.c **** 
 683:smtc_modem_core/device_management/modem_context.c ****     if( dm_check_dminfo_size( tag, length ) != DM_CMD_LENGTH_VALID )
 684:smtc_modem_core/device_management/modem_context.c ****     {
 685:smtc_modem_core/device_management/modem_context.c ****         tag = e_inf_max;
 686:smtc_modem_core/device_management/modem_context.c ****         ret = DM_ERROR;
 687:smtc_modem_core/device_management/modem_context.c ****     }
 688:smtc_modem_core/device_management/modem_context.c ****     else
 689:smtc_modem_core/device_management/modem_context.c ****     {
 690:smtc_modem_core/device_management/modem_context.c ****         switch( tag )
 691:smtc_modem_core/device_management/modem_context.c ****         {
 692:smtc_modem_core/device_management/modem_context.c ****         case e_inf_adrmode:
 693:smtc_modem_core/device_management/modem_context.c ****             lorawan_api_dr_strategy_set( ( dr_strategy_t ) data[0] );
 694:smtc_modem_core/device_management/modem_context.c ****             break;
 695:smtc_modem_core/device_management/modem_context.c ****         case e_inf_joineui:
 696:smtc_modem_core/device_management/modem_context.c ****             lorawan_api_appeui_key_set( &data[0] );
 697:smtc_modem_core/device_management/modem_context.c ****             break;
 698:smtc_modem_core/device_management/modem_context.c ****         case e_inf_interval:
 699:smtc_modem_core/device_management/modem_context.c ****             set_modem_dm_interval( data[0] );
 700:smtc_modem_core/device_management/modem_context.c ****             modem_supervisor_add_task_dm_status( get_modem_dm_interval_second( ) );
 701:smtc_modem_core/device_management/modem_context.c ****             break;
 702:smtc_modem_core/device_management/modem_context.c ****         case e_inf_region:
 703:smtc_modem_core/device_management/modem_context.c ****             set_modem_region( data[0] );
 704:smtc_modem_core/device_management/modem_context.c ****             break;
 705:smtc_modem_core/device_management/modem_context.c ****         default:
 706:smtc_modem_core/device_management/modem_context.c ****             tag = e_inf_max;
 707:smtc_modem_core/device_management/modem_context.c ****             ret = DM_ERROR;
 708:smtc_modem_core/device_management/modem_context.c ****             break;
 709:smtc_modem_core/device_management/modem_context.c ****         }
 710:smtc_modem_core/device_management/modem_context.c ****     }
 711:smtc_modem_core/device_management/modem_context.c ****     if( ret == DM_OK )
 712:smtc_modem_core/device_management/modem_context.c ****     {
 713:smtc_modem_core/device_management/modem_context.c ****         increment_asynchronous_msgnumber( RSP_SETCONF, tag );
ARM GAS  /var/folders/bq/yv49bw8j2kd6w3hsq868qv180000gn/T//ccEK2k0g.s 			page 42


 714:smtc_modem_core/device_management/modem_context.c ****     }
 715:smtc_modem_core/device_management/modem_context.c **** 
 716:smtc_modem_core/device_management/modem_context.c ****     return ret;
 717:smtc_modem_core/device_management/modem_context.c **** }
 718:smtc_modem_core/device_management/modem_context.c **** 
 719:smtc_modem_core/device_management/modem_context.c **** e_modem_mute_t get_modem_muted( void )
 720:smtc_modem_core/device_management/modem_context.c **** {
 721:smtc_modem_core/device_management/modem_context.c ****     e_modem_mute_t mute;
 722:smtc_modem_core/device_management/modem_context.c **** 
 723:smtc_modem_core/device_management/modem_context.c ****     if( number_of_muted_day == MODEM_INFINITE_MUTE )
 724:smtc_modem_core/device_management/modem_context.c ****     {
 725:smtc_modem_core/device_management/modem_context.c ****         mute = MODEM_INFINITE_MUTE;
 726:smtc_modem_core/device_management/modem_context.c ****     }
 727:smtc_modem_core/device_management/modem_context.c ****     else if( number_of_muted_day > 0 )
 728:smtc_modem_core/device_management/modem_context.c ****     {
 729:smtc_modem_core/device_management/modem_context.c ****         mute = MODEM_TEMPORARY_MUTE;
 730:smtc_modem_core/device_management/modem_context.c ****     }
 731:smtc_modem_core/device_management/modem_context.c ****     else
 732:smtc_modem_core/device_management/modem_context.c ****     {
 733:smtc_modem_core/device_management/modem_context.c ****         mute = MODEM_NOT_MUTE;
 734:smtc_modem_core/device_management/modem_context.c ****     }
 735:smtc_modem_core/device_management/modem_context.c ****     return mute;
 736:smtc_modem_core/device_management/modem_context.c **** }
 737:smtc_modem_core/device_management/modem_context.c **** 
 738:smtc_modem_core/device_management/modem_context.c **** uint8_t dm_get_number_of_days_mute( void )
 739:smtc_modem_core/device_management/modem_context.c **** {
 740:smtc_modem_core/device_management/modem_context.c ****     return number_of_muted_day;
 741:smtc_modem_core/device_management/modem_context.c **** }
 742:smtc_modem_core/device_management/modem_context.c **** 
 743:smtc_modem_core/device_management/modem_context.c **** void dm_set_number_of_days_mute( uint8_t days )
 744:smtc_modem_core/device_management/modem_context.c **** {
 745:smtc_modem_core/device_management/modem_context.c ****     BSP_DBG_TRACE_PRINTF( "MUTE for %d days\n", days );
 746:smtc_modem_core/device_management/modem_context.c ****     if( number_of_muted_day != days )
 747:smtc_modem_core/device_management/modem_context.c ****     {
 748:smtc_modem_core/device_management/modem_context.c ****         number_of_muted_day = days;
 749:smtc_modem_core/device_management/modem_context.c **** 
 750:smtc_modem_core/device_management/modem_context.c ****         if( number_of_muted_day > 0 )
 751:smtc_modem_core/device_management/modem_context.c ****         {
 752:smtc_modem_core/device_management/modem_context.c ****             set_modem_status_modem_mute( true );
 753:smtc_modem_core/device_management/modem_context.c ****         }
 754:smtc_modem_core/device_management/modem_context.c ****         else
 755:smtc_modem_core/device_management/modem_context.c ****         {
 756:smtc_modem_core/device_management/modem_context.c ****             set_modem_status_modem_mute( false );
 757:smtc_modem_core/device_management/modem_context.c ****         }
 758:smtc_modem_core/device_management/modem_context.c **** 
 759:smtc_modem_core/device_management/modem_context.c ****         modem_store_context( );
 760:smtc_modem_core/device_management/modem_context.c ****     }
 761:smtc_modem_core/device_management/modem_context.c **** }
 762:smtc_modem_core/device_management/modem_context.c **** 
 763:smtc_modem_core/device_management/modem_context.c **** uint8_t get_dm_info_tag_list( uint8_t* dm, e_dm_info_rate_t flag )
 764:smtc_modem_core/device_management/modem_context.c **** {
 765:smtc_modem_core/device_management/modem_context.c ****     uint8_t* p = dm;
 766:smtc_modem_core/device_management/modem_context.c ****     uint32_t info_req;
 767:smtc_modem_core/device_management/modem_context.c **** 
 768:smtc_modem_core/device_management/modem_context.c ****     if( flag == DM_INFO_NOW )
 769:smtc_modem_core/device_management/modem_context.c ****     {
 770:smtc_modem_core/device_management/modem_context.c ****         info_req = dm_info_bitfield_now;
ARM GAS  /var/folders/bq/yv49bw8j2kd6w3hsq868qv180000gn/T//ccEK2k0g.s 			page 43


 771:smtc_modem_core/device_management/modem_context.c ****     }
 772:smtc_modem_core/device_management/modem_context.c ****     else
 773:smtc_modem_core/device_management/modem_context.c ****     {
 774:smtc_modem_core/device_management/modem_context.c ****         info_req = dm_info_bitfield_periodic;
 775:smtc_modem_core/device_management/modem_context.c ****     }
 776:smtc_modem_core/device_management/modem_context.c **** 
 777:smtc_modem_core/device_management/modem_context.c ****     for( uint8_t i = 0; i < e_inf_max; i++ )
 778:smtc_modem_core/device_management/modem_context.c ****     {
 779:smtc_modem_core/device_management/modem_context.c ****         if( ( info_req & ( 1 << i ) ) )
 780:smtc_modem_core/device_management/modem_context.c ****         {
 781:smtc_modem_core/device_management/modem_context.c ****             *p++ = i;  // If bit is set, added id Code in payload
 782:smtc_modem_core/device_management/modem_context.c ****         }
 783:smtc_modem_core/device_management/modem_context.c ****     }
 784:smtc_modem_core/device_management/modem_context.c ****     return p - dm;
 785:smtc_modem_core/device_management/modem_context.c **** }
 786:smtc_modem_core/device_management/modem_context.c **** 
 787:smtc_modem_core/device_management/modem_context.c **** e_set_error_t set_dm_info( uint8_t* requested_info_list, uint8_t len, e_dm_info_rate_t flag )
 788:smtc_modem_core/device_management/modem_context.c **** {
 789:smtc_modem_core/device_management/modem_context.c ****     e_set_error_t ret      = SET_OK;
 790:smtc_modem_core/device_management/modem_context.c ****     uint32_t      info_req = 0;
 791:smtc_modem_core/device_management/modem_context.c **** 
 792:smtc_modem_core/device_management/modem_context.c ****     ret = convert_requested_dm_info_bytes_to_bitfield( requested_info_list, len, &info_req );
 793:smtc_modem_core/device_management/modem_context.c **** 
 794:smtc_modem_core/device_management/modem_context.c ****     if( ret == SET_OK )
 795:smtc_modem_core/device_management/modem_context.c ****     {
 796:smtc_modem_core/device_management/modem_context.c ****         if( flag == DM_INFO_NOW )
 797:smtc_modem_core/device_management/modem_context.c ****         {
 798:smtc_modem_core/device_management/modem_context.c ****             dm_info_bitfield_now = info_req;
 799:smtc_modem_core/device_management/modem_context.c ****             tag_number_now       = 0;  // Reset tag_number used by dm_status_payload to
 800:smtc_modem_core/device_management/modem_context.c ****                                        // start a report from beginning
 801:smtc_modem_core/device_management/modem_context.c ****         }
 802:smtc_modem_core/device_management/modem_context.c ****         else
 803:smtc_modem_core/device_management/modem_context.c ****         {
 804:smtc_modem_core/device_management/modem_context.c ****             if( dm_info_bitfield_periodic != info_req )
 805:smtc_modem_core/device_management/modem_context.c ****             {
 806:smtc_modem_core/device_management/modem_context.c ****                 dm_info_bitfield_periodic = info_req;
 807:smtc_modem_core/device_management/modem_context.c ****                 tag_number                = 0;  // Reset tag_number used by dm_status_payload to st
 808:smtc_modem_core/device_management/modem_context.c ****                                                 // a report from beginning
 809:smtc_modem_core/device_management/modem_context.c ****                 modem_store_context( );
 810:smtc_modem_core/device_management/modem_context.c ****             }
 811:smtc_modem_core/device_management/modem_context.c ****         }
 812:smtc_modem_core/device_management/modem_context.c ****     }
 813:smtc_modem_core/device_management/modem_context.c **** 
 814:smtc_modem_core/device_management/modem_context.c ****     return ret;
 815:smtc_modem_core/device_management/modem_context.c **** }
 816:smtc_modem_core/device_management/modem_context.c **** 
 817:smtc_modem_core/device_management/modem_context.c **** bool dm_status_payload( uint8_t* dm_uplink_message, uint8_t* dm_uplink_message_len, uint8_t max_siz
 818:smtc_modem_core/device_management/modem_context.c ****                         e_dm_info_rate_t flag )
 819:smtc_modem_core/device_management/modem_context.c **** {
 820:smtc_modem_core/device_management/modem_context.c ****     uint8_t* p_tmp = dm_uplink_message;
 821:smtc_modem_core/device_management/modem_context.c ****     uint8_t* p     = dm_uplink_message;
 822:smtc_modem_core/device_management/modem_context.c ****     uint32_t info_requested;
 823:smtc_modem_core/device_management/modem_context.c ****     uint8_t* tag     = NULL;
 824:smtc_modem_core/device_management/modem_context.c ****     bool     pending = false;
 825:smtc_modem_core/device_management/modem_context.c **** 
 826:smtc_modem_core/device_management/modem_context.c ****     // Used DM code given in parameter
 827:smtc_modem_core/device_management/modem_context.c ****     if( flag == DM_INFO_NOW )
ARM GAS  /var/folders/bq/yv49bw8j2kd6w3hsq868qv180000gn/T//ccEK2k0g.s 			page 44


 828:smtc_modem_core/device_management/modem_context.c ****     {
 829:smtc_modem_core/device_management/modem_context.c ****         info_requested = dm_info_bitfield_now;
 830:smtc_modem_core/device_management/modem_context.c ****         tag            = &tag_number_now;
 831:smtc_modem_core/device_management/modem_context.c ****         // Used DM code in context
 832:smtc_modem_core/device_management/modem_context.c ****     }
 833:smtc_modem_core/device_management/modem_context.c ****     else
 834:smtc_modem_core/device_management/modem_context.c ****     {
 835:smtc_modem_core/device_management/modem_context.c ****         info_requested = dm_info_bitfield_periodic;
 836:smtc_modem_core/device_management/modem_context.c ****         tag            = &tag_number;
 837:smtc_modem_core/device_management/modem_context.c ****     }
 838:smtc_modem_core/device_management/modem_context.c **** 
 839:smtc_modem_core/device_management/modem_context.c ****     if( check_dm_status_max_size( info_requested, max_size ) != DM_CMD_LENGTH_VALID )
 840:smtc_modem_core/device_management/modem_context.c ****     {
 841:smtc_modem_core/device_management/modem_context.c ****         *dm_uplink_message_len = 0;
 842:smtc_modem_core/device_management/modem_context.c ****         BSP_DBG_TRACE_ERROR( "check_dm_status_max_size\n" );
 843:smtc_modem_core/device_management/modem_context.c ****         return false;
 844:smtc_modem_core/device_management/modem_context.c ****     }
 845:smtc_modem_core/device_management/modem_context.c **** 
 846:smtc_modem_core/device_management/modem_context.c ****     if( *tag >= e_inf_max )
 847:smtc_modem_core/device_management/modem_context.c ****     {
 848:smtc_modem_core/device_management/modem_context.c ****         *tag = 0;
 849:smtc_modem_core/device_management/modem_context.c ****     }
 850:smtc_modem_core/device_management/modem_context.c ****     // BSP_DBG_TRACE_PRINTF("info_requested = %d \n",info_requested);
 851:smtc_modem_core/device_management/modem_context.c ****     while( ( *tag ) < e_inf_max )
 852:smtc_modem_core/device_management/modem_context.c ****     {
 853:smtc_modem_core/device_management/modem_context.c ****         // BSP_DBG_TRACE_WARNING("tag %d - %d\n",*tag, (info_requested >> *tag) & 0x01
 854:smtc_modem_core/device_management/modem_context.c ****         // );
 855:smtc_modem_core/device_management/modem_context.c ****         if( ( info_requested & ( 1 << *tag ) ) )
 856:smtc_modem_core/device_management/modem_context.c ****         {
 857:smtc_modem_core/device_management/modem_context.c ****             *p_tmp++ = *tag;  // Add id Code in payload then the value(s)
 858:smtc_modem_core/device_management/modem_context.c ****             switch( *tag )
 859:smtc_modem_core/device_management/modem_context.c ****             {
 860:smtc_modem_core/device_management/modem_context.c ****             case e_inf_status:
 861:smtc_modem_core/device_management/modem_context.c ****                 *p_tmp = get_modem_status( );
 862:smtc_modem_core/device_management/modem_context.c ****                 break;
 863:smtc_modem_core/device_management/modem_context.c ****             case e_inf_charge: {
 864:smtc_modem_core/device_management/modem_context.c ****                 uint32_t charge = get_modem_charge_ma_h( );
 865:smtc_modem_core/device_management/modem_context.c ****                 *p_tmp          = charge & 0xFF;
 866:smtc_modem_core/device_management/modem_context.c ****                 *( p_tmp + 1 )  = ( charge >> 8 ) & 0xFF;
 867:smtc_modem_core/device_management/modem_context.c ****                 break;
 868:smtc_modem_core/device_management/modem_context.c ****             }
 869:smtc_modem_core/device_management/modem_context.c ****             case e_inf_voltage:
 870:smtc_modem_core/device_management/modem_context.c ****                 *p_tmp = get_modem_voltage( );
 871:smtc_modem_core/device_management/modem_context.c ****                 break;
 872:smtc_modem_core/device_management/modem_context.c ****             case e_inf_temp:
 873:smtc_modem_core/device_management/modem_context.c ****                 *p_tmp = get_modem_temp( );
 874:smtc_modem_core/device_management/modem_context.c ****                 break;
 875:smtc_modem_core/device_management/modem_context.c ****             case e_inf_signal:
 876:smtc_modem_core/device_management/modem_context.c ****                 *p_tmp         = lorawan_api_last_rssi_get( ) + 64;  // strength of last downlink (
 877:smtc_modem_core/device_management/modem_context.c ****                 *( p_tmp + 1 ) = lorawan_api_last_snr_get( ) >> 2;   // strength of last downlink (
 878:smtc_modem_core/device_management/modem_context.c ****                 break;
 879:smtc_modem_core/device_management/modem_context.c ****             case e_inf_uptime: {
 880:smtc_modem_core/device_management/modem_context.c ****                 uint32_t time  = get_modem_uptime_s( ) / 3600;
 881:smtc_modem_core/device_management/modem_context.c ****                 *p_tmp         = time & 0xFF;
 882:smtc_modem_core/device_management/modem_context.c ****                 *( p_tmp + 1 ) = time >> 8;
 883:smtc_modem_core/device_management/modem_context.c ****             }
 884:smtc_modem_core/device_management/modem_context.c ****             break;
ARM GAS  /var/folders/bq/yv49bw8j2kd6w3hsq868qv180000gn/T//ccEK2k0g.s 			page 45


 885:smtc_modem_core/device_management/modem_context.c ****             case e_inf_rxtime: {
 886:smtc_modem_core/device_management/modem_context.c ****                 s_modem_dwn_t dwnframe = { 0 };
 887:smtc_modem_core/device_management/modem_context.c ****                 get_modem_downlink_frame( &dwnframe );
 888:smtc_modem_core/device_management/modem_context.c ****                 uint32_t time  = ( bsp_rtc_get_time_s( ) - dwnframe.timestamp ) / 3600;
 889:smtc_modem_core/device_management/modem_context.c ****                 *p_tmp         = time & 0xFF;
 890:smtc_modem_core/device_management/modem_context.c ****                 *( p_tmp + 1 ) = time >> 8;
 891:smtc_modem_core/device_management/modem_context.c ****             }
 892:smtc_modem_core/device_management/modem_context.c ****             break;
 893:smtc_modem_core/device_management/modem_context.c ****             case e_inf_firmware:
 894:smtc_modem_core/device_management/modem_context.c ****                 // return the crc value of fuota dedicated for test have to be
 895:smtc_modem_core/device_management/modem_context.c ****                 // re implement when fuota availble
 896:smtc_modem_core/device_management/modem_context.c ****                 memset( p_tmp, 0, dm_info_field_sz[*tag] );
 897:smtc_modem_core/device_management/modem_context.c ****                 break;
 898:smtc_modem_core/device_management/modem_context.c ****             case e_inf_adrmode:
 899:smtc_modem_core/device_management/modem_context.c ****                 *p_tmp = get_modem_adr( );
 900:smtc_modem_core/device_management/modem_context.c ****                 break;
 901:smtc_modem_core/device_management/modem_context.c ****             case e_inf_joineui:
 902:smtc_modem_core/device_management/modem_context.c ****                 lorawan_api_appeui_key_get( p_tmp );
 903:smtc_modem_core/device_management/modem_context.c ****                 break;
 904:smtc_modem_core/device_management/modem_context.c ****             case e_inf_interval:
 905:smtc_modem_core/device_management/modem_context.c ****                 *p_tmp = get_modem_dm_interval( );
 906:smtc_modem_core/device_management/modem_context.c ****                 break;
 907:smtc_modem_core/device_management/modem_context.c ****             case e_inf_region:
 908:smtc_modem_core/device_management/modem_context.c ****                 *p_tmp = get_modem_region( );
 909:smtc_modem_core/device_management/modem_context.c ****                 break;
 910:smtc_modem_core/device_management/modem_context.c ****             case e_inf_rfu_0:
 911:smtc_modem_core/device_management/modem_context.c ****                 // Nothing to do
 912:smtc_modem_core/device_management/modem_context.c ****                 break;
 913:smtc_modem_core/device_management/modem_context.c ****             case e_inf_rstcount:
 914:smtc_modem_core/device_management/modem_context.c ****                 *p_tmp         = lorawan_api_nb_reset_get( ) & 0xFF;
 915:smtc_modem_core/device_management/modem_context.c ****                 *( p_tmp + 1 ) = lorawan_api_nb_reset_get( ) >> 8;
 916:smtc_modem_core/device_management/modem_context.c ****                 break;
 917:smtc_modem_core/device_management/modem_context.c ****             case e_inf_deveui:
 918:smtc_modem_core/device_management/modem_context.c ****                 lorawan_api_deveui_get( p_tmp );
 919:smtc_modem_core/device_management/modem_context.c ****                 break;
 920:smtc_modem_core/device_management/modem_context.c ****             case e_inf_rfu_1:
 921:smtc_modem_core/device_management/modem_context.c ****                 // Nothing to do
 922:smtc_modem_core/device_management/modem_context.c ****                 break;
 923:smtc_modem_core/device_management/modem_context.c ****             case e_inf_session:
 924:smtc_modem_core/device_management/modem_context.c ****                 *p_tmp         = lorawan_api_devnonce_get( ) & 0xFF;
 925:smtc_modem_core/device_management/modem_context.c ****                 *( p_tmp + 1 ) = lorawan_api_devnonce_get( ) >> 8;
 926:smtc_modem_core/device_management/modem_context.c ****                 break;
 927:smtc_modem_core/device_management/modem_context.c ****             case e_inf_chipeui:
 928:smtc_modem_core/device_management/modem_context.c ****                 memset( p_tmp, 0, dm_info_field_sz[*tag] );
 929:smtc_modem_core/device_management/modem_context.c ****                 break;
 930:smtc_modem_core/device_management/modem_context.c ****             case e_inf_streampar:
 931:smtc_modem_core/device_management/modem_context.c ****                 *p_tmp         = modem_get_stream_port( );
 932:smtc_modem_core/device_management/modem_context.c ****                 *( p_tmp + 1 ) = modem_get_stream_encryption( );
 933:smtc_modem_core/device_management/modem_context.c ****                 break;
 934:smtc_modem_core/device_management/modem_context.c ****             case e_inf_appstatus:
 935:smtc_modem_core/device_management/modem_context.c ****                 get_modem_appstatus( p_tmp );
 936:smtc_modem_core/device_management/modem_context.c ****                 break;
 937:smtc_modem_core/device_management/modem_context.c ****             default:
 938:smtc_modem_core/device_management/modem_context.c ****                 BSP_DBG_TRACE_ERROR( "Construct DM payload report, unknown code 0x%02x\n", *tag );
 939:smtc_modem_core/device_management/modem_context.c ****                 break;
 940:smtc_modem_core/device_management/modem_context.c ****             }
 941:smtc_modem_core/device_management/modem_context.c **** 
ARM GAS  /var/folders/bq/yv49bw8j2kd6w3hsq868qv180000gn/T//ccEK2k0g.s 			page 46


 942:smtc_modem_core/device_management/modem_context.c ****             p_tmp += dm_info_field_sz[*tag];
 943:smtc_modem_core/device_management/modem_context.c ****             // Check if last message can be enqueued
 944:smtc_modem_core/device_management/modem_context.c ****             if( ( p_tmp - dm_uplink_message ) <= max_size )
 945:smtc_modem_core/device_management/modem_context.c ****             {
 946:smtc_modem_core/device_management/modem_context.c ****                 p = p_tmp;
 947:smtc_modem_core/device_management/modem_context.c ****             }
 948:smtc_modem_core/device_management/modem_context.c ****             else
 949:smtc_modem_core/device_management/modem_context.c ****             {
 950:smtc_modem_core/device_management/modem_context.c ****                 // last message can't be enqueued
 951:smtc_modem_core/device_management/modem_context.c ****                 pending = true;
 952:smtc_modem_core/device_management/modem_context.c ****                 break;  // break for loop
 953:smtc_modem_core/device_management/modem_context.c ****             }
 954:smtc_modem_core/device_management/modem_context.c ****         }
 955:smtc_modem_core/device_management/modem_context.c ****         ( *tag )++;
 956:smtc_modem_core/device_management/modem_context.c ****     }
 957:smtc_modem_core/device_management/modem_context.c **** 
 958:smtc_modem_core/device_management/modem_context.c ****     *dm_uplink_message_len = p - dm_uplink_message;
 959:smtc_modem_core/device_management/modem_context.c ****     return pending;
 960:smtc_modem_core/device_management/modem_context.c **** }
 961:smtc_modem_core/device_management/modem_context.c **** 
 962:smtc_modem_core/device_management/modem_context.c **** e_set_error_t set_modem_suspend( e_modem_suspend_t suspend )
 963:smtc_modem_core/device_management/modem_context.c **** {
 964:smtc_modem_core/device_management/modem_context.c ****     if( suspend > 1 )
 965:smtc_modem_core/device_management/modem_context.c ****     {
 966:smtc_modem_core/device_management/modem_context.c ****         return SET_ERROR;
 967:smtc_modem_core/device_management/modem_context.c ****     }
 968:smtc_modem_core/device_management/modem_context.c **** 
 969:smtc_modem_core/device_management/modem_context.c ****     if( suspend == MODEM_NOT_SUSPEND )
 970:smtc_modem_core/device_management/modem_context.c ****     {
 971:smtc_modem_core/device_management/modem_context.c ****         set_modem_status_radio_suspend( false );
 972:smtc_modem_core/device_management/modem_context.c ****         is_modem_suspend = MODEM_NOT_SUSPEND;
 973:smtc_modem_core/device_management/modem_context.c ****     }
 974:smtc_modem_core/device_management/modem_context.c ****     else
 975:smtc_modem_core/device_management/modem_context.c ****     {
 976:smtc_modem_core/device_management/modem_context.c ****         set_modem_status_radio_suspend( true );
 977:smtc_modem_core/device_management/modem_context.c ****         is_modem_suspend = MODEM_SUSPEND;
 978:smtc_modem_core/device_management/modem_context.c ****     }
 979:smtc_modem_core/device_management/modem_context.c ****     return SET_OK;
 980:smtc_modem_core/device_management/modem_context.c **** }
 981:smtc_modem_core/device_management/modem_context.c **** 
 982:smtc_modem_core/device_management/modem_context.c **** e_modem_suspend_t get_modem_suspend( void )
 983:smtc_modem_core/device_management/modem_context.c **** {
 984:smtc_modem_core/device_management/modem_context.c ****     return is_modem_suspend;
 985:smtc_modem_core/device_management/modem_context.c **** }
 986:smtc_modem_core/device_management/modem_context.c **** 
 987:smtc_modem_core/device_management/modem_context.c **** e_set_error_t set_modem_adr_profile( dr_strategy_t user_dr, uint8_t* adr_custom_data, uint8_t adr_c
 988:smtc_modem_core/device_management/modem_context.c **** {
 989:smtc_modem_core/device_management/modem_context.c ****     /* error case : 1) user_dr invalid
 990:smtc_modem_core/device_management/modem_context.c ****                     2) user_dr = custom but length not equal to 16
 991:smtc_modem_core/device_management/modem_context.c ****                     3) user_dr not custom but length not equal to 0*/
 992:smtc_modem_core/device_management/modem_context.c ****     if( ( user_dr >= UNKNOWN_DR ) || ( ( user_dr == USER_DR_DISTRIBUTION ) && ( adr_custom_length !
 993:smtc_modem_core/device_management/modem_context.c ****         ( ( user_dr < USER_DR_DISTRIBUTION ) && ( adr_custom_length != 0 ) ) )
 994:smtc_modem_core/device_management/modem_context.c ****     {
 995:smtc_modem_core/device_management/modem_context.c ****         BSP_DBG_TRACE_ERROR( "user_dr = %d and length = %d \n ", user_dr, adr_custom_length );
 996:smtc_modem_core/device_management/modem_context.c ****         BSP_DBG_TRACE_ERROR( "CMD_SETADRPROFILE with not valid profile\n" );
 997:smtc_modem_core/device_management/modem_context.c ****         return SET_ERROR;
 998:smtc_modem_core/device_management/modem_context.c ****     }
ARM GAS  /var/folders/bq/yv49bw8j2kd6w3hsq868qv180000gn/T//ccEK2k0g.s 			page 47


 999:smtc_modem_core/device_management/modem_context.c ****     if( user_dr == USER_DR_DISTRIBUTION )
1000:smtc_modem_core/device_management/modem_context.c ****     {
1001:smtc_modem_core/device_management/modem_context.c ****         uint8_t  MinDrTemp       = lorawan_api_min_dr_get( );
1002:smtc_modem_core/device_management/modem_context.c ****         uint8_t  MaxDrTemp       = lorawan_api_max_dr_get( );
1003:smtc_modem_core/device_management/modem_context.c ****         uint32_t adrDistribution = 0;
1004:smtc_modem_core/device_management/modem_context.c ****         for( uint8_t i = 0; i < 16; i++ )
1005:smtc_modem_core/device_management/modem_context.c ****         {
1006:smtc_modem_core/device_management/modem_context.c ****             if( ( adr_custom_data[i] < MinDrTemp ) || ( adr_custom_data[i] > MaxDrTemp ) || adr_cus
1007:smtc_modem_core/device_management/modem_context.c ****             {
1008:smtc_modem_core/device_management/modem_context.c ****                 BSP_DBG_TRACE_ERROR( "CMD_SETADRPROFILE with a bad DataRate value\n" );
1009:smtc_modem_core/device_management/modem_context.c ****                 return SET_ERROR;
1010:smtc_modem_core/device_management/modem_context.c ****             }
1011:smtc_modem_core/device_management/modem_context.c ****             if( adr_custom_data[i] == 0x00 )
1012:smtc_modem_core/device_management/modem_context.c ****             {
1013:smtc_modem_core/device_management/modem_context.c ****                 adrDistribution += ( ( ( adrDistribution & 0xF0000000 ) >> 28 ) != 0xF ) ? ( 1 << 2
1014:smtc_modem_core/device_management/modem_context.c ****             }
1015:smtc_modem_core/device_management/modem_context.c ****             else if( adr_custom_data[i] == 0x01 )
1016:smtc_modem_core/device_management/modem_context.c ****             {
1017:smtc_modem_core/device_management/modem_context.c ****                 adrDistribution += ( ( ( adrDistribution & 0x0F000000 ) >> 24 ) != 0xF ) ? ( 1 << 2
1018:smtc_modem_core/device_management/modem_context.c ****             }
1019:smtc_modem_core/device_management/modem_context.c ****             else if( adr_custom_data[i] == 0x02 )
1020:smtc_modem_core/device_management/modem_context.c ****             {
1021:smtc_modem_core/device_management/modem_context.c ****                 adrDistribution += ( ( ( adrDistribution & 0x00F00000 ) >> 20 ) != 0xF ) ? ( 1 << 2
1022:smtc_modem_core/device_management/modem_context.c ****             }
1023:smtc_modem_core/device_management/modem_context.c ****             else if( adr_custom_data[i] == 0x03 )
1024:smtc_modem_core/device_management/modem_context.c ****             {
1025:smtc_modem_core/device_management/modem_context.c ****                 adrDistribution += ( ( ( adrDistribution & 0x000F0000 ) >> 16 ) != 0xF ) ? ( 1 << 1
1026:smtc_modem_core/device_management/modem_context.c ****             }
1027:smtc_modem_core/device_management/modem_context.c ****             else if( adr_custom_data[i] == 0x04 )
1028:smtc_modem_core/device_management/modem_context.c ****             {
1029:smtc_modem_core/device_management/modem_context.c ****                 adrDistribution += ( ( ( adrDistribution & 0x0000F000 ) >> 12 ) != 0xF ) ? ( 1 << 1
1030:smtc_modem_core/device_management/modem_context.c ****             }
1031:smtc_modem_core/device_management/modem_context.c ****             else if( adr_custom_data[i] == 0x05 )
1032:smtc_modem_core/device_management/modem_context.c ****             {
1033:smtc_modem_core/device_management/modem_context.c ****                 adrDistribution += ( ( ( adrDistribution & 0x00000F00 ) >> 8 ) != 0xF ) ? ( 1 << 8 
1034:smtc_modem_core/device_management/modem_context.c ****             }
1035:smtc_modem_core/device_management/modem_context.c ****             else if( adr_custom_data[i] == 0x06 )
1036:smtc_modem_core/device_management/modem_context.c ****             {
1037:smtc_modem_core/device_management/modem_context.c ****                 adrDistribution += ( ( ( adrDistribution & 0x000000F0 ) >> 4 ) != 0xF ) ? ( 1 << 4 
1038:smtc_modem_core/device_management/modem_context.c ****             }
1039:smtc_modem_core/device_management/modem_context.c ****             else if( adr_custom_data[i] == 0x07 )
1040:smtc_modem_core/device_management/modem_context.c ****             {
1041:smtc_modem_core/device_management/modem_context.c ****                 adrDistribution += ( ( ( adrDistribution & 0x0000000F ) ) != 0xF ) ? 1 : 0;
1042:smtc_modem_core/device_management/modem_context.c ****             }
1043:smtc_modem_core/device_management/modem_context.c ****         }
1044:smtc_modem_core/device_management/modem_context.c ****         lorawan_api_dr_custom_set( adrDistribution );
1045:smtc_modem_core/device_management/modem_context.c ****     }
1046:smtc_modem_core/device_management/modem_context.c ****     lorawan_api_dr_strategy_set( user_dr );
1047:smtc_modem_core/device_management/modem_context.c **** 
1048:smtc_modem_core/device_management/modem_context.c ****     return SET_OK;
1049:smtc_modem_core/device_management/modem_context.c **** }
1050:smtc_modem_core/device_management/modem_context.c **** 
1051:smtc_modem_core/device_management/modem_context.c **** void set_modem_downlink_frame( void )
1052:smtc_modem_core/device_management/modem_context.c **** {
1053:smtc_modem_core/device_management/modem_context.c ****     lorawan_api_payload_receive( &( modem_dwn_pkt.port ), modem_dwn_pkt.data, &( modem_dwn_pkt.leng
1054:smtc_modem_core/device_management/modem_context.c ****     modem_dwn_pkt.timestamp = bsp_rtc_get_time_s( );
1055:smtc_modem_core/device_management/modem_context.c ****     modem_dwn_pkt.snr       = lorawan_api_last_snr_get( ) >> 2;
ARM GAS  /var/folders/bq/yv49bw8j2kd6w3hsq868qv180000gn/T//ccEK2k0g.s 			page 48


1056:smtc_modem_core/device_management/modem_context.c ****     modem_dwn_pkt.rssi      = lorawan_api_last_rssi_get( ) + 64;
1057:smtc_modem_core/device_management/modem_context.c ****     BSP_DBG_TRACE_ARRAY( "Downlink frame ", modem_dwn_pkt.data, modem_dwn_pkt.length );
1058:smtc_modem_core/device_management/modem_context.c ****     BSP_DBG_TRACE_PRINTF( "ModemDwnPort = %d , ", modem_dwn_pkt.port );
1059:smtc_modem_core/device_management/modem_context.c ****     BSP_DBG_TRACE_PRINTF( "ModemDwnSNR = %d , ModemDwnRssi = %d \n ", modem_dwn_pkt.snr, modem_dwn_
1060:smtc_modem_core/device_management/modem_context.c **** }
1061:smtc_modem_core/device_management/modem_context.c **** void get_modem_downlink_frame( s_modem_dwn_t* modem_dwn_in )
1062:smtc_modem_core/device_management/modem_context.c **** {
1063:smtc_modem_core/device_management/modem_context.c ****     modem_dwn_in->timestamp = modem_dwn_pkt.timestamp;
1064:smtc_modem_core/device_management/modem_context.c ****     modem_dwn_in->snr       = modem_dwn_pkt.snr;
1065:smtc_modem_core/device_management/modem_context.c ****     modem_dwn_in->rssi      = modem_dwn_pkt.rssi;
1066:smtc_modem_core/device_management/modem_context.c ****     modem_dwn_in->port      = modem_dwn_pkt.port;
1067:smtc_modem_core/device_management/modem_context.c ****     modem_dwn_in->length    = modem_dwn_pkt.length;
1068:smtc_modem_core/device_management/modem_context.c ****     memcpy( modem_dwn_in->data, modem_dwn_pkt.data, modem_dwn_pkt.length );
1069:smtc_modem_core/device_management/modem_context.c **** }
1070:smtc_modem_core/device_management/modem_context.c **** 
1071:smtc_modem_core/device_management/modem_context.c **** void set_dm_retrieve_pending_dl( uint8_t up_count, uint8_t up_delay )
1072:smtc_modem_core/device_management/modem_context.c **** {
1073:smtc_modem_core/device_management/modem_context.c ****     dm_pending_dl.up_count = up_count;
1074:smtc_modem_core/device_management/modem_context.c ****     dm_pending_dl.up_delay = up_delay;
1075:smtc_modem_core/device_management/modem_context.c **** }
1076:smtc_modem_core/device_management/modem_context.c **** 
1077:smtc_modem_core/device_management/modem_context.c **** void get_dm_retrieve_pending_dl( s_dm_retrieve_pending_dl_t* pending_dl )
1078:smtc_modem_core/device_management/modem_context.c **** {
1079:smtc_modem_core/device_management/modem_context.c ****     pending_dl->up_count = dm_pending_dl.up_count;
1080:smtc_modem_core/device_management/modem_context.c ****     pending_dl->up_delay = dm_pending_dl.up_delay;
1081:smtc_modem_core/device_management/modem_context.c **** }
1082:smtc_modem_core/device_management/modem_context.c **** 
1083:smtc_modem_core/device_management/modem_context.c **** void modem_store_context( void )
1084:smtc_modem_core/device_management/modem_context.c **** {
1085:smtc_modem_core/device_management/modem_context.c ****     uint8_t modem_context[BSP_MODEM_CONTEXT_SIZE] = { 0 };
1086:smtc_modem_core/device_management/modem_context.c ****     modem_context[0]                              = modem_dm_port;
1087:smtc_modem_core/device_management/modem_context.c ****     modem_context[1]                              = modem_dm_interval;
1088:smtc_modem_core/device_management/modem_context.c ****     modem_context[2]                              = modem_dm_upload_sctr;
1089:smtc_modem_core/device_management/modem_context.c ****     memcpy( &modem_context[3], ( uint8_t* ) ( &dm_info_bitfield_periodic ), sizeof( dm_info_bitfiel
1090:smtc_modem_core/device_management/modem_context.c ****     modem_context[7] = number_of_muted_day;
1091:smtc_modem_core/device_management/modem_context.c **** 
1092:smtc_modem_core/device_management/modem_context.c ****     uint32_t modem_charge = get_modem_charge_ma_s( );
1093:smtc_modem_core/device_management/modem_context.c ****     memcpy( &modem_context[8], ( uint8_t* ) &modem_charge, sizeof( modem_charge ) );
1094:smtc_modem_core/device_management/modem_context.c **** 
1095:smtc_modem_core/device_management/modem_context.c ****     uint32_t crctmp = crc( modem_context, BSP_MODEM_CONTEXT_SIZE - sizeof( crctmp ) );
1096:smtc_modem_core/device_management/modem_context.c ****     memcpy( &modem_context[BSP_MODEM_CONTEXT_SIZE - sizeof( crctmp )], ( uint8_t* ) &crctmp, sizeof
1097:smtc_modem_core/device_management/modem_context.c ****     BSP_DBG_TRACE_PRINTF(
1098:smtc_modem_core/device_management/modem_context.c ****         "Store a New Modem Config :\n Port = %d \n Interval = %d\n Upload_sctr = %d\n DM bitfield =
1099:smtc_modem_core/device_management/modem_context.c ****         "day = %u\n Charge = %u\n",
1100:smtc_modem_core/device_management/modem_context.c ****         modem_dm_port, modem_dm_interval, modem_dm_upload_sctr, dm_info_bitfield_periodic, number_o
1101:smtc_modem_core/device_management/modem_context.c ****         modem_charge );
1102:smtc_modem_core/device_management/modem_context.c ****     bsp_nvm_context_store( BSP_MODEM_CONTEXT_ADDR_OFFSET, modem_context, BSP_MODEM_CONTEXT_SIZE );
1103:smtc_modem_core/device_management/modem_context.c **** 
1104:smtc_modem_core/device_management/modem_context.c ****     modem_load_context( );
1105:smtc_modem_core/device_management/modem_context.c **** }
1106:smtc_modem_core/device_management/modem_context.c **** 
1107:smtc_modem_core/device_management/modem_context.c **** /*!
1108:smtc_modem_core/device_management/modem_context.c ****  * \brief    load modem context in non volatile memory
1109:smtc_modem_core/device_management/modem_context.c ****  * \remark
1110:smtc_modem_core/device_management/modem_context.c ****  * \retval void
1111:smtc_modem_core/device_management/modem_context.c ****  */
1112:smtc_modem_core/device_management/modem_context.c **** void modem_load_context( void )
ARM GAS  /var/folders/bq/yv49bw8j2kd6w3hsq868qv180000gn/T//ccEK2k0g.s 			page 49


1113:smtc_modem_core/device_management/modem_context.c **** {
1114:smtc_modem_core/device_management/modem_context.c ****     uint8_t modem_context[BSP_MODEM_CONTEXT_SIZE] = { 0 };
1115:smtc_modem_core/device_management/modem_context.c **** 
1116:smtc_modem_core/device_management/modem_context.c ****     bsp_nvm_context_restore( BSP_MODEM_CONTEXT_ADDR_OFFSET, modem_context, BSP_MODEM_CONTEXT_SIZE )
1117:smtc_modem_core/device_management/modem_context.c **** 
1118:smtc_modem_core/device_management/modem_context.c ****     uint32_t crctmp = crc( modem_context, BSP_MODEM_CONTEXT_SIZE - sizeof( crctmp ) );
1119:smtc_modem_core/device_management/modem_context.c **** 
1120:smtc_modem_core/device_management/modem_context.c ****     if( memcmp( &modem_context[BSP_MODEM_CONTEXT_SIZE - sizeof( crctmp )], ( uint8_t* ) &crctmp, si
1121:smtc_modem_core/device_management/modem_context.c ****         0 )
1122:smtc_modem_core/device_management/modem_context.c ****     {
1123:smtc_modem_core/device_management/modem_context.c ****         modem_dm_port        = modem_context[0];
1124:smtc_modem_core/device_management/modem_context.c ****         modem_dm_interval    = modem_context[1];
1125:smtc_modem_core/device_management/modem_context.c ****         modem_dm_upload_sctr = modem_context[2];
1126:smtc_modem_core/device_management/modem_context.c ****         memcpy( ( uint8_t* ) ( &dm_info_bitfield_periodic ), &modem_context[3], sizeof( dm_info_bit
1127:smtc_modem_core/device_management/modem_context.c ****         number_of_muted_day = modem_context[7];
1128:smtc_modem_core/device_management/modem_context.c **** 
1129:smtc_modem_core/device_management/modem_context.c ****         if( is_modem_charge_loaded == false )
1130:smtc_modem_core/device_management/modem_context.c ****         {
1131:smtc_modem_core/device_management/modem_context.c ****             memcpy( ( uint8_t* ) ( &modem_charge_offset ), &modem_context[8], sizeof( modem_charge_
1132:smtc_modem_core/device_management/modem_context.c ****             is_modem_charge_loaded = true;
1133:smtc_modem_core/device_management/modem_context.c ****         }
1134:smtc_modem_core/device_management/modem_context.c **** 
1135:smtc_modem_core/device_management/modem_context.c ****         BSP_DBG_TRACE_PRINTF(
1136:smtc_modem_core/device_management/modem_context.c ****             "Modem Load Config :\n Port = %d \n Interval = %d\n Upload_sctr = %d\n DM bitfield = 0x
1137:smtc_modem_core/device_management/modem_context.c ****             "day = %u\n Charge = %u\n",
1138:smtc_modem_core/device_management/modem_context.c ****             modem_dm_port, modem_dm_interval, modem_dm_upload_sctr, dm_info_bitfield_periodic, numb
1139:smtc_modem_core/device_management/modem_context.c ****             modem_charge_offset );
1140:smtc_modem_core/device_management/modem_context.c ****     }
1141:smtc_modem_core/device_management/modem_context.c ****     else
1142:smtc_modem_core/device_management/modem_context.c ****     {
1143:smtc_modem_core/device_management/modem_context.c ****         BSP_DBG_TRACE_ERROR( "Restore Modem context fail => Factory Reset Modem\n" );
1144:smtc_modem_core/device_management/modem_context.c ****         BSP_DBG_TRACE_ARRAY( " context = ", modem_context, BSP_MODEM_CONTEXT_SIZE )
1145:smtc_modem_core/device_management/modem_context.c ****         BSP_DBG_TRACE_PRINTF( " crctemp = %lx", crctmp );
1146:smtc_modem_core/device_management/modem_context.c **** 
1147:smtc_modem_core/device_management/modem_context.c ****         modem_context_factory_reset( );
1148:smtc_modem_core/device_management/modem_context.c ****     }
1149:smtc_modem_core/device_management/modem_context.c **** }
1150:smtc_modem_core/device_management/modem_context.c **** 
1151:smtc_modem_core/device_management/modem_context.c **** void modem_context_factory_reset( void )
1152:smtc_modem_core/device_management/modem_context.c **** {
1153:smtc_modem_core/device_management/modem_context.c ****     uint8_t modem_context[BSP_MODEM_CONTEXT_SIZE];
1154:smtc_modem_core/device_management/modem_context.c ****     modem_context[0] = DEFAULT_DM_PORT;
1155:smtc_modem_core/device_management/modem_context.c ****     modem_context[1] = DEFAULT_DM_REPORTING_INTERVAL;
1156:smtc_modem_core/device_management/modem_context.c ****     // upload_sctr is not reinit in the factory reset to copy sub-ghz modem behaviour
1157:smtc_modem_core/device_management/modem_context.c ****     dm_info_bitfield_periodic = DEFAULT_DM_REPORTING_FIELDS;
1158:smtc_modem_core/device_management/modem_context.c ****     memcpy( &modem_context[3], ( uint8_t* ) &dm_info_bitfield_periodic, sizeof( dm_info_bitfield_pe
1159:smtc_modem_core/device_management/modem_context.c ****     modem_context[7] = DEFAULT_DM_MUTE_DAY;
1160:smtc_modem_core/device_management/modem_context.c **** 
1161:smtc_modem_core/device_management/modem_context.c ****     uint32_t modem_charge = 0;
1162:smtc_modem_core/device_management/modem_context.c ****     memcpy( &modem_context[8], ( uint8_t* ) &modem_charge, sizeof( modem_charge ) );
1163:smtc_modem_core/device_management/modem_context.c ****     BSP_DBG_TRACE_ARRAY( "factory reset buf1", modem_context, BSP_MODEM_CONTEXT_SIZE );
1164:smtc_modem_core/device_management/modem_context.c **** 
1165:smtc_modem_core/device_management/modem_context.c ****     uint32_t crctmp = crc( modem_context, BSP_MODEM_CONTEXT_SIZE - sizeof( crctmp ) );
1166:smtc_modem_core/device_management/modem_context.c ****     memcpy( &modem_context[BSP_MODEM_CONTEXT_SIZE - sizeof( crctmp )], ( uint8_t* ) &crctmp, sizeof
1167:smtc_modem_core/device_management/modem_context.c **** 
1168:smtc_modem_core/device_management/modem_context.c ****     BSP_DBG_TRACE_ARRAY( "factory reset buf2", modem_context, BSP_MODEM_CONTEXT_SIZE );
1169:smtc_modem_core/device_management/modem_context.c **** 
ARM GAS  /var/folders/bq/yv49bw8j2kd6w3hsq868qv180000gn/T//ccEK2k0g.s 			page 50


1170:smtc_modem_core/device_management/modem_context.c ****     bsp_nvm_context_store( BSP_MODEM_CONTEXT_ADDR_OFFSET, modem_context, BSP_MODEM_CONTEXT_SIZE );
1171:smtc_modem_core/device_management/modem_context.c **** 
1172:smtc_modem_core/device_management/modem_context.c ****     is_modem_reset_requested = true;
1173:smtc_modem_core/device_management/modem_context.c ****     BSP_DBG_TRACE_INFO( "modem_context_factory_reset done\n" );
1174:smtc_modem_core/device_management/modem_context.c **** }
1175:smtc_modem_core/device_management/modem_context.c **** 
1176:smtc_modem_core/device_management/modem_context.c **** void modem_set_dm_upload_sctr( uint8_t session_counter )
1177:smtc_modem_core/device_management/modem_context.c **** {
1178:smtc_modem_core/device_management/modem_context.c ****     modem_dm_upload_sctr = session_counter & 0xf;
1179:smtc_modem_core/device_management/modem_context.c ****     modem_store_context( );
1180:smtc_modem_core/device_management/modem_context.c **** }
1181:smtc_modem_core/device_management/modem_context.c **** 
1182:smtc_modem_core/device_management/modem_context.c **** uint8_t modem_get_dm_upload_sctr( void )
1183:smtc_modem_core/device_management/modem_context.c **** {
1184:smtc_modem_core/device_management/modem_context.c ****     return ( modem_dm_upload_sctr & 0xf );
1185:smtc_modem_core/device_management/modem_context.c **** }
1186:smtc_modem_core/device_management/modem_context.c **** 
1187:smtc_modem_core/device_management/modem_context.c **** e_modem_upload_state_t modem_get_upload_state( void )
1188:smtc_modem_core/device_management/modem_context.c **** {
1189:smtc_modem_core/device_management/modem_context.c ****     return ( modem_upload_state );
1190:smtc_modem_core/device_management/modem_context.c **** }
1191:smtc_modem_core/device_management/modem_context.c **** 
1192:smtc_modem_core/device_management/modem_context.c **** void modem_set_upload_state( e_modem_upload_state_t upload_state )
1193:smtc_modem_core/device_management/modem_context.c **** {
1194:smtc_modem_core/device_management/modem_context.c ****     modem_upload_state = upload_state;
1195:smtc_modem_core/device_management/modem_context.c **** }
1196:smtc_modem_core/device_management/modem_context.c **** 
1197:smtc_modem_core/device_management/modem_context.c **** e_modem_stream_state_t modem_get_stream_state( void )
1198:smtc_modem_core/device_management/modem_context.c **** {
1199:smtc_modem_core/device_management/modem_context.c ****     return ( modem_stream_state.state );
1200:smtc_modem_core/device_management/modem_context.c **** }
1201:smtc_modem_core/device_management/modem_context.c **** 
1202:smtc_modem_core/device_management/modem_context.c **** uint8_t modem_get_stream_port( void )
1203:smtc_modem_core/device_management/modem_context.c **** {
1204:smtc_modem_core/device_management/modem_context.c ****     return ( modem_stream_state.port );
 1457              		.loc 1 1204 32 view .LVU337
 1458 0012 0B4B     		ldr	r3, .L106
 1459              	.LBE68:
 1460              	.LBE67:
 535:smtc_modem_core/device_management/modem_context.c ****     stream_task.priority          = TASK_HIGH_PRIORITY;
 1461              		.loc 1 535 59 view .LVU338
 1462 0014 0130     		adds	r0, r0, #1
 537:smtc_modem_core/device_management/modem_context.c ****     stream_task.fPort             = modem_get_stream_port( );
 1463              		.loc 1 537 35 view .LVU339
 1464 0016 1B78     		ldrb	r3, [r3]
 535:smtc_modem_core/device_management/modem_context.c ****     stream_task.priority          = TASK_HIGH_PRIORITY;
 1465              		.loc 1 535 35 view .LVU340
 1466 0018 6060     		str	r0, [r4, #4]
 536:smtc_modem_core/device_management/modem_context.c ****     stream_task.priority          = TASK_HIGH_PRIORITY;
 1467              		.loc 1 536 5 is_stmt 1 view .LVU341
 537:smtc_modem_core/device_management/modem_context.c ****     stream_task.fPort             = modem_get_stream_port( );
 1468              		.loc 1 537 5 view .LVU342
 1469              	.LBB70:
 1470              	.LBI67:
1202:smtc_modem_core/device_management/modem_context.c **** {
 1471              		.loc 1 1202 9 view .LVU343
 1472              	.LBB69:
ARM GAS  /var/folders/bq/yv49bw8j2kd6w3hsq868qv180000gn/T//ccEK2k0g.s 			page 51


 1473              		.loc 1 1204 5 view .LVU344
 1474              	.LBE69:
 1475              	.LBE70:
 541:smtc_modem_core/device_management/modem_context.c ****     BSP_DBG_TRACE_INFO( "Supervisor add stream task\n" );
 1476              		.loc 1 541 5 is_stmt 0 view .LVU345
 1477 001a 2000     		movs	r0, r4
 537:smtc_modem_core/device_management/modem_context.c ****     // stream_task.dataIn        not used in task
 1478              		.loc 1 537 35 view .LVU346
 1479 001c 6372     		strb	r3, [r4, #9]
 541:smtc_modem_core/device_management/modem_context.c ****     BSP_DBG_TRACE_INFO( "Supervisor add stream task\n" );
 1480              		.loc 1 541 5 is_stmt 1 view .LVU347
 1481 001e FFF7FEFF 		bl	modem_supervisor_add_task
 1482              	.LVL88:
 542:smtc_modem_core/device_management/modem_context.c **** }
 1483              		.loc 1 542 5 view .LVU348
 542:smtc_modem_core/device_management/modem_context.c **** }
 1484              		.loc 1 542 5 view .LVU349
 1485 0022 0848     		ldr	r0, .L106+4
 1486 0024 FFF7FEFF 		bl	bsp_trace_print
 1487              	.LVL89:
 542:smtc_modem_core/device_management/modem_context.c **** }
 1488              		.loc 1 542 5 view .LVU350
 1489 0028 0748     		ldr	r0, .L106+8
 1490 002a FFF7FEFF 		bl	bsp_trace_print
 1491              	.LVL90:
 542:smtc_modem_core/device_management/modem_context.c **** }
 1492              		.loc 1 542 5 view .LVU351
 1493 002e 0748     		ldr	r0, .L106+12
 1494 0030 FFF7FEFF 		bl	bsp_trace_print
 1495              	.LVL91:
 542:smtc_modem_core/device_management/modem_context.c **** }
 1496              		.loc 1 542 5 view .LVU352
 1497 0034 0648     		ldr	r0, .L106+16
 1498 0036 FFF7FEFF 		bl	bsp_trace_print
 1499              	.LVL92:
 542:smtc_modem_core/device_management/modem_context.c **** }
 1500              		.loc 1 542 5 view .LVU353
 542:smtc_modem_core/device_management/modem_context.c **** }
 1501              		.loc 1 542 57 view .LVU354
 543:smtc_modem_core/device_management/modem_context.c **** 
 1502              		.loc 1 543 1 is_stmt 0 view .LVU355
 1503 003a 06B0     		add	sp, sp, #24
 1504              		@ sp needed
 1505 003c 10BD     		pop	{r4, pc}
 1506              	.L107:
 1507 003e C046     		.align	2
 1508              	.L106:
 1509 0040 00000000 		.word	.LANCHOR10
 1510 0044 43000000 		.word	.LC19
 1511 0048 4B000000 		.word	.LC21
 1512 004c 00000000 		.word	.LC66
 1513 0050 3E000000 		.word	.LC16
 1514              		.cfi_endproc
 1515              	.LFE43:
 1517              		.section	.text.set_modem_status_reset_after_brownout,"ax",%progbits
 1518              		.align	1
 1519              		.global	set_modem_status_reset_after_brownout
ARM GAS  /var/folders/bq/yv49bw8j2kd6w3hsq868qv180000gn/T//ccEK2k0g.s 			page 52


 1520              		.syntax unified
 1521              		.code	16
 1522              		.thumb_func
 1523              		.fpu softvfp
 1525              	set_modem_status_reset_after_brownout:
 1526              	.LVL93:
 1527              	.LFB45:
 568:smtc_modem_core/device_management/modem_context.c ****     modem_status = ( value == true ) ? ( modem_status | ( 1 << modem_status_brownout ) )
 1528              		.loc 1 568 1 is_stmt 1 view -0
 1529              		.cfi_startproc
 1530              		@ args = 0, pretend = 0, frame = 0
 1531              		@ frame_needed = 0, uses_anonymous_args = 0
 569:smtc_modem_core/device_management/modem_context.c ****                                      : ( modem_status & ~( 1 << modem_status_brownout ) );
 1532              		.loc 1 569 5 view .LVU357
 568:smtc_modem_core/device_management/modem_context.c ****     modem_status = ( value == true ) ? ( modem_status | ( 1 << modem_status_brownout ) )
 1533              		.loc 1 568 1 is_stmt 0 view .LVU358
 1534 0000 10B5     		push	{r4, lr}
 1535              		.cfi_def_cfa_offset 8
 1536              		.cfi_offset 4, -8
 1537              		.cfi_offset 14, -4
 1538 0002 054B     		ldr	r3, .L111
 1539 0004 0124     		movs	r4, #1
 1540 0006 1978     		ldrb	r1, [r3]
 569:smtc_modem_core/device_management/modem_context.c ****                                      : ( modem_status & ~( 1 << modem_status_brownout ) );
 1541              		.loc 1 569 18 view .LVU359
 1542 0008 0A00     		movs	r2, r1
 1543 000a A243     		bics	r2, r4
 1544 000c 0028     		cmp	r0, #0
 1545 000e 01D0     		beq	.L110
 569:smtc_modem_core/device_management/modem_context.c ****                                      : ( modem_status & ~( 1 << modem_status_brownout ) );
 1546              		.loc 1 569 18 discriminator 1 view .LVU360
 1547 0010 2200     		movs	r2, r4
 1548 0012 0A43     		orrs	r2, r1
 1549              	.L110:
 571:smtc_modem_core/device_management/modem_context.c **** 
 1550              		.loc 1 571 1 discriminator 4 view .LVU361
 1551              		@ sp needed
 569:smtc_modem_core/device_management/modem_context.c ****                                      : ( modem_status & ~( 1 << modem_status_brownout ) );
 1552              		.loc 1 569 18 discriminator 4 view .LVU362
 1553 0014 1A70     		strb	r2, [r3]
 571:smtc_modem_core/device_management/modem_context.c **** 
 1554              		.loc 1 571 1 discriminator 4 view .LVU363
 1555 0016 10BD     		pop	{r4, pc}
 1556              	.L112:
 1557              		.align	2
 1558              	.L111:
 1559 0018 00000000 		.word	.LANCHOR11
 1560              		.cfi_endproc
 1561              	.LFE45:
 1563              		.section	.text.set_modem_status_reset_after_crash,"ax",%progbits
 1564              		.align	1
 1565              		.global	set_modem_status_reset_after_crash
 1566              		.syntax unified
 1567              		.code	16
 1568              		.thumb_func
 1569              		.fpu softvfp
 1571              	set_modem_status_reset_after_crash:
ARM GAS  /var/folders/bq/yv49bw8j2kd6w3hsq868qv180000gn/T//ccEK2k0g.s 			page 53


 1572              	.LVL94:
 1573              	.LFB46:
 574:smtc_modem_core/device_management/modem_context.c ****     modem_status = ( value == true ) ? ( modem_status | ( 1 << modem_status_crash ) )
 1574              		.loc 1 574 1 is_stmt 1 view -0
 1575              		.cfi_startproc
 1576              		@ args = 0, pretend = 0, frame = 0
 1577              		@ frame_needed = 0, uses_anonymous_args = 0
 575:smtc_modem_core/device_management/modem_context.c ****                                      : ( modem_status & ~( 1 << modem_status_crash ) );
 1578              		.loc 1 575 5 view .LVU365
 574:smtc_modem_core/device_management/modem_context.c ****     modem_status = ( value == true ) ? ( modem_status | ( 1 << modem_status_crash ) )
 1579              		.loc 1 574 1 is_stmt 0 view .LVU366
 1580 0000 10B5     		push	{r4, lr}
 1581              		.cfi_def_cfa_offset 8
 1582              		.cfi_offset 4, -8
 1583              		.cfi_offset 14, -4
 1584 0002 054B     		ldr	r3, .L116
 1585 0004 0224     		movs	r4, #2
 1586 0006 1978     		ldrb	r1, [r3]
 575:smtc_modem_core/device_management/modem_context.c ****                                      : ( modem_status & ~( 1 << modem_status_crash ) );
 1587              		.loc 1 575 18 view .LVU367
 1588 0008 0A00     		movs	r2, r1
 1589 000a A243     		bics	r2, r4
 1590 000c 0028     		cmp	r0, #0
 1591 000e 01D0     		beq	.L115
 575:smtc_modem_core/device_management/modem_context.c ****                                      : ( modem_status & ~( 1 << modem_status_crash ) );
 1592              		.loc 1 575 18 discriminator 1 view .LVU368
 1593 0010 2200     		movs	r2, r4
 1594 0012 0A43     		orrs	r2, r1
 1595              	.L115:
 577:smtc_modem_core/device_management/modem_context.c **** 
 1596              		.loc 1 577 1 discriminator 4 view .LVU369
 1597              		@ sp needed
 575:smtc_modem_core/device_management/modem_context.c ****                                      : ( modem_status & ~( 1 << modem_status_crash ) );
 1598              		.loc 1 575 18 discriminator 4 view .LVU370
 1599 0014 1A70     		strb	r2, [r3]
 577:smtc_modem_core/device_management/modem_context.c **** 
 1600              		.loc 1 577 1 discriminator 4 view .LVU371
 1601 0016 10BD     		pop	{r4, pc}
 1602              	.L117:
 1603              		.align	2
 1604              	.L116:
 1605 0018 00000000 		.word	.LANCHOR11
 1606              		.cfi_endproc
 1607              	.LFE46:
 1609              		.section	.text.set_modem_status_modem_mute,"ax",%progbits
 1610              		.align	1
 1611              		.global	set_modem_status_modem_mute
 1612              		.syntax unified
 1613              		.code	16
 1614              		.thumb_func
 1615              		.fpu softvfp
 1617              	set_modem_status_modem_mute:
 1618              	.LVL95:
 1619              	.LFB47:
 580:smtc_modem_core/device_management/modem_context.c ****     modem_status = ( value == true ) ? ( modem_status | ( 1 << modem_status_mute ) )
 1620              		.loc 1 580 1 is_stmt 1 view -0
 1621              		.cfi_startproc
ARM GAS  /var/folders/bq/yv49bw8j2kd6w3hsq868qv180000gn/T//ccEK2k0g.s 			page 54


 1622              		@ args = 0, pretend = 0, frame = 0
 1623              		@ frame_needed = 0, uses_anonymous_args = 0
 581:smtc_modem_core/device_management/modem_context.c ****                                      : ( modem_status & ~( 1 << modem_status_mute ) );
 1624              		.loc 1 581 5 view .LVU373
 580:smtc_modem_core/device_management/modem_context.c ****     modem_status = ( value == true ) ? ( modem_status | ( 1 << modem_status_mute ) )
 1625              		.loc 1 580 1 is_stmt 0 view .LVU374
 1626 0000 10B5     		push	{r4, lr}
 1627              		.cfi_def_cfa_offset 8
 1628              		.cfi_offset 4, -8
 1629              		.cfi_offset 14, -4
 1630 0002 054B     		ldr	r3, .L121
 1631 0004 0424     		movs	r4, #4
 1632 0006 1978     		ldrb	r1, [r3]
 581:smtc_modem_core/device_management/modem_context.c ****                                      : ( modem_status & ~( 1 << modem_status_mute ) );
 1633              		.loc 1 581 18 view .LVU375
 1634 0008 0A00     		movs	r2, r1
 1635 000a A243     		bics	r2, r4
 1636 000c 0028     		cmp	r0, #0
 1637 000e 01D0     		beq	.L120
 581:smtc_modem_core/device_management/modem_context.c ****                                      : ( modem_status & ~( 1 << modem_status_mute ) );
 1638              		.loc 1 581 18 discriminator 1 view .LVU376
 1639 0010 2200     		movs	r2, r4
 1640 0012 0A43     		orrs	r2, r1
 1641              	.L120:
 583:smtc_modem_core/device_management/modem_context.c **** 
 1642              		.loc 1 583 1 discriminator 4 view .LVU377
 1643              		@ sp needed
 581:smtc_modem_core/device_management/modem_context.c ****                                      : ( modem_status & ~( 1 << modem_status_mute ) );
 1644              		.loc 1 581 18 discriminator 4 view .LVU378
 1645 0014 1A70     		strb	r2, [r3]
 583:smtc_modem_core/device_management/modem_context.c **** 
 1646              		.loc 1 583 1 discriminator 4 view .LVU379
 1647 0016 10BD     		pop	{r4, pc}
 1648              	.L122:
 1649              		.align	2
 1650              	.L121:
 1651 0018 00000000 		.word	.LANCHOR11
 1652              		.cfi_endproc
 1653              	.LFE47:
 1655              		.section	.text.set_modem_status_modem_joined,"ax",%progbits
 1656              		.align	1
 1657              		.global	set_modem_status_modem_joined
 1658              		.syntax unified
 1659              		.code	16
 1660              		.thumb_func
 1661              		.fpu softvfp
 1663              	set_modem_status_modem_joined:
 1664              	.LVL96:
 1665              	.LFB48:
 586:smtc_modem_core/device_management/modem_context.c ****     modem_status = ( value == true ) ? ( modem_status | ( 1 << modem_status_joined ) )
 1666              		.loc 1 586 1 is_stmt 1 view -0
 1667              		.cfi_startproc
 1668              		@ args = 0, pretend = 0, frame = 0
 1669              		@ frame_needed = 0, uses_anonymous_args = 0
 587:smtc_modem_core/device_management/modem_context.c ****                                      : ( modem_status & ~( 1 << modem_status_joined ) );
 1670              		.loc 1 587 5 view .LVU381
 586:smtc_modem_core/device_management/modem_context.c ****     modem_status = ( value == true ) ? ( modem_status | ( 1 << modem_status_joined ) )
ARM GAS  /var/folders/bq/yv49bw8j2kd6w3hsq868qv180000gn/T//ccEK2k0g.s 			page 55


 1671              		.loc 1 586 1 is_stmt 0 view .LVU382
 1672 0000 10B5     		push	{r4, lr}
 1673              		.cfi_def_cfa_offset 8
 1674              		.cfi_offset 4, -8
 1675              		.cfi_offset 14, -4
 1676 0002 054B     		ldr	r3, .L126
 1677 0004 0824     		movs	r4, #8
 1678 0006 1978     		ldrb	r1, [r3]
 587:smtc_modem_core/device_management/modem_context.c ****                                      : ( modem_status & ~( 1 << modem_status_joined ) );
 1679              		.loc 1 587 18 view .LVU383
 1680 0008 0A00     		movs	r2, r1
 1681 000a A243     		bics	r2, r4
 1682 000c 0028     		cmp	r0, #0
 1683 000e 01D0     		beq	.L125
 587:smtc_modem_core/device_management/modem_context.c ****                                      : ( modem_status & ~( 1 << modem_status_joined ) );
 1684              		.loc 1 587 18 discriminator 1 view .LVU384
 1685 0010 2200     		movs	r2, r4
 1686 0012 0A43     		orrs	r2, r1
 1687              	.L125:
 589:smtc_modem_core/device_management/modem_context.c **** 
 1688              		.loc 1 589 1 discriminator 4 view .LVU385
 1689              		@ sp needed
 587:smtc_modem_core/device_management/modem_context.c ****                                      : ( modem_status & ~( 1 << modem_status_joined ) );
 1690              		.loc 1 587 18 discriminator 4 view .LVU386
 1691 0014 1A70     		strb	r2, [r3]
 589:smtc_modem_core/device_management/modem_context.c **** 
 1692              		.loc 1 589 1 discriminator 4 view .LVU387
 1693 0016 10BD     		pop	{r4, pc}
 1694              	.L127:
 1695              		.align	2
 1696              	.L126:
 1697 0018 00000000 		.word	.LANCHOR11
 1698              		.cfi_endproc
 1699              	.LFE48:
 1701              		.section	.text.set_modem_status_radio_suspend,"ax",%progbits
 1702              		.align	1
 1703              		.global	set_modem_status_radio_suspend
 1704              		.syntax unified
 1705              		.code	16
 1706              		.thumb_func
 1707              		.fpu softvfp
 1709              	set_modem_status_radio_suspend:
 1710              	.LVL97:
 1711              	.LFB49:
 592:smtc_modem_core/device_management/modem_context.c ****     modem_status = ( value == true ) ? ( modem_status | ( 1 << modem_status_suspend ) )
 1712              		.loc 1 592 1 is_stmt 1 view -0
 1713              		.cfi_startproc
 1714              		@ args = 0, pretend = 0, frame = 0
 1715              		@ frame_needed = 0, uses_anonymous_args = 0
 593:smtc_modem_core/device_management/modem_context.c ****                                      : ( modem_status & ~( 1 << modem_status_suspend ) );
 1716              		.loc 1 593 5 view .LVU389
 592:smtc_modem_core/device_management/modem_context.c ****     modem_status = ( value == true ) ? ( modem_status | ( 1 << modem_status_suspend ) )
 1717              		.loc 1 592 1 is_stmt 0 view .LVU390
 1718 0000 10B5     		push	{r4, lr}
 1719              		.cfi_def_cfa_offset 8
 1720              		.cfi_offset 4, -8
 1721              		.cfi_offset 14, -4
ARM GAS  /var/folders/bq/yv49bw8j2kd6w3hsq868qv180000gn/T//ccEK2k0g.s 			page 56


 1722 0002 054B     		ldr	r3, .L131
 1723 0004 1024     		movs	r4, #16
 1724 0006 1978     		ldrb	r1, [r3]
 593:smtc_modem_core/device_management/modem_context.c ****                                      : ( modem_status & ~( 1 << modem_status_suspend ) );
 1725              		.loc 1 593 18 view .LVU391
 1726 0008 0A00     		movs	r2, r1
 1727 000a A243     		bics	r2, r4
 1728 000c 0028     		cmp	r0, #0
 1729 000e 01D0     		beq	.L130
 593:smtc_modem_core/device_management/modem_context.c ****                                      : ( modem_status & ~( 1 << modem_status_suspend ) );
 1730              		.loc 1 593 18 discriminator 1 view .LVU392
 1731 0010 2200     		movs	r2, r4
 1732 0012 0A43     		orrs	r2, r1
 1733              	.L130:
 595:smtc_modem_core/device_management/modem_context.c **** 
 1734              		.loc 1 595 1 discriminator 4 view .LVU393
 1735              		@ sp needed
 593:smtc_modem_core/device_management/modem_context.c ****                                      : ( modem_status & ~( 1 << modem_status_suspend ) );
 1736              		.loc 1 593 18 discriminator 4 view .LVU394
 1737 0014 1A70     		strb	r2, [r3]
 595:smtc_modem_core/device_management/modem_context.c **** 
 1738              		.loc 1 595 1 discriminator 4 view .LVU395
 1739 0016 10BD     		pop	{r4, pc}
 1740              	.L132:
 1741              		.align	2
 1742              	.L131:
 1743 0018 00000000 		.word	.LANCHOR11
 1744              		.cfi_endproc
 1745              	.LFE49:
 1747              		.section	.text.set_modem_status_file_upload,"ax",%progbits
 1748              		.align	1
 1749              		.global	set_modem_status_file_upload
 1750              		.syntax unified
 1751              		.code	16
 1752              		.thumb_func
 1753              		.fpu softvfp
 1755              	set_modem_status_file_upload:
 1756              	.LVL98:
 1757              	.LFB50:
 598:smtc_modem_core/device_management/modem_context.c ****     modem_status = ( value == true ) ? ( modem_status | ( 1 << modem_status_upload ) )
 1758              		.loc 1 598 1 is_stmt 1 view -0
 1759              		.cfi_startproc
 1760              		@ args = 0, pretend = 0, frame = 0
 1761              		@ frame_needed = 0, uses_anonymous_args = 0
 599:smtc_modem_core/device_management/modem_context.c ****                                      : ( modem_status & ~( 1 << modem_status_upload ) );
 1762              		.loc 1 599 5 view .LVU397
 598:smtc_modem_core/device_management/modem_context.c ****     modem_status = ( value == true ) ? ( modem_status | ( 1 << modem_status_upload ) )
 1763              		.loc 1 598 1 is_stmt 0 view .LVU398
 1764 0000 10B5     		push	{r4, lr}
 1765              		.cfi_def_cfa_offset 8
 1766              		.cfi_offset 4, -8
 1767              		.cfi_offset 14, -4
 1768 0002 054B     		ldr	r3, .L136
 1769 0004 2024     		movs	r4, #32
 1770 0006 1978     		ldrb	r1, [r3]
 599:smtc_modem_core/device_management/modem_context.c ****                                      : ( modem_status & ~( 1 << modem_status_upload ) );
 1771              		.loc 1 599 18 view .LVU399
ARM GAS  /var/folders/bq/yv49bw8j2kd6w3hsq868qv180000gn/T//ccEK2k0g.s 			page 57


 1772 0008 0A00     		movs	r2, r1
 1773 000a A243     		bics	r2, r4
 1774 000c 0028     		cmp	r0, #0
 1775 000e 01D0     		beq	.L135
 599:smtc_modem_core/device_management/modem_context.c ****                                      : ( modem_status & ~( 1 << modem_status_upload ) );
 1776              		.loc 1 599 18 discriminator 1 view .LVU400
 1777 0010 2200     		movs	r2, r4
 1778 0012 0A43     		orrs	r2, r1
 1779              	.L135:
 601:smtc_modem_core/device_management/modem_context.c **** 
 1780              		.loc 1 601 1 discriminator 4 view .LVU401
 1781              		@ sp needed
 599:smtc_modem_core/device_management/modem_context.c ****                                      : ( modem_status & ~( 1 << modem_status_upload ) );
 1782              		.loc 1 599 18 discriminator 4 view .LVU402
 1783 0014 1A70     		strb	r2, [r3]
 601:smtc_modem_core/device_management/modem_context.c **** 
 1784              		.loc 1 601 1 discriminator 4 view .LVU403
 1785 0016 10BD     		pop	{r4, pc}
 1786              	.L137:
 1787              		.align	2
 1788              	.L136:
 1789 0018 00000000 		.word	.LANCHOR11
 1790              		.cfi_endproc
 1791              	.LFE50:
 1793              		.section	.text.set_modem_status_joining,"ax",%progbits
 1794              		.align	1
 1795              		.global	set_modem_status_joining
 1796              		.syntax unified
 1797              		.code	16
 1798              		.thumb_func
 1799              		.fpu softvfp
 1801              	set_modem_status_joining:
 1802              	.LVL99:
 1803              	.LFB51:
 604:smtc_modem_core/device_management/modem_context.c ****     modem_status = ( value == true ) ? ( modem_status | ( 1 << modem_status_joining ) )
 1804              		.loc 1 604 1 is_stmt 1 view -0
 1805              		.cfi_startproc
 1806              		@ args = 0, pretend = 0, frame = 0
 1807              		@ frame_needed = 0, uses_anonymous_args = 0
 605:smtc_modem_core/device_management/modem_context.c ****                                      : ( modem_status & ~( 1 << modem_status_joining ) );
 1808              		.loc 1 605 5 view .LVU405
 604:smtc_modem_core/device_management/modem_context.c ****     modem_status = ( value == true ) ? ( modem_status | ( 1 << modem_status_joining ) )
 1809              		.loc 1 604 1 is_stmt 0 view .LVU406
 1810 0000 10B5     		push	{r4, lr}
 1811              		.cfi_def_cfa_offset 8
 1812              		.cfi_offset 4, -8
 1813              		.cfi_offset 14, -4
 1814 0002 054B     		ldr	r3, .L141
 1815 0004 4024     		movs	r4, #64
 1816 0006 1978     		ldrb	r1, [r3]
 605:smtc_modem_core/device_management/modem_context.c ****                                      : ( modem_status & ~( 1 << modem_status_joining ) );
 1817              		.loc 1 605 18 view .LVU407
 1818 0008 0A00     		movs	r2, r1
 1819 000a A243     		bics	r2, r4
 1820 000c 0028     		cmp	r0, #0
 1821 000e 01D0     		beq	.L140
 605:smtc_modem_core/device_management/modem_context.c ****                                      : ( modem_status & ~( 1 << modem_status_joining ) );
ARM GAS  /var/folders/bq/yv49bw8j2kd6w3hsq868qv180000gn/T//ccEK2k0g.s 			page 58


 1822              		.loc 1 605 18 discriminator 1 view .LVU408
 1823 0010 2200     		movs	r2, r4
 1824 0012 0A43     		orrs	r2, r1
 1825              	.L140:
 607:smtc_modem_core/device_management/modem_context.c **** 
 1826              		.loc 1 607 1 discriminator 4 view .LVU409
 1827              		@ sp needed
 605:smtc_modem_core/device_management/modem_context.c ****                                      : ( modem_status & ~( 1 << modem_status_joining ) );
 1828              		.loc 1 605 18 discriminator 4 view .LVU410
 1829 0014 1A70     		strb	r2, [r3]
 607:smtc_modem_core/device_management/modem_context.c **** 
 1830              		.loc 1 607 1 discriminator 4 view .LVU411
 1831 0016 10BD     		pop	{r4, pc}
 1832              	.L142:
 1833              		.align	2
 1834              	.L141:
 1835 0018 00000000 		.word	.LANCHOR11
 1836              		.cfi_endproc
 1837              	.LFE51:
 1839              		.section	.rodata.modem_supervisor_add_task_join.str1.1,"aMS",%progbits,1
 1840              	.LC76:
 1841 0000 20537461 		.ascii	" Start a New join at %ld seconds \012\000"
 1841      72742061 
 1841      204E6577 
 1841      206A6F69 
 1841      6E206174 
 1842              		.section	.text.modem_supervisor_add_task_join,"ax",%progbits
 1843              		.align	1
 1844              		.global	modem_supervisor_add_task_join
 1845              		.syntax unified
 1846              		.code	16
 1847              		.thumb_func
 1848              		.fpu softvfp
 1850              	modem_supervisor_add_task_join:
 1851              	.LFB36:
 440:smtc_modem_core/device_management/modem_context.c ****     smodem_task task_join;
 1852              		.loc 1 440 1 is_stmt 1 view -0
 1853              		.cfi_startproc
 1854              		@ args = 0, pretend = 0, frame = 24
 1855              		@ frame_needed = 0, uses_anonymous_args = 0
 441:smtc_modem_core/device_management/modem_context.c ****     task_join.id       = JOIN_TASK;
 1856              		.loc 1 441 5 view .LVU413
 442:smtc_modem_core/device_management/modem_context.c ****     task_join.priority = TASK_HIGH_PRIORITY;
 1857              		.loc 1 442 5 view .LVU414
 440:smtc_modem_core/device_management/modem_context.c ****     smodem_task task_join;
 1858              		.loc 1 440 1 is_stmt 0 view .LVU415
 1859 0000 30B5     		push	{r4, r5, lr}
 1860              		.cfi_def_cfa_offset 12
 1861              		.cfi_offset 4, -12
 1862              		.cfi_offset 5, -8
 1863              		.cfi_offset 14, -4
 1864 0002 87B0     		sub	sp, sp, #28
 1865              		.cfi_def_cfa_offset 40
 442:smtc_modem_core/device_management/modem_context.c ****     task_join.priority = TASK_HIGH_PRIORITY;
 1866              		.loc 1 442 24 view .LVU416
 1867 0004 6A46     		mov	r2, sp
 1868 0006 0223     		movs	r3, #2
ARM GAS  /var/folders/bq/yv49bw8j2kd6w3hsq868qv180000gn/T//ccEK2k0g.s 			page 59


 443:smtc_modem_core/device_management/modem_context.c **** #ifdef TEST_BYPASS_JOIN_DUTY_CYCLE
 1869              		.loc 1 443 24 view .LVU417
 1870 0008 0125     		movs	r5, #1
 442:smtc_modem_core/device_management/modem_context.c ****     task_join.priority = TASK_HIGH_PRIORITY;
 1871              		.loc 1 442 24 view .LVU418
 1872 000a 1371     		strb	r3, [r2, #4]
 443:smtc_modem_core/device_management/modem_context.c **** #ifdef TEST_BYPASS_JOIN_DUTY_CYCLE
 1873              		.loc 1 443 5 is_stmt 1 view .LVU419
 443:smtc_modem_core/device_management/modem_context.c **** #ifdef TEST_BYPASS_JOIN_DUTY_CYCLE
 1874              		.loc 1 443 24 is_stmt 0 view .LVU420
 1875 000c 1573     		strb	r5, [r2, #12]
 447:smtc_modem_core/device_management/modem_context.c **** #endif
 1876              		.loc 1 447 5 is_stmt 1 view .LVU421
 447:smtc_modem_core/device_management/modem_context.c **** #endif
 1877              		.loc 1 447 35 is_stmt 0 view .LVU422
 1878 000e FFF7FEFF 		bl	lorawan_api_next_join_time_second_get
 1879              	.LVL100:
 447:smtc_modem_core/device_management/modem_context.c **** #endif
 1880              		.loc 1 447 78 view .LVU423
 1881 0012 0521     		movs	r1, #5
 447:smtc_modem_core/device_management/modem_context.c **** #endif
 1882              		.loc 1 447 35 view .LVU424
 1883 0014 0400     		movs	r4, r0
 447:smtc_modem_core/device_management/modem_context.c **** #endif
 1884              		.loc 1 447 78 view .LVU425
 1885 0016 0020     		movs	r0, #0
 1886 0018 FFF7FEFF 		bl	bsp_rng_get_random_in_range
 1887              	.LVL101:
 447:smtc_modem_core/device_management/modem_context.c **** #endif
 1888              		.loc 1 447 76 view .LVU426
 1889 001c 2118     		adds	r1, r4, r0
 449:smtc_modem_core/device_management/modem_context.c ****     set_modem_status_joining( true );
 1890              		.loc 1 449 5 view .LVU427
 1891 001e 0648     		ldr	r0, .L144
 447:smtc_modem_core/device_management/modem_context.c **** #endif
 1892              		.loc 1 447 33 view .LVU428
 1893 0020 0291     		str	r1, [sp, #8]
 449:smtc_modem_core/device_management/modem_context.c ****     set_modem_status_joining( true );
 1894              		.loc 1 449 5 is_stmt 1 view .LVU429
 1895 0022 FFF7FEFF 		bl	bsp_trace_print
 1896              	.LVL102:
 450:smtc_modem_core/device_management/modem_context.c ****     modem_supervisor_add_task( &task_join );
 1897              		.loc 1 450 5 view .LVU430
 1898 0026 2800     		movs	r0, r5
 1899 0028 FFF7FEFF 		bl	set_modem_status_joining
 1900              	.LVL103:
 451:smtc_modem_core/device_management/modem_context.c **** }
 1901              		.loc 1 451 5 view .LVU431
 1902 002c 01A8     		add	r0, sp, #4
 1903 002e FFF7FEFF 		bl	modem_supervisor_add_task
 1904              	.LVL104:
 452:smtc_modem_core/device_management/modem_context.c **** 
 1905              		.loc 1 452 1 is_stmt 0 view .LVU432
 1906 0032 07B0     		add	sp, sp, #28
 1907              		@ sp needed
 1908 0034 30BD     		pop	{r4, r5, pc}
 1909              	.L145:
ARM GAS  /var/folders/bq/yv49bw8j2kd6w3hsq868qv180000gn/T//ccEK2k0g.s 			page 60


 1910 0036 C046     		.align	2
 1911              	.L144:
 1912 0038 00000000 		.word	.LC76
 1913              		.cfi_endproc
 1914              	.LFE36:
 1916              		.section	.text.set_modem_status_streaming,"ax",%progbits
 1917              		.align	1
 1918              		.global	set_modem_status_streaming
 1919              		.syntax unified
 1920              		.code	16
 1921              		.thumb_func
 1922              		.fpu softvfp
 1924              	set_modem_status_streaming:
 1925              	.LVL105:
 1926              	.LFB52:
 610:smtc_modem_core/device_management/modem_context.c ****     modem_status = ( value == true ) ? ( modem_status | ( 1 << modem_status_streaming ) )
 1927              		.loc 1 610 1 is_stmt 1 view -0
 1928              		.cfi_startproc
 1929              		@ args = 0, pretend = 0, frame = 0
 1930              		@ frame_needed = 0, uses_anonymous_args = 0
 1931              		@ link register save eliminated.
 611:smtc_modem_core/device_management/modem_context.c ****                                      : ( modem_status & ~( 1 << modem_status_streaming ) );
 1932              		.loc 1 611 5 view .LVU434
 1933 0000 054A     		ldr	r2, .L149
 1934 0002 1378     		ldrb	r3, [r2]
 611:smtc_modem_core/device_management/modem_context.c ****                                      : ( modem_status & ~( 1 << modem_status_streaming ) );
 1935              		.loc 1 611 18 is_stmt 0 view .LVU435
 1936 0004 0028     		cmp	r0, #0
 1937 0006 03D0     		beq	.L147
 611:smtc_modem_core/device_management/modem_context.c ****                                      : ( modem_status & ~( 1 << modem_status_streaming ) );
 1938              		.loc 1 611 18 discriminator 1 view .LVU436
 1939 0008 8021     		movs	r1, #128
 1940 000a 0B43     		orrs	r3, r1
 1941              	.L148:
 613:smtc_modem_core/device_management/modem_context.c **** 
 1942              		.loc 1 613 1 discriminator 4 view .LVU437
 1943              		@ sp needed
 611:smtc_modem_core/device_management/modem_context.c ****                                      : ( modem_status & ~( 1 << modem_status_streaming ) );
 1944              		.loc 1 611 18 discriminator 4 view .LVU438
 1945 000c 1370     		strb	r3, [r2]
 613:smtc_modem_core/device_management/modem_context.c **** 
 1946              		.loc 1 613 1 discriminator 4 view .LVU439
 1947 000e 7047     		bx	lr
 1948              	.L147:
 611:smtc_modem_core/device_management/modem_context.c ****                                      : ( modem_status & ~( 1 << modem_status_streaming ) );
 1949              		.loc 1 611 18 discriminator 2 view .LVU440
 1950 0010 7F21     		movs	r1, #127
 1951 0012 0B40     		ands	r3, r1
 1952 0014 FAE7     		b	.L148
 1953              	.L150:
 1954 0016 C046     		.align	2
 1955              	.L149:
 1956 0018 00000000 		.word	.LANCHOR11
 1957              		.cfi_endproc
 1958              	.LFE52:
 1960              		.section	.text.get_modem_status_reset_after_crash,"ax",%progbits
 1961              		.align	1
ARM GAS  /var/folders/bq/yv49bw8j2kd6w3hsq868qv180000gn/T//ccEK2k0g.s 			page 61


 1962              		.global	get_modem_status_reset_after_crash
 1963              		.syntax unified
 1964              		.code	16
 1965              		.thumb_func
 1966              		.fpu softvfp
 1968              	get_modem_status_reset_after_crash:
 1969              	.LFB53:
 616:smtc_modem_core/device_management/modem_context.c ****     return ( ( modem_status >> modem_status_crash ) & 0x01 );
 1970              		.loc 1 616 1 is_stmt 1 view -0
 1971              		.cfi_startproc
 1972              		@ args = 0, pretend = 0, frame = 0
 1973              		@ frame_needed = 0, uses_anonymous_args = 0
 1974              		@ link register save eliminated.
 617:smtc_modem_core/device_management/modem_context.c **** }
 1975              		.loc 1 617 5 view .LVU442
 617:smtc_modem_core/device_management/modem_context.c **** }
 1976              		.loc 1 617 53 is_stmt 0 view .LVU443
 1977 0000 024B     		ldr	r3, .L152
 618:smtc_modem_core/device_management/modem_context.c **** 
 1978              		.loc 1 618 1 view .LVU444
 1979              		@ sp needed
 617:smtc_modem_core/device_management/modem_context.c **** }
 1980              		.loc 1 617 53 view .LVU445
 1981 0002 1878     		ldrb	r0, [r3]
 1982 0004 8007     		lsls	r0, r0, #30
 1983 0006 C00F     		lsrs	r0, r0, #31
 618:smtc_modem_core/device_management/modem_context.c **** 
 1984              		.loc 1 618 1 view .LVU446
 1985 0008 7047     		bx	lr
 1986              	.L153:
 1987 000a C046     		.align	2
 1988              	.L152:
 1989 000c 00000000 		.word	.LANCHOR11
 1990              		.cfi_endproc
 1991              	.LFE53:
 1993              		.section	.text.get_modem_status_file_upload,"ax",%progbits
 1994              		.align	1
 1995              		.global	get_modem_status_file_upload
 1996              		.syntax unified
 1997              		.code	16
 1998              		.thumb_func
 1999              		.fpu softvfp
 2001              	get_modem_status_file_upload:
 2002              	.LFB54:
 621:smtc_modem_core/device_management/modem_context.c ****     return ( ( modem_status >> modem_status_upload ) & 0x01 );
 2003              		.loc 1 621 1 is_stmt 1 view -0
 2004              		.cfi_startproc
 2005              		@ args = 0, pretend = 0, frame = 0
 2006              		@ frame_needed = 0, uses_anonymous_args = 0
 2007              		@ link register save eliminated.
 622:smtc_modem_core/device_management/modem_context.c **** }
 2008              		.loc 1 622 5 view .LVU448
 622:smtc_modem_core/device_management/modem_context.c **** }
 2009              		.loc 1 622 54 is_stmt 0 view .LVU449
 2010 0000 024B     		ldr	r3, .L155
 623:smtc_modem_core/device_management/modem_context.c **** 
 2011              		.loc 1 623 1 view .LVU450
ARM GAS  /var/folders/bq/yv49bw8j2kd6w3hsq868qv180000gn/T//ccEK2k0g.s 			page 62


 2012              		@ sp needed
 622:smtc_modem_core/device_management/modem_context.c **** }
 2013              		.loc 1 622 54 view .LVU451
 2014 0002 1878     		ldrb	r0, [r3]
 2015 0004 8006     		lsls	r0, r0, #26
 2016 0006 C00F     		lsrs	r0, r0, #31
 623:smtc_modem_core/device_management/modem_context.c **** 
 2017              		.loc 1 623 1 view .LVU452
 2018 0008 7047     		bx	lr
 2019              	.L156:
 2020 000a C046     		.align	2
 2021              	.L155:
 2022 000c 00000000 		.word	.LANCHOR11
 2023              		.cfi_endproc
 2024              	.LFE54:
 2026              		.section	.text.get_modem_status_joining,"ax",%progbits
 2027              		.align	1
 2028              		.global	get_modem_status_joining
 2029              		.syntax unified
 2030              		.code	16
 2031              		.thumb_func
 2032              		.fpu softvfp
 2034              	get_modem_status_joining:
 2035              	.LFB55:
 626:smtc_modem_core/device_management/modem_context.c ****     return ( ( modem_status >> modem_status_joining ) & 0x01 );
 2036              		.loc 1 626 1 is_stmt 1 view -0
 2037              		.cfi_startproc
 2038              		@ args = 0, pretend = 0, frame = 0
 2039              		@ frame_needed = 0, uses_anonymous_args = 0
 2040              		@ link register save eliminated.
 627:smtc_modem_core/device_management/modem_context.c **** }
 2041              		.loc 1 627 5 view .LVU454
 627:smtc_modem_core/device_management/modem_context.c **** }
 2042              		.loc 1 627 55 is_stmt 0 view .LVU455
 2043 0000 024B     		ldr	r3, .L158
 628:smtc_modem_core/device_management/modem_context.c **** 
 2044              		.loc 1 628 1 view .LVU456
 2045              		@ sp needed
 627:smtc_modem_core/device_management/modem_context.c **** }
 2046              		.loc 1 627 55 view .LVU457
 2047 0002 1878     		ldrb	r0, [r3]
 2048 0004 4006     		lsls	r0, r0, #25
 2049 0006 C00F     		lsrs	r0, r0, #31
 628:smtc_modem_core/device_management/modem_context.c **** 
 2050              		.loc 1 628 1 view .LVU458
 2051 0008 7047     		bx	lr
 2052              	.L159:
 2053 000a C046     		.align	2
 2054              	.L158:
 2055 000c 00000000 		.word	.LANCHOR11
 2056              		.cfi_endproc
 2057              	.LFE55:
 2059              		.section	.text.get_join_state,"ax",%progbits
 2060              		.align	1
 2061              		.global	get_join_state
 2062              		.syntax unified
 2063              		.code	16
ARM GAS  /var/folders/bq/yv49bw8j2kd6w3hsq868qv180000gn/T//ccEK2k0g.s 			page 63


 2064              		.thumb_func
 2065              		.fpu softvfp
 2067              	get_join_state:
 2068              	.LFB33:
 412:smtc_modem_core/device_management/modem_context.c ****     eModemJoinState_t joinstate;
 2069              		.loc 1 412 1 is_stmt 1 view -0
 2070              		.cfi_startproc
 2071              		@ args = 0, pretend = 0, frame = 0
 2072              		@ frame_needed = 0, uses_anonymous_args = 0
 413:smtc_modem_core/device_management/modem_context.c ****     if( get_modem_status_joining( ) == true )
 2073              		.loc 1 413 5 view .LVU460
 414:smtc_modem_core/device_management/modem_context.c ****     {
 2074              		.loc 1 414 5 view .LVU461
 412:smtc_modem_core/device_management/modem_context.c ****     eModemJoinState_t joinstate;
 2075              		.loc 1 412 1 is_stmt 0 view .LVU462
 2076 0000 10B5     		push	{r4, lr}
 2077              		.cfi_def_cfa_offset 8
 2078              		.cfi_offset 4, -8
 2079              		.cfi_offset 14, -4
 414:smtc_modem_core/device_management/modem_context.c ****     {
 2080              		.loc 1 414 9 view .LVU463
 2081 0002 FFF7FEFF 		bl	get_modem_status_joining
 2082              	.LVL106:
 2083 0006 0300     		movs	r3, r0
 416:smtc_modem_core/device_management/modem_context.c ****     }
 2084              		.loc 1 416 19 view .LVU464
 2085 0008 0120     		movs	r0, #1
 414:smtc_modem_core/device_management/modem_context.c ****     {
 2086              		.loc 1 414 7 view .LVU465
 2087 000a 002B     		cmp	r3, #0
 2088 000c 04D1     		bne	.L161
 2089              	.LBB73:
 2090              	.LBI73:
 411:smtc_modem_core/device_management/modem_context.c **** {
 2091              		.loc 1 411 19 is_stmt 1 view .LVU466
 2092              	.LBB74:
 418:smtc_modem_core/device_management/modem_context.c ****     {
 2093              		.loc 1 418 10 view .LVU467
 418:smtc_modem_core/device_management/modem_context.c ****     {
 2094              		.loc 1 418 14 is_stmt 0 view .LVU468
 2095 000e FFF7FEFF 		bl	lorawan_api_isjoined
 2096              	.LVL107:
 418:smtc_modem_core/device_management/modem_context.c ****     {
 2097              		.loc 1 418 12 view .LVU469
 2098 0012 0028     		cmp	r0, #0
 2099 0014 00D0     		beq	.L161
 424:smtc_modem_core/device_management/modem_context.c ****     }
 2100              		.loc 1 424 19 view .LVU470
 2101 0016 0220     		movs	r0, #2
 2102              	.L161:
 2103              	.LVL108:
 424:smtc_modem_core/device_management/modem_context.c ****     }
 2104              		.loc 1 424 19 view .LVU471
 2105              	.LBE74:
 2106              	.LBE73:
 426:smtc_modem_core/device_management/modem_context.c **** }
 2107              		.loc 1 426 5 is_stmt 1 view .LVU472
ARM GAS  /var/folders/bq/yv49bw8j2kd6w3hsq868qv180000gn/T//ccEK2k0g.s 			page 64


 427:smtc_modem_core/device_management/modem_context.c **** 
 2108              		.loc 1 427 1 is_stmt 0 view .LVU473
 2109              		@ sp needed
 2110 0018 10BD     		pop	{r4, pc}
 2111              		.cfi_endproc
 2112              	.LFE33:
 2114              		.section	.text.modem_supervisor_add_task_dm_status,"ax",%progbits
 2115              		.align	1
 2116              		.global	modem_supervisor_add_task_dm_status
 2117              		.syntax unified
 2118              		.code	16
 2119              		.thumb_func
 2120              		.fpu softvfp
 2122              	modem_supervisor_add_task_dm_status:
 2123              	.LVL109:
 2124              	.LFB37:
 455:smtc_modem_core/device_management/modem_context.c ****     smodem_task task_dm;
 2125              		.loc 1 455 1 is_stmt 1 view -0
 2126              		.cfi_startproc
 2127              		@ args = 0, pretend = 0, frame = 24
 2128              		@ frame_needed = 0, uses_anonymous_args = 0
 456:smtc_modem_core/device_management/modem_context.c ****     task_dm.id                = DM_TASK;
 2129              		.loc 1 456 5 view .LVU475
 457:smtc_modem_core/device_management/modem_context.c ****     task_dm.priority          = TASK_LOW_PRIORITY;
 2130              		.loc 1 457 5 view .LVU476
 457:smtc_modem_core/device_management/modem_context.c ****     task_dm.priority          = TASK_LOW_PRIORITY;
 2131              		.loc 1 457 31 is_stmt 0 view .LVU477
 2132 0000 0323     		movs	r3, #3
 455:smtc_modem_core/device_management/modem_context.c ****     smodem_task task_dm;
 2133              		.loc 1 455 1 view .LVU478
 2134 0002 30B5     		push	{r4, r5, lr}
 2135              		.cfi_def_cfa_offset 12
 2136              		.cfi_offset 4, -12
 2137              		.cfi_offset 5, -8
 2138              		.cfi_offset 14, -4
 2139 0004 87B0     		sub	sp, sp, #28
 2140              		.cfi_def_cfa_offset 40
 457:smtc_modem_core/device_management/modem_context.c ****     task_dm.priority          = TASK_LOW_PRIORITY;
 2141              		.loc 1 457 31 view .LVU479
 2142 0006 01AC     		add	r4, sp, #4
 2143 0008 2370     		strb	r3, [r4]
 458:smtc_modem_core/device_management/modem_context.c ****     task_dm.PacketType        = UNCONF_DATA_UP;
 2144              		.loc 1 458 5 is_stmt 1 view .LVU480
 458:smtc_modem_core/device_management/modem_context.c ****     task_dm.PacketType        = UNCONF_DATA_UP;
 2145              		.loc 1 458 31 is_stmt 0 view .LVU481
 2146 000a 2372     		strb	r3, [r4, #8]
 459:smtc_modem_core/device_management/modem_context.c ****     task_dm.time_to_execute_s = bsp_rtc_get_time_s( ) + next_execute;
 2147              		.loc 1 459 5 is_stmt 1 view .LVU482
 459:smtc_modem_core/device_management/modem_context.c ****     task_dm.time_to_execute_s = bsp_rtc_get_time_s( ) + next_execute;
 2148              		.loc 1 459 31 is_stmt 0 view .LVU483
 2149 000c 013B     		subs	r3, r3, #1
 455:smtc_modem_core/device_management/modem_context.c ****     smodem_task task_dm;
 2150              		.loc 1 455 1 view .LVU484
 2151 000e 0500     		movs	r5, r0
 459:smtc_modem_core/device_management/modem_context.c ****     task_dm.time_to_execute_s = bsp_rtc_get_time_s( ) + next_execute;
 2152              		.loc 1 459 31 view .LVU485
 2153 0010 6374     		strb	r3, [r4, #17]
ARM GAS  /var/folders/bq/yv49bw8j2kd6w3hsq868qv180000gn/T//ccEK2k0g.s 			page 65


 460:smtc_modem_core/device_management/modem_context.c ****     if( get_join_state( ) == MODEM_JOINED )
 2154              		.loc 1 460 5 is_stmt 1 view .LVU486
 460:smtc_modem_core/device_management/modem_context.c ****     if( get_join_state( ) == MODEM_JOINED )
 2155              		.loc 1 460 33 is_stmt 0 view .LVU487
 2156 0012 FFF7FEFF 		bl	bsp_rtc_get_time_s
 2157              	.LVL110:
 460:smtc_modem_core/device_management/modem_context.c ****     if( get_join_state( ) == MODEM_JOINED )
 2158              		.loc 1 460 55 view .LVU488
 2159 0016 4019     		adds	r0, r0, r5
 460:smtc_modem_core/device_management/modem_context.c ****     if( get_join_state( ) == MODEM_JOINED )
 2160              		.loc 1 460 31 view .LVU489
 2161 0018 6060     		str	r0, [r4, #4]
 461:smtc_modem_core/device_management/modem_context.c ****     {
 2162              		.loc 1 461 5 is_stmt 1 view .LVU490
 461:smtc_modem_core/device_management/modem_context.c ****     {
 2163              		.loc 1 461 9 is_stmt 0 view .LVU491
 2164 001a FFF7FEFF 		bl	get_join_state
 2165              	.LVL111:
 461:smtc_modem_core/device_management/modem_context.c ****     {
 2166              		.loc 1 461 7 view .LVU492
 2167 001e 0228     		cmp	r0, #2
 2168 0020 02D1     		bne	.L166
 463:smtc_modem_core/device_management/modem_context.c ****     }
 2169              		.loc 1 463 9 is_stmt 1 view .LVU493
 2170 0022 2000     		movs	r0, r4
 2171 0024 FFF7FEFF 		bl	modem_supervisor_add_task
 2172              	.LVL112:
 2173              	.L166:
 465:smtc_modem_core/device_management/modem_context.c **** 
 2174              		.loc 1 465 1 is_stmt 0 view .LVU494
 2175 0028 07B0     		add	sp, sp, #28
 2176              		@ sp needed
 2177              	.LVL113:
 465:smtc_modem_core/device_management/modem_context.c **** 
 2178              		.loc 1 465 1 view .LVU495
 2179 002a 30BD     		pop	{r4, r5, pc}
 2180              		.cfi_endproc
 2181              	.LFE37:
 2183              		.section	.text.modem_supervisor_add_task_alc_sync_time_req,"ax",%progbits
 2184              		.align	1
 2185              		.global	modem_supervisor_add_task_alc_sync_time_req
 2186              		.syntax unified
 2187              		.code	16
 2188              		.thumb_func
 2189              		.fpu softvfp
 2191              	modem_supervisor_add_task_alc_sync_time_req:
 2192              	.LVL114:
 2193              	.LFB39:
 479:smtc_modem_core/device_management/modem_context.c ****     smodem_task task_dm;
 2194              		.loc 1 479 1 is_stmt 1 view -0
 2195              		.cfi_startproc
 2196              		@ args = 0, pretend = 0, frame = 24
 2197              		@ frame_needed = 0, uses_anonymous_args = 0
 480:smtc_modem_core/device_management/modem_context.c ****     task_dm.id                = ALC_SYNC_TIME_REQ_TASK;
 2198              		.loc 1 480 5 view .LVU497
 481:smtc_modem_core/device_management/modem_context.c ****     task_dm.priority          = TASK_HIGH_PRIORITY;
 2199              		.loc 1 481 5 view .LVU498
ARM GAS  /var/folders/bq/yv49bw8j2kd6w3hsq868qv180000gn/T//ccEK2k0g.s 			page 66


 481:smtc_modem_core/device_management/modem_context.c ****     task_dm.priority          = TASK_HIGH_PRIORITY;
 2200              		.loc 1 481 31 is_stmt 0 view .LVU499
 2201 0000 0A23     		movs	r3, #10
 479:smtc_modem_core/device_management/modem_context.c ****     smodem_task task_dm;
 2202              		.loc 1 479 1 view .LVU500
 2203 0002 30B5     		push	{r4, r5, lr}
 2204              		.cfi_def_cfa_offset 12
 2205              		.cfi_offset 4, -12
 2206              		.cfi_offset 5, -8
 2207              		.cfi_offset 14, -4
 2208 0004 87B0     		sub	sp, sp, #28
 2209              		.cfi_def_cfa_offset 40
 481:smtc_modem_core/device_management/modem_context.c ****     task_dm.priority          = TASK_HIGH_PRIORITY;
 2210              		.loc 1 481 31 view .LVU501
 2211 0006 01AC     		add	r4, sp, #4
 2212 0008 2370     		strb	r3, [r4]
 482:smtc_modem_core/device_management/modem_context.c ****     task_dm.PacketType        = UNCONF_DATA_UP;
 2213              		.loc 1 482 5 is_stmt 1 view .LVU502
 482:smtc_modem_core/device_management/modem_context.c ****     task_dm.PacketType        = UNCONF_DATA_UP;
 2214              		.loc 1 482 31 is_stmt 0 view .LVU503
 2215 000a 093B     		subs	r3, r3, #9
 2216 000c 2372     		strb	r3, [r4, #8]
 483:smtc_modem_core/device_management/modem_context.c ****     task_dm.time_to_execute_s = bsp_rtc_get_time_s( ) + next_execute;
 2217              		.loc 1 483 5 is_stmt 1 view .LVU504
 483:smtc_modem_core/device_management/modem_context.c ****     task_dm.time_to_execute_s = bsp_rtc_get_time_s( ) + next_execute;
 2218              		.loc 1 483 31 is_stmt 0 view .LVU505
 2219 000e 0133     		adds	r3, r3, #1
 479:smtc_modem_core/device_management/modem_context.c ****     smodem_task task_dm;
 2220              		.loc 1 479 1 view .LVU506
 2221 0010 0500     		movs	r5, r0
 483:smtc_modem_core/device_management/modem_context.c ****     task_dm.time_to_execute_s = bsp_rtc_get_time_s( ) + next_execute;
 2222              		.loc 1 483 31 view .LVU507
 2223 0012 6374     		strb	r3, [r4, #17]
 484:smtc_modem_core/device_management/modem_context.c ****     if( get_join_state( ) == MODEM_JOINED )
 2224              		.loc 1 484 5 is_stmt 1 view .LVU508
 484:smtc_modem_core/device_management/modem_context.c ****     if( get_join_state( ) == MODEM_JOINED )
 2225              		.loc 1 484 33 is_stmt 0 view .LVU509
 2226 0014 FFF7FEFF 		bl	bsp_rtc_get_time_s
 2227              	.LVL115:
 484:smtc_modem_core/device_management/modem_context.c ****     if( get_join_state( ) == MODEM_JOINED )
 2228              		.loc 1 484 55 view .LVU510
 2229 0018 4019     		adds	r0, r0, r5
 484:smtc_modem_core/device_management/modem_context.c ****     if( get_join_state( ) == MODEM_JOINED )
 2230              		.loc 1 484 31 view .LVU511
 2231 001a 6060     		str	r0, [r4, #4]
 485:smtc_modem_core/device_management/modem_context.c ****     {
 2232              		.loc 1 485 5 is_stmt 1 view .LVU512
 485:smtc_modem_core/device_management/modem_context.c ****     {
 2233              		.loc 1 485 9 is_stmt 0 view .LVU513
 2234 001c FFF7FEFF 		bl	get_join_state
 2235              	.LVL116:
 485:smtc_modem_core/device_management/modem_context.c ****     {
 2236              		.loc 1 485 7 view .LVU514
 2237 0020 0228     		cmp	r0, #2
 2238 0022 02D1     		bne	.L168
 487:smtc_modem_core/device_management/modem_context.c ****     }
 2239              		.loc 1 487 9 is_stmt 1 view .LVU515
ARM GAS  /var/folders/bq/yv49bw8j2kd6w3hsq868qv180000gn/T//ccEK2k0g.s 			page 67


 2240 0024 2000     		movs	r0, r4
 2241 0026 FFF7FEFF 		bl	modem_supervisor_add_task
 2242              	.LVL117:
 2243              	.L168:
 489:smtc_modem_core/device_management/modem_context.c **** 
 2244              		.loc 1 489 1 is_stmt 0 view .LVU516
 2245 002a 07B0     		add	sp, sp, #28
 2246              		@ sp needed
 2247              	.LVL118:
 489:smtc_modem_core/device_management/modem_context.c **** 
 2248              		.loc 1 489 1 view .LVU517
 2249 002c 30BD     		pop	{r4, r5, pc}
 2250              		.cfi_endproc
 2251              	.LFE39:
 2253              		.section	.text.modem_supervisor_add_task_alc_sync_ans,"ax",%progbits
 2254              		.align	1
 2255              		.global	modem_supervisor_add_task_alc_sync_ans
 2256              		.syntax unified
 2257              		.code	16
 2258              		.thumb_func
 2259              		.fpu softvfp
 2261              	modem_supervisor_add_task_alc_sync_ans:
 2262              	.LVL119:
 2263              	.LFB40:
 492:smtc_modem_core/device_management/modem_context.c ****     smodem_task task_dm;
 2264              		.loc 1 492 1 is_stmt 1 view -0
 2265              		.cfi_startproc
 2266              		@ args = 0, pretend = 0, frame = 24
 2267              		@ frame_needed = 0, uses_anonymous_args = 0
 493:smtc_modem_core/device_management/modem_context.c ****     task_dm.id                = ALC_SYNC_ANS_TASK;
 2268              		.loc 1 493 5 view .LVU519
 494:smtc_modem_core/device_management/modem_context.c ****     task_dm.priority          = TASK_HIGH_PRIORITY;
 2269              		.loc 1 494 5 view .LVU520
 494:smtc_modem_core/device_management/modem_context.c ****     task_dm.priority          = TASK_HIGH_PRIORITY;
 2270              		.loc 1 494 31 is_stmt 0 view .LVU521
 2271 0000 0B23     		movs	r3, #11
 492:smtc_modem_core/device_management/modem_context.c ****     smodem_task task_dm;
 2272              		.loc 1 492 1 view .LVU522
 2273 0002 30B5     		push	{r4, r5, lr}
 2274              		.cfi_def_cfa_offset 12
 2275              		.cfi_offset 4, -12
 2276              		.cfi_offset 5, -8
 2277              		.cfi_offset 14, -4
 2278 0004 87B0     		sub	sp, sp, #28
 2279              		.cfi_def_cfa_offset 40
 494:smtc_modem_core/device_management/modem_context.c ****     task_dm.priority          = TASK_HIGH_PRIORITY;
 2280              		.loc 1 494 31 view .LVU523
 2281 0006 01AC     		add	r4, sp, #4
 2282 0008 2370     		strb	r3, [r4]
 495:smtc_modem_core/device_management/modem_context.c ****     task_dm.PacketType        = UNCONF_DATA_UP;
 2283              		.loc 1 495 5 is_stmt 1 view .LVU524
 495:smtc_modem_core/device_management/modem_context.c ****     task_dm.PacketType        = UNCONF_DATA_UP;
 2284              		.loc 1 495 31 is_stmt 0 view .LVU525
 2285 000a 0A3B     		subs	r3, r3, #10
 2286 000c 2372     		strb	r3, [r4, #8]
 496:smtc_modem_core/device_management/modem_context.c ****     task_dm.time_to_execute_s = bsp_rtc_get_time_s( ) + next_execute;
 2287              		.loc 1 496 5 is_stmt 1 view .LVU526
ARM GAS  /var/folders/bq/yv49bw8j2kd6w3hsq868qv180000gn/T//ccEK2k0g.s 			page 68


 496:smtc_modem_core/device_management/modem_context.c ****     task_dm.time_to_execute_s = bsp_rtc_get_time_s( ) + next_execute;
 2288              		.loc 1 496 31 is_stmt 0 view .LVU527
 2289 000e 0133     		adds	r3, r3, #1
 492:smtc_modem_core/device_management/modem_context.c ****     smodem_task task_dm;
 2290              		.loc 1 492 1 view .LVU528
 2291 0010 0500     		movs	r5, r0
 496:smtc_modem_core/device_management/modem_context.c ****     task_dm.time_to_execute_s = bsp_rtc_get_time_s( ) + next_execute;
 2292              		.loc 1 496 31 view .LVU529
 2293 0012 6374     		strb	r3, [r4, #17]
 497:smtc_modem_core/device_management/modem_context.c ****     if( get_join_state( ) == MODEM_JOINED )
 2294              		.loc 1 497 5 is_stmt 1 view .LVU530
 497:smtc_modem_core/device_management/modem_context.c ****     if( get_join_state( ) == MODEM_JOINED )
 2295              		.loc 1 497 33 is_stmt 0 view .LVU531
 2296 0014 FFF7FEFF 		bl	bsp_rtc_get_time_s
 2297              	.LVL120:
 497:smtc_modem_core/device_management/modem_context.c ****     if( get_join_state( ) == MODEM_JOINED )
 2298              		.loc 1 497 55 view .LVU532
 2299 0018 4019     		adds	r0, r0, r5
 497:smtc_modem_core/device_management/modem_context.c ****     if( get_join_state( ) == MODEM_JOINED )
 2300              		.loc 1 497 31 view .LVU533
 2301 001a 6060     		str	r0, [r4, #4]
 498:smtc_modem_core/device_management/modem_context.c ****     {
 2302              		.loc 1 498 5 is_stmt 1 view .LVU534
 498:smtc_modem_core/device_management/modem_context.c ****     {
 2303              		.loc 1 498 9 is_stmt 0 view .LVU535
 2304 001c FFF7FEFF 		bl	get_join_state
 2305              	.LVL121:
 498:smtc_modem_core/device_management/modem_context.c ****     {
 2306              		.loc 1 498 7 view .LVU536
 2307 0020 0228     		cmp	r0, #2
 2308 0022 02D1     		bne	.L170
 500:smtc_modem_core/device_management/modem_context.c ****     }
 2309              		.loc 1 500 9 is_stmt 1 view .LVU537
 2310 0024 2000     		movs	r0, r4
 2311 0026 FFF7FEFF 		bl	modem_supervisor_add_task
 2312              	.LVL122:
 2313              	.L170:
 502:smtc_modem_core/device_management/modem_context.c **** 
 2314              		.loc 1 502 1 is_stmt 0 view .LVU538
 2315 002a 07B0     		add	sp, sp, #28
 2316              		@ sp needed
 2317              	.LVL123:
 502:smtc_modem_core/device_management/modem_context.c **** 
 2318              		.loc 1 502 1 view .LVU539
 2319 002c 30BD     		pop	{r4, r5, pc}
 2320              		.cfi_endproc
 2321              	.LFE40:
 2323              		.section	.rodata.modem_supervisor_add_task_retrieve_dl.str1.1,"aMS",%progbits,1
 2324              	.LC82:
 2325 0000 1B5B303B 		.ascii	"\033[0;33m\000"
 2325      33336D00 
 2326              	.LC84:
 2327 0008 5741524E 		.ascii	"WARN : \000"
 2327      203A2000 
 2328              	.LC86:
 2329 0010 6D6F6465 		.ascii	"modem_supervisor_add_task_retrieve_dl\012\000"
 2329      6D5F7375 
ARM GAS  /var/folders/bq/yv49bw8j2kd6w3hsq868qv180000gn/T//ccEK2k0g.s 			page 69


 2329      70657276 
 2329      69736F72 
 2329      5F616464 
 2330              		.section	.text.modem_supervisor_add_task_retrieve_dl,"ax",%progbits
 2331              		.align	1
 2332              		.global	modem_supervisor_add_task_retrieve_dl
 2333              		.syntax unified
 2334              		.code	16
 2335              		.thumb_func
 2336              		.fpu softvfp
 2338              	modem_supervisor_add_task_retrieve_dl:
 2339              	.LVL124:
 2340              	.LFB42:
 514:smtc_modem_core/device_management/modem_context.c ****     BSP_DBG_TRACE_WARNING( "modem_supervisor_add_task_retrieve_dl\n" );
 2341              		.loc 1 514 1 is_stmt 1 view -0
 2342              		.cfi_startproc
 2343              		@ args = 0, pretend = 0, frame = 24
 2344              		@ frame_needed = 0, uses_anonymous_args = 0
 515:smtc_modem_core/device_management/modem_context.c ****     smodem_task task_dm;
 2345              		.loc 1 515 5 view .LVU541
 515:smtc_modem_core/device_management/modem_context.c ****     smodem_task task_dm;
 2346              		.loc 1 515 5 view .LVU542
 514:smtc_modem_core/device_management/modem_context.c ****     BSP_DBG_TRACE_WARNING( "modem_supervisor_add_task_retrieve_dl\n" );
 2347              		.loc 1 514 1 is_stmt 0 view .LVU543
 2348 0000 30B5     		push	{r4, r5, lr}
 2349              		.cfi_def_cfa_offset 12
 2350              		.cfi_offset 4, -12
 2351              		.cfi_offset 5, -8
 2352              		.cfi_offset 14, -4
 2353 0002 0500     		movs	r5, r0
 2354 0004 87B0     		sub	sp, sp, #28
 2355              		.cfi_def_cfa_offset 40
 515:smtc_modem_core/device_management/modem_context.c ****     smodem_task task_dm;
 2356              		.loc 1 515 5 view .LVU544
 2357 0006 1048     		ldr	r0, .L174
 2358              	.LVL125:
 515:smtc_modem_core/device_management/modem_context.c ****     smodem_task task_dm;
 2359              		.loc 1 515 5 view .LVU545
 2360 0008 FFF7FEFF 		bl	bsp_trace_print
 2361              	.LVL126:
 515:smtc_modem_core/device_management/modem_context.c ****     smodem_task task_dm;
 2362              		.loc 1 515 5 is_stmt 1 view .LVU546
 2363 000c 0F48     		ldr	r0, .L174+4
 2364 000e FFF7FEFF 		bl	bsp_trace_print
 2365              	.LVL127:
 515:smtc_modem_core/device_management/modem_context.c ****     smodem_task task_dm;
 2366              		.loc 1 515 5 view .LVU547
 2367 0012 0F48     		ldr	r0, .L174+8
 2368 0014 FFF7FEFF 		bl	bsp_trace_print
 2369              	.LVL128:
 515:smtc_modem_core/device_management/modem_context.c ****     smodem_task task_dm;
 2370              		.loc 1 515 5 view .LVU548
 2371 0018 0E48     		ldr	r0, .L174+12
 2372 001a FFF7FEFF 		bl	bsp_trace_print
 2373              	.LVL129:
 515:smtc_modem_core/device_management/modem_context.c ****     smodem_task task_dm;
 2374              		.loc 1 515 5 view .LVU549
ARM GAS  /var/folders/bq/yv49bw8j2kd6w3hsq868qv180000gn/T//ccEK2k0g.s 			page 70


 515:smtc_modem_core/device_management/modem_context.c ****     smodem_task task_dm;
 2375              		.loc 1 515 71 view .LVU550
 516:smtc_modem_core/device_management/modem_context.c ****     task_dm.id                = RETRIEVE_DL_TASK;
 2376              		.loc 1 516 5 view .LVU551
 517:smtc_modem_core/device_management/modem_context.c ****     task_dm.priority          = TASK_LOW_PRIORITY;
 2377              		.loc 1 517 5 view .LVU552
 517:smtc_modem_core/device_management/modem_context.c ****     task_dm.priority          = TASK_LOW_PRIORITY;
 2378              		.loc 1 517 31 is_stmt 0 view .LVU553
 2379 001e 0823     		movs	r3, #8
 2380 0020 01AC     		add	r4, sp, #4
 2381 0022 2370     		strb	r3, [r4]
 518:smtc_modem_core/device_management/modem_context.c ****     task_dm.PacketType        = UNCONF_DATA_UP;
 2382              		.loc 1 518 5 is_stmt 1 view .LVU554
 518:smtc_modem_core/device_management/modem_context.c ****     task_dm.PacketType        = UNCONF_DATA_UP;
 2383              		.loc 1 518 31 is_stmt 0 view .LVU555
 2384 0024 053B     		subs	r3, r3, #5
 2385 0026 2372     		strb	r3, [r4, #8]
 519:smtc_modem_core/device_management/modem_context.c ****     task_dm.sizeIn            = 0;
 2386              		.loc 1 519 5 is_stmt 1 view .LVU556
 520:smtc_modem_core/device_management/modem_context.c ****     task_dm.time_to_execute_s = bsp_rtc_get_time_s( ) + next_execute;
 2387              		.loc 1 520 5 view .LVU557
 520:smtc_modem_core/device_management/modem_context.c ****     task_dm.time_to_execute_s = bsp_rtc_get_time_s( ) + next_execute;
 2388              		.loc 1 520 31 is_stmt 0 view .LVU558
 2389 0028 FE33     		adds	r3, r3, #254
 2390 002a FF33     		adds	r3, r3, #255
 2391 002c 2382     		strh	r3, [r4, #16]
 521:smtc_modem_core/device_management/modem_context.c ****     if( get_join_state( ) == MODEM_JOINED )
 2392              		.loc 1 521 5 is_stmt 1 view .LVU559
 521:smtc_modem_core/device_management/modem_context.c ****     if( get_join_state( ) == MODEM_JOINED )
 2393              		.loc 1 521 33 is_stmt 0 view .LVU560
 2394 002e FFF7FEFF 		bl	bsp_rtc_get_time_s
 2395              	.LVL130:
 521:smtc_modem_core/device_management/modem_context.c ****     if( get_join_state( ) == MODEM_JOINED )
 2396              		.loc 1 521 55 view .LVU561
 2397 0032 4019     		adds	r0, r0, r5
 521:smtc_modem_core/device_management/modem_context.c ****     if( get_join_state( ) == MODEM_JOINED )
 2398              		.loc 1 521 31 view .LVU562
 2399 0034 6060     		str	r0, [r4, #4]
 522:smtc_modem_core/device_management/modem_context.c ****     {
 2400              		.loc 1 522 5 is_stmt 1 view .LVU563
 522:smtc_modem_core/device_management/modem_context.c ****     {
 2401              		.loc 1 522 9 is_stmt 0 view .LVU564
 2402 0036 FFF7FEFF 		bl	get_join_state
 2403              	.LVL131:
 522:smtc_modem_core/device_management/modem_context.c ****     {
 2404              		.loc 1 522 7 view .LVU565
 2405 003a 0228     		cmp	r0, #2
 2406 003c 02D1     		bne	.L172
 524:smtc_modem_core/device_management/modem_context.c ****     }
 2407              		.loc 1 524 9 is_stmt 1 view .LVU566
 2408 003e 2000     		movs	r0, r4
 2409 0040 FFF7FEFF 		bl	modem_supervisor_add_task
 2410              	.LVL132:
 2411              	.L172:
 526:smtc_modem_core/device_management/modem_context.c **** 
 2412              		.loc 1 526 1 is_stmt 0 view .LVU567
 2413 0044 07B0     		add	sp, sp, #28
ARM GAS  /var/folders/bq/yv49bw8j2kd6w3hsq868qv180000gn/T//ccEK2k0g.s 			page 71


 2414              		@ sp needed
 2415              	.LVL133:
 526:smtc_modem_core/device_management/modem_context.c **** 
 2416              		.loc 1 526 1 view .LVU568
 2417 0046 30BD     		pop	{r4, r5, pc}
 2418              	.L175:
 2419              		.align	2
 2420              	.L174:
 2421 0048 00000000 		.word	.LC82
 2422 004c 08000000 		.word	.LC84
 2423 0050 10000000 		.word	.LC86
 2424 0054 3E000000 		.word	.LC16
 2425              		.cfi_endproc
 2426              	.LFE42:
 2428              		.section	.text.get_modem_status,"ax",%progbits
 2429              		.align	1
 2430              		.global	get_modem_status
 2431              		.syntax unified
 2432              		.code	16
 2433              		.thumb_func
 2434              		.fpu softvfp
 2436              	get_modem_status:
 2437              	.LFB44:
 558:smtc_modem_core/device_management/modem_context.c ****     // If the stack is no more join, the modem status was not aware of the disconnection
 2438              		.loc 1 558 1 is_stmt 1 view -0
 2439              		.cfi_startproc
 2440              		@ args = 0, pretend = 0, frame = 0
 2441              		@ frame_needed = 0, uses_anonymous_args = 0
 560:smtc_modem_core/device_management/modem_context.c ****     {
 2442              		.loc 1 560 5 view .LVU570
 558:smtc_modem_core/device_management/modem_context.c ****     // If the stack is no more join, the modem status was not aware of the disconnection
 2443              		.loc 1 558 1 is_stmt 0 view .LVU571
 2444 0000 10B5     		push	{r4, lr}
 2445              		.cfi_def_cfa_offset 8
 2446              		.cfi_offset 4, -8
 2447              		.cfi_offset 14, -4
 560:smtc_modem_core/device_management/modem_context.c ****     {
 2448              		.loc 1 560 9 view .LVU572
 2449 0002 FFF7FEFF 		bl	get_join_state
 2450              	.LVL134:
 560:smtc_modem_core/device_management/modem_context.c ****     {
 2451              		.loc 1 560 7 view .LVU573
