ARM GAS  /var/folders/bq/yv49bw8j2kd6w3hsq868qv180000gn/T//ccsEouTz.s 			page 1


   1              		.cpu cortex-m0plus
   2              		.eabi_attribute 23, 1
   3              		.eabi_attribute 24, 1
   4              		.eabi_attribute 25, 1
   5              		.eabi_attribute 26, 1
   6              		.eabi_attribute 30, 4
   7              		.eabi_attribute 34, 0
   8              		.eabi_attribute 18, 4
   9              		.file	"radio_planner.c"
  10              		.text
  11              	.Ltext0:
  12              		.cfi_sections	.debug_frame
  13              		.global	__aeabi_uidiv
  14              		.section	.text.rp_consumption_statistics_updated,"ax",%progbits
  15              		.align	1
  16              		.arch armv6s-m
  17              		.syntax unified
  18              		.code	16
  19              		.thumb_func
  20              		.fpu softvfp
  22              	rp_consumption_statistics_updated:
  23              	.LVL0:
  24              	.LFB34:
  25              		.file 1 "radio_planner/src/radio_planner.c"
   1:radio_planner/src/radio_planner.c **** /*!
   2:radio_planner/src/radio_planner.c ****  * \file      radio_planner.c
   3:radio_planner/src/radio_planner.c ****  *
   4:radio_planner/src/radio_planner.c ****  * \brief     Radio planner implementation
   5:radio_planner/src/radio_planner.c ****  *
   6:radio_planner/src/radio_planner.c ****  * Revised BSD License
   7:radio_planner/src/radio_planner.c ****  * Copyright Semtech Corporation 2020. All rights reserved.
   8:radio_planner/src/radio_planner.c ****  *
   9:radio_planner/src/radio_planner.c ****  * Redistribution and use in source and binary forms, with or without
  10:radio_planner/src/radio_planner.c ****  * modification, are permitted provided that the following conditions are met:
  11:radio_planner/src/radio_planner.c ****  *     * Redistributions of source code must retain the above copyright
  12:radio_planner/src/radio_planner.c ****  *       notice, this list of conditions and the following disclaimer.
  13:radio_planner/src/radio_planner.c ****  *     * Redistributions in binary form must reproduce the above copyright
  14:radio_planner/src/radio_planner.c ****  *       notice, this list of conditions and the following disclaimer in the
  15:radio_planner/src/radio_planner.c ****  *       documentation and/or other materials provided with the distribution.
  16:radio_planner/src/radio_planner.c ****  *     * Neither the name of the Semtech corporation nor the
  17:radio_planner/src/radio_planner.c ****  *       names of its contributors may be used to endorse or promote products
  18:radio_planner/src/radio_planner.c ****  *       derived from this software without specific prior written permission.
  19:radio_planner/src/radio_planner.c ****  *
  20:radio_planner/src/radio_planner.c ****  * THIS SOFTWARE IS PROVIDED BY THE COPYRIGHT HOLDERS AND CONTRIBUTORS "AS IS"
  21:radio_planner/src/radio_planner.c ****  * AND ANY EXPRESS OR IMPLIED WARRANTIES, INCLUDING, BUT NOT LIMITED TO, THE
  22:radio_planner/src/radio_planner.c ****  * IMPLIED WARRANTIES OF MERCHANTABILITY AND FITNESS FOR A PARTICULAR PURPOSE
  23:radio_planner/src/radio_planner.c ****  * ARE DISCLAIMED. IN NO EVENT SHALL SEMTECH CORPORATION BE LIABLE FOR ANY DIRECT,
  24:radio_planner/src/radio_planner.c ****  * INDIRECT, INCIDENTAL, SPECIAL, EXEMsPLARY, OR CONSEQUENTIAL DAMAGES
  25:radio_planner/src/radio_planner.c ****  * (INCLUDING, BUT NOT LIMITED TO, PROCUREMENT OF SUBSTITUTE GOODS OR SERVICES;
  26:radio_planner/src/radio_planner.c ****  * LOSS OF USE, DATA, OR PROFITS; OR BUSINESS INTERRUPTION) HOWEVER CAUSED AND
  27:radio_planner/src/radio_planner.c ****  * ON ANY THEORY OF LIABILITY, WHETHER IN CONTRACT, STRICT LIABILITY, OR TORT
  28:radio_planner/src/radio_planner.c ****  * (INCLUDING NEGLIGENCE OR OTHERWISE) ARISING IN ANY WAY OUT OF THE USE OF THIS
  29:radio_planner/src/radio_planner.c ****  * SOFTWARE, EVEN IF ADVISED OF THE POSSIBILITY OF SUCH DAMAGE.
  30:radio_planner/src/radio_planner.c ****  */
  31:radio_planner/src/radio_planner.c **** 
  32:radio_planner/src/radio_planner.c **** #include <stdlib.h>
  33:radio_planner/src/radio_planner.c **** #include <stdio.h>
ARM GAS  /var/folders/bq/yv49bw8j2kd6w3hsq868qv180000gn/T//ccsEouTz.s 			page 2


  34:radio_planner/src/radio_planner.c **** #include "radio_planner.h"
  35:radio_planner/src/radio_planner.c **** 
  36:radio_planner/src/radio_planner.c **** //
  37:radio_planner/src/radio_planner.c **** // Private planner variable declaration
  38:radio_planner/src/radio_planner.c **** //
  39:radio_planner/src/radio_planner.c **** 
  40:radio_planner/src/radio_planner.c **** #if defined( PERF_TEST_ENABLED )
  41:radio_planner/src/radio_planner.c **** static uint32_t tx_done_count    = 0;
  42:radio_planner/src/radio_planner.c **** static uint32_t rx_done_count    = 0;
  43:radio_planner/src/radio_planner.c **** static uint32_t rx_timeout_count = 0;
  44:radio_planner/src/radio_planner.c **** #endif
  45:radio_planner/src/radio_planner.c **** //
  46:radio_planner/src/radio_planner.c **** // Private planner utilities declaration
  47:radio_planner/src/radio_planner.c **** //
  48:radio_planner/src/radio_planner.c **** 
  49:radio_planner/src/radio_planner.c **** /*!
  50:radio_planner/src/radio_planner.c ****  *
  51:radio_planner/src/radio_planner.c ****  */
  52:radio_planner/src/radio_planner.c **** static void rp_task_free( const radio_planner_t* rp, rp_task_t* task );
  53:radio_planner/src/radio_planner.c **** 
  54:radio_planner/src/radio_planner.c **** /*!
  55:radio_planner/src/radio_planner.c ****  *
  56:radio_planner/src/radio_planner.c ****  */
  57:radio_planner/src/radio_planner.c **** static void rp_task_update_time( radio_planner_t* rp, uint32_t now );
  58:radio_planner/src/radio_planner.c **** 
  59:radio_planner/src/radio_planner.c **** /*!
  60:radio_planner/src/radio_planner.c ****  *
  61:radio_planner/src/radio_planner.c ****  */
  62:radio_planner/src/radio_planner.c **** static void rp_task_arbiter( radio_planner_t* rp, const char* caller_func_name );
  63:radio_planner/src/radio_planner.c **** 
  64:radio_planner/src/radio_planner.c **** /*!
  65:radio_planner/src/radio_planner.c ****  *
  66:radio_planner/src/radio_planner.c ****  */
  67:radio_planner/src/radio_planner.c **** static void rp_irq_get_status( radio_planner_t* rp, const uint8_t hook_id );
  68:radio_planner/src/radio_planner.c **** 
  69:radio_planner/src/radio_planner.c **** /*!
  70:radio_planner/src/radio_planner.c ****  *
  71:radio_planner/src/radio_planner.c ****  */
  72:radio_planner/src/radio_planner.c **** static void rp_task_compute_ranking( radio_planner_t* rp );
  73:radio_planner/src/radio_planner.c **** 
  74:radio_planner/src/radio_planner.c **** /*!
  75:radio_planner/src/radio_planner.c ****  *
  76:radio_planner/src/radio_planner.c ****  */
  77:radio_planner/src/radio_planner.c **** static void rp_task_launch_current( radio_planner_t* rp );
  78:radio_planner/src/radio_planner.c **** 
  79:radio_planner/src/radio_planner.c **** /*!
  80:radio_planner/src/radio_planner.c ****  *
  81:radio_planner/src/radio_planner.c ****  */
  82:radio_planner/src/radio_planner.c **** static uint8_t rp_task_select_next( radio_planner_t* rp, const uint32_t now );
  83:radio_planner/src/radio_planner.c **** 
  84:radio_planner/src/radio_planner.c **** /*!
  85:radio_planner/src/radio_planner.c ****  *
  86:radio_planner/src/radio_planner.c ****  */
  87:radio_planner/src/radio_planner.c **** static rp_next_state_status_t rp_task_get_next( radio_planner_t* rp, uint32_t* duration, uint8_t* t
  88:radio_planner/src/radio_planner.c ****                                                 const uint32_t now );
  89:radio_planner/src/radio_planner.c **** 
  90:radio_planner/src/radio_planner.c **** /*!
ARM GAS  /var/folders/bq/yv49bw8j2kd6w3hsq868qv180000gn/T//ccsEouTz.s 			page 3


  91:radio_planner/src/radio_planner.c ****  *
  92:radio_planner/src/radio_planner.c ****  */
  93:radio_planner/src/radio_planner.c **** static uint8_t rp_task_find_highest_priority( const radio_planner_t* rp, uint8_t* vector, uint8_t l
  94:radio_planner/src/radio_planner.c **** 
  95:radio_planner/src/radio_planner.c **** /*!
  96:radio_planner/src/radio_planner.c ****  *
  97:radio_planner/src/radio_planner.c ****  */
  98:radio_planner/src/radio_planner.c **** rp_hook_status_t rp_get_pkt_payload( radio_planner_t* rp, const rp_task_t* task );
  99:radio_planner/src/radio_planner.c **** 
 100:radio_planner/src/radio_planner.c **** /*!
 101:radio_planner/src/radio_planner.c ****  *
 102:radio_planner/src/radio_planner.c ****  */
 103:radio_planner/src/radio_planner.c **** static void rp_set_alarm( radio_planner_t* rp, const uint32_t alarm_in_ms );
 104:radio_planner/src/radio_planner.c **** 
 105:radio_planner/src/radio_planner.c **** /*!
 106:radio_planner/src/radio_planner.c ****  *
 107:radio_planner/src/radio_planner.c ****  */
 108:radio_planner/src/radio_planner.c **** static void rp_timer_irq( radio_planner_t* rp );
 109:radio_planner/src/radio_planner.c **** 
 110:radio_planner/src/radio_planner.c **** /*!
 111:radio_planner/src/radio_planner.c ****  *
 112:radio_planner/src/radio_planner.c ****  */
 113:radio_planner/src/radio_planner.c **** static void rp_radio_irq( radio_planner_t* rp );
 114:radio_planner/src/radio_planner.c **** 
 115:radio_planner/src/radio_planner.c **** /*!
 116:radio_planner/src/radio_planner.c ****  *
 117:radio_planner/src/radio_planner.c ****  */
 118:radio_planner/src/radio_planner.c **** static void rp_task_call_aborted( radio_planner_t* rp );
 119:radio_planner/src/radio_planner.c **** /*!
 120:radio_planner/src/radio_planner.c ****  *
 121:radio_planner/src/radio_planner.c ****  */
 122:radio_planner/src/radio_planner.c **** static void rp_consumption_statistics_updated( radio_planner_t* rp, const uint8_t hook_id, const ui
 123:radio_planner/src/radio_planner.c **** // Radio planner callbacks
 124:radio_planner/src/radio_planner.c **** //
 125:radio_planner/src/radio_planner.c **** 
 126:radio_planner/src/radio_planner.c **** /*!
 127:radio_planner/src/radio_planner.c ****  * \ref rp_radio_irq_callback is part of the public radio planner API
 128:radio_planner/src/radio_planner.c ****  */
 129:radio_planner/src/radio_planner.c **** 
 130:radio_planner/src/radio_planner.c **** /*!
 131:radio_planner/src/radio_planner.c ****  *
 132:radio_planner/src/radio_planner.c ****  */
 133:radio_planner/src/radio_planner.c **** static void rp_timer_irq_callback( void* obj );
 134:radio_planner/src/radio_planner.c **** 
 135:radio_planner/src/radio_planner.c **** /*!
 136:radio_planner/src/radio_planner.c ****  *
 137:radio_planner/src/radio_planner.c ****  */
 138:radio_planner/src/radio_planner.c **** static void rp_hook_callback( radio_planner_t* rp, uint8_t id );
 139:radio_planner/src/radio_planner.c **** 
 140:radio_planner/src/radio_planner.c **** //
 141:radio_planner/src/radio_planner.c **** // Private debug utilities declaration
 142:radio_planner/src/radio_planner.c **** //
 143:radio_planner/src/radio_planner.c **** 
 144:radio_planner/src/radio_planner.c **** /*!
 145:radio_planner/src/radio_planner.c ****  *
 146:radio_planner/src/radio_planner.c ****  */
 147:radio_planner/src/radio_planner.c **** static void rp_task_print( const radio_planner_t* rp, const rp_task_t* task );
ARM GAS  /var/folders/bq/yv49bw8j2kd6w3hsq868qv180000gn/T//ccsEouTz.s 			page 4


 148:radio_planner/src/radio_planner.c **** 
 149:radio_planner/src/radio_planner.c **** //
 150:radio_planner/src/radio_planner.c **** // Public planner API implementation
 151:radio_planner/src/radio_planner.c **** //
 152:radio_planner/src/radio_planner.c **** 
 153:radio_planner/src/radio_planner.c **** void rp_init( radio_planner_t* rp, ral_t* ral )
 154:radio_planner/src/radio_planner.c **** {
 155:radio_planner/src/radio_planner.c ****     rp->ral = ral;
 156:radio_planner/src/radio_planner.c **** 
 157:radio_planner/src/radio_planner.c ****     for( int32_t i = 0; i < RP_NB_HOOKS; i++ )
 158:radio_planner/src/radio_planner.c ****     {
 159:radio_planner/src/radio_planner.c ****         rp->tasks[i].hook_id            = i;
 160:radio_planner/src/radio_planner.c ****         rp->tasks[i].type               = RP_TASK_TYPE_NONE;
 161:radio_planner/src/radio_planner.c ****         rp->tasks[i].priority           = 0;
 162:radio_planner/src/radio_planner.c ****         rp->tasks[i].state              = RP_TASK_STATE_FINISHED;
 163:radio_planner/src/radio_planner.c ****         rp->tasks[i].start_time_ms      = 0;
 164:radio_planner/src/radio_planner.c ****         rp->tasks[i].start_time_init_ms = 0;
 165:radio_planner/src/radio_planner.c ****         rp->tasks[i].duration_time_ms   = 0;
 166:radio_planner/src/radio_planner.c ****         rp->hooks[i]                    = NULL;
 167:radio_planner/src/radio_planner.c ****         rp->irq_timestamp_ms[i]         = 0;
 168:radio_planner/src/radio_planner.c ****         rp->status[i]                   = RP_STATUS_TASK_ABORTED;
 169:radio_planner/src/radio_planner.c ****     }
 170:radio_planner/src/radio_planner.c ****     rp_task_free( rp, &rp->priority_task );
 171:radio_planner/src/radio_planner.c ****     rp_stats_init( &rp->stats );
 172:radio_planner/src/radio_planner.c ****     rp->radio_task_id           = 0;
 173:radio_planner/src/radio_planner.c ****     rp->timer_task_id           = 0;
 174:radio_planner/src/radio_planner.c ****     rp->hook_to_execute         = 0;
 175:radio_planner/src/radio_planner.c ****     rp->hook_to_execute_time_ms = 0;
 176:radio_planner/src/radio_planner.c ****     rp->timer_state             = RP_TIMER_STATE_IDLE;
 177:radio_planner/src/radio_planner.c ****     rp->semaphore_radio         = 0;
 178:radio_planner/src/radio_planner.c ****     rp->semaphore_abort_radio   = 0;
 179:radio_planner/src/radio_planner.c ****     rp->timer_value             = 0;
 180:radio_planner/src/radio_planner.c ****     rp->timer_hook_id           = 0;
 181:radio_planner/src/radio_planner.c ****     rp->next_state_status       = RP_STATUS_NO_MORE_TASK_SCHEDULE;
 182:radio_planner/src/radio_planner.c **** }
 183:radio_planner/src/radio_planner.c **** 
 184:radio_planner/src/radio_planner.c **** rp_hook_status_t rp_hook_init( radio_planner_t* rp, const uint8_t id, void ( *callback )( void* con
 185:radio_planner/src/radio_planner.c **** {
 186:radio_planner/src/radio_planner.c ****     if( id >= RP_NB_HOOKS )
 187:radio_planner/src/radio_planner.c ****     {
 188:radio_planner/src/radio_planner.c ****         return RP_HOOK_STATUS_ID_ERROR;
 189:radio_planner/src/radio_planner.c ****     }
 190:radio_planner/src/radio_planner.c ****     rp->hook_callbacks[id] = callback;
 191:radio_planner/src/radio_planner.c ****     rp->hooks[id]          = hook;
 192:radio_planner/src/radio_planner.c ****     return RP_HOOK_STATUS_OK;
 193:radio_planner/src/radio_planner.c **** }
 194:radio_planner/src/radio_planner.c **** 
 195:radio_planner/src/radio_planner.c **** rp_hook_status_t rp_hook_get_id( const radio_planner_t* rp, const void* hook, uint8_t* id )
 196:radio_planner/src/radio_planner.c **** {
 197:radio_planner/src/radio_planner.c ****     for( int32_t i = 0; i < RP_NB_HOOKS; i++ )
 198:radio_planner/src/radio_planner.c ****     {
 199:radio_planner/src/radio_planner.c ****         if( hook == rp->hooks[i] )
 200:radio_planner/src/radio_planner.c ****         {
 201:radio_planner/src/radio_planner.c ****             *id = i;
 202:radio_planner/src/radio_planner.c ****             return RP_HOOK_STATUS_OK;
 203:radio_planner/src/radio_planner.c ****         }
 204:radio_planner/src/radio_planner.c ****     }
ARM GAS  /var/folders/bq/yv49bw8j2kd6w3hsq868qv180000gn/T//ccsEouTz.s 			page 5


 205:radio_planner/src/radio_planner.c ****     return RP_HOOK_STATUS_ID_ERROR;
 206:radio_planner/src/radio_planner.c **** }
 207:radio_planner/src/radio_planner.c **** 
 208:radio_planner/src/radio_planner.c **** rp_hook_status_t rp_task_enqueue( radio_planner_t* rp, const rp_task_t* task, uint8_t* payload, uin
 209:radio_planner/src/radio_planner.c ****                                   const rp_radio_params_t* radio_params )
 210:radio_planner/src/radio_planner.c **** {
 211:radio_planner/src/radio_planner.c ****     rp_bsp_critical_section_begin( );
 212:radio_planner/src/radio_planner.c **** 
 213:radio_planner/src/radio_planner.c ****     uint8_t hook_id = task->hook_id;
 214:radio_planner/src/radio_planner.c ****     if( hook_id >= RP_NB_HOOKS )
 215:radio_planner/src/radio_planner.c ****     {
 216:radio_planner/src/radio_planner.c ****         rp_bsp_critical_section_end( );
 217:radio_planner/src/radio_planner.c ****         return RP_HOOK_STATUS_ID_ERROR;
 218:radio_planner/src/radio_planner.c ****     }
 219:radio_planner/src/radio_planner.c ****     if( rp->tasks[hook_id].state == RP_TASK_STATE_RUNNING )
 220:radio_planner/src/radio_planner.c ****     {
 221:radio_planner/src/radio_planner.c ****         BSP_DBG_TRACE_PRINTF_RP( " RP: Task enqueue impossible. Task is already running\n" );
 222:radio_planner/src/radio_planner.c ****         rp_bsp_critical_section_end( );
 223:radio_planner/src/radio_planner.c ****         return RP_TASK_STATUS_ALREADY_RUNNING;
 224:radio_planner/src/radio_planner.c ****     }
 225:radio_planner/src/radio_planner.c **** 
 226:radio_planner/src/radio_planner.c ****     rp->tasks[hook_id]                    = *task;
 227:radio_planner/src/radio_planner.c ****     rp->radio_params[hook_id]             = *radio_params;
 228:radio_planner/src/radio_planner.c ****     rp->payload[hook_id]                  = payload;
 229:radio_planner/src/radio_planner.c ****     rp->payload_size[hook_id]             = payload_size;
 230:radio_planner/src/radio_planner.c ****     rp->tasks[hook_id].priority           = ( rp->tasks[hook_id].state * RP_NB_HOOKS ) + hook_id;
 231:radio_planner/src/radio_planner.c ****     rp->tasks[hook_id].start_time_init_ms = rp->tasks[hook_id].start_time_ms;
 232:radio_planner/src/radio_planner.c ****     BSP_DBG_TRACE_PRINTF_RP( "RP: Task #%u enqueue with #%u priority\n", hook_id, rp->tasks[hook_id
 233:radio_planner/src/radio_planner.c ****     rp_task_compute_ranking( rp );
 234:radio_planner/src/radio_planner.c ****     if( rp->semaphore_radio == 0 )
 235:radio_planner/src/radio_planner.c ****     {
 236:radio_planner/src/radio_planner.c ****         rp_task_arbiter( rp, __func__ );
 237:radio_planner/src/radio_planner.c ****     }
 238:radio_planner/src/radio_planner.c ****     rp_bsp_critical_section_end( );
 239:radio_planner/src/radio_planner.c ****     return RP_HOOK_STATUS_OK;
 240:radio_planner/src/radio_planner.c **** }
 241:radio_planner/src/radio_planner.c **** 
 242:radio_planner/src/radio_planner.c **** rp_hook_status_t rp_task_abort( radio_planner_t* rp, const uint8_t hook_id )
 243:radio_planner/src/radio_planner.c **** {
 244:radio_planner/src/radio_planner.c ****     rp_bsp_critical_section_begin( );
 245:radio_planner/src/radio_planner.c ****     if( hook_id >= RP_NB_HOOKS )
 246:radio_planner/src/radio_planner.c ****     {
 247:radio_planner/src/radio_planner.c ****         rp_bsp_critical_section_end( );
 248:radio_planner/src/radio_planner.c ****         return RP_HOOK_STATUS_ID_ERROR;
 249:radio_planner/src/radio_planner.c ****     }
 250:radio_planner/src/radio_planner.c ****     if( rp->tasks[hook_id].state == RP_TASK_STATE_RUNNING )
 251:radio_planner/src/radio_planner.c ****     {
 252:radio_planner/src/radio_planner.c ****         ral_set_sleep( rp->ral );
 253:radio_planner/src/radio_planner.c **** 
 254:radio_planner/src/radio_planner.c ****         // Shut Down the TCXO
 255:radio_planner/src/radio_planner.c ****         ral_set_tcxo_off( rp->ral );
 256:radio_planner/src/radio_planner.c **** 
 257:radio_planner/src/radio_planner.c ****         rp_consumption_statistics_updated( rp, hook_id, rp_bsp_timestamp_get( ) );
 258:radio_planner/src/radio_planner.c ****     }
 259:radio_planner/src/radio_planner.c ****     rp_task_free( rp, &( rp->tasks[hook_id] ) );
 260:radio_planner/src/radio_planner.c ****     rp->status[hook_id] = RP_STATUS_TASK_ABORTED;
 261:radio_planner/src/radio_planner.c **** 
ARM GAS  /var/folders/bq/yv49bw8j2kd6w3hsq868qv180000gn/T//ccsEouTz.s 			page 6


 262:radio_planner/src/radio_planner.c ****     if( rp->semaphore_radio == 0 )
 263:radio_planner/src/radio_planner.c ****     {
 264:radio_planner/src/radio_planner.c ****         rp_task_arbiter( rp, __func__ );
 265:radio_planner/src/radio_planner.c ****     }
 266:radio_planner/src/radio_planner.c ****     rp_bsp_critical_section_end( );
 267:radio_planner/src/radio_planner.c ****     return RP_HOOK_STATUS_OK;
 268:radio_planner/src/radio_planner.c **** }
 269:radio_planner/src/radio_planner.c **** 
 270:radio_planner/src/radio_planner.c **** void rp_get_status( const radio_planner_t* rp, const uint8_t id, uint32_t* irq_timestamp_ms, rp_sta
 271:radio_planner/src/radio_planner.c **** {
 272:radio_planner/src/radio_planner.c ****     *irq_timestamp_ms = rp->irq_timestamp_ms[id];
 273:radio_planner/src/radio_planner.c ****     *status           = rp->status[id];
 274:radio_planner/src/radio_planner.c **** }
 275:radio_planner/src/radio_planner.c **** 
 276:radio_planner/src/radio_planner.c **** rp_stats_t rp_get_stats( const radio_planner_t* rp )
 277:radio_planner/src/radio_planner.c **** {
 278:radio_planner/src/radio_planner.c ****     return rp->stats;
 279:radio_planner/src/radio_planner.c **** }
 280:radio_planner/src/radio_planner.c **** 
 281:radio_planner/src/radio_planner.c **** //
 282:radio_planner/src/radio_planner.c **** // Private planner utilities implementation
 283:radio_planner/src/radio_planner.c **** //
 284:radio_planner/src/radio_planner.c **** 
 285:radio_planner/src/radio_planner.c **** static void rp_task_free( const radio_planner_t* rp, rp_task_t* task )
 286:radio_planner/src/radio_planner.c **** {
 287:radio_planner/src/radio_planner.c ****     task->hook_id            = 0;
 288:radio_planner/src/radio_planner.c ****     task->start_time_ms      = 0;
 289:radio_planner/src/radio_planner.c ****     task->start_time_init_ms = 0;
 290:radio_planner/src/radio_planner.c ****     task->duration_time_ms   = 0;
 291:radio_planner/src/radio_planner.c ****     task->type               = RP_TASK_TYPE_NONE;
 292:radio_planner/src/radio_planner.c ****     task->state              = RP_TASK_STATE_FINISHED;
 293:radio_planner/src/radio_planner.c **** }
 294:radio_planner/src/radio_planner.c **** 
 295:radio_planner/src/radio_planner.c **** static void rp_task_update_time( radio_planner_t* rp, uint32_t now )
 296:radio_planner/src/radio_planner.c **** {
 297:radio_planner/src/radio_planner.c ****     for( int32_t i = 0; i < RP_NB_HOOKS; i++ )
 298:radio_planner/src/radio_planner.c ****     {
 299:radio_planner/src/radio_planner.c ****         if( rp->tasks[i].state == RP_TASK_STATE_ASAP )
 300:radio_planner/src/radio_planner.c ****         {
 301:radio_planner/src/radio_planner.c ****             if( ( int32_t )( now - rp->tasks[i].start_time_init_ms ) > 0 )
 302:radio_planner/src/radio_planner.c ****             {
 303:radio_planner/src/radio_planner.c ****                 rp->tasks[i].start_time_ms = now;
 304:radio_planner/src/radio_planner.c ****             }
 305:radio_planner/src/radio_planner.c ****             // An asap task is automatically switch in schedule task after RP_TASK_ASAP_TO_SCHEDULE
 306:radio_planner/src/radio_planner.c **** 
 307:radio_planner/src/radio_planner.c ****             if( ( int32_t )( now - rp->tasks[i].start_time_init_ms ) > RP_TASK_ASAP_TO_SCHEDULE_TRI
 308:radio_planner/src/radio_planner.c ****             {
 309:radio_planner/src/radio_planner.c ****                 rp->tasks[i].state = RP_TASK_STATE_SCHEDULE;
 310:radio_planner/src/radio_planner.c ****                 // Schedule the task @ now + RP_TASK_RE_SCHEDULE_OFFSET_TIME
 311:radio_planner/src/radio_planner.c ****                 // seconds
 312:radio_planner/src/radio_planner.c ****                 rp->tasks[i].start_time_ms = now + RP_TASK_RE_SCHEDULE_OFFSET_TIME;
 313:radio_planner/src/radio_planner.c ****                 rp->tasks[i].priority      = ( rp->tasks[i].state * RP_NB_HOOKS ) + i;
 314:radio_planner/src/radio_planner.c ****                 BSP_DBG_TRACE_PRINTF_RP( "RP: WARNING - SWITCH TASK FROM ASAP TO SCHEDULE \n" );
 315:radio_planner/src/radio_planner.c ****                 rp_task_compute_ranking( rp );
 316:radio_planner/src/radio_planner.c ****             }
 317:radio_planner/src/radio_planner.c ****         }
 318:radio_planner/src/radio_planner.c ****     }
ARM GAS  /var/folders/bq/yv49bw8j2kd6w3hsq868qv180000gn/T//ccsEouTz.s 			page 7


 319:radio_planner/src/radio_planner.c **** 
 320:radio_planner/src/radio_planner.c ****     if( ( rp->tasks[rp->radio_task_id].state == RP_TASK_STATE_RUNNING ) &&
 321:radio_planner/src/radio_planner.c ****         ( ( rp->tasks[rp->radio_task_id].type == RP_TASK_TYPE_RX_LORA ) ||
 322:radio_planner/src/radio_planner.c ****           ( rp->tasks[rp->radio_task_id].type == RP_TASK_TYPE_RX_FSK ) ) )
 323:radio_planner/src/radio_planner.c ****     {
 324:radio_planner/src/radio_planner.c ****         rp->tasks[rp->radio_task_id].duration_time_ms =
 325:radio_planner/src/radio_planner.c ****             now + RP_MARGIN_DELAY + 2 - rp->tasks[rp->radio_task_id].start_time_ms;
 326:radio_planner/src/radio_planner.c ****         BSP_DBG_TRACE_PRINTF_RP( " RP: Extended duration of radio task #%u time to %lu ms\n", rp->r
 327:radio_planner/src/radio_planner.c ****     }
 328:radio_planner/src/radio_planner.c **** }
 329:radio_planner/src/radio_planner.c **** 
 330:radio_planner/src/radio_planner.c **** static void rp_task_arbiter( radio_planner_t* rp, const char* caller_func_name )
 331:radio_planner/src/radio_planner.c **** {
 332:radio_planner/src/radio_planner.c ****     uint32_t now = rp_bsp_timestamp_get( );
 333:radio_planner/src/radio_planner.c **** 
 334:radio_planner/src/radio_planner.c ****     // Update time for ASAP task to now. But, also extended duration in case of
 335:radio_planner/src/radio_planner.c ****     // running task is a RX task
 336:radio_planner/src/radio_planner.c ****     rp_task_update_time( rp, now );
 337:radio_planner/src/radio_planner.c **** 
 338:radio_planner/src/radio_planner.c ****     // Select the high priority task
 339:radio_planner/src/radio_planner.c ****     if( rp_task_select_next( rp, now ) == RP_SOMETHING_TO_DO )
 340:radio_planner/src/radio_planner.c ****     {  // Next task exists
 341:radio_planner/src/radio_planner.c ****         int32_t delay = ( int32_t )( rp->priority_task.start_time_ms - now );
 342:radio_planner/src/radio_planner.c ****         BSP_DBG_TRACE_PRINTF_RP(
 343:radio_planner/src/radio_planner.c ****             " RP: Arbiter has been called by %s and priority-task #%u, timer "
 344:radio_planner/src/radio_planner.c ****             "hook "
 345:radio_planner/src/radio_planner.c ****             "#%u, delay %ld, now %lu\n ",
 346:radio_planner/src/radio_planner.c ****             caller_func_name, rp->priority_task.hook_id, rp->timer_hook_id, delay, now );
 347:radio_planner/src/radio_planner.c **** 
 348:radio_planner/src/radio_planner.c ****         // Case where the high priority task is in the future
 349:radio_planner/src/radio_planner.c ****         if( delay > RP_MARGIN_DELAY )
 350:radio_planner/src/radio_planner.c ****         {  // The high priority task is in the future
 351:radio_planner/src/radio_planner.c ****             BSP_DBG_TRACE_PRINTF_RP( " RP: High priority task is in the future\n" );
 352:radio_planner/src/radio_planner.c ****         }
 353:radio_planner/src/radio_planner.c ****         // Case where the high priority task is in the past, error case
 354:radio_planner/src/radio_planner.c ****         else if( delay < 0 )
 355:radio_planner/src/radio_planner.c ****         {  // The high priority task is in the past, error case
 356:radio_planner/src/radio_planner.c ****             if( rp->priority_task.state != RP_TASK_STATE_RUNNING )
 357:radio_planner/src/radio_planner.c ****             {
 358:radio_planner/src/radio_planner.c ****                 rp->stats.rp_error++;
 359:radio_planner/src/radio_planner.c ****                 BSP_DBG_TRACE_PRINTF_RP( " RP: ERROR - delay #%ld - hook #%u\n", delay, rp->priorit
 360:radio_planner/src/radio_planner.c **** 
 361:radio_planner/src/radio_planner.c ****                 rp->tasks[rp->priority_task.hook_id].state = RP_TASK_STATE_ABORTED;
 362:radio_planner/src/radio_planner.c ****             }
 363:radio_planner/src/radio_planner.c ****         }
 364:radio_planner/src/radio_planner.c ****         // Case where the high priority task is now
 365:radio_planner/src/radio_planner.c ****         else
 366:radio_planner/src/radio_planner.c ****         {
 367:radio_planner/src/radio_planner.c ****             if( rp->tasks[rp->radio_task_id].state == RP_TASK_STATE_RUNNING )
 368:radio_planner/src/radio_planner.c ****             {  // Radio is already running
 369:radio_planner/src/radio_planner.c ****                 if( rp->tasks[rp->radio_task_id].hook_id != rp->priority_task.hook_id )
 370:radio_planner/src/radio_planner.c ****                 {  // priority task not equal to radio task => abort radio task
 371:radio_planner/src/radio_planner.c ****                     rp->tasks[rp->radio_task_id].state = RP_TASK_STATE_ABORTED;
 372:radio_planner/src/radio_planner.c ****                     BSP_DBG_TRACE_PRINTF_RP( "RP: Abort running task with hook #%u\n", rp->radio_ta
 373:radio_planner/src/radio_planner.c ****                     ral_clear_irq_status( rp->ral, RAL_IRQ_ALL );
 374:radio_planner/src/radio_planner.c ****                     ral_set_sleep( rp->ral );
 375:radio_planner/src/radio_planner.c **** 
ARM GAS  /var/folders/bq/yv49bw8j2kd6w3hsq868qv180000gn/T//ccsEouTz.s 			page 8


 376:radio_planner/src/radio_planner.c ****                     // Shut Down the TCXO
 377:radio_planner/src/radio_planner.c ****                     ral_set_tcxo_off( rp->ral );
 378:radio_planner/src/radio_planner.c **** 
 379:radio_planner/src/radio_planner.c ****                     rp->semaphore_abort_radio = rp_bsp_irq_get_pending( );
 380:radio_planner/src/radio_planner.c **** 
 381:radio_planner/src/radio_planner.c ****                     rp_consumption_statistics_updated( rp, rp->radio_task_id, rp_bsp_timestamp_get(
 382:radio_planner/src/radio_planner.c **** 
 383:radio_planner/src/radio_planner.c ****                     rp->radio_task_id                  = rp->priority_task.hook_id;
 384:radio_planner/src/radio_planner.c ****                     rp->tasks[rp->radio_task_id].state = RP_TASK_STATE_RUNNING;
 385:radio_planner/src/radio_planner.c ****                     rp_task_launch_current( rp );
 386:radio_planner/src/radio_planner.c ****                 }  // else case already managed during enqueue task
 387:radio_planner/src/radio_planner.c ****             }
 388:radio_planner/src/radio_planner.c ****             else
 389:radio_planner/src/radio_planner.c ****             {  // Radio is sleeping start priority task on radio
 390:radio_planner/src/radio_planner.c ****                 rp->radio_task_id                  = rp->priority_task.hook_id;
 391:radio_planner/src/radio_planner.c ****                 rp->tasks[rp->radio_task_id].state = RP_TASK_STATE_RUNNING;
 392:radio_planner/src/radio_planner.c ****                 rp_task_launch_current( rp );
 393:radio_planner/src/radio_planner.c ****             }
 394:radio_planner/src/radio_planner.c ****         }
 395:radio_planner/src/radio_planner.c ****         // Timer has expired on a not priority task => Have to abort this task
 396:radio_planner/src/radio_planner.c ****         int32_t tmp = ( int32_t )( rp->tasks[rp->timer_hook_id].start_time_ms - now );
 397:radio_planner/src/radio_planner.c **** 
 398:radio_planner/src/radio_planner.c ****         if( ( tmp > 0 ) && ( tmp < RP_MARGIN_DELAY ) && ( rp->next_state_status == RP_STATUS_HAVE_T
 399:radio_planner/src/radio_planner.c ****             ( rp->timer_hook_id != rp->priority_task.hook_id ) )
 400:radio_planner/src/radio_planner.c ****         {
 401:radio_planner/src/radio_planner.c ****             BSP_DBG_TRACE_PRINTF_RP( " RP: Aborted task with hook #%u - not a priority task\n ", rp
 402:radio_planner/src/radio_planner.c ****             rp->tasks[rp->timer_hook_id].state = RP_TASK_STATE_ABORTED;
 403:radio_planner/src/radio_planner.c ****         }
 404:radio_planner/src/radio_planner.c **** 
 405:radio_planner/src/radio_planner.c ****         // Execute the garbage collection if the radio isn't running
 406:radio_planner/src/radio_planner.c ****         if( rp->tasks[rp->radio_task_id].state != RP_TASK_STATE_RUNNING )
 407:radio_planner/src/radio_planner.c ****         {
 408:radio_planner/src/radio_planner.c ****             rp_task_call_aborted( rp );
 409:radio_planner/src/radio_planner.c ****         }
 410:radio_planner/src/radio_planner.c **** 
 411:radio_planner/src/radio_planner.c ****         // Set the Timer to the next Task
 412:radio_planner/src/radio_planner.c ****         rp->next_state_status = rp_task_get_next( rp, &rp->timer_value, &rp->timer_hook_id, rp_bsp_
 413:radio_planner/src/radio_planner.c **** 
 414:radio_planner/src/radio_planner.c ****         if( rp->next_state_status == RP_STATUS_HAVE_TO_SET_TIMER )
 415:radio_planner/src/radio_planner.c ****         {
 416:radio_planner/src/radio_planner.c ****             if( rp->timer_value > RP_MARGIN_DELAY )
 417:radio_planner/src/radio_planner.c ****             {
 418:radio_planner/src/radio_planner.c ****                 rp_set_alarm( rp, rp->timer_value - RP_MARGIN_DELAY );
 419:radio_planner/src/radio_planner.c ****             }
 420:radio_planner/src/radio_planner.c ****             else
 421:radio_planner/src/radio_planner.c ****             {
 422:radio_planner/src/radio_planner.c ****                 rp_set_alarm( rp, 1 );
 423:radio_planner/src/radio_planner.c ****             }
 424:radio_planner/src/radio_planner.c ****         }
 425:radio_planner/src/radio_planner.c ****     }
 426:radio_planner/src/radio_planner.c ****     else
 427:radio_planner/src/radio_planner.c ****     {  // No more tasks in the radio planner
 428:radio_planner/src/radio_planner.c ****         rp_task_call_aborted( rp );
 429:radio_planner/src/radio_planner.c ****         BSP_DBG_TRACE_PRINTF_RP( " RP: No more active tasks\n" );
 430:radio_planner/src/radio_planner.c ****     }
 431:radio_planner/src/radio_planner.c **** }
 432:radio_planner/src/radio_planner.c **** 
ARM GAS  /var/folders/bq/yv49bw8j2kd6w3hsq868qv180000gn/T//ccsEouTz.s 			page 9


 433:radio_planner/src/radio_planner.c **** static void rp_irq_get_status( radio_planner_t* rp, const uint8_t hook_id )
 434:radio_planner/src/radio_planner.c **** {
 435:radio_planner/src/radio_planner.c ****     ral_irq_t radio_irq = 0;
 436:radio_planner/src/radio_planner.c **** 
 437:radio_planner/src/radio_planner.c **** #if defined( SX126X )
 438:radio_planner/src/radio_planner.c ****     // TODO remove when ral sx126 is ready
 439:radio_planner/src/radio_planner.c ****     ral_get_irq_status( rp->ral, &radio_irq );
 440:radio_planner/src/radio_planner.c **** #else
 441:radio_planner/src/radio_planner.c ****     ral_process_irq( rp->ral, &radio_irq );
 442:radio_planner/src/radio_planner.c **** #endif
 443:radio_planner/src/radio_planner.c **** 
 444:radio_planner/src/radio_planner.c ****     BSP_DBG_TRACE_PRINTF_RP( " RP: IRQ source - 0x%04X\n", radio_irq );
 445:radio_planner/src/radio_planner.c ****     ral_clear_irq_status( rp->ral, RAL_IRQ_ALL );
 446:radio_planner/src/radio_planner.c ****     // Do not modify the order of the next if / else if process
 447:radio_planner/src/radio_planner.c ****     if( ( radio_irq & RAL_IRQ_TX_DONE ) == RAL_IRQ_TX_DONE )
 448:radio_planner/src/radio_planner.c ****     {
 449:radio_planner/src/radio_planner.c ****         rp->status[hook_id] = RP_STATUS_TX_DONE;
 450:radio_planner/src/radio_planner.c **** #if defined( PERF_TEST_ENABLED )
 451:radio_planner/src/radio_planner.c ****         tx_done_count++;
 452:radio_planner/src/radio_planner.c ****         BSP_PERF_TEST_TRACE_PRINTF( "RADIO IRQ: TX DONE\n" );
 453:radio_planner/src/radio_planner.c ****         BSP_PERF_TEST_TRACE_PRINTF( "tx_done_count:%lu\n", tx_done_count );
 454:radio_planner/src/radio_planner.c **** #endif
 455:radio_planner/src/radio_planner.c ****     }
 456:radio_planner/src/radio_planner.c ****     else if( ( ( radio_irq & RAL_IRQ_RX_TIMEOUT ) == RAL_IRQ_RX_TIMEOUT ) ||
 457:radio_planner/src/radio_planner.c ****              ( ( radio_irq & RAL_IRQ_RX_HDR_ERROR ) == RAL_IRQ_RX_HDR_ERROR ) ||
 458:radio_planner/src/radio_planner.c ****              ( ( radio_irq & RAL_IRQ_RX_CRC_ERROR ) == RAL_IRQ_RX_CRC_ERROR ) )
 459:radio_planner/src/radio_planner.c ****     {
 460:radio_planner/src/radio_planner.c ****         rp->status[hook_id] = RP_STATUS_RX_TIMEOUT;
 461:radio_planner/src/radio_planner.c **** #if defined( PERF_TEST_ENABLED )
 462:radio_planner/src/radio_planner.c ****         rx_timeout_count++;
 463:radio_planner/src/radio_planner.c ****         BSP_PERF_TEST_TRACE_PRINTF( "RADIO IRQ: RX_TIMEOUT or HDR_ERROR or CRC_ERROR\n" );
 464:radio_planner/src/radio_planner.c ****         BSP_PERF_TEST_TRACE_PRINTF( "rx_timeout_count:%lu\n", rx_timeout_count );
 465:radio_planner/src/radio_planner.c **** #endif
 466:radio_planner/src/radio_planner.c ****     }
 467:radio_planner/src/radio_planner.c ****     else if( ( radio_irq & RAL_IRQ_RX_DONE ) == RAL_IRQ_RX_DONE )
 468:radio_planner/src/radio_planner.c ****     {
 469:radio_planner/src/radio_planner.c ****         rp->status[hook_id] = RP_STATUS_RX_PACKET;
 470:radio_planner/src/radio_planner.c ****         rp_get_pkt_payload( rp, &rp->tasks[hook_id] );
 471:radio_planner/src/radio_planner.c **** #if defined( PERF_TEST_ENABLED )
 472:radio_planner/src/radio_planner.c ****         rx_done_count++;
 473:radio_planner/src/radio_planner.c ****         BSP_PERF_TEST_TRACE_PRINTF( "RADIO IRQ: RX_DONE\n" );
 474:radio_planner/src/radio_planner.c ****         BSP_PERF_TEST_TRACE_PRINTF( "rx_done_count:%lu\n", rx_done_count );
 475:radio_planner/src/radio_planner.c **** #endif
 476:radio_planner/src/radio_planner.c ****     }
 477:radio_planner/src/radio_planner.c **** 
 478:radio_planner/src/radio_planner.c ****     else if( ( radio_irq & RAL_IRQ_CAD_OK ) == RAL_IRQ_CAD_OK )
 479:radio_planner/src/radio_planner.c ****     {
 480:radio_planner/src/radio_planner.c ****         rp->status[hook_id] = RP_STATUS_CAD_POSITIVE;
 481:radio_planner/src/radio_planner.c ****     }
 482:radio_planner/src/radio_planner.c ****     else if( ( radio_irq & RAL_IRQ_CAD_DONE ) == RAL_IRQ_CAD_DONE )
 483:radio_planner/src/radio_planner.c ****     {
 484:radio_planner/src/radio_planner.c ****         rp->status[hook_id] = RP_STATUS_CAD_NEGATIVE;
 485:radio_planner/src/radio_planner.c ****     }
 486:radio_planner/src/radio_planner.c ****     else
 487:radio_planner/src/radio_planner.c ****     {
 488:radio_planner/src/radio_planner.c ****         BSP_DBG_TRACE_PRINTF_RP( " RP: ERROR - IRQ source 0x%04X unknown\n", radio_irq );
 489:radio_planner/src/radio_planner.c ****         rp->status[hook_id] = RP_STATUS_TASK_ABORTED;
ARM GAS  /var/folders/bq/yv49bw8j2kd6w3hsq868qv180000gn/T//ccsEouTz.s 			page 10


 490:radio_planner/src/radio_planner.c ****     }
 491:radio_planner/src/radio_planner.c **** }
 492:radio_planner/src/radio_planner.c **** 
 493:radio_planner/src/radio_planner.c **** static void rp_task_compute_ranking( radio_planner_t* rp )
 494:radio_planner/src/radio_planner.c **** {
 495:radio_planner/src/radio_planner.c ****     uint8_t rank;
 496:radio_planner/src/radio_planner.c ****     uint8_t ranks_temp[RP_NB_HOOKS];
 497:radio_planner/src/radio_planner.c **** 
 498:radio_planner/src/radio_planner.c ****     for( int32_t i = 0; i < RP_NB_HOOKS; i++ )
 499:radio_planner/src/radio_planner.c ****     {
 500:radio_planner/src/radio_planner.c ****         ranks_temp[i] = rp->tasks[i].priority;
 501:radio_planner/src/radio_planner.c ****     }
 502:radio_planner/src/radio_planner.c ****     for( int32_t i = 0; i < RP_NB_HOOKS; i++ )
 503:radio_planner/src/radio_planner.c ****     {
 504:radio_planner/src/radio_planner.c ****         rank             = rp_task_find_highest_priority( rp, &( ranks_temp[0] ), RP_NB_HOOKS );
 505:radio_planner/src/radio_planner.c ****         ranks_temp[rank] = 0xFF;
 506:radio_planner/src/radio_planner.c ****         rp->rankings[i]  = rank;
 507:radio_planner/src/radio_planner.c ****     }
 508:radio_planner/src/radio_planner.c **** }
 509:radio_planner/src/radio_planner.c **** 
 510:radio_planner/src/radio_planner.c **** static void rp_task_launch_current( radio_planner_t* rp )
 511:radio_planner/src/radio_planner.c **** {
 512:radio_planner/src/radio_planner.c ****     uint8_t id = rp->radio_task_id;
 513:radio_planner/src/radio_planner.c ****     BSP_DBG_TRACE_PRINTF_RP( " RP: Launch task #%u and start radio state %u, type %u\n", id, rp->ta
 514:radio_planner/src/radio_planner.c ****                              rp->tasks[id].type );
 515:radio_planner/src/radio_planner.c **** 
 516:radio_planner/src/radio_planner.c ****     rp_task_print( rp, &rp->tasks[id] );
 517:radio_planner/src/radio_planner.c **** 
 518:radio_planner/src/radio_planner.c ****     // Turn on the TCXO
 519:radio_planner/src/radio_planner.c ****     ral_set_tcxo_on( rp->ral );
 520:radio_planner/src/radio_planner.c **** 
 521:radio_planner/src/radio_planner.c ****     switch( rp->tasks[id].type )
 522:radio_planner/src/radio_planner.c ****     {
 523:radio_planner/src/radio_planner.c ****     case RP_TASK_TYPE_TX_LORA:
 524:radio_planner/src/radio_planner.c ****         ral_init( rp->ral );
 525:radio_planner/src/radio_planner.c ****         ral_setup_tx_lora( rp->ral, &rp->radio_params[id].tx.lora );
 526:radio_planner/src/radio_planner.c ****         ral_set_pkt_payload( rp->ral, rp->payload[id], rp->payload_size[id] );
 527:radio_planner/src/radio_planner.c ****         // Wait the exact time
 528:radio_planner/src/radio_planner.c ****         while( ( int32_t )( rp->tasks[id].start_time_ms - rp_bsp_timestamp_get( ) ) > 0 )
 529:radio_planner/src/radio_planner.c ****         {
 530:radio_planner/src/radio_planner.c ****             // Do nothing
 531:radio_planner/src/radio_planner.c ****         }
 532:radio_planner/src/radio_planner.c ****         ral_set_tx( rp->ral );
 533:radio_planner/src/radio_planner.c ****         rp_stats_set_tx_timestamp( &rp->stats, rp_bsp_timestamp_get( ) );
 534:radio_planner/src/radio_planner.c ****         break;
 535:radio_planner/src/radio_planner.c ****     case RP_TASK_TYPE_RX_LORA:
 536:radio_planner/src/radio_planner.c **** #if defined( SX126X )
 537:radio_planner/src/radio_planner.c ****         ral_init( rp->ral );
 538:radio_planner/src/radio_planner.c **** #endif
 539:radio_planner/src/radio_planner.c ****         ral_setup_rx_lora( rp->ral, &rp->radio_params[id].rx.lora );
 540:radio_planner/src/radio_planner.c ****         // Wait the exact time
 541:radio_planner/src/radio_planner.c ****         while( ( int32_t )( rp->tasks[id].start_time_ms - rp_bsp_timestamp_get( ) ) > 0 )
 542:radio_planner/src/radio_planner.c ****         {
 543:radio_planner/src/radio_planner.c ****         }
 544:radio_planner/src/radio_planner.c ****         ral_set_rx( rp->ral, rp->radio_params[id].rx.timeout_in_ms );
 545:radio_planner/src/radio_planner.c **** 
 546:radio_planner/src/radio_planner.c ****         rp_stats_set_rx_timestamp( &rp->stats, rp_bsp_timestamp_get( ) );
ARM GAS  /var/folders/bq/yv49bw8j2kd6w3hsq868qv180000gn/T//ccsEouTz.s 			page 11


 547:radio_planner/src/radio_planner.c ****         break;
 548:radio_planner/src/radio_planner.c ****     case RP_TASK_TYPE_TX_FSK:
 549:radio_planner/src/radio_planner.c ****         ral_init( rp->ral );
 550:radio_planner/src/radio_planner.c ****         ral_setup_tx_gfsk( rp->ral, &rp->radio_params[id].tx.gfsk );
 551:radio_planner/src/radio_planner.c ****         ral_set_pkt_payload( rp->ral, rp->payload[id], rp->payload_size[id] );
 552:radio_planner/src/radio_planner.c ****         // Wait the exact time
 553:radio_planner/src/radio_planner.c ****         while( ( int32_t )( rp->tasks[id].start_time_ms - rp_bsp_timestamp_get( ) ) > 0 )
 554:radio_planner/src/radio_planner.c ****         {
 555:radio_planner/src/radio_planner.c ****         }
 556:radio_planner/src/radio_planner.c ****         ral_set_tx( rp->ral );
 557:radio_planner/src/radio_planner.c **** 
 558:radio_planner/src/radio_planner.c ****         rp_stats_set_tx_timestamp( &rp->stats, rp_bsp_timestamp_get( ) );
 559:radio_planner/src/radio_planner.c ****         break;
 560:radio_planner/src/radio_planner.c ****     case RP_TASK_TYPE_RX_FSK:
 561:radio_planner/src/radio_planner.c ****         ral_init( rp->ral );
 562:radio_planner/src/radio_planner.c ****         ral_setup_rx_gfsk( rp->ral, &rp->radio_params[id].rx.gfsk );
 563:radio_planner/src/radio_planner.c ****         // Wait the exact time
 564:radio_planner/src/radio_planner.c ****         while( ( int32_t )( rp->tasks[id].start_time_ms - rp_bsp_timestamp_get( ) ) > 0 )
 565:radio_planner/src/radio_planner.c ****         {
 566:radio_planner/src/radio_planner.c ****         }
 567:radio_planner/src/radio_planner.c ****         ral_set_rx( rp->ral, rp->radio_params[id].rx.timeout_in_ms );
 568:radio_planner/src/radio_planner.c **** 
 569:radio_planner/src/radio_planner.c ****         rp_stats_set_rx_timestamp( &rp->stats, rp_bsp_timestamp_get( ) );
 570:radio_planner/src/radio_planner.c ****         break;
 571:radio_planner/src/radio_planner.c ****     case RP_TASK_TYPE_CAD: {
 572:radio_planner/src/radio_planner.c ****         ral_lora_cad_params_t cad_params = {
 573:radio_planner/src/radio_planner.c ****             .cad_symb_nb          = RAL_LORA_CAD_01_SYMB,
 574:radio_planner/src/radio_planner.c ****             .cad_det_peak_in_symb = 0,                  // not used
 575:radio_planner/src/radio_planner.c ****             .cad_det_min_in_symb  = 0,                  // not used
 576:radio_planner/src/radio_planner.c ****             .cad_exit_mode        = RAL_LORA_CAD_ONLY,  // not used
 577:radio_planner/src/radio_planner.c ****             .cad_timeout_in_ms    = 0,                  // not used
 578:radio_planner/src/radio_planner.c ****         };
 579:radio_planner/src/radio_planner.c ****         ral_setup_rx_lora( rp->ral, &rp->radio_params[id].rx.lora );
 580:radio_planner/src/radio_planner.c ****         ral_setup_cad( rp->ral, &cad_params );
 581:radio_planner/src/radio_planner.c ****         while( ( int32_t )( rp->tasks[id].start_time_ms - rp_bsp_timestamp_get( ) ) > 0 )
 582:radio_planner/src/radio_planner.c ****         {
 583:radio_planner/src/radio_planner.c ****         }
 584:radio_planner/src/radio_planner.c ****         ral_set_cad( rp->ral );
 585:radio_planner/src/radio_planner.c ****         break;
 586:radio_planner/src/radio_planner.c ****     }
 587:radio_planner/src/radio_planner.c ****     default:
 588:radio_planner/src/radio_planner.c ****         BSP_DBG_TRACE_PRINTF_RP( " RP: ERROR - Task type unknown\n" );
 589:radio_planner/src/radio_planner.c ****         // Shut Down the TCXO
 590:radio_planner/src/radio_planner.c ****         ral_set_tcxo_off( rp->ral );
 591:radio_planner/src/radio_planner.c ****         break;
 592:radio_planner/src/radio_planner.c ****     }
 593:radio_planner/src/radio_planner.c **** }
 594:radio_planner/src/radio_planner.c **** 
 595:radio_planner/src/radio_planner.c **** static uint8_t rp_task_select_next( radio_planner_t* rp, const uint32_t now )
 596:radio_planner/src/radio_planner.c **** {
 597:radio_planner/src/radio_planner.c ****     uint8_t  hook_to_exe_tmp      = 0xFF;
 598:radio_planner/src/radio_planner.c ****     uint32_t hook_time_to_exe_tmp = 0;
 599:radio_planner/src/radio_planner.c ****     uint32_t time_tmp             = 0;
 600:radio_planner/src/radio_planner.c ****     uint8_t  rank                 = 0;
 601:radio_planner/src/radio_planner.c ****     uint8_t  hook_id              = 0;
 602:radio_planner/src/radio_planner.c ****     for( hook_id = 0; hook_id < RP_NB_HOOKS; hook_id++ )
 603:radio_planner/src/radio_planner.c ****     {  // Garbage collector
ARM GAS  /var/folders/bq/yv49bw8j2kd6w3hsq868qv180000gn/T//ccsEouTz.s 			page 12


 604:radio_planner/src/radio_planner.c ****         if( ( rp->tasks[hook_id].state == RP_TASK_STATE_SCHEDULE ) &&
 605:radio_planner/src/radio_planner.c ****             ( ( ( int32_t )( rp->tasks[hook_id].start_time_ms - now ) < 0 ) ) )
 606:radio_planner/src/radio_planner.c ****         {
 607:radio_planner/src/radio_planner.c ****             rp->tasks[hook_id].state = RP_TASK_STATE_ABORTED;
 608:radio_planner/src/radio_planner.c ****         }
 609:radio_planner/src/radio_planner.c ****     }
 610:radio_planner/src/radio_planner.c ****     for( hook_id = 0; hook_id < RP_NB_HOOKS; hook_id++ )
 611:radio_planner/src/radio_planner.c ****     {
 612:radio_planner/src/radio_planner.c ****         rank = rp->rankings[hook_id];
 613:radio_planner/src/radio_planner.c ****         if( ( ( rp->tasks[rank].state < RP_TASK_STATE_RUNNING ) &&
 614:radio_planner/src/radio_planner.c ****               ( ( int32_t )( rp->tasks[rank].start_time_ms - now ) >= 0 ) ) ||
 615:radio_planner/src/radio_planner.c ****             ( rp->tasks[rank].state == RP_TASK_STATE_RUNNING ) )
 616:radio_planner/src/radio_planner.c ****         {
 617:radio_planner/src/radio_planner.c ****             hook_to_exe_tmp      = rp->tasks[rank].hook_id;
 618:radio_planner/src/radio_planner.c ****             hook_time_to_exe_tmp = rp->tasks[rank].start_time_ms;
 619:radio_planner/src/radio_planner.c ****             break;
 620:radio_planner/src/radio_planner.c ****         }
 621:radio_planner/src/radio_planner.c ****     }
 622:radio_planner/src/radio_planner.c ****     if( hook_id == RP_NB_HOOKS )
 623:radio_planner/src/radio_planner.c ****     {
 624:radio_planner/src/radio_planner.c ****         return RP_NO_MORE_TASK;
 625:radio_planner/src/radio_planner.c ****     }
 626:radio_planner/src/radio_planner.c **** 
 627:radio_planner/src/radio_planner.c ****     for( int32_t i = hook_id; i < RP_NB_HOOKS; i++ )
 628:radio_planner/src/radio_planner.c ****     {
 629:radio_planner/src/radio_planner.c ****         rank = rp->rankings[i];
 630:radio_planner/src/radio_planner.c ****         if( ( ( rp->tasks[rank].state < RP_TASK_STATE_RUNNING ) &&
 631:radio_planner/src/radio_planner.c ****               ( ( int32_t )( rp->tasks[rank].start_time_ms - now ) >= 0 ) ) ||
 632:radio_planner/src/radio_planner.c ****             ( rp->tasks[rank].state == RP_TASK_STATE_RUNNING ) )
 633:radio_planner/src/radio_planner.c ****         {
 634:radio_planner/src/radio_planner.c ****             time_tmp = rp->tasks[rank].start_time_ms + rp->tasks[rank].duration_time_ms;
 635:radio_planner/src/radio_planner.c **** 
 636:radio_planner/src/radio_planner.c ****             int32_t tmp = ( int32_t )( time_tmp - hook_time_to_exe_tmp );
 637:radio_planner/src/radio_planner.c ****             if( ( tmp < 0 ) && ( ( int32_t )( time_tmp - now ) >= 0 ) )
 638:radio_planner/src/radio_planner.c ****             {
 639:radio_planner/src/radio_planner.c ****                 hook_to_exe_tmp      = rp->tasks[rank].hook_id;
 640:radio_planner/src/radio_planner.c ****                 hook_time_to_exe_tmp = rp->tasks[rank].start_time_ms;
 641:radio_planner/src/radio_planner.c ****             }
 642:radio_planner/src/radio_planner.c ****         }
 643:radio_planner/src/radio_planner.c ****     }
 644:radio_planner/src/radio_planner.c ****     rp->priority_task = rp->tasks[hook_to_exe_tmp];
 645:radio_planner/src/radio_planner.c ****     return RP_SOMETHING_TO_DO;
 646:radio_planner/src/radio_planner.c **** }
 647:radio_planner/src/radio_planner.c **** 
 648:radio_planner/src/radio_planner.c **** static rp_next_state_status_t rp_task_get_next( radio_planner_t* rp, uint32_t* duration, uint8_t* t
 649:radio_planner/src/radio_planner.c ****                                                 const uint32_t now )
 650:radio_planner/src/radio_planner.c **** {
 651:radio_planner/src/radio_planner.c ****     uint8_t  hook_id  = 0;
 652:radio_planner/src/radio_planner.c ****     uint8_t  index    = 0;
 653:radio_planner/src/radio_planner.c ****     uint32_t time_tmp = now;
 654:radio_planner/src/radio_planner.c **** 
 655:radio_planner/src/radio_planner.c ****     for( hook_id = 0; hook_id < RP_NB_HOOKS; hook_id++ )
 656:radio_planner/src/radio_planner.c ****     {  // Garbage collector
 657:radio_planner/src/radio_planner.c ****         if( ( rp->tasks[hook_id].state == RP_TASK_STATE_SCHEDULE ) &&
 658:radio_planner/src/radio_planner.c ****             ( ( ( int32_t )( rp->tasks[hook_id].start_time_ms - time_tmp ) < 0 ) ) )
 659:radio_planner/src/radio_planner.c ****         {
 660:radio_planner/src/radio_planner.c ****             rp->tasks[hook_id].state = RP_TASK_STATE_ABORTED;
ARM GAS  /var/folders/bq/yv49bw8j2kd6w3hsq868qv180000gn/T//ccsEouTz.s 			page 13


 661:radio_planner/src/radio_planner.c ****         }
 662:radio_planner/src/radio_planner.c ****     }
 663:radio_planner/src/radio_planner.c ****     for( hook_id = 0; hook_id < RP_NB_HOOKS; hook_id++ )
 664:radio_planner/src/radio_planner.c ****     {
 665:radio_planner/src/radio_planner.c ****         if( ( rp->tasks[hook_id].state < RP_TASK_STATE_RUNNING ) &&
 666:radio_planner/src/radio_planner.c ****             ( ( ( int32_t )( rp->tasks[hook_id].start_time_ms - time_tmp ) >= 0 ) ) )
 667:radio_planner/src/radio_planner.c ****         {
 668:radio_planner/src/radio_planner.c ****             time_tmp = rp->tasks[hook_id].start_time_ms;
 669:radio_planner/src/radio_planner.c ****             index    = hook_id;
 670:radio_planner/src/radio_planner.c ****             break;
 671:radio_planner/src/radio_planner.c ****         }
 672:radio_planner/src/radio_planner.c ****     }
 673:radio_planner/src/radio_planner.c ****     if( hook_id == RP_NB_HOOKS )
 674:radio_planner/src/radio_planner.c ****     {
 675:radio_planner/src/radio_planner.c ****         return RP_STATUS_NO_MORE_TASK_SCHEDULE;
 676:radio_planner/src/radio_planner.c ****     }
 677:radio_planner/src/radio_planner.c **** 
 678:radio_planner/src/radio_planner.c ****     for( uint8_t i = hook_id; i < RP_NB_HOOKS; i++ )
 679:radio_planner/src/radio_planner.c ****     {
 680:radio_planner/src/radio_planner.c ****         if( ( rp->tasks[i].state < RP_TASK_STATE_RUNNING ) &&
 681:radio_planner/src/radio_planner.c ****             ( ( int32_t )( rp->tasks[i].start_time_ms - time_tmp ) < 0 ) &&
 682:radio_planner/src/radio_planner.c ****             ( ( int32_t )( rp->tasks[i].start_time_ms - now ) >= 0 ) )
 683:radio_planner/src/radio_planner.c ****         {
 684:radio_planner/src/radio_planner.c ****             time_tmp = rp->tasks[i].start_time_ms;
 685:radio_planner/src/radio_planner.c ****             index    = i;
 686:radio_planner/src/radio_planner.c ****         }
 687:radio_planner/src/radio_planner.c ****     }
 688:radio_planner/src/radio_planner.c ****     *task_id  = index;
 689:radio_planner/src/radio_planner.c ****     *duration = time_tmp - now;
 690:radio_planner/src/radio_planner.c ****     return RP_STATUS_HAVE_TO_SET_TIMER;
 691:radio_planner/src/radio_planner.c **** }
 692:radio_planner/src/radio_planner.c **** 
 693:radio_planner/src/radio_planner.c **** static uint8_t rp_task_find_highest_priority( const radio_planner_t* rp, uint8_t* vector, uint8_t l
 694:radio_planner/src/radio_planner.c **** {
 695:radio_planner/src/radio_planner.c ****     uint8_t priority_high = 0xFF;
 696:radio_planner/src/radio_planner.c ****     uint8_t index         = 0;
 697:radio_planner/src/radio_planner.c **** 
 698:radio_planner/src/radio_planner.c ****     for( int32_t i = 0; i < length; i++ )
 699:radio_planner/src/radio_planner.c ****     {
 700:radio_planner/src/radio_planner.c ****         if( vector[i] <= priority_high )
 701:radio_planner/src/radio_planner.c ****         {
 702:radio_planner/src/radio_planner.c ****             priority_high = vector[i];
 703:radio_planner/src/radio_planner.c ****             index         = i;
 704:radio_planner/src/radio_planner.c ****         }
 705:radio_planner/src/radio_planner.c ****     }
 706:radio_planner/src/radio_planner.c ****     return index;
 707:radio_planner/src/radio_planner.c **** }
 708:radio_planner/src/radio_planner.c **** 
 709:radio_planner/src/radio_planner.c **** rp_hook_status_t rp_get_pkt_payload( radio_planner_t* rp, const rp_task_t* task )
 710:radio_planner/src/radio_planner.c **** {
 711:radio_planner/src/radio_planner.c ****     rp_hook_status_t status = RP_HOOK_STATUS_OK;
 712:radio_planner/src/radio_planner.c ****     uint8_t          id     = task->hook_id;
 713:radio_planner/src/radio_planner.c **** 
 714:radio_planner/src/radio_planner.c ****     ral_get_pkt_payload( rp->ral, rp->payload[id], rp->payload_size[id], &rp->payload_size[id] );
 715:radio_planner/src/radio_planner.c **** 
 716:radio_planner/src/radio_planner.c ****     if( task->type == RP_TASK_TYPE_RX_LORA )
 717:radio_planner/src/radio_planner.c ****     {
ARM GAS  /var/folders/bq/yv49bw8j2kd6w3hsq868qv180000gn/T//ccsEouTz.s 			page 14


 718:radio_planner/src/radio_planner.c ****         rp->radio_params[id].pkt_type = RAL_PKT_TYPE_LORA;
 719:radio_planner/src/radio_planner.c ****         status                        = RP_HOOK_STATUS_OK;
 720:radio_planner/src/radio_planner.c **** 
 721:radio_planner/src/radio_planner.c ****         ral_get_lora_pkt_status( rp->ral, &rp->radio_params[id].rx.lora_pkt_status );
 722:radio_planner/src/radio_planner.c ****     }
 723:radio_planner/src/radio_planner.c ****     else if( task->type == RP_TASK_TYPE_RX_FSK )
 724:radio_planner/src/radio_planner.c ****     {
 725:radio_planner/src/radio_planner.c ****         rp->radio_params[id].pkt_type = RAL_PKT_TYPE_GFSK;
 726:radio_planner/src/radio_planner.c ****         status                        = RP_HOOK_STATUS_OK;
 727:radio_planner/src/radio_planner.c **** 
 728:radio_planner/src/radio_planner.c ****         ral_get_gfsk_pkt_status( rp->ral, &rp->radio_params[id].rx.gfsk_pkt_status );
 729:radio_planner/src/radio_planner.c ****     }
 730:radio_planner/src/radio_planner.c ****     else
 731:radio_planner/src/radio_planner.c ****     {
 732:radio_planner/src/radio_planner.c ****         status = RP_HOOK_STATUS_ID_ERROR;
 733:radio_planner/src/radio_planner.c ****     }
 734:radio_planner/src/radio_planner.c **** 
 735:radio_planner/src/radio_planner.c ****     return status;
 736:radio_planner/src/radio_planner.c **** }
 737:radio_planner/src/radio_planner.c **** 
 738:radio_planner/src/radio_planner.c **** static void rp_set_alarm( radio_planner_t* rp, const uint32_t alarm_in_ms )
 739:radio_planner/src/radio_planner.c **** {
 740:radio_planner/src/radio_planner.c ****     rp_bsp_timer_stop( );
 741:radio_planner/src/radio_planner.c ****     // test could be managed inside the bsp
 742:radio_planner/src/radio_planner.c ****     rp_bsp_timer_start( rp, ( alarm_in_ms > 0xFFFF ) ? 0xFFFF : alarm_in_ms, rp_timer_irq_callback 
 743:radio_planner/src/radio_planner.c **** }
 744:radio_planner/src/radio_planner.c **** 
 745:radio_planner/src/radio_planner.c **** static void rp_timer_irq( radio_planner_t* rp )
 746:radio_planner/src/radio_planner.c **** {
 747:radio_planner/src/radio_planner.c ****     rp->timer_state = RP_TIMER_STATE_IDLE;
 748:radio_planner/src/radio_planner.c ****     rp_task_arbiter( rp, __func__ );
 749:radio_planner/src/radio_planner.c **** }
 750:radio_planner/src/radio_planner.c **** 
 751:radio_planner/src/radio_planner.c **** static void rp_radio_irq( radio_planner_t* rp )
 752:radio_planner/src/radio_planner.c **** {
 753:radio_planner/src/radio_planner.c ****     if( rp->semaphore_abort_radio == 1 )
 754:radio_planner/src/radio_planner.c ****     {
 755:radio_planner/src/radio_planner.c ****         rp->semaphore_abort_radio = 0;
 756:radio_planner/src/radio_planner.c ****         BSP_DBG_TRACE_PRINTF_RP( " RP: INFO - semaphore_abort_radio clear\n" );
 757:radio_planner/src/radio_planner.c ****     }
 758:radio_planner/src/radio_planner.c ****     else
 759:radio_planner/src/radio_planner.c ****     {
 760:radio_planner/src/radio_planner.c ****         rp->semaphore_radio = 1;
 761:radio_planner/src/radio_planner.c **** 
 762:radio_planner/src/radio_planner.c ****         uint32_t now = rp_bsp_timestamp_get( );
 763:radio_planner/src/radio_planner.c **** 
 764:radio_planner/src/radio_planner.c ****         rp->irq_timestamp_ms[rp->radio_task_id] = now;
 765:radio_planner/src/radio_planner.c ****         BSP_DBG_TRACE_PRINTF_RP( " RP: INFO - Radio IRQ received for hook #%u\n", rp->radio_task_id
 766:radio_planner/src/radio_planner.c **** 
 767:radio_planner/src/radio_planner.c ****         rp_irq_get_status( rp, rp->radio_task_id );
 768:radio_planner/src/radio_planner.c **** 
 769:radio_planner/src/radio_planner.c ****         rp_consumption_statistics_updated( rp, rp->radio_task_id, now );
 770:radio_planner/src/radio_planner.c **** 
 771:radio_planner/src/radio_planner.c ****         // Have to call rp_task_free before rp_hook_callback because the callback can enqueued a ta
 772:radio_planner/src/radio_planner.c ****         // arbiter
 773:radio_planner/src/radio_planner.c ****         rp_task_free( rp, &rp->tasks[rp->radio_task_id] );
 774:radio_planner/src/radio_planner.c ****         ral_set_sleep( rp->ral );
ARM GAS  /var/folders/bq/yv49bw8j2kd6w3hsq868qv180000gn/T//ccsEouTz.s 			page 15


 775:radio_planner/src/radio_planner.c ****         rp_hook_callback( rp, rp->radio_task_id );
 776:radio_planner/src/radio_planner.c **** 
 777:radio_planner/src/radio_planner.c ****         rp_task_call_aborted( rp );
 778:radio_planner/src/radio_planner.c **** 
 779:radio_planner/src/radio_planner.c ****         rp->semaphore_radio = 0;
 780:radio_planner/src/radio_planner.c **** 
 781:radio_planner/src/radio_planner.c ****         rp_task_arbiter( rp, __func__ );
 782:radio_planner/src/radio_planner.c ****     }
 783:radio_planner/src/radio_planner.c **** 
 784:radio_planner/src/radio_planner.c ****     // Shut Down the TCXO
 785:radio_planner/src/radio_planner.c ****     ral_set_tcxo_off( rp->ral );
 786:radio_planner/src/radio_planner.c **** }
 787:radio_planner/src/radio_planner.c **** 
 788:radio_planner/src/radio_planner.c **** static void rp_task_call_aborted( radio_planner_t* rp )
 789:radio_planner/src/radio_planner.c **** {
 790:radio_planner/src/radio_planner.c ****     for( int32_t i = 0; i < RP_NB_HOOKS; i++ )
 791:radio_planner/src/radio_planner.c ****     {
 792:radio_planner/src/radio_planner.c ****         if( rp->tasks[i].state == RP_TASK_STATE_ABORTED )
 793:radio_planner/src/radio_planner.c ****         {
 794:radio_planner/src/radio_planner.c ****             BSP_DBG_TRACE_PRINTF_RP( " RP: INFO - Aborted hook #%ld callback\n", i );
 795:radio_planner/src/radio_planner.c ****             rp->stats.task_hook_aborted_nb[i]++;
 796:radio_planner/src/radio_planner.c ****             rp_task_free( rp, &rp->tasks[i] );
 797:radio_planner/src/radio_planner.c ****             rp->status[i] = RP_STATUS_TASK_ABORTED;
 798:radio_planner/src/radio_planner.c ****             rp_hook_callback( rp, i );
 799:radio_planner/src/radio_planner.c ****         }
 800:radio_planner/src/radio_planner.c ****     }
 801:radio_planner/src/radio_planner.c **** }
 802:radio_planner/src/radio_planner.c **** 
 803:radio_planner/src/radio_planner.c **** //
 804:radio_planner/src/radio_planner.c **** // Radio planner callbacks
 805:radio_planner/src/radio_planner.c **** //
 806:radio_planner/src/radio_planner.c **** 
 807:radio_planner/src/radio_planner.c **** void rp_radio_irq_callback( void* obj )
 808:radio_planner/src/radio_planner.c **** {
 809:radio_planner/src/radio_planner.c ****     rp_radio_irq( ( radio_planner_t* ) obj );
 810:radio_planner/src/radio_planner.c **** }
 811:radio_planner/src/radio_planner.c **** 
 812:radio_planner/src/radio_planner.c **** static void rp_timer_irq_callback( void* obj )
 813:radio_planner/src/radio_planner.c **** {
 814:radio_planner/src/radio_planner.c ****     rp_timer_irq( ( radio_planner_t* ) obj );
 815:radio_planner/src/radio_planner.c **** }
 816:radio_planner/src/radio_planner.c **** 
 817:radio_planner/src/radio_planner.c **** static void rp_hook_callback( radio_planner_t* rp, uint8_t id )
 818:radio_planner/src/radio_planner.c **** {
 819:radio_planner/src/radio_planner.c ****     rp->hook_callbacks[id]( rp->hooks[id] );
 820:radio_planner/src/radio_planner.c **** }
 821:radio_planner/src/radio_planner.c **** 
 822:radio_planner/src/radio_planner.c **** //
 823:radio_planner/src/radio_planner.c **** // Private debug utilities implementation
 824:radio_planner/src/radio_planner.c **** //
 825:radio_planner/src/radio_planner.c **** 
 826:radio_planner/src/radio_planner.c **** static void rp_task_print( const radio_planner_t* rp, const rp_task_t* task )
 827:radio_planner/src/radio_planner.c **** {
 828:radio_planner/src/radio_planner.c ****     BSP_DBG_TRACE_PRINTF_RP(
 829:radio_planner/src/radio_planner.c ****         "\nRP- INFO - Radio task #%u  running - Timer task #%u running  - "
 830:radio_planner/src/radio_planner.c ****         "Hook ID #%u -",
 831:radio_planner/src/radio_planner.c ****         rp->radio_task_id, rp->timer_task_id, task->hook_id );
ARM GAS  /var/folders/bq/yv49bw8j2kd6w3hsq868qv180000gn/T//ccsEouTz.s 			page 16


 832:radio_planner/src/radio_planner.c ****     switch( task->type )
 833:radio_planner/src/radio_planner.c ****     {
 834:radio_planner/src/radio_planner.c ****     case RP_TASK_TYPE_RX_LORA:
 835:radio_planner/src/radio_planner.c ****         BSP_DBG_TRACE_PRINTF_RP( " TASK_RX_LORA " );
 836:radio_planner/src/radio_planner.c ****         break;
 837:radio_planner/src/radio_planner.c ****     case RP_TASK_TYPE_RX_FSK:
 838:radio_planner/src/radio_planner.c ****         BSP_DBG_TRACE_PRINTF_RP( " TASK_RX_FSK " );
 839:radio_planner/src/radio_planner.c ****         break;
 840:radio_planner/src/radio_planner.c ****     case RP_TASK_TYPE_TX_LORA:
 841:radio_planner/src/radio_planner.c ****         BSP_DBG_TRACE_PRINTF_RP( " TASK_TX_LORA " );
 842:radio_planner/src/radio_planner.c ****         break;
 843:radio_planner/src/radio_planner.c ****     case RP_TASK_TYPE_TX_FSK:
 844:radio_planner/src/radio_planner.c ****         BSP_DBG_TRACE_PRINTF_RP( " TASK_TX_FSK " );
 845:radio_planner/src/radio_planner.c ****         break;
 846:radio_planner/src/radio_planner.c ****     case RP_TASK_TYPE_CAD:
 847:radio_planner/src/radio_planner.c ****         BSP_DBG_TRACE_PRINTF_RP( " TASK_CAD " );
 848:radio_planner/src/radio_planner.c ****         break;
 849:radio_planner/src/radio_planner.c ****     case RP_TASK_TYPE_NONE:
 850:radio_planner/src/radio_planner.c ****         BSP_DBG_TRACE_PRINTF_RP( " TASK_EMPTY " );
 851:radio_planner/src/radio_planner.c ****         break;
 852:radio_planner/src/radio_planner.c ****     default:
 853:radio_planner/src/radio_planner.c ****         BSP_DBG_TRACE_PRINTF_RP( " TASK_ERROR " );
 854:radio_planner/src/radio_planner.c ****         break;
 855:radio_planner/src/radio_planner.c ****     };
 856:radio_planner/src/radio_planner.c ****     BSP_DBG_TRACE_PRINTF_RP( " - start time @%lu - priority #%u\n", task->start_time_ms, task->prio
 857:radio_planner/src/radio_planner.c **** }
 858:radio_planner/src/radio_planner.c **** 
 859:radio_planner/src/radio_planner.c **** static void rp_consumption_statistics_updated( radio_planner_t* rp, const uint8_t hook_id, const ui
 860:radio_planner/src/radio_planner.c **** {
  26              		.loc 1 860 1 view -0
  27              		.cfi_startproc
  28              		@ args = 0, pretend = 0, frame = 16
  29              		@ frame_needed = 0, uses_anonymous_args = 0
 861:radio_planner/src/radio_planner.c ****     uint32_t micro_ampere = 0;
  30              		.loc 1 861 5 view .LVU1
  31              		.loc 1 861 14 is_stmt 0 view .LVU2
  32 0000 0023     		movs	r3, #0
 860:radio_planner/src/radio_planner.c ****     uint32_t micro_ampere = 0;
  33              		.loc 1 860 1 view .LVU3
  34 0002 F0B5     		push	{r4, r5, r6, r7, lr}
  35              		.cfi_def_cfa_offset 20
  36              		.cfi_offset 4, -20
  37              		.cfi_offset 5, -16
  38              		.cfi_offset 6, -12
  39              		.cfi_offset 7, -8
  40              		.cfi_offset 14, -4
  41 0004 85B0     		sub	sp, sp, #20
  42              		.cfi_def_cfa_offset 40
  43              		.loc 1 861 14 view .LVU4
  44 0006 0393     		str	r3, [sp, #12]
 862:radio_planner/src/radio_planner.c **** 
 863:radio_planner/src/radio_planner.c ****     if( rp->tasks[hook_id].type == RP_TASK_TYPE_RX_LORA )
  45              		.loc 1 863 5 is_stmt 1 view .LVU5
  46              		.loc 1 863 27 is_stmt 0 view .LVU6
  47 0008 0B00     		movs	r3, r1
  48 000a 3133     		adds	r3, r3, #49
  49 000c 1B01     		lsls	r3, r3, #4
ARM GAS  /var/folders/bq/yv49bw8j2kd6w3hsq868qv180000gn/T//ccsEouTz.s 			page 17


  50 000e C318     		adds	r3, r0, r3
  51 0010 5B78     		ldrb	r3, [r3, #1]
 860:radio_planner/src/radio_planner.c ****     uint32_t micro_ampere = 0;
  52              		.loc 1 860 1 view .LVU7
  53 0012 0400     		movs	r4, r0
  54 0014 0D00     		movs	r5, r1
  55 0016 0192     		str	r2, [sp, #4]
  56              		.loc 1 863 7 view .LVU8
  57 0018 002B     		cmp	r3, #0
  58 001a 5CD1     		bne	.L2
 864:radio_planner/src/radio_planner.c ****     {
 865:radio_planner/src/radio_planner.c ****         ral_get_lora_rx_consumption_in_ua( rp->ral, &rp->radio_params[hook_id].rx.lora, &micro_ampe
  59              		.loc 1 865 9 is_stmt 1 view .LVU9
  60              		.loc 1 865 53 is_stmt 0 view .LVU10
  61 001c 6021     		movs	r1, #96
  62              	.LVL1:
  63              		.loc 1 865 9 view .LVU11
  64 001e A523     		movs	r3, #165
  65              		.loc 1 865 53 view .LVU12
  66 0020 6943     		muls	r1, r5
  67              		.loc 1 865 9 view .LVU13
  68 0022 DB00     		lsls	r3, r3, #3
  69              		.loc 1 865 53 view .LVU14
  70 0024 3C31     		adds	r1, r1, #60
  71 0026 4118     		adds	r1, r0, r1
  72              		.loc 1 865 9 view .LVU15
  73 0028 03AA     		add	r2, sp, #12
  74              	.LVL2:
  75              		.loc 1 865 9 view .LVU16
  76 002a C058     		ldr	r0, [r0, r3]
  77              	.LVL3:
  78              		.loc 1 865 9 view .LVU17
  79 002c FFF7FEFF 		bl	ral_get_lora_rx_consumption_in_ua
  80              	.LVL4:
  81              	.L3:
 866:radio_planner/src/radio_planner.c ****     }
 867:radio_planner/src/radio_planner.c ****     else if( rp->tasks[hook_id].type == RP_TASK_TYPE_TX_LORA )
 868:radio_planner/src/radio_planner.c ****     {
 869:radio_planner/src/radio_planner.c ****         ral_get_lora_tx_consumption_in_ua( rp->ral, &rp->radio_params[hook_id].tx.lora, &micro_ampe
 870:radio_planner/src/radio_planner.c ****     }
 871:radio_planner/src/radio_planner.c **** 
 872:radio_planner/src/radio_planner.c ****     rp_stats_update( &rp->stats, time, hook_id, micro_ampere );
  82              		.loc 1 872 5 is_stmt 1 view .LVU18
  83 0030 039B     		ldr	r3, [sp, #12]
  84 0032 0093     		str	r3, [sp]
  85              	.LVL5:
  86              	.LBB18:
  87              	.LBI18:
  88              		.file 2 "radio_planner/src/radio_planner_stats.h"
   1:radio_planner/src/radio_planner_stats.h **** /*!
   2:radio_planner/src/radio_planner_stats.h ****  * \file      radio_planner_stats.h
   3:radio_planner/src/radio_planner_stats.h ****  *
   4:radio_planner/src/radio_planner_stats.h ****  * \brief     Radio planner statistics
   5:radio_planner/src/radio_planner_stats.h ****  *
   6:radio_planner/src/radio_planner_stats.h ****  * Revised BSD License
   7:radio_planner/src/radio_planner_stats.h ****  * Copyright Semtech Corporation 2020. All rights reserved.
   8:radio_planner/src/radio_planner_stats.h ****  *
ARM GAS  /var/folders/bq/yv49bw8j2kd6w3hsq868qv180000gn/T//ccsEouTz.s 			page 18


   9:radio_planner/src/radio_planner_stats.h ****  * Redistribution and use in source and binary forms, with or without
  10:radio_planner/src/radio_planner_stats.h ****  * modification, are permitted provided that the following conditions are met:
  11:radio_planner/src/radio_planner_stats.h ****  *     * Redistributions of source code must retain the above copyright
  12:radio_planner/src/radio_planner_stats.h ****  *       notice, this list of conditions and the following disclaimer.
  13:radio_planner/src/radio_planner_stats.h ****  *     * Redistributions in binary form must reproduce the above copyright
  14:radio_planner/src/radio_planner_stats.h ****  *       notice, this list of conditions and the following disclaimer in the
  15:radio_planner/src/radio_planner_stats.h ****  *       documentation and/or other materials provided with the distribution.
  16:radio_planner/src/radio_planner_stats.h ****  *     * Neither the name of the Semtech corporation nor the
  17:radio_planner/src/radio_planner_stats.h ****  *       names of its contributors may be used to endorse or promote products
  18:radio_planner/src/radio_planner_stats.h ****  *       derived from this software without specific prior written permission.
  19:radio_planner/src/radio_planner_stats.h ****  *
  20:radio_planner/src/radio_planner_stats.h ****  * THIS SOFTWARE IS PROVIDED BY THE COPYRIGHT HOLDERS AND CONTRIBUTORS "AS IS"
  21:radio_planner/src/radio_planner_stats.h ****  * AND ANY EXPRESS OR IMPLIED WARRANTIES, INCLUDING, BUT NOT LIMITED TO, THE
  22:radio_planner/src/radio_planner_stats.h ****  * IMPLIED WARRANTIES OF MERCHANTABILITY AND FITNESS FOR A PARTICULAR PURPOSE
  23:radio_planner/src/radio_planner_stats.h ****  * ARE DISCLAIMED. IN NO EVENT SHALL SEMTECH CORPORATION BE LIABLE FOR ANY DIRECT,
  24:radio_planner/src/radio_planner_stats.h ****  * INDIRECT, INCIDENTAL, SPECIAL, EXEMPLARY, OR CONSEQUENTIAL DAMAGES
  25:radio_planner/src/radio_planner_stats.h ****  * (INCLUDING, BUT NOT LIMITED TO, PROCUREMENT OF SUBSTITUTE GOODS OR SERVICES;
  26:radio_planner/src/radio_planner_stats.h ****  * LOSS OF USE, DATA, OR PROFITS; OR BUSINESS INTERRUPTION) HOWEVER CAUSED AND
  27:radio_planner/src/radio_planner_stats.h ****  * ON ANY THEORY OF LIABILITY, WHETHER IN CONTRACT, STRICT LIABILITY, OR TORT
  28:radio_planner/src/radio_planner_stats.h ****  * (INCLUDING NEGLIGENCE OR OTHERWISE) ARISING IN ANY WAY OUT OF THE USE OF THIS
  29:radio_planner/src/radio_planner_stats.h ****  * SOFTWARE, EVEN IF ADVISED OF THE POSSIBILITY OF SUCH DAMAGE.
  30:radio_planner/src/radio_planner_stats.h ****  */
  31:radio_planner/src/radio_planner_stats.h **** #ifndef __RADIO_PLANNER_STASTS_H__
  32:radio_planner/src/radio_planner_stats.h **** #define __RADIO_PLANNER_STASTS_H__
  33:radio_planner/src/radio_planner_stats.h **** 
  34:radio_planner/src/radio_planner_stats.h **** #ifdef __cplusplus
  35:radio_planner/src/radio_planner_stats.h **** extern "C" {
  36:radio_planner/src/radio_planner_stats.h **** #endif
  37:radio_planner/src/radio_planner_stats.h **** 
  38:radio_planner/src/radio_planner_stats.h **** /*
  39:radio_planner/src/radio_planner_stats.h ****  * -----------------------------------------------------------------------------
  40:radio_planner/src/radio_planner_stats.h ****  * --- DEPENDENCIES ------------------------------------------------------------
  41:radio_planner/src/radio_planner_stats.h ****  */
  42:radio_planner/src/radio_planner_stats.h **** 
  43:radio_planner/src/radio_planner_stats.h **** #include <stdint.h>   // C99 types
  44:radio_planner/src/radio_planner_stats.h **** #include <stdbool.h>  // bool type
  45:radio_planner/src/radio_planner_stats.h **** 
  46:radio_planner/src/radio_planner_stats.h **** #include "radio_planner_types.h"
  47:radio_planner/src/radio_planner_stats.h **** 
  48:radio_planner/src/radio_planner_stats.h **** /*
  49:radio_planner/src/radio_planner_stats.h ****  * -----------------------------------------------------------------------------
  50:radio_planner/src/radio_planner_stats.h ****  * --- PUBLIC MACROS -----------------------------------------------------------
  51:radio_planner/src/radio_planner_stats.h ****  */
  52:radio_planner/src/radio_planner_stats.h **** 
  53:radio_planner/src/radio_planner_stats.h **** /*
  54:radio_planner/src/radio_planner_stats.h ****  * -----------------------------------------------------------------------------
  55:radio_planner/src/radio_planner_stats.h ****  * --- PUBLIC CONSTANTS --------------------------------------------------------
  56:radio_planner/src/radio_planner_stats.h ****  */
  57:radio_planner/src/radio_planner_stats.h **** 
  58:radio_planner/src/radio_planner_stats.h **** /*
  59:radio_planner/src/radio_planner_stats.h ****  * -----------------------------------------------------------------------------
  60:radio_planner/src/radio_planner_stats.h ****  * --- PUBLIC TYPES ------------------------------------------------------------
  61:radio_planner/src/radio_planner_stats.h ****  */
  62:radio_planner/src/radio_planner_stats.h **** 
  63:radio_planner/src/radio_planner_stats.h **** /*!
  64:radio_planner/src/radio_planner_stats.h ****  *
  65:radio_planner/src/radio_planner_stats.h ****  */
ARM GAS  /var/folders/bq/yv49bw8j2kd6w3hsq868qv180000gn/T//ccsEouTz.s 			page 19


  66:radio_planner/src/radio_planner_stats.h **** typedef struct rp_stats_s
  67:radio_planner/src/radio_planner_stats.h **** {
  68:radio_planner/src/radio_planner_stats.h ****     uint32_t tx_last_toa_ms[RP_NB_HOOKS];
  69:radio_planner/src/radio_planner_stats.h ****     uint32_t tx_consumption_ms[RP_NB_HOOKS];
  70:radio_planner/src/radio_planner_stats.h ****     uint32_t rx_consumption_ms[RP_NB_HOOKS];
  71:radio_planner/src/radio_planner_stats.h ****     uint32_t tx_consumption_ma[RP_NB_HOOKS];
  72:radio_planner/src/radio_planner_stats.h ****     uint32_t rx_consumption_ma[RP_NB_HOOKS];
  73:radio_planner/src/radio_planner_stats.h ****     uint32_t tx_total_consumption_ms;
  74:radio_planner/src/radio_planner_stats.h ****     uint32_t rx_total_consumption_ms;
  75:radio_planner/src/radio_planner_stats.h ****     uint32_t tx_total_consumption_ma;
  76:radio_planner/src/radio_planner_stats.h ****     uint32_t rx_total_consumption_ma;
  77:radio_planner/src/radio_planner_stats.h ****     uint32_t tx_timestamp;
  78:radio_planner/src/radio_planner_stats.h ****     uint32_t rx_timestamp;
  79:radio_planner/src/radio_planner_stats.h ****     uint32_t task_hook_aborted_nb[RP_NB_HOOKS];
  80:radio_planner/src/radio_planner_stats.h ****     uint32_t rp_error;
  81:radio_planner/src/radio_planner_stats.h **** } rp_stats_t;
  82:radio_planner/src/radio_planner_stats.h **** 
  83:radio_planner/src/radio_planner_stats.h **** /*
  84:radio_planner/src/radio_planner_stats.h ****  * -----------------------------------------------------------------------------
  85:radio_planner/src/radio_planner_stats.h ****  * --- PUBLIC FUNCTIONS PROTOTYPES ---------------------------------------------
  86:radio_planner/src/radio_planner_stats.h ****  */
  87:radio_planner/src/radio_planner_stats.h **** 
  88:radio_planner/src/radio_planner_stats.h **** /*!
  89:radio_planner/src/radio_planner_stats.h ****  *
  90:radio_planner/src/radio_planner_stats.h ****  */
  91:radio_planner/src/radio_planner_stats.h **** static inline void rp_stats_init( rp_stats_t* rp_stats )
  92:radio_planner/src/radio_planner_stats.h **** {
  93:radio_planner/src/radio_planner_stats.h ****     for( int32_t i = 0; i < RP_NB_HOOKS; i++ )
  94:radio_planner/src/radio_planner_stats.h ****     {
  95:radio_planner/src/radio_planner_stats.h ****         rp_stats->tx_last_toa_ms[i]       = 0;
  96:radio_planner/src/radio_planner_stats.h ****         rp_stats->tx_consumption_ms[i]    = 0;
  97:radio_planner/src/radio_planner_stats.h ****         rp_stats->rx_consumption_ms[i]    = 0;
  98:radio_planner/src/radio_planner_stats.h ****         rp_stats->tx_consumption_ma[i]    = 0;
  99:radio_planner/src/radio_planner_stats.h ****         rp_stats->rx_consumption_ma[i]    = 0;
 100:radio_planner/src/radio_planner_stats.h ****         rp_stats->task_hook_aborted_nb[i] = 0;
 101:radio_planner/src/radio_planner_stats.h ****     }
 102:radio_planner/src/radio_planner_stats.h ****     rp_stats->tx_total_consumption_ms = 0;
 103:radio_planner/src/radio_planner_stats.h ****     rp_stats->rx_total_consumption_ms = 0;
 104:radio_planner/src/radio_planner_stats.h ****     rp_stats->tx_total_consumption_ma = 0;
 105:radio_planner/src/radio_planner_stats.h ****     rp_stats->rx_total_consumption_ma = 0;
 106:radio_planner/src/radio_planner_stats.h ****     rp_stats->tx_timestamp            = 0;
 107:radio_planner/src/radio_planner_stats.h ****     rp_stats->rx_timestamp            = 0;
 108:radio_planner/src/radio_planner_stats.h ****     rp_stats->rp_error                = 0;
 109:radio_planner/src/radio_planner_stats.h **** }
 110:radio_planner/src/radio_planner_stats.h **** 
 111:radio_planner/src/radio_planner_stats.h **** /*!
 112:radio_planner/src/radio_planner_stats.h ****  *
 113:radio_planner/src/radio_planner_stats.h ****  */
 114:radio_planner/src/radio_planner_stats.h **** static inline void rp_stats_set_tx_timestamp( rp_stats_t* rp_stats, uint32_t timestamp )
 115:radio_planner/src/radio_planner_stats.h **** {
 116:radio_planner/src/radio_planner_stats.h ****     rp_stats->tx_timestamp = timestamp;
 117:radio_planner/src/radio_planner_stats.h **** }
 118:radio_planner/src/radio_planner_stats.h **** 
 119:radio_planner/src/radio_planner_stats.h **** /*!
 120:radio_planner/src/radio_planner_stats.h ****  *
 121:radio_planner/src/radio_planner_stats.h ****  */
 122:radio_planner/src/radio_planner_stats.h **** static inline void rp_stats_set_rx_timestamp( rp_stats_t* rp_stats, uint32_t timestamp )
ARM GAS  /var/folders/bq/yv49bw8j2kd6w3hsq868qv180000gn/T//ccsEouTz.s 			page 20


 123:radio_planner/src/radio_planner_stats.h **** {
 124:radio_planner/src/radio_planner_stats.h ****     rp_stats->rx_timestamp = timestamp;
 125:radio_planner/src/radio_planner_stats.h **** }
 126:radio_planner/src/radio_planner_stats.h **** 
 127:radio_planner/src/radio_planner_stats.h **** /*!
 128:radio_planner/src/radio_planner_stats.h ****  *
 129:radio_planner/src/radio_planner_stats.h ****  */
 130:radio_planner/src/radio_planner_stats.h **** static inline void rp_stats_update( rp_stats_t* rp_stats, uint32_t timestamp, uint8_t hook_id, uint
  89              		.loc 2 130 20 view .LVU19
  90              	.LBB19:
 131:radio_planner/src/radio_planner_stats.h **** {
 132:radio_planner/src/radio_planner_stats.h ****     uint32_t computed_time        = 0;
  91              		.loc 2 132 5 view .LVU20
 133:radio_planner/src/radio_planner_stats.h ****     uint32_t computed_consumption = 0;
  92              		.loc 2 133 5 view .LVU21
 134:radio_planner/src/radio_planner_stats.h ****     if( rp_stats->tx_timestamp != 0 )
  93              		.loc 2 134 5 view .LVU22
  94              		.loc 2 134 17 is_stmt 0 view .LVU23
  95 0034 9823     		movs	r3, #152
  96              	.LVL6:
  97              		.loc 2 134 17 view .LVU24
  98 0036 DB00     		lsls	r3, r3, #3
  99 0038 E718     		adds	r7, r4, r3
 100 003a 3868     		ldr	r0, [r7]
 101              		.loc 2 134 7 view .LVU25
 102 003c 0028     		cmp	r0, #0
 103 003e 22D0     		beq	.L4
 135:radio_planner/src/radio_planner_stats.h ****     {
 136:radio_planner/src/radio_planner_stats.h ****         // wrapping is impossible with this time base
 137:radio_planner/src/radio_planner_stats.h ****         computed_time                     = timestamp - rp_stats->tx_timestamp;
 104              		.loc 2 137 9 is_stmt 1 view .LVU26
 105              		.loc 2 137 43 is_stmt 0 view .LVU27
 106 0040 019B     		ldr	r3, [sp, #4]
 138:radio_planner/src/radio_planner_stats.h ****         rp_stats->tx_last_toa_ms[hook_id] = computed_time;
 139:radio_planner/src/radio_planner_stats.h ****         rp_stats->tx_consumption_ms[hook_id] += computed_time;
 107              		.loc 2 139 46 view .LVU28
 108 0042 8622     		movs	r2, #134
 137:radio_planner/src/radio_planner_stats.h ****         rp_stats->tx_last_toa_ms[hook_id] = computed_time;
 109              		.loc 2 137 43 view .LVU29
 110 0044 181A     		subs	r0, r3, r0
 111              	.LVL7:
 138:radio_planner/src/radio_planner_stats.h ****         rp_stats->tx_last_toa_ms[hook_id] = computed_time;
 112              		.loc 2 138 9 is_stmt 1 view .LVU30
 138:radio_planner/src/radio_planner_stats.h ****         rp_stats->tx_last_toa_ms[hook_id] = computed_time;
 113              		.loc 2 138 43 is_stmt 0 view .LVU31
 114 0046 8223     		movs	r3, #130
 115 0048 AE00     		lsls	r6, r5, #2
 116 004a A619     		adds	r6, r4, r6
 117 004c DB00     		lsls	r3, r3, #3
 118 004e F050     		str	r0, [r6, r3]
 119              		.loc 2 139 9 is_stmt 1 view .LVU32
 120              		.loc 2 139 46 is_stmt 0 view .LVU33
 121 0050 D200     		lsls	r2, r2, #3
 122 0052 B358     		ldr	r3, [r6, r2]
 140:radio_planner/src/radio_planner_stats.h ****         rp_stats->tx_total_consumption_ms += computed_time;
 141:radio_planner/src/radio_planner_stats.h **** 
 142:radio_planner/src/radio_planner_stats.h ****         computed_consumption = ( computed_time * micro_ampere );
ARM GAS  /var/folders/bq/yv49bw8j2kd6w3hsq868qv180000gn/T//ccsEouTz.s 			page 21


 143:radio_planner/src/radio_planner_stats.h ****         rp_stats->tx_consumption_ma[hook_id] += ( computed_consumption / 1000 );
 123              		.loc 2 143 72 view .LVU34
 124 0054 FA21     		movs	r1, #250
 139:radio_planner/src/radio_planner_stats.h ****         rp_stats->tx_total_consumption_ms += computed_time;
 125              		.loc 2 139 46 view .LVU35
 126 0056 1B18     		adds	r3, r3, r0
 127 0058 B350     		str	r3, [r6, r2]
 140:radio_planner/src/radio_planner_stats.h ****         rp_stats->tx_total_consumption_ms += computed_time;
 128              		.loc 2 140 9 is_stmt 1 view .LVU36
 140:radio_planner/src/radio_planner_stats.h ****         rp_stats->tx_total_consumption_ms += computed_time;
 129              		.loc 2 140 43 is_stmt 0 view .LVU37
 130 005a 9623     		movs	r3, #150
 131 005c DB00     		lsls	r3, r3, #3
 132 005e E218     		adds	r2, r4, r3
 133 0060 1368     		ldr	r3, [r2]
 134              		.loc 2 143 72 view .LVU38
 135 0062 8900     		lsls	r1, r1, #2
 140:radio_planner/src/radio_planner_stats.h ****         rp_stats->tx_total_consumption_ms += computed_time;
 136              		.loc 2 140 43 view .LVU39
 137 0064 1B18     		adds	r3, r3, r0
 138 0066 1360     		str	r3, [r2]
 142:radio_planner/src/radio_planner_stats.h ****         rp_stats->tx_consumption_ma[hook_id] += ( computed_consumption / 1000 );
 139              		.loc 2 142 9 is_stmt 1 view .LVU40
 140              	.LVL8:
 141              		.loc 2 143 9 view .LVU41
 142:radio_planner/src/radio_planner_stats.h ****         rp_stats->tx_consumption_ma[hook_id] += ( computed_consumption / 1000 );
 142              		.loc 2 142 30 is_stmt 0 view .LVU42
 143 0068 009B     		ldr	r3, [sp]
 144 006a 5843     		muls	r0, r3
 145              	.LVL9:
 146              		.loc 2 143 72 view .LVU43
 147 006c FFF7FEFF 		bl	__aeabi_uidiv
 148              	.LVL10:
 149              		.loc 2 143 46 view .LVU44
 150 0070 8E22     		movs	r2, #142
 151 0072 D200     		lsls	r2, r2, #3
 152 0074 B358     		ldr	r3, [r6, r2]
 153 0076 1B18     		adds	r3, r3, r0
 154 0078 B350     		str	r3, [r6, r2]
 144:radio_planner/src/radio_planner_stats.h ****         rp_stats->tx_total_consumption_ma += ( computed_consumption / 1000 );
 155              		.loc 2 144 9 is_stmt 1 view .LVU45
 156              		.loc 2 144 43 is_stmt 0 view .LVU46
 157 007a 9723     		movs	r3, #151
 158 007c DB00     		lsls	r3, r3, #3
 159 007e E318     		adds	r3, r4, r3
 160 0080 1A68     		ldr	r2, [r3]
 161 0082 1018     		adds	r0, r2, r0
 162 0084 1860     		str	r0, [r3]
 163              	.L4:
 145:radio_planner/src/radio_planner_stats.h ****     }
 146:radio_planner/src/radio_planner_stats.h ****     if( rp_stats->rx_timestamp != 0 )
 164              		.loc 2 146 5 is_stmt 1 view .LVU47
 165              		.loc 2 146 17 is_stmt 0 view .LVU48
 166 0086 1A4B     		ldr	r3, .L12
 167 0088 E618     		adds	r6, r4, r3
 168 008a 3068     		ldr	r0, [r6]
 169              		.loc 2 146 7 view .LVU49
ARM GAS  /var/folders/bq/yv49bw8j2kd6w3hsq868qv180000gn/T//ccsEouTz.s 			page 22


 170 008c 0028     		cmp	r0, #0
 171 008e 1DD0     		beq	.L5
 147:radio_planner/src/radio_planner_stats.h ****     {
 148:radio_planner/src/radio_planner_stats.h ****         computed_time = timestamp - rp_stats->rx_timestamp;
 172              		.loc 2 148 9 is_stmt 1 view .LVU50
 149:radio_planner/src/radio_planner_stats.h ****         rp_stats->rx_consumption_ms[hook_id] += computed_time;
 173              		.loc 2 149 46 is_stmt 0 view .LVU51
 174 0090 8A22     		movs	r2, #138
 150:radio_planner/src/radio_planner_stats.h ****         rp_stats->rx_total_consumption_ms += computed_time;
 151:radio_planner/src/radio_planner_stats.h **** 
 152:radio_planner/src/radio_planner_stats.h ****         computed_consumption = ( computed_time * micro_ampere );
 153:radio_planner/src/radio_planner_stats.h ****         rp_stats->rx_consumption_ma[hook_id] += ( computed_consumption / 1000 );
 175              		.loc 2 153 72 view .LVU52
 176 0092 FA21     		movs	r1, #250
 148:radio_planner/src/radio_planner_stats.h ****         rp_stats->rx_consumption_ms[hook_id] += computed_time;
 177              		.loc 2 148 23 view .LVU53
 178 0094 019B     		ldr	r3, [sp, #4]
 179 0096 AD00     		lsls	r5, r5, #2
 180              	.LVL11:
 148:radio_planner/src/radio_planner_stats.h ****         rp_stats->rx_consumption_ms[hook_id] += computed_time;
 181              		.loc 2 148 23 view .LVU54
 182 0098 6519     		adds	r5, r4, r5
 149:radio_planner/src/radio_planner_stats.h ****         rp_stats->rx_consumption_ms[hook_id] += computed_time;
 183              		.loc 2 149 46 view .LVU55
 184 009a D200     		lsls	r2, r2, #3
 148:radio_planner/src/radio_planner_stats.h ****         rp_stats->rx_consumption_ms[hook_id] += computed_time;
 185              		.loc 2 148 23 view .LVU56
 186 009c 181A     		subs	r0, r3, r0
 187              	.LVL12:
 149:radio_planner/src/radio_planner_stats.h ****         rp_stats->rx_consumption_ms[hook_id] += computed_time;
 188              		.loc 2 149 9 is_stmt 1 view .LVU57
 149:radio_planner/src/radio_planner_stats.h ****         rp_stats->rx_consumption_ms[hook_id] += computed_time;
 189              		.loc 2 149 46 is_stmt 0 view .LVU58
 190 009e AB58     		ldr	r3, [r5, r2]
 191              		.loc 2 153 72 view .LVU59
 192 00a0 8900     		lsls	r1, r1, #2
 149:radio_planner/src/radio_planner_stats.h ****         rp_stats->rx_consumption_ms[hook_id] += computed_time;
 193              		.loc 2 149 46 view .LVU60
 194 00a2 1B18     		adds	r3, r3, r0
 195 00a4 AB50     		str	r3, [r5, r2]
 150:radio_planner/src/radio_planner_stats.h ****         rp_stats->rx_total_consumption_ms += computed_time;
 196              		.loc 2 150 9 is_stmt 1 view .LVU61
 150:radio_planner/src/radio_planner_stats.h ****         rp_stats->rx_total_consumption_ms += computed_time;
 197              		.loc 2 150 43 is_stmt 0 view .LVU62
 198 00a6 134B     		ldr	r3, .L12+4
 199 00a8 E218     		adds	r2, r4, r3
 200 00aa 1368     		ldr	r3, [r2]
 201 00ac 1B18     		adds	r3, r3, r0
 202 00ae 1360     		str	r3, [r2]
 152:radio_planner/src/radio_planner_stats.h ****         rp_stats->rx_consumption_ma[hook_id] += ( computed_consumption / 1000 );
 203              		.loc 2 152 9 is_stmt 1 view .LVU63
 204              	.LVL13:
 205              		.loc 2 153 9 view .LVU64
 152:radio_planner/src/radio_planner_stats.h ****         rp_stats->rx_consumption_ma[hook_id] += ( computed_consumption / 1000 );
 206              		.loc 2 152 30 is_stmt 0 view .LVU65
 207 00b0 009B     		ldr	r3, [sp]
 208 00b2 5843     		muls	r0, r3
ARM GAS  /var/folders/bq/yv49bw8j2kd6w3hsq868qv180000gn/T//ccsEouTz.s 			page 23


 209              	.LVL14:
 210              		.loc 2 153 72 view .LVU66
 211 00b4 FFF7FEFF 		bl	__aeabi_uidiv
 212              	.LVL15:
 213              		.loc 2 153 46 view .LVU67
 214 00b8 9222     		movs	r2, #146
 215 00ba D200     		lsls	r2, r2, #3
 216 00bc AB58     		ldr	r3, [r5, r2]
 217 00be 1B18     		adds	r3, r3, r0
 218 00c0 AB50     		str	r3, [r5, r2]
 154:radio_planner/src/radio_planner_stats.h ****         rp_stats->rx_total_consumption_ma += ( computed_consumption / 1000 );
 219              		.loc 2 154 9 is_stmt 1 view .LVU68
 220              		.loc 2 154 43 is_stmt 0 view .LVU69
 221 00c2 0D4B     		ldr	r3, .L12+8
 222 00c4 E418     		adds	r4, r4, r3
 223              	.LVL16:
 224              		.loc 2 154 43 view .LVU70
 225 00c6 2368     		ldr	r3, [r4]
 226 00c8 1818     		adds	r0, r3, r0
 227 00ca 2060     		str	r0, [r4]
 228              	.L5:
 155:radio_planner/src/radio_planner_stats.h ****     }
 156:radio_planner/src/radio_planner_stats.h ****     rp_stats->tx_timestamp = 0;
 229              		.loc 2 156 5 is_stmt 1 view .LVU71
 230              		.loc 2 156 28 is_stmt 0 view .LVU72
 231 00cc 0023     		movs	r3, #0
 232 00ce 3B60     		str	r3, [r7]
 157:radio_planner/src/radio_planner_stats.h ****     rp_stats->rx_timestamp = 0;
 233              		.loc 2 157 5 is_stmt 1 view .LVU73
 234              		.loc 2 157 28 is_stmt 0 view .LVU74
 235 00d0 3360     		str	r3, [r6]
 236              	.LVL17:
 237              		.loc 2 157 28 view .LVU75
 238              	.LBE19:
 239              	.LBE18:
 873:radio_planner/src/radio_planner.c **** }
 240              		.loc 1 873 1 view .LVU76
 241 00d2 05B0     		add	sp, sp, #20
 242              		@ sp needed
 243              	.LVL18:
 244              		.loc 1 873 1 view .LVU77
 245 00d4 F0BD     		pop	{r4, r5, r6, r7, pc}
 246              	.LVL19:
 247              	.L2:
 867:radio_planner/src/radio_planner.c ****     {
 248              		.loc 1 867 10 is_stmt 1 view .LVU78
 867:radio_planner/src/radio_planner.c ****     {
 249              		.loc 1 867 12 is_stmt 0 view .LVU79
 250 00d6 022B     		cmp	r3, #2
 251 00d8 AAD1     		bne	.L3
 869:radio_planner/src/radio_planner.c ****     }
 252              		.loc 1 869 9 is_stmt 1 view .LVU80
 869:radio_planner/src/radio_planner.c ****     }
 253              		.loc 1 869 53 is_stmt 0 view .LVU81
 254 00da 6021     		movs	r1, #96
 255              	.LVL20:
 869:radio_planner/src/radio_planner.c ****     }
ARM GAS  /var/folders/bq/yv49bw8j2kd6w3hsq868qv180000gn/T//ccsEouTz.s 			page 24


 256              		.loc 1 869 9 view .LVU82
 257 00dc A523     		movs	r3, #165
 869:radio_planner/src/radio_planner.c ****     }
 258              		.loc 1 869 53 view .LVU83
 259 00de 6943     		muls	r1, r5
 869:radio_planner/src/radio_planner.c ****     }
 260              		.loc 1 869 9 view .LVU84
 261 00e0 DB00     		lsls	r3, r3, #3
 869:radio_planner/src/radio_planner.c ****     }
 262              		.loc 1 869 53 view .LVU85
 263 00e2 1431     		adds	r1, r1, #20
 264 00e4 4118     		adds	r1, r0, r1
 869:radio_planner/src/radio_planner.c ****     }
 265              		.loc 1 869 9 view .LVU86
 266 00e6 03AA     		add	r2, sp, #12
 267              	.LVL21:
 869:radio_planner/src/radio_planner.c ****     }
 268              		.loc 1 869 9 view .LVU87
 269 00e8 C058     		ldr	r0, [r0, r3]
 270              	.LVL22:
 869:radio_planner/src/radio_planner.c ****     }
 271              		.loc 1 869 9 view .LVU88
 272 00ea FFF7FEFF 		bl	ral_get_lora_tx_consumption_in_ua
 273              	.LVL23:
 274 00ee 9FE7     		b	.L3
 275              	.L13:
 276              		.align	2
 277              	.L12:
 278 00f0 C4040000 		.word	1220
 279 00f4 B4040000 		.word	1204
 280 00f8 BC040000 		.word	1212
 281              		.cfi_endproc
 282              	.LFE34:
 284              		.section	.text.rp_task_launch_current,"ax",%progbits
 285              		.align	1
 286              		.syntax unified
 287              		.code	16
 288              		.thumb_func
 289              		.fpu softvfp
 291              	rp_task_launch_current:
 292              	.LVL24:
 293              	.LFB21:
 511:radio_planner/src/radio_planner.c ****     uint8_t id = rp->radio_task_id;
 294              		.loc 1 511 1 is_stmt 1 view -0
 295              		.cfi_startproc
 296              		@ args = 0, pretend = 0, frame = 16
 297              		@ frame_needed = 0, uses_anonymous_args = 0
 512:radio_planner/src/radio_planner.c ****     BSP_DBG_TRACE_PRINTF_RP( " RP: Launch task #%u and start radio state %u, type %u\n", id, rp->ta
 298              		.loc 1 512 5 view .LVU90
 511:radio_planner/src/radio_planner.c ****     uint8_t id = rp->radio_task_id;
 299              		.loc 1 511 1 is_stmt 0 view .LVU91
 300 0000 F0B5     		push	{r4, r5, r6, r7, lr}
 301              		.cfi_def_cfa_offset 20
 302              		.cfi_offset 4, -20
 303              		.cfi_offset 5, -16
 304              		.cfi_offset 6, -12
 305              		.cfi_offset 7, -8
ARM GAS  /var/folders/bq/yv49bw8j2kd6w3hsq868qv180000gn/T//ccsEouTz.s 			page 25


 306              		.cfi_offset 14, -4
 519:radio_planner/src/radio_planner.c **** 
 307              		.loc 1 519 24 view .LVU92
 308 0002 A525     		movs	r5, #165
 511:radio_planner/src/radio_planner.c ****     uint8_t id = rp->radio_task_id;
 309              		.loc 1 511 1 view .LVU93
 310 0004 0400     		movs	r4, r0
 512:radio_planner/src/radio_planner.c ****     BSP_DBG_TRACE_PRINTF_RP( " RP: Launch task #%u and start radio state %u, type %u\n", id, rp->ta
 311              		.loc 1 512 13 view .LVU94
 312 0006 5A4B     		ldr	r3, .L36
 519:radio_planner/src/radio_planner.c **** 
 313              		.loc 1 519 24 view .LVU95
 314 0008 ED00     		lsls	r5, r5, #3
 512:radio_planner/src/radio_planner.c ****     BSP_DBG_TRACE_PRINTF_RP( " RP: Launch task #%u and start radio state %u, type %u\n", id, rp->ta
 315              		.loc 1 512 13 view .LVU96
 316 000a C65C     		ldrb	r6, [r0, r3]
 514:radio_planner/src/radio_planner.c **** 
 317              		.loc 1 514 50 is_stmt 1 view .LVU97
 516:radio_planner/src/radio_planner.c **** 
 318              		.loc 1 516 5 view .LVU98
 319              	.LVL25:
 831:radio_planner/src/radio_planner.c ****     switch( task->type )
 320              		.loc 1 831 62 view .LVU99
 832:radio_planner/src/radio_planner.c ****     {
 321              		.loc 1 832 5 view .LVU100
 855:radio_planner/src/radio_planner.c ****     BSP_DBG_TRACE_PRINTF_RP( " - start time @%lu - priority #%u\n", task->start_time_ms, task->prio
 322              		.loc 1 855 6 view .LVU101
 856:radio_planner/src/radio_planner.c **** }
 323              		.loc 1 856 106 view .LVU102
 519:radio_planner/src/radio_planner.c **** 
 324              		.loc 1 519 5 view .LVU103
 511:radio_planner/src/radio_planner.c ****     uint8_t id = rp->radio_task_id;
 325              		.loc 1 511 1 is_stmt 0 view .LVU104
 326 000c 85B0     		sub	sp, sp, #20
 327              		.cfi_def_cfa_offset 40
 519:radio_planner/src/radio_planner.c **** 
 328              		.loc 1 519 5 view .LVU105
 329 000e 4059     		ldr	r0, [r0, r5]
 330              	.LVL26:
 519:radio_planner/src/radio_planner.c **** 
 331              		.loc 1 519 5 view .LVU106
 332 0010 FFF7FEFF 		bl	ral_set_tcxo_on
 333              	.LVL27:
 521:radio_planner/src/radio_planner.c ****     {
 334              		.loc 1 521 5 is_stmt 1 view .LVU107
 335 0014 3301     		lsls	r3, r6, #4
 336 0016 E318     		adds	r3, r4, r3
 337 0018 0193     		str	r3, [sp, #4]
 338 001a 019A     		ldr	r2, [sp, #4]
 521:radio_planner/src/radio_planner.c ****     {
 339              		.loc 1 521 26 is_stmt 0 view .LVU108
 340 001c 554B     		ldr	r3, .L36+4
 341 001e 2F00     		movs	r7, r5
 342 0020 D05C     		ldrb	r0, [r2, r3]
 343 0022 0428     		cmp	r0, #4
 344 0024 00D9     		bls	.LCB275
 345 0026 9FE0     		b	.L15	@long jump
ARM GAS  /var/folders/bq/yv49bw8j2kd6w3hsq868qv180000gn/T//ccsEouTz.s 			page 26


 346              	.LCB275:
 347 0028 6025     		movs	r5, #96
 348 002a FFF7FEFF 		bl	__gnu_thumb1_case_uqi
 349              	.L17:
 350 002e 2D       		.byte	(.L21-.L17)/2
 351 002f 6A       		.byte	(.L20-.L17)/2
 352 0030 03       		.byte	(.L19-.L17)/2
 353 0031 4B       		.byte	(.L18-.L17)/2
 354 0032 7E       		.byte	(.L16-.L17)/2
 355 0033 00       		.p2align 1
 356              	.L19:
 524:radio_planner/src/radio_planner.c ****         ral_setup_tx_lora( rp->ral, &rp->radio_params[id].tx.lora );
 357              		.loc 1 524 9 is_stmt 1 view .LVU109
 525:radio_planner/src/radio_planner.c ****         ral_set_pkt_payload( rp->ral, rp->payload[id], rp->payload_size[id] );
 358              		.loc 1 525 37 is_stmt 0 view .LVU110
 359 0034 7543     		muls	r5, r6
 524:radio_planner/src/radio_planner.c ****         ral_setup_tx_lora( rp->ral, &rp->radio_params[id].tx.lora );
 360              		.loc 1 524 9 view .LVU111
 361 0036 E059     		ldr	r0, [r4, r7]
 362 0038 FFF7FEFF 		bl	ral_init
 363              	.LVL28:
 525:radio_planner/src/radio_planner.c ****         ral_set_pkt_payload( rp->ral, rp->payload[id], rp->payload_size[id] );
 364              		.loc 1 525 9 is_stmt 1 view .LVU112
 525:radio_planner/src/radio_planner.c ****         ral_set_pkt_payload( rp->ral, rp->payload[id], rp->payload_size[id] );
 365              		.loc 1 525 37 is_stmt 0 view .LVU113
 366 003c 2900     		movs	r1, r5
 367 003e 1431     		adds	r1, r1, #20
 368 0040 6118     		adds	r1, r4, r1
 525:radio_planner/src/radio_planner.c ****         ral_set_pkt_payload( rp->ral, rp->payload[id], rp->payload_size[id] );
 369              		.loc 1 525 9 view .LVU114
 370 0042 E059     		ldr	r0, [r4, r7]
 371 0044 FFF7FEFF 		bl	ral_setup_tx_lora
 372              	.LVL29:
 526:radio_planner/src/radio_planner.c ****         // Wait the exact time
 373              		.loc 1 526 9 is_stmt 1 view .LVU115
 374 0048 3300     		movs	r3, r6
 375 004a D933     		adds	r3, r3, #217
 376 004c FF33     		adds	r3, r3, #255
 526:radio_planner/src/radio_planner.c ****         // Wait the exact time
 377              		.loc 1 526 50 is_stmt 0 view .LVU116
 378 004e E436     		adds	r6, r6, #228
 379              	.LVL30:
 526:radio_planner/src/radio_planner.c ****         // Wait the exact time
 380              		.loc 1 526 9 view .LVU117
 381 0050 5B00     		lsls	r3, r3, #1
 526:radio_planner/src/radio_planner.c ****         // Wait the exact time
 382              		.loc 1 526 50 view .LVU118
 383 0052 B600     		lsls	r6, r6, #2
 384              	.LVL31:
 526:radio_planner/src/radio_planner.c ****         // Wait the exact time
 385              		.loc 1 526 9 view .LVU119
 386 0054 3159     		ldr	r1, [r6, r4]
 387 0056 1A5B     		ldrh	r2, [r3, r4]
 528:radio_planner/src/radio_planner.c ****         {
 388              		.loc 1 528 42 view .LVU120
 389 0058 C526     		movs	r6, #197
 526:radio_planner/src/radio_planner.c ****         // Wait the exact time
ARM GAS  /var/folders/bq/yv49bw8j2kd6w3hsq868qv180000gn/T//ccsEouTz.s 			page 27


 390              		.loc 1 526 9 view .LVU121
 391 005a E059     		ldr	r0, [r4, r7]
 392 005c FFF7FEFF 		bl	ral_set_pkt_payload
 393              	.LVL32:
 528:radio_planner/src/radio_planner.c ****         {
 394              		.loc 1 528 9 is_stmt 1 view .LVU122
 528:radio_planner/src/radio_planner.c ****         {
 395              		.loc 1 528 42 is_stmt 0 view .LVU123
 396 0060 B600     		lsls	r6, r6, #2
 397              	.L22:
 531:radio_planner/src/radio_planner.c ****         ral_set_tx( rp->ral );
 398              		.loc 1 531 9 is_stmt 1 discriminator 1 view .LVU124
 528:radio_planner/src/radio_planner.c ****         {
 399              		.loc 1 528 14 discriminator 1 view .LVU125
 528:radio_planner/src/radio_planner.c ****         {
 400              		.loc 1 528 42 is_stmt 0 discriminator 1 view .LVU126
 401 0062 019B     		ldr	r3, [sp, #4]
 402 0064 9D59     		ldr	r5, [r3, r6]
 528:radio_planner/src/radio_planner.c ****         {
 403              		.loc 1 528 59 discriminator 1 view .LVU127
 404 0066 FFF7FEFF 		bl	rp_bsp_timestamp_get
 405              	.LVL33:
 528:radio_planner/src/radio_planner.c ****         {
 406              		.loc 1 528 57 discriminator 1 view .LVU128
 407 006a 2D1A     		subs	r5, r5, r0
 528:radio_planner/src/radio_planner.c ****         {
 408              		.loc 1 528 14 discriminator 1 view .LVU129
 409 006c 002D     		cmp	r5, #0
 410 006e F8DC     		bgt	.L22
 411              	.L35:
 556:radio_planner/src/radio_planner.c **** 
 412              		.loc 1 556 9 is_stmt 1 view .LVU130
 556:radio_planner/src/radio_planner.c **** 
 413              		.loc 1 556 23 is_stmt 0 view .LVU131
 414 0070 A523     		movs	r3, #165
 415 0072 DB00     		lsls	r3, r3, #3
 556:radio_planner/src/radio_planner.c **** 
 416              		.loc 1 556 9 view .LVU132
 417 0074 E058     		ldr	r0, [r4, r3]
 418 0076 FFF7FEFF 		bl	ral_set_tx
 419              	.LVL34:
 558:radio_planner/src/radio_planner.c ****         break;
 420              		.loc 1 558 9 is_stmt 1 view .LVU133
 421 007a FFF7FEFF 		bl	rp_bsp_timestamp_get
 422              	.LVL35:
 423              	.LBB20:
 424              	.LBI20:
 114:radio_planner/src/radio_planner_stats.h **** {
 425              		.loc 2 114 20 view .LVU134
 426              	.LBB21:
 116:radio_planner/src/radio_planner_stats.h **** }
 427              		.loc 2 116 5 view .LVU135
 116:radio_planner/src/radio_planner_stats.h **** }
 428              		.loc 2 116 28 is_stmt 0 view .LVU136
 429 007e 9823     		movs	r3, #152
 430 0080 DB00     		lsls	r3, r3, #3
 431              	.LVL36:
ARM GAS  /var/folders/bq/yv49bw8j2kd6w3hsq868qv180000gn/T//ccsEouTz.s 			page 28


 432              	.L33:
 116:radio_planner/src/radio_planner_stats.h **** }
 433              		.loc 2 116 28 view .LVU137
 434              	.LBE21:
 435              	.LBE20:
 436              	.LBB22:
 437              	.LBB23:
 124:radio_planner/src/radio_planner_stats.h **** }
 438              		.loc 2 124 28 view .LVU138
 439 0082 E050     		str	r0, [r4, r3]
 440              	.L14:
 124:radio_planner/src/radio_planner_stats.h **** }
 441              		.loc 2 124 28 view .LVU139
 442              	.LBE23:
 443              	.LBE22:
 593:radio_planner/src/radio_planner.c **** 
 444              		.loc 1 593 1 view .LVU140
 445 0084 05B0     		add	sp, sp, #20
 446              		@ sp needed
 447              	.LVL37:
 593:radio_planner/src/radio_planner.c **** 
 448              		.loc 1 593 1 view .LVU141
 449 0086 F0BD     		pop	{r4, r5, r6, r7, pc}
 450              	.LVL38:
 451              	.L21:
 539:radio_planner/src/radio_planner.c ****         // Wait the exact time
 452              		.loc 1 539 9 is_stmt 1 view .LVU142
 539:radio_planner/src/radio_planner.c ****         // Wait the exact time
 453              		.loc 1 539 37 is_stmt 0 view .LVU143
 454 0088 7543     		muls	r5, r6
 455 008a 2900     		movs	r1, r5
 456 008c 3C31     		adds	r1, r1, #60
 539:radio_planner/src/radio_planner.c ****         // Wait the exact time
 457              		.loc 1 539 9 view .LVU144
 458 008e E059     		ldr	r0, [r4, r7]
 539:radio_planner/src/radio_planner.c ****         // Wait the exact time
 459              		.loc 1 539 37 view .LVU145
 460 0090 6118     		adds	r1, r4, r1
 541:radio_planner/src/radio_planner.c ****         {
 461              		.loc 1 541 42 view .LVU146
 462 0092 C527     		movs	r7, #197
 539:radio_planner/src/radio_planner.c ****         // Wait the exact time
 463              		.loc 1 539 9 view .LVU147
 464 0094 FFF7FEFF 		bl	ral_setup_rx_lora
 465              	.LVL39:
 541:radio_planner/src/radio_planner.c ****         {
 466              		.loc 1 541 9 is_stmt 1 view .LVU148
 541:radio_planner/src/radio_planner.c ****         {
 467              		.loc 1 541 42 is_stmt 0 view .LVU149
 468 0098 BF00     		lsls	r7, r7, #2
 469              	.L24:
 543:radio_planner/src/radio_planner.c ****         ral_set_rx( rp->ral, rp->radio_params[id].rx.timeout_in_ms );
 470              		.loc 1 543 9 is_stmt 1 discriminator 1 view .LVU150
 541:radio_planner/src/radio_planner.c ****         {
 471              		.loc 1 541 14 discriminator 1 view .LVU151
 541:radio_planner/src/radio_planner.c ****         {
 472              		.loc 1 541 42 is_stmt 0 discriminator 1 view .LVU152
ARM GAS  /var/folders/bq/yv49bw8j2kd6w3hsq868qv180000gn/T//ccsEouTz.s 			page 29


 473 009a 019B     		ldr	r3, [sp, #4]
 474 009c DD59     		ldr	r5, [r3, r7]
 541:radio_planner/src/radio_planner.c ****         {
 475              		.loc 1 541 59 discriminator 1 view .LVU153
 476 009e FFF7FEFF 		bl	rp_bsp_timestamp_get
 477              	.LVL40:
 541:radio_planner/src/radio_planner.c ****         {
 478              		.loc 1 541 57 discriminator 1 view .LVU154
 479 00a2 2D1A     		subs	r5, r5, r0
 541:radio_planner/src/radio_planner.c ****         {
 480              		.loc 1 541 14 discriminator 1 view .LVU155
 481 00a4 002D     		cmp	r5, #0
 482 00a6 F8DC     		bgt	.L24
 483              	.L34:
 567:radio_planner/src/radio_planner.c **** 
 484              		.loc 1 567 9 is_stmt 1 view .LVU156
 485 00a8 711C     		adds	r1, r6, #1
 486 00aa 6026     		movs	r6, #96
 487              	.LVL41:
 567:radio_planner/src/radio_planner.c **** 
 488              		.loc 1 567 9 is_stmt 0 view .LVU157
 489 00ac A523     		movs	r3, #165
 490 00ae 4E43     		muls	r6, r1
 491 00b0 DB00     		lsls	r3, r3, #3
 492 00b2 A619     		adds	r6, r4, r6
 493 00b4 E058     		ldr	r0, [r4, r3]
 494 00b6 7168     		ldr	r1, [r6, #4]
 495              	.LVL42:
 567:radio_planner/src/radio_planner.c **** 
 496              		.loc 1 567 9 view .LVU158
 497 00b8 FFF7FEFF 		bl	ral_set_rx
 498              	.LVL43:
 569:radio_planner/src/radio_planner.c ****         break;
 499              		.loc 1 569 9 is_stmt 1 view .LVU159
 500 00bc FFF7FEFF 		bl	rp_bsp_timestamp_get
 501              	.LVL44:
 502              	.LBB25:
 503              	.LBI22:
 122:radio_planner/src/radio_planner_stats.h **** {
 504              		.loc 2 122 20 view .LVU160
 505              	.LBB24:
 124:radio_planner/src/radio_planner_stats.h **** }
 506              		.loc 2 124 5 view .LVU161
 124:radio_planner/src/radio_planner_stats.h **** }
 507              		.loc 2 124 28 is_stmt 0 view .LVU162
 508 00c0 2D4B     		ldr	r3, .L36+8
 509 00c2 DEE7     		b	.L33
 510              	.LVL45:
 511              	.L18:
 124:radio_planner/src/radio_planner_stats.h **** }
 512              		.loc 2 124 28 view .LVU163
 513              	.LBE24:
 514              	.LBE25:
 549:radio_planner/src/radio_planner.c ****         ral_setup_tx_gfsk( rp->ral, &rp->radio_params[id].tx.gfsk );
 515              		.loc 1 549 9 is_stmt 1 view .LVU164
 550:radio_planner/src/radio_planner.c ****         ral_set_pkt_payload( rp->ral, rp->payload[id], rp->payload_size[id] );
 516              		.loc 1 550 37 is_stmt 0 view .LVU165
ARM GAS  /var/folders/bq/yv49bw8j2kd6w3hsq868qv180000gn/T//ccsEouTz.s 			page 30


 517 00c4 7543     		muls	r5, r6
 549:radio_planner/src/radio_planner.c ****         ral_setup_tx_gfsk( rp->ral, &rp->radio_params[id].tx.gfsk );
 518              		.loc 1 549 9 view .LVU166
 519 00c6 E059     		ldr	r0, [r4, r7]
 520 00c8 FFF7FEFF 		bl	ral_init
 521              	.LVL46:
 550:radio_planner/src/radio_planner.c ****         ral_set_pkt_payload( rp->ral, rp->payload[id], rp->payload_size[id] );
 522              		.loc 1 550 9 is_stmt 1 view .LVU167
 550:radio_planner/src/radio_planner.c ****         ral_set_pkt_payload( rp->ral, rp->payload[id], rp->payload_size[id] );
 523              		.loc 1 550 37 is_stmt 0 view .LVU168
 524 00cc 2900     		movs	r1, r5
 525 00ce 1431     		adds	r1, r1, #20
 526 00d0 6118     		adds	r1, r4, r1
 550:radio_planner/src/radio_planner.c ****         ral_set_pkt_payload( rp->ral, rp->payload[id], rp->payload_size[id] );
 527              		.loc 1 550 9 view .LVU169
 528 00d2 E059     		ldr	r0, [r4, r7]
 529 00d4 FFF7FEFF 		bl	ral_setup_tx_gfsk
 530              	.LVL47:
 551:radio_planner/src/radio_planner.c ****         // Wait the exact time
 531              		.loc 1 551 9 is_stmt 1 view .LVU170
 532 00d8 3300     		movs	r3, r6
 533 00da D933     		adds	r3, r3, #217
 534 00dc FF33     		adds	r3, r3, #255
 551:radio_planner/src/radio_planner.c ****         // Wait the exact time
 535              		.loc 1 551 50 is_stmt 0 view .LVU171
 536 00de E436     		adds	r6, r6, #228
 537              	.LVL48:
 551:radio_planner/src/radio_planner.c ****         // Wait the exact time
 538              		.loc 1 551 9 view .LVU172
 539 00e0 5B00     		lsls	r3, r3, #1
 551:radio_planner/src/radio_planner.c ****         // Wait the exact time
 540              		.loc 1 551 50 view .LVU173
 541 00e2 B600     		lsls	r6, r6, #2
 542              	.LVL49:
 551:radio_planner/src/radio_planner.c ****         // Wait the exact time
 543              		.loc 1 551 9 view .LVU174
 544 00e4 3159     		ldr	r1, [r6, r4]
 545 00e6 1A5B     		ldrh	r2, [r3, r4]
 553:radio_planner/src/radio_planner.c ****         {
 546              		.loc 1 553 42 view .LVU175
 547 00e8 C526     		movs	r6, #197
 551:radio_planner/src/radio_planner.c ****         // Wait the exact time
 548              		.loc 1 551 9 view .LVU176
 549 00ea E059     		ldr	r0, [r4, r7]
 550 00ec FFF7FEFF 		bl	ral_set_pkt_payload
 551              	.LVL50:
 553:radio_planner/src/radio_planner.c ****         {
 552              		.loc 1 553 9 is_stmt 1 view .LVU177
 553:radio_planner/src/radio_planner.c ****         {
 553              		.loc 1 553 42 is_stmt 0 view .LVU178
 554 00f0 B600     		lsls	r6, r6, #2
 555              	.L25:
 555:radio_planner/src/radio_planner.c ****         ral_set_tx( rp->ral );
 556              		.loc 1 555 9 is_stmt 1 discriminator 1 view .LVU179
 553:radio_planner/src/radio_planner.c ****         {
 557              		.loc 1 553 14 discriminator 1 view .LVU180
 553:radio_planner/src/radio_planner.c ****         {
ARM GAS  /var/folders/bq/yv49bw8j2kd6w3hsq868qv180000gn/T//ccsEouTz.s 			page 31


 558              		.loc 1 553 42 is_stmt 0 discriminator 1 view .LVU181
 559 00f2 019B     		ldr	r3, [sp, #4]
 560 00f4 9D59     		ldr	r5, [r3, r6]
 553:radio_planner/src/radio_planner.c ****         {
 561              		.loc 1 553 59 discriminator 1 view .LVU182
 562 00f6 FFF7FEFF 		bl	rp_bsp_timestamp_get
 563              	.LVL51:
 553:radio_planner/src/radio_planner.c ****         {
 564              		.loc 1 553 57 discriminator 1 view .LVU183
 565 00fa 2D1A     		subs	r5, r5, r0
 553:radio_planner/src/radio_planner.c ****         {
 566              		.loc 1 553 14 discriminator 1 view .LVU184
 567 00fc 002D     		cmp	r5, #0
 568 00fe F8DC     		bgt	.L25
 569 0100 B6E7     		b	.L35
 570              	.LVL52:
 571              	.L20:
 561:radio_planner/src/radio_planner.c ****         ral_setup_rx_gfsk( rp->ral, &rp->radio_params[id].rx.gfsk );
 572              		.loc 1 561 9 is_stmt 1 view .LVU185
 562:radio_planner/src/radio_planner.c ****         // Wait the exact time
 573              		.loc 1 562 37 is_stmt 0 view .LVU186
 574 0102 7543     		muls	r5, r6
 561:radio_planner/src/radio_planner.c ****         ral_setup_rx_gfsk( rp->ral, &rp->radio_params[id].rx.gfsk );
 575              		.loc 1 561 9 view .LVU187
 576 0104 E059     		ldr	r0, [r4, r7]
 577 0106 FFF7FEFF 		bl	ral_init
 578              	.LVL53:
 562:radio_planner/src/radio_planner.c ****         // Wait the exact time
 579              		.loc 1 562 9 is_stmt 1 view .LVU188
 562:radio_planner/src/radio_planner.c ****         // Wait the exact time
 580              		.loc 1 562 37 is_stmt 0 view .LVU189
 581 010a 2900     		movs	r1, r5
 582 010c 3C31     		adds	r1, r1, #60
 562:radio_planner/src/radio_planner.c ****         // Wait the exact time
 583              		.loc 1 562 9 view .LVU190
 584 010e E059     		ldr	r0, [r4, r7]
 562:radio_planner/src/radio_planner.c ****         // Wait the exact time
 585              		.loc 1 562 37 view .LVU191
 586 0110 6118     		adds	r1, r4, r1
 564:radio_planner/src/radio_planner.c ****         {
 587              		.loc 1 564 42 view .LVU192
 588 0112 C527     		movs	r7, #197
 562:radio_planner/src/radio_planner.c ****         // Wait the exact time
 589              		.loc 1 562 9 view .LVU193
 590 0114 FFF7FEFF 		bl	ral_setup_rx_gfsk
 591              	.LVL54:
 564:radio_planner/src/radio_planner.c ****         {
 592              		.loc 1 564 9 is_stmt 1 view .LVU194
 564:radio_planner/src/radio_planner.c ****         {
 593              		.loc 1 564 42 is_stmt 0 view .LVU195
 594 0118 BF00     		lsls	r7, r7, #2
 595              	.L26:
 566:radio_planner/src/radio_planner.c ****         ral_set_rx( rp->ral, rp->radio_params[id].rx.timeout_in_ms );
 596              		.loc 1 566 9 is_stmt 1 discriminator 1 view .LVU196
 564:radio_planner/src/radio_planner.c ****         {
 597              		.loc 1 564 14 discriminator 1 view .LVU197
 564:radio_planner/src/radio_planner.c ****         {
ARM GAS  /var/folders/bq/yv49bw8j2kd6w3hsq868qv180000gn/T//ccsEouTz.s 			page 32


 598              		.loc 1 564 42 is_stmt 0 discriminator 1 view .LVU198
 599 011a 019B     		ldr	r3, [sp, #4]
 600 011c DD59     		ldr	r5, [r3, r7]
 564:radio_planner/src/radio_planner.c ****         {
 601              		.loc 1 564 59 discriminator 1 view .LVU199
 602 011e FFF7FEFF 		bl	rp_bsp_timestamp_get
 603              	.LVL55:
 564:radio_planner/src/radio_planner.c ****         {
 604              		.loc 1 564 57 discriminator 1 view .LVU200
 605 0122 2D1A     		subs	r5, r5, r0
 564:radio_planner/src/radio_planner.c ****         {
 606              		.loc 1 564 14 discriminator 1 view .LVU201
 607 0124 002D     		cmp	r5, #0
 608 0126 F8DC     		bgt	.L26
 609 0128 BEE7     		b	.L34
 610              	.L16:
 611              	.LBB26:
 572:radio_planner/src/radio_planner.c ****             .cad_symb_nb          = RAL_LORA_CAD_01_SYMB,
 612              		.loc 1 572 9 is_stmt 1 view .LVU202
 572:radio_planner/src/radio_planner.c ****             .cad_symb_nb          = RAL_LORA_CAD_01_SYMB,
 613              		.loc 1 572 31 is_stmt 0 view .LVU203
 614 012a 0822     		movs	r2, #8
 615 012c 0021     		movs	r1, #0
 616 012e 02A8     		add	r0, sp, #8
 617 0130 FFF7FEFF 		bl	memset
 618              	.LVL56:
 579:radio_planner/src/radio_planner.c ****         ral_setup_cad( rp->ral, &cad_params );
 619              		.loc 1 579 9 is_stmt 1 view .LVU204
 579:radio_planner/src/radio_planner.c ****         ral_setup_cad( rp->ral, &cad_params );
 620              		.loc 1 579 37 is_stmt 0 view .LVU205
 621 0134 6021     		movs	r1, #96
 579:radio_planner/src/radio_planner.c ****         ral_setup_cad( rp->ral, &cad_params );
 622              		.loc 1 579 30 view .LVU206
 623 0136 A527     		movs	r7, #165
 579:radio_planner/src/radio_planner.c ****         ral_setup_cad( rp->ral, &cad_params );
 624              		.loc 1 579 37 view .LVU207
 625 0138 7143     		muls	r1, r6
 579:radio_planner/src/radio_planner.c ****         ral_setup_cad( rp->ral, &cad_params );
 626              		.loc 1 579 30 view .LVU208
 627 013a FF00     		lsls	r7, r7, #3
 579:radio_planner/src/radio_planner.c ****         ral_setup_cad( rp->ral, &cad_params );
 628              		.loc 1 579 37 view .LVU209
 629 013c 3C31     		adds	r1, r1, #60
 630 013e 6118     		adds	r1, r4, r1
 579:radio_planner/src/radio_planner.c ****         ral_setup_cad( rp->ral, &cad_params );
 631              		.loc 1 579 9 view .LVU210
 632 0140 E059     		ldr	r0, [r4, r7]
 633 0142 FFF7FEFF 		bl	ral_setup_rx_lora
 634              	.LVL57:
 580:radio_planner/src/radio_planner.c ****         while( ( int32_t )( rp->tasks[id].start_time_ms - rp_bsp_timestamp_get( ) ) > 0 )
 635              		.loc 1 580 9 is_stmt 1 view .LVU211
 581:radio_planner/src/radio_planner.c ****         {
 636              		.loc 1 581 42 is_stmt 0 view .LVU212
 637 0146 C526     		movs	r6, #197
 638              	.LVL58:
 580:radio_planner/src/radio_planner.c ****         while( ( int32_t )( rp->tasks[id].start_time_ms - rp_bsp_timestamp_get( ) ) > 0 )
 639              		.loc 1 580 9 view .LVU213
ARM GAS  /var/folders/bq/yv49bw8j2kd6w3hsq868qv180000gn/T//ccsEouTz.s 			page 33


 640 0148 E059     		ldr	r0, [r4, r7]
 641 014a 02A9     		add	r1, sp, #8
 642 014c FFF7FEFF 		bl	ral_setup_cad
 643              	.LVL59:
 581:radio_planner/src/radio_planner.c ****         {
 644              		.loc 1 581 9 is_stmt 1 view .LVU214
 581:radio_planner/src/radio_planner.c ****         {
 645              		.loc 1 581 42 is_stmt 0 view .LVU215
 646 0150 B600     		lsls	r6, r6, #2
 647              	.L27:
 583:radio_planner/src/radio_planner.c ****         ral_set_cad( rp->ral );
 648              		.loc 1 583 9 is_stmt 1 discriminator 1 view .LVU216
 581:radio_planner/src/radio_planner.c ****         {
 649              		.loc 1 581 14 discriminator 1 view .LVU217
 581:radio_planner/src/radio_planner.c ****         {
 650              		.loc 1 581 42 is_stmt 0 discriminator 1 view .LVU218
 651 0152 019B     		ldr	r3, [sp, #4]
 652 0154 9D59     		ldr	r5, [r3, r6]
 581:radio_planner/src/radio_planner.c ****         {
 653              		.loc 1 581 59 discriminator 1 view .LVU219
 654 0156 FFF7FEFF 		bl	rp_bsp_timestamp_get
 655              	.LVL60:
 581:radio_planner/src/radio_planner.c ****         {
 656              		.loc 1 581 57 discriminator 1 view .LVU220
 657 015a 2D1A     		subs	r5, r5, r0
 581:radio_planner/src/radio_planner.c ****         {
 658              		.loc 1 581 14 discriminator 1 view .LVU221
 659 015c 002D     		cmp	r5, #0
 660 015e F8DC     		bgt	.L27
 584:radio_planner/src/radio_planner.c ****         break;
 661              		.loc 1 584 9 is_stmt 1 view .LVU222
 662 0160 E059     		ldr	r0, [r4, r7]
 663 0162 FFF7FEFF 		bl	ral_set_cad
 664              	.LVL61:
 585:radio_planner/src/radio_planner.c ****     }
 665              		.loc 1 585 9 view .LVU223
 666 0166 8DE7     		b	.L14
 667              	.LVL62:
 668              	.L15:
 585:radio_planner/src/radio_planner.c ****     }
 669              		.loc 1 585 9 is_stmt 0 view .LVU224
 670              	.LBE26:
 588:radio_planner/src/radio_planner.c ****         // Shut Down the TCXO
 671              		.loc 1 588 70 is_stmt 1 view .LVU225
 590:radio_planner/src/radio_planner.c ****         break;
 672              		.loc 1 590 9 view .LVU226
 673 0168 6059     		ldr	r0, [r4, r5]
 674 016a FFF7FEFF 		bl	ral_set_tcxo_off
 675              	.LVL63:
 591:radio_planner/src/radio_planner.c ****     }
 676              		.loc 1 591 9 view .LVU227
 593:radio_planner/src/radio_planner.c **** 
 677              		.loc 1 593 1 is_stmt 0 view .LVU228
 678 016e 89E7     		b	.L14
 679              	.L37:
 680              		.align	2
 681              	.L36:
ARM GAS  /var/folders/bq/yv49bw8j2kd6w3hsq868qv180000gn/T//ccsEouTz.s 			page 34


 682 0170 F5040000 		.word	1269
 683 0174 11030000 		.word	785
 684 0178 C4040000 		.word	1220
 685              		.cfi_endproc
 686              	.LFE21:
 688              		.section	.text.rp_task_compute_ranking,"ax",%progbits
 689              		.align	1
 690              		.syntax unified
 691              		.code	16
 692              		.thumb_func
 693              		.fpu softvfp
 695              	rp_task_compute_ranking:
 696              	.LVL64:
 697              	.LFB20:
 494:radio_planner/src/radio_planner.c ****     uint8_t rank;
 698              		.loc 1 494 1 is_stmt 1 view -0
 699              		.cfi_startproc
 700              		@ args = 0, pretend = 0, frame = 8
 701              		@ frame_needed = 0, uses_anonymous_args = 0
 495:radio_planner/src/radio_planner.c ****     uint8_t ranks_temp[RP_NB_HOOKS];
 702              		.loc 1 495 5 view .LVU230
 496:radio_planner/src/radio_planner.c **** 
 703              		.loc 1 496 5 view .LVU231
 498:radio_planner/src/radio_planner.c ****     {
 704              		.loc 1 498 5 view .LVU232
 705              	.LBB32:
 498:radio_planner/src/radio_planner.c ****     {
 706              		.loc 1 498 10 view .LVU233
 498:radio_planner/src/radio_planner.c ****     {
 707              		.loc 1 498 25 view .LVU234
 708              	.LBE32:
 494:radio_planner/src/radio_planner.c ****     uint8_t rank;
 709              		.loc 1 494 1 is_stmt 0 view .LVU235
 710 0000 F7B5     		push	{r0, r1, r2, r4, r5, r6, r7, lr}
 711              		.cfi_def_cfa_offset 32
 712              		.cfi_offset 0, -32
 713              		.cfi_offset 1, -28
 714              		.cfi_offset 2, -24
 715              		.cfi_offset 4, -20
 716              		.cfi_offset 5, -16
 717              		.cfi_offset 6, -12
 718              		.cfi_offset 7, -8
 719              		.cfi_offset 14, -4
 720 0002 6A46     		mov	r2, sp
 721 0004 1400     		movs	r4, r2
 722 0006 104B     		ldr	r3, .L46
 723 0008 1049     		ldr	r1, .L46+4
 724 000a C318     		adds	r3, r0, r3
 725 000c 4118     		adds	r1, r0, r1
 726              	.LVL65:
 727              	.L39:
 728              	.LBB33:
 500:radio_planner/src/radio_planner.c ****     }
 729              		.loc 1 500 9 is_stmt 1 discriminator 3 view .LVU236
 500:radio_planner/src/radio_planner.c ****     }
 730              		.loc 1 500 23 is_stmt 0 discriminator 3 view .LVU237
 731 000e 1D78     		ldrb	r5, [r3]
ARM GAS  /var/folders/bq/yv49bw8j2kd6w3hsq868qv180000gn/T//ccsEouTz.s 			page 35


 732 0010 1033     		adds	r3, r3, #16
 733 0012 1570     		strb	r5, [r2]
 498:radio_planner/src/radio_planner.c ****     {
 734              		.loc 1 498 42 is_stmt 1 discriminator 3 view .LVU238
 735              	.LVL66:
 498:radio_planner/src/radio_planner.c ****     {
 736              		.loc 1 498 25 discriminator 3 view .LVU239
 737 0014 0132     		adds	r2, r2, #1
 738              	.LVL67:
 498:radio_planner/src/radio_planner.c ****     {
 739              		.loc 1 498 5 is_stmt 0 discriminator 3 view .LVU240
 740 0016 9942     		cmp	r1, r3
 741 0018 F9D1     		bne	.L39
 742 001a F023     		movs	r3, #240
 743              	.LBE33:
 744              	.LBB34:
 745              	.LBB35:
 746              	.LBB36:
 695:radio_planner/src/radio_planner.c ****     uint8_t index         = 0;
 747              		.loc 1 695 13 view .LVU241
 748 001c FF25     		movs	r5, #255
 749 001e 9B00     		lsls	r3, r3, #2
 750 0020 C218     		adds	r2, r0, r3
 751              	.LVL68:
 695:radio_planner/src/radio_planner.c ****     uint8_t index         = 0;
 752              		.loc 1 695 13 view .LVU242
 753 0022 0833     		adds	r3, r3, #8
 754 0024 C018     		adds	r0, r0, r3
 755              	.LVL69:
 756              	.L42:
 757              	.LBB37:
 698:radio_planner/src/radio_planner.c ****     {
 758              		.loc 1 698 25 is_stmt 1 view .LVU243
 759              	.LBE37:
 696:radio_planner/src/radio_planner.c **** 
 760              		.loc 1 696 13 is_stmt 0 view .LVU244
 761 0026 0021     		movs	r1, #0
 695:radio_planner/src/radio_planner.c ****     uint8_t index         = 0;
 762              		.loc 1 695 13 view .LVU245
 763 0028 2E00     		movs	r6, r5
 764              	.LBB38:
 698:radio_planner/src/radio_planner.c ****     {
 765              		.loc 1 698 18 view .LVU246
 766 002a 0B00     		movs	r3, r1
 767              	.LVL70:
 768              	.L41:
 700:radio_planner/src/radio_planner.c ****         {
 769              		.loc 1 700 9 is_stmt 1 view .LVU247
 700:radio_planner/src/radio_planner.c ****         {
 770              		.loc 1 700 19 is_stmt 0 view .LVU248
 771 002c E75C     		ldrb	r7, [r4, r3]
 700:radio_planner/src/radio_planner.c ****         {
 772              		.loc 1 700 11 view .LVU249
 773 002e BE42     		cmp	r6, r7
 774 0030 01D3     		bcc	.L40
 702:radio_planner/src/radio_planner.c ****             index         = i;
 775              		.loc 1 702 13 is_stmt 1 view .LVU250
ARM GAS  /var/folders/bq/yv49bw8j2kd6w3hsq868qv180000gn/T//ccsEouTz.s 			page 36


 776              	.LVL71:
 703:radio_planner/src/radio_planner.c ****         }
 777              		.loc 1 703 13 view .LVU251
 703:radio_planner/src/radio_planner.c ****         }
 778              		.loc 1 703 27 is_stmt 0 view .LVU252
 779 0032 3E00     		movs	r6, r7
 780 0034 D9B2     		uxtb	r1, r3
 781              	.LVL72:
 782              	.L40:
 698:radio_planner/src/radio_planner.c ****     {
 783              		.loc 1 698 37 is_stmt 1 view .LVU253
 698:radio_planner/src/radio_planner.c ****     {
 784              		.loc 1 698 38 is_stmt 0 view .LVU254
 785 0036 0133     		adds	r3, r3, #1
 786              	.LVL73:
 698:radio_planner/src/radio_planner.c ****     {
 787              		.loc 1 698 25 is_stmt 1 view .LVU255
 698:radio_planner/src/radio_planner.c ****     {
 788              		.loc 1 698 5 is_stmt 0 view .LVU256
 789 0038 082B     		cmp	r3, #8
 790 003a F7D1     		bne	.L41
 791              	.LBE38:
 706:radio_planner/src/radio_planner.c **** }
 792              		.loc 1 706 5 is_stmt 1 view .LVU257
 793              	.LVL74:
 706:radio_planner/src/radio_planner.c **** }
 794              		.loc 1 706 5 is_stmt 0 view .LVU258
 795              	.LBE36:
 796              	.LBE35:
 505:radio_planner/src/radio_planner.c ****         rp->rankings[i]  = rank;
 797              		.loc 1 505 9 is_stmt 1 view .LVU259
 506:radio_planner/src/radio_planner.c ****     }
 798              		.loc 1 506 26 is_stmt 0 view .LVU260
 799 003c 1170     		strb	r1, [r2]
 800 003e 0132     		adds	r2, r2, #1
 801              	.LVL75:
 505:radio_planner/src/radio_planner.c ****         rp->rankings[i]  = rank;
 802              		.loc 1 505 26 view .LVU261
 803 0040 6554     		strb	r5, [r4, r1]
 506:radio_planner/src/radio_planner.c ****     }
 804              		.loc 1 506 9 is_stmt 1 view .LVU262
 502:radio_planner/src/radio_planner.c ****     {
 805              		.loc 1 502 42 view .LVU263
 806              	.LVL76:
 502:radio_planner/src/radio_planner.c ****     {
 807              		.loc 1 502 25 view .LVU264
 502:radio_planner/src/radio_planner.c ****     {
 808              		.loc 1 502 5 is_stmt 0 view .LVU265
 809 0042 9042     		cmp	r0, r2
 810 0044 EFD1     		bne	.L42
 811              	.LBE34:
 508:radio_planner/src/radio_planner.c **** 
 812              		.loc 1 508 1 view .LVU266
 813              		@ sp needed
 814 0046 F7BD     		pop	{r0, r1, r2, r4, r5, r6, r7, pc}
 815              	.L47:
 816              		.align	2
ARM GAS  /var/folders/bq/yv49bw8j2kd6w3hsq868qv180000gn/T//ccsEouTz.s 			page 37


 817              	.L46:
 818 0048 12030000 		.word	786
 819 004c 92030000 		.word	914
 820              		.cfi_endproc
 821              	.LFE20:
 823              		.section	.text.rp_task_call_aborted,"ax",%progbits
 824              		.align	1
 825              		.syntax unified
 826              		.code	16
 827              		.thumb_func
 828              		.fpu softvfp
 830              	rp_task_call_aborted:
 831              	.LVL77:
 832              	.LFB29:
 789:radio_planner/src/radio_planner.c ****     for( int32_t i = 0; i < RP_NB_HOOKS; i++ )
 833              		.loc 1 789 1 is_stmt 1 view -0
 834              		.cfi_startproc
 835              		@ args = 0, pretend = 0, frame = 8
 836              		@ frame_needed = 0, uses_anonymous_args = 0
 790:radio_planner/src/radio_planner.c ****     {
 837              		.loc 1 790 5 view .LVU268
 838              	.LBB44:
 790:radio_planner/src/radio_planner.c ****     {
 839              		.loc 1 790 10 view .LVU269
 790:radio_planner/src/radio_planner.c ****     {
 840              		.loc 1 790 25 view .LVU270
 841 0000 C423     		movs	r3, #196
 842              	.LBE44:
 789:radio_planner/src/radio_planner.c ****     for( int32_t i = 0; i < RP_NB_HOOKS; i++ )
 843              		.loc 1 789 1 is_stmt 0 view .LVU271
 844 0002 F7B5     		push	{r0, r1, r2, r4, r5, r6, r7, lr}
 845              		.cfi_def_cfa_offset 32
 846              		.cfi_offset 0, -32
 847              		.cfi_offset 1, -28
 848              		.cfi_offset 2, -24
 849              		.cfi_offset 4, -20
 850              		.cfi_offset 5, -16
 851              		.cfi_offset 6, -12
 852              		.cfi_offset 7, -8
 853              		.cfi_offset 14, -4
 854              	.LBB53:
 855              	.LBB45:
 856              	.LBB46:
 292:radio_planner/src/radio_planner.c **** }
 857              		.loc 1 292 30 view .LVU272
 858 0004 0427     		movs	r7, #4
 859 0006 9B00     		lsls	r3, r3, #2
 860 0008 C418     		adds	r4, r0, r3
 861 000a D833     		adds	r3, r3, #216
 862 000c C618     		adds	r6, r0, r3
 863 000e E033     		adds	r3, r3, #224
 864 0010 C518     		adds	r5, r0, r3
 865 0012 393B     		subs	r3, r3, #57
 866 0014 FF3B     		subs	r3, r3, #255
 867 0016 C318     		adds	r3, r0, r3
 868 0018 0193     		str	r3, [sp, #4]
 869              	.LVL78:
ARM GAS  /var/folders/bq/yv49bw8j2kd6w3hsq868qv180000gn/T//ccsEouTz.s 			page 38


 870              	.L50:
 292:radio_planner/src/radio_planner.c **** }
 871              		.loc 1 292 30 view .LVU273
 872              	.LBE46:
 873              	.LBE45:
 792:radio_planner/src/radio_planner.c ****         {
 874              		.loc 1 792 9 is_stmt 1 view .LVU274
 792:radio_planner/src/radio_planner.c ****         {
 875              		.loc 1 792 11 is_stmt 0 view .LVU275
 876 001a E378     		ldrb	r3, [r4, #3]
 877 001c 032B     		cmp	r3, #3
 878 001e 10D1     		bne	.L49
 794:radio_planner/src/radio_planner.c ****             rp->stats.task_hook_aborted_nb[i]++;
 879              		.loc 1 794 85 is_stmt 1 view .LVU276
 795:radio_planner/src/radio_planner.c ****             rp_task_free( rp, &rp->tasks[i] );
 880              		.loc 1 795 13 view .LVU277
 795:radio_planner/src/radio_planner.c ****             rp_task_free( rp, &rp->tasks[i] );
 881              		.loc 1 795 46 is_stmt 0 view .LVU278
 882 0020 2B68     		ldr	r3, [r5]
 883 0022 0133     		adds	r3, r3, #1
 884 0024 2B60     		str	r3, [r5]
 796:radio_planner/src/radio_planner.c ****             rp->status[i] = RP_STATUS_TASK_ABORTED;
 885              		.loc 1 796 13 is_stmt 1 view .LVU279
 886              	.LVL79:
 887              	.LBB49:
 888              	.LBI45:
 285:radio_planner/src/radio_planner.c **** {
 889              		.loc 1 285 13 view .LVU280
 890              	.LBB47:
 287:radio_planner/src/radio_planner.c ****     task->start_time_ms      = 0;
 891              		.loc 1 287 5 view .LVU281
 287:radio_planner/src/radio_planner.c ****     task->start_time_ms      = 0;
 892              		.loc 1 287 30 is_stmt 0 view .LVU282
 893 0026 0023     		movs	r3, #0
 894 0028 2370     		strb	r3, [r4]
 288:radio_planner/src/radio_planner.c ****     task->start_time_init_ms = 0;
 895              		.loc 1 288 5 is_stmt 1 view .LVU283
 288:radio_planner/src/radio_planner.c ****     task->start_time_init_ms = 0;
 896              		.loc 1 288 30 is_stmt 0 view .LVU284
 897 002a 6360     		str	r3, [r4, #4]
 289:radio_planner/src/radio_planner.c ****     task->duration_time_ms   = 0;
 898              		.loc 1 289 5 is_stmt 1 view .LVU285
 289:radio_planner/src/radio_planner.c ****     task->duration_time_ms   = 0;
 899              		.loc 1 289 30 is_stmt 0 view .LVU286
 900 002c A360     		str	r3, [r4, #8]
 290:radio_planner/src/radio_planner.c ****     task->type               = RP_TASK_TYPE_NONE;
 901              		.loc 1 290 5 is_stmt 1 view .LVU287
 290:radio_planner/src/radio_planner.c ****     task->type               = RP_TASK_TYPE_NONE;
 902              		.loc 1 290 30 is_stmt 0 view .LVU288
 903 002e E360     		str	r3, [r4, #12]
 291:radio_planner/src/radio_planner.c ****     task->state              = RP_TASK_STATE_FINISHED;
 904              		.loc 1 291 5 is_stmt 1 view .LVU289
 291:radio_planner/src/radio_planner.c ****     task->state              = RP_TASK_STATE_FINISHED;
 905              		.loc 1 291 30 is_stmt 0 view .LVU290
 906 0030 0533     		adds	r3, r3, #5
 907 0032 6370     		strb	r3, [r4, #1]
 292:radio_planner/src/radio_planner.c **** }
ARM GAS  /var/folders/bq/yv49bw8j2kd6w3hsq868qv180000gn/T//ccsEouTz.s 			page 39


 908              		.loc 1 292 5 is_stmt 1 view .LVU291
 909              	.LBE47:
 910              	.LBE49:
 797:radio_planner/src/radio_planner.c ****             rp_hook_callback( rp, i );
 911              		.loc 1 797 27 is_stmt 0 view .LVU292
 912 0034 0133     		adds	r3, r3, #1
 913              	.LBB50:
 914              	.LBB48:
 292:radio_planner/src/radio_planner.c **** }
 915              		.loc 1 292 30 view .LVU293
 916 0036 E770     		strb	r7, [r4, #3]
 917              	.LVL80:
 292:radio_planner/src/radio_planner.c **** }
 918              		.loc 1 292 30 view .LVU294
 919              	.LBE48:
 920              	.LBE50:
 797:radio_planner/src/radio_planner.c ****             rp_hook_callback( rp, i );
 921              		.loc 1 797 13 is_stmt 1 view .LVU295
 797:radio_planner/src/radio_planner.c ****             rp_hook_callback( rp, i );
 922              		.loc 1 797 27 is_stmt 0 view .LVU296
 923 0038 3370     		strb	r3, [r6]
 798:radio_planner/src/radio_planner.c ****         }
 924              		.loc 1 798 13 is_stmt 1 view .LVU297
 925              	.LVL81:
 926              	.LBB51:
 927              	.LBI51:
 817:radio_planner/src/radio_planner.c **** {
 928              		.loc 1 817 13 view .LVU298
 929              	.LBB52:
 819:radio_planner/src/radio_planner.c **** }
 930              		.loc 1 819 5 view .LVU299
 931 003a 054B     		ldr	r3, .L52
 932 003c E858     		ldr	r0, [r5, r3]
 933 003e EB6B     		ldr	r3, [r5, #60]
 934 0040 9847     		blx	r3
 935              	.LVL82:
 936              	.L49:
 819:radio_planner/src/radio_planner.c **** }
 937              		.loc 1 819 5 is_stmt 0 view .LVU300
 938              	.LBE52:
 939              	.LBE51:
 790:radio_planner/src/radio_planner.c ****     {
 940              		.loc 1 790 42 is_stmt 1 discriminator 2 view .LVU301
 790:radio_planner/src/radio_planner.c ****     {
 941              		.loc 1 790 25 discriminator 2 view .LVU302
 790:radio_planner/src/radio_planner.c ****     {
 942              		.loc 1 790 5 is_stmt 0 discriminator 2 view .LVU303
 943 0042 019B     		ldr	r3, [sp, #4]
 944 0044 1034     		adds	r4, r4, #16
 945 0046 0136     		adds	r6, r6, #1
 946              	.LVL83:
 790:radio_planner/src/radio_planner.c ****     {
 947              		.loc 1 790 5 discriminator 2 view .LVU304
 948 0048 0435     		adds	r5, r5, #4
 949 004a 9C42     		cmp	r4, r3
 950 004c E5D1     		bne	.L50
 951              	.LBE53:
ARM GAS  /var/folders/bq/yv49bw8j2kd6w3hsq868qv180000gn/T//ccsEouTz.s 			page 40


 801:radio_planner/src/radio_planner.c **** 
 952              		.loc 1 801 1 view .LVU305
 953              		@ sp needed
 954              	.LVL84:
 801:radio_planner/src/radio_planner.c **** 
 955              		.loc 1 801 1 view .LVU306
 956 004e F7BD     		pop	{r0, r1, r2, r4, r5, r6, r7, pc}
 957              	.L53:
 958              		.align	2
 959              	.L52:
 960 0050 00FFFFFF 		.word	-256
 961              		.cfi_endproc
 962              	.LFE29:
 964              		.section	.text.rp_task_arbiter.isra.0,"ax",%progbits
 965              		.align	1
 966              		.syntax unified
 967              		.code	16
 968              		.thumb_func
 969              		.fpu softvfp
 971              	rp_task_arbiter.isra.0:
 972              	.LVL85:
 973              	.LFB40:
 330:radio_planner/src/radio_planner.c **** {
 974              		.loc 1 330 13 is_stmt 1 view -0
 975              		.cfi_startproc
 976              		@ args = 0, pretend = 0, frame = 48
 977              		@ frame_needed = 0, uses_anonymous_args = 0
 332:radio_planner/src/radio_planner.c **** 
 978              		.loc 1 332 5 view .LVU308
 330:radio_planner/src/radio_planner.c **** {
 979              		.loc 1 330 13 is_stmt 0 view .LVU309
 980 0000 F0B5     		push	{r4, r5, r6, r7, lr}
 981              		.cfi_def_cfa_offset 20
 982              		.cfi_offset 4, -20
 983              		.cfi_offset 5, -16
 984              		.cfi_offset 6, -12
 985              		.cfi_offset 7, -8
 986              		.cfi_offset 14, -4
 987 0002 8DB0     		sub	sp, sp, #52
 988              		.cfi_def_cfa_offset 72
 330:radio_planner/src/radio_planner.c **** {
 989              		.loc 1 330 13 view .LVU310
 990 0004 0400     		movs	r4, r0
 332:radio_planner/src/radio_planner.c **** 
 991              		.loc 1 332 20 view .LVU311
 992 0006 FFF7FEFF 		bl	rp_bsp_timestamp_get
 993              	.LVL86:
 994              	.LBB69:
 995              	.LBB70:
 996              	.LBB71:
 297:radio_planner/src/radio_planner.c ****     {
 997              		.loc 1 297 18 view .LVU312
 998 000a 0026     		movs	r6, #0
 999              	.LBE71:
 1000              	.LBE70:
 1001              	.LBE69:
 332:radio_planner/src/radio_planner.c **** 
ARM GAS  /var/folders/bq/yv49bw8j2kd6w3hsq868qv180000gn/T//ccsEouTz.s 			page 41


 1002              		.loc 1 332 20 view .LVU313
 1003 000c 0700     		movs	r7, r0
 1004              	.LVL87:
 336:radio_planner/src/radio_planner.c **** 
 1005              		.loc 1 336 5 is_stmt 1 view .LVU314
 1006              	.LBB76:
 1007              	.LBI69:
 295:radio_planner/src/radio_planner.c **** {
 1008              		.loc 1 295 13 view .LVU315
 1009              	.LBB74:
 1010              	.LBB72:
 297:radio_planner/src/radio_planner.c ****     {
 1011              		.loc 1 297 25 view .LVU316
 1012 000e B94B     		ldr	r3, .L106
 1013 0010 E518     		adds	r5, r4, r3
 1014              	.LVL88:
 1015              	.L59:
 299:radio_planner/src/radio_planner.c ****         {
 1016              		.loc 1 299 9 view .LVU317
 299:radio_planner/src/radio_planner.c ****         {
 1017              		.loc 1 299 11 is_stmt 0 view .LVU318
 1018 0012 6B78     		ldrb	r3, [r5, #1]
 1019 0014 012B     		cmp	r3, #1
 1020 0016 14D1     		bne	.L56
 301:radio_planner/src/radio_planner.c ****             {
 1021              		.loc 1 301 13 is_stmt 1 view .LVU319
 301:radio_planner/src/radio_planner.c ****             {
 1022              		.loc 1 301 48 is_stmt 0 view .LVU320
 1023 0018 AB1D     		adds	r3, r5, #6
 301:radio_planner/src/radio_planner.c ****             {
 1024              		.loc 1 301 34 view .LVU321
 1025 001a 1B68     		ldr	r3, [r3]
 1026 001c FB1A     		subs	r3, r7, r3
 301:radio_planner/src/radio_planner.c ****             {
 1027              		.loc 1 301 15 view .LVU322
 1028 001e 002B     		cmp	r3, #0
 1029 0020 01DD     		ble	.L57
 303:radio_planner/src/radio_planner.c ****             }
 1030              		.loc 1 303 17 is_stmt 1 view .LVU323
 303:radio_planner/src/radio_planner.c ****             }
 1031              		.loc 1 303 44 is_stmt 0 view .LVU324
 1032 0022 AA1C     		adds	r2, r5, #2
 1033 0024 1760     		str	r7, [r2]
 1034              	.L57:
 307:radio_planner/src/radio_planner.c ****             {
 1035              		.loc 1 307 13 is_stmt 1 view .LVU325
 307:radio_planner/src/radio_planner.c ****             {
 1036              		.loc 1 307 15 is_stmt 0 view .LVU326
 1037 0026 B44A     		ldr	r2, .L106+4
 1038 0028 9342     		cmp	r3, r2
 1039 002a 0ADD     		ble	.L56
 309:radio_planner/src/radio_planner.c ****                 // Schedule the task @ now + RP_TASK_RE_SCHEDULE_OFFSET_TIME
 1040              		.loc 1 309 17 is_stmt 1 view .LVU327
 312:radio_planner/src/radio_planner.c ****                 rp->tasks[i].priority      = ( rp->tasks[i].state * RP_NB_HOOKS ) + i;
 1041              		.loc 1 312 50 is_stmt 0 view .LVU328
 1042 002c FA22     		movs	r2, #250
 309:radio_planner/src/radio_planner.c ****                 // Schedule the task @ now + RP_TASK_RE_SCHEDULE_OFFSET_TIME
ARM GAS  /var/folders/bq/yv49bw8j2kd6w3hsq868qv180000gn/T//ccsEouTz.s 			page 42


 1043              		.loc 1 309 36 view .LVU329
 1044 002e 0023     		movs	r3, #0
 312:radio_planner/src/radio_planner.c ****                 rp->tasks[i].priority      = ( rp->tasks[i].state * RP_NB_HOOKS ) + i;
 1045              		.loc 1 312 50 view .LVU330
 1046 0030 D200     		lsls	r2, r2, #3
 309:radio_planner/src/radio_planner.c ****                 // Schedule the task @ now + RP_TASK_RE_SCHEDULE_OFFSET_TIME
 1047              		.loc 1 309 36 view .LVU331
 1048 0032 6B70     		strb	r3, [r5, #1]
 312:radio_planner/src/radio_planner.c ****                 rp->tasks[i].priority      = ( rp->tasks[i].state * RP_NB_HOOKS ) + i;
 1049              		.loc 1 312 17 is_stmt 1 view .LVU332
 312:radio_planner/src/radio_planner.c ****                 rp->tasks[i].priority      = ( rp->tasks[i].state * RP_NB_HOOKS ) + i;
 1050              		.loc 1 312 50 is_stmt 0 view .LVU333
 1051 0034 BA18     		adds	r2, r7, r2
 312:radio_planner/src/radio_planner.c ****                 rp->tasks[i].priority      = ( rp->tasks[i].state * RP_NB_HOOKS ) + i;
 1052              		.loc 1 312 44 view .LVU334
 1053 0036 AB1C     		adds	r3, r5, #2
 1054 0038 1A60     		str	r2, [r3]
 313:radio_planner/src/radio_planner.c ****                 BSP_DBG_TRACE_PRINTF_RP( "RP: WARNING - SWITCH TASK FROM ASAP TO SCHEDULE \n" );
 1055              		.loc 1 313 17 is_stmt 1 view .LVU335
 315:radio_planner/src/radio_planner.c ****             }
 1056              		.loc 1 315 17 is_stmt 0 view .LVU336
 1057 003a 2000     		movs	r0, r4
 313:radio_planner/src/radio_planner.c ****                 BSP_DBG_TRACE_PRINTF_RP( "RP: WARNING - SWITCH TASK FROM ASAP TO SCHEDULE \n" );
 1058              		.loc 1 313 44 view .LVU337
 1059 003c 2E70     		strb	r6, [r5]
 314:radio_planner/src/radio_planner.c ****                 rp_task_compute_ranking( rp );
 1060              		.loc 1 314 96 is_stmt 1 view .LVU338
 315:radio_planner/src/radio_planner.c ****             }
 1061              		.loc 1 315 17 view .LVU339
 1062 003e FFF7FEFF 		bl	rp_task_compute_ranking
 1063              	.LVL89:
 1064              	.L56:
 297:radio_planner/src/radio_planner.c ****     {
 1065              		.loc 1 297 42 view .LVU340
 297:radio_planner/src/radio_planner.c ****     {
 1066              		.loc 1 297 43 is_stmt 0 view .LVU341
 1067 0042 0136     		adds	r6, r6, #1
 1068              	.LVL90:
 297:radio_planner/src/radio_planner.c ****     {
 1069              		.loc 1 297 25 is_stmt 1 view .LVU342
 1070 0044 1035     		adds	r5, r5, #16
 297:radio_planner/src/radio_planner.c ****     {
 1071              		.loc 1 297 5 is_stmt 0 view .LVU343
 1072 0046 082E     		cmp	r6, #8
 1073 0048 E3D1     		bne	.L59
 1074              	.LBE72:
 320:radio_planner/src/radio_planner.c ****         ( ( rp->tasks[rp->radio_task_id].type == RP_TASK_TYPE_RX_LORA ) ||
 1075              		.loc 1 320 5 is_stmt 1 view .LVU344
 320:radio_planner/src/radio_planner.c ****         ( ( rp->tasks[rp->radio_task_id].type == RP_TASK_TYPE_RX_LORA ) ||
 1076              		.loc 1 320 23 is_stmt 0 view .LVU345
 1077 004a AC4A     		ldr	r2, .L106+8
 1078 004c A35C     		ldrb	r3, [r4, r2]
 1079 004e 0592     		str	r2, [sp, #20]
 1080 0050 1B01     		lsls	r3, r3, #4
 1081 0052 E618     		adds	r6, r4, r3
 1082              	.LVL91:
 320:radio_planner/src/radio_planner.c ****         ( ( rp->tasks[rp->radio_task_id].type == RP_TASK_TYPE_RX_LORA ) ||
ARM GAS  /var/folders/bq/yv49bw8j2kd6w3hsq868qv180000gn/T//ccsEouTz.s 			page 43


 1083              		.loc 1 320 39 view .LVU346
 1084 0054 AA4B     		ldr	r3, .L106+12
 320:radio_planner/src/radio_planner.c ****         ( ( rp->tasks[rp->radio_task_id].type == RP_TASK_TYPE_RX_LORA ) ||
 1085              		.loc 1 320 7 view .LVU347
 1086 0056 F15C     		ldrb	r1, [r6, r3]
 1087 0058 0293     		str	r3, [sp, #8]
 1088 005a 0229     		cmp	r1, #2
 1089 005c 0BD1     		bne	.L60
 321:radio_planner/src/radio_planner.c ****           ( rp->tasks[rp->radio_task_id].type == RP_TASK_TYPE_RX_FSK ) ) )
 1090              		.loc 1 321 41 view .LVU348
 1091 005e A94B     		ldr	r3, .L106+16
 320:radio_planner/src/radio_planner.c ****         ( ( rp->tasks[rp->radio_task_id].type == RP_TASK_TYPE_RX_LORA ) ||
 1092              		.loc 1 320 73 view .LVU349
 1093 0060 F35C     		ldrb	r3, [r6, r3]
 1094 0062 012B     		cmp	r3, #1
 1095 0064 07D8     		bhi	.L60
 324:radio_planner/src/radio_planner.c ****             now + RP_MARGIN_DELAY + 2 - rp->tasks[rp->radio_task_id].start_time_ms;
 1096              		.loc 1 324 9 is_stmt 1 view .LVU350
 324:radio_planner/src/radio_planner.c ****             now + RP_MARGIN_DELAY + 2 - rp->tasks[rp->radio_task_id].start_time_ms;
 1097              		.loc 1 324 55 is_stmt 0 view .LVU351
 1098 0066 C723     		movs	r3, #199
 1099 0068 9B00     		lsls	r3, r3, #2
 1100 006a F218     		adds	r2, r6, r3
 325:radio_planner/src/radio_planner.c ****         BSP_DBG_TRACE_PRINTF_RP( " RP: Extended duration of radio task #%u time to %lu ms\n", rp->r
 1101              		.loc 1 325 39 view .LVU352
 1102 006c 083B     		subs	r3, r3, #8
 1103 006e F358     		ldr	r3, [r6, r3]
 1104 0070 FB1A     		subs	r3, r7, r3
 1105 0072 0A33     		adds	r3, r3, #10
 324:radio_planner/src/radio_planner.c ****             now + RP_MARGIN_DELAY + 2 - rp->tasks[rp->radio_task_id].start_time_ms;
 1106              		.loc 1 324 55 view .LVU353
 1107 0074 1360     		str	r3, [r2]
 1108              	.L60:
 324:radio_planner/src/radio_planner.c ****             now + RP_MARGIN_DELAY + 2 - rp->tasks[rp->radio_task_id].start_time_ms;
 1109              		.loc 1 324 55 view .LVU354
 1110 0076 A24B     		ldr	r3, .L106+12
 1111              	.LBE74:
 1112              	.LBE76:
 1113              	.LBB77:
 1114              	.LBB78:
 607:radio_planner/src/radio_planner.c ****         }
 1115              		.loc 1 607 38 view .LVU355
 1116 0078 0320     		movs	r0, #3
 1117 007a E318     		adds	r3, r4, r3
 1118 007c 0393     		str	r3, [sp, #12]
 1119 007e 0193     		str	r3, [sp, #4]
 1120 0080 C523     		movs	r3, #197
 1121 0082 9B00     		lsls	r3, r3, #2
 1122 0084 E318     		adds	r3, r4, r3
 1123 0086 0493     		str	r3, [sp, #16]
 1124 0088 0693     		str	r3, [sp, #24]
 1125 008a 9F4B     		ldr	r3, .L106+20
 1126              	.LBE78:
 1127              	.LBE77:
 1128              	.LBB89:
 1129              	.LBB75:
 1130              	.LBB73:
ARM GAS  /var/folders/bq/yv49bw8j2kd6w3hsq868qv180000gn/T//ccsEouTz.s 			page 44


 297:radio_planner/src/radio_planner.c ****     {
 1131              		.loc 1 297 18 view .LVU356
 1132 008c 049A     		ldr	r2, [sp, #16]
 1133 008e E318     		adds	r3, r4, r3
 1134 0090 0793     		str	r3, [sp, #28]
 1135 0092 039B     		ldr	r3, [sp, #12]
 1136              	.LVL92:
 1137              	.L62:
 297:radio_planner/src/radio_planner.c ****     {
 1138              		.loc 1 297 18 view .LVU357
 1139              	.LBE73:
 1140              	.LBE75:
 1141              	.LBE89:
 1142              	.LBB90:
 1143              	.LBB85:
 604:radio_planner/src/radio_planner.c ****             ( ( ( int32_t )( rp->tasks[hook_id].start_time_ms - now ) < 0 ) ) )
 1144              		.loc 1 604 9 is_stmt 1 view .LVU358
 604:radio_planner/src/radio_planner.c ****             ( ( ( int32_t )( rp->tasks[hook_id].start_time_ms - now ) < 0 ) ) )
 1145              		.loc 1 604 11 is_stmt 0 view .LVU359
 1146 0094 1978     		ldrb	r1, [r3]
 1147 0096 0029     		cmp	r1, #0
 1148 0098 03D1     		bne	.L61
 605:radio_planner/src/radio_planner.c ****         {
 1149              		.loc 1 605 63 view .LVU360
 1150 009a 1168     		ldr	r1, [r2]
 1151 009c C91B     		subs	r1, r1, r7
 604:radio_planner/src/radio_planner.c ****             ( ( ( int32_t )( rp->tasks[hook_id].start_time_ms - now ) < 0 ) ) )
 1152              		.loc 1 604 68 view .LVU361
 1153 009e 00D5     		bpl	.L61
 607:radio_planner/src/radio_planner.c ****         }
 1154              		.loc 1 607 13 is_stmt 1 view .LVU362
 607:radio_planner/src/radio_planner.c ****         }
 1155              		.loc 1 607 38 is_stmt 0 view .LVU363
 1156 00a0 1870     		strb	r0, [r3]
 1157              	.L61:
 602:radio_planner/src/radio_planner.c ****     {  // Garbage collector
 1158              		.loc 1 602 46 is_stmt 1 view .LVU364
 602:radio_planner/src/radio_planner.c ****     {  // Garbage collector
 1159              		.loc 1 602 23 view .LVU365
 602:radio_planner/src/radio_planner.c ****     {  // Garbage collector
 1160              		.loc 1 602 5 is_stmt 0 view .LVU366
 1161 00a2 0799     		ldr	r1, [sp, #28]
 1162 00a4 1033     		adds	r3, r3, #16
 1163 00a6 1032     		adds	r2, r2, #16
 1164 00a8 9942     		cmp	r1, r3
 1165 00aa F3D1     		bne	.L62
 1166 00ac F022     		movs	r2, #240
 614:radio_planner/src/radio_planner.c ****             ( rp->tasks[rank].state == RP_TASK_STATE_RUNNING ) )
 1167              		.loc 1 614 45 view .LVU367
 1168 00ae C521     		movs	r1, #197
 1169 00b0 0023     		movs	r3, #0
 1170 00b2 9200     		lsls	r2, r2, #2
 1171 00b4 A218     		adds	r2, r4, r2
 1172 00b6 0992     		str	r2, [sp, #36]
 1173 00b8 8900     		lsls	r1, r1, #2
 1174              	.L67:
 1175              	.LVL93:
ARM GAS  /var/folders/bq/yv49bw8j2kd6w3hsq868qv180000gn/T//ccsEouTz.s 			page 45


 612:radio_planner/src/radio_planner.c ****         if( ( ( rp->tasks[rank].state < RP_TASK_STATE_RUNNING ) &&
 1176              		.loc 1 612 9 is_stmt 1 view .LVU368
 1177 00ba 099A     		ldr	r2, [sp, #36]
 612:radio_planner/src/radio_planner.c ****         if( ( ( rp->tasks[rank].state < RP_TASK_STATE_RUNNING ) &&
 1178              		.loc 1 612 28 is_stmt 0 view .LVU369
 1179 00bc 1800     		movs	r0, r3
 1180              	.LVL94:
 613:radio_planner/src/radio_planner.c ****               ( ( int32_t )( rp->tasks[rank].start_time_ms - now ) >= 0 ) ) ||
 1181              		.loc 1 613 9 is_stmt 1 view .LVU370
 1182 00be D55C     		ldrb	r5, [r2, r3]
 613:radio_planner/src/radio_planner.c ****               ( ( int32_t )( rp->tasks[rank].start_time_ms - now ) >= 0 ) ) ||
 1183              		.loc 1 613 32 is_stmt 0 view .LVU371
 1184 00c0 029A     		ldr	r2, [sp, #8]
 613:radio_planner/src/radio_planner.c ****               ( ( int32_t )( rp->tasks[rank].start_time_ms - now ) >= 0 ) ) ||
 1185              		.loc 1 613 32 view .LVU372
 1186 00c2 2D01     		lsls	r5, r5, #4
 1187 00c4 6519     		adds	r5, r4, r5
 1188 00c6 AA5C     		ldrb	r2, [r5, r2]
 613:radio_planner/src/radio_planner.c ****               ( ( int32_t )( rp->tasks[rank].start_time_ms - now ) >= 0 ) ) ||
 1189              		.loc 1 613 11 view .LVU373
 1190 00c8 012A     		cmp	r2, #1
 1191 00ca 00D9     		bls	.LCB1047
 1192 00cc 82E0     		b	.L63	@long jump
 1193              	.LCB1047:
 614:radio_planner/src/radio_planner.c ****             ( rp->tasks[rank].state == RP_TASK_STATE_RUNNING ) )
 1194              		.loc 1 614 60 view .LVU374
 1195 00ce 6A58     		ldr	r2, [r5, r1]
 1196 00d0 D21B     		subs	r2, r2, r7
 613:radio_planner/src/radio_planner.c ****               ( ( int32_t )( rp->tasks[rank].start_time_ms - now ) >= 0 ) ) ||
 1197              		.loc 1 613 65 view .LVU375
 1198 00d2 00D5     		bpl	.LCB1052
 1199 00d4 81E0     		b	.L65	@long jump
 1200              	.LCB1052:
 1201              	.L64:
 617:radio_planner/src/radio_planner.c ****             hook_time_to_exe_tmp = rp->tasks[rank].start_time_ms;
 1202              		.loc 1 617 13 is_stmt 1 view .LVU376
 617:radio_planner/src/radio_planner.c ****             hook_time_to_exe_tmp = rp->tasks[rank].start_time_ms;
 1203              		.loc 1 617 34 is_stmt 0 view .LVU377
 1204 00d6 C422     		movs	r2, #196
 618:radio_planner/src/radio_planner.c ****             break;
 1205              		.loc 1 618 34 view .LVU378
 1206 00d8 C521     		movs	r1, #197
 617:radio_planner/src/radio_planner.c ****             hook_time_to_exe_tmp = rp->tasks[rank].start_time_ms;
 1207              		.loc 1 617 34 view .LVU379
 1208 00da 9200     		lsls	r2, r2, #2
 618:radio_planner/src/radio_planner.c ****             break;
 1209              		.loc 1 618 34 view .LVU380
 1210 00dc 8900     		lsls	r1, r1, #2
 617:radio_planner/src/radio_planner.c ****             hook_time_to_exe_tmp = rp->tasks[rank].start_time_ms;
 1211              		.loc 1 617 34 view .LVU381
 1212 00de AB5C     		ldrb	r3, [r5, r2]
 1213              	.LVL95:
 618:radio_planner/src/radio_planner.c ****             break;
 1214              		.loc 1 618 13 is_stmt 1 view .LVU382
 618:radio_planner/src/radio_planner.c ****             break;
 1215              		.loc 1 618 34 is_stmt 0 view .LVU383
 1216 00e0 6D58     		ldr	r5, [r5, r1]
ARM GAS  /var/folders/bq/yv49bw8j2kd6w3hsq868qv180000gn/T//ccsEouTz.s 			page 46


 1217              	.LBB79:
 1218              	.LBB80:
 634:radio_planner/src/radio_planner.c **** 
 1219              		.loc 1 634 39 view .LVU384
 1220 00e2 0A91     		str	r1, [sp, #40]
 1221              	.LBE80:
 1222              	.LBE79:
 618:radio_planner/src/radio_planner.c ****             break;
 1223              		.loc 1 618 34 view .LVU385
 1224 00e4 AC46     		mov	ip, r5
 1225              	.LVL96:
 619:radio_planner/src/radio_planner.c ****         }
 1226              		.loc 1 619 13 is_stmt 1 view .LVU386
 622:radio_planner/src/radio_planner.c ****     {
 1227              		.loc 1 622 5 view .LVU387
 627:radio_planner/src/radio_planner.c ****     {
 1228              		.loc 1 627 5 view .LVU388
 1229              	.LBB83:
 627:radio_planner/src/radio_planner.c ****     {
 1230              		.loc 1 627 10 view .LVU389
 627:radio_planner/src/radio_planner.c ****     {
 1231              		.loc 1 627 31 view .LVU390
 1232              	.LBB81:
 639:radio_planner/src/radio_planner.c ****                 hook_time_to_exe_tmp = rp->tasks[rank].start_time_ms;
 1233              		.loc 1 639 38 is_stmt 0 view .LVU391
 1234 00e6 0B92     		str	r2, [sp, #44]
 1235              	.LVL97:
 1236              	.L66:
 639:radio_planner/src/radio_planner.c ****                 hook_time_to_exe_tmp = rp->tasks[rank].start_time_ms;
 1237              		.loc 1 639 38 view .LVU392
 1238              	.LBE81:
 629:radio_planner/src/radio_planner.c ****         if( ( ( rp->tasks[rank].state < RP_TASK_STATE_RUNNING ) &&
 1239              		.loc 1 629 9 is_stmt 1 view .LVU393
 629:radio_planner/src/radio_planner.c ****         if( ( ( rp->tasks[rank].state < RP_TASK_STATE_RUNNING ) &&
 1240              		.loc 1 629 14 is_stmt 0 view .LVU394
 1241 00e8 099A     		ldr	r2, [sp, #36]
 630:radio_planner/src/radio_planner.c ****               ( ( int32_t )( rp->tasks[rank].start_time_ms - now ) >= 0 ) ) ||
 1242              		.loc 1 630 32 view .LVU395
 1243 00ea 0299     		ldr	r1, [sp, #8]
 629:radio_planner/src/radio_planner.c ****         if( ( ( rp->tasks[rank].state < RP_TASK_STATE_RUNNING ) &&
 1244              		.loc 1 629 14 view .LVU396
 1245 00ec 125C     		ldrb	r2, [r2, r0]
 630:radio_planner/src/radio_planner.c ****               ( ( int32_t )( rp->tasks[rank].start_time_ms - now ) >= 0 ) ) ||
 1246              		.loc 1 630 9 is_stmt 1 view .LVU397
 1247 00ee 1201     		lsls	r2, r2, #4
 1248 00f0 A518     		adds	r5, r4, r2
 630:radio_planner/src/radio_planner.c ****               ( ( int32_t )( rp->tasks[rank].start_time_ms - now ) >= 0 ) ) ||
 1249              		.loc 1 630 32 is_stmt 0 view .LVU398
 1250 00f2 695C     		ldrb	r1, [r5, r1]
 630:radio_planner/src/radio_planner.c ****               ( ( int32_t )( rp->tasks[rank].start_time_ms - now ) >= 0 ) ) ||
 1251              		.loc 1 630 11 view .LVU399
 1252 00f4 0129     		cmp	r1, #1
 1253 00f6 78D8     		bhi	.L69
 631:radio_planner/src/radio_planner.c ****             ( rp->tasks[rank].state == RP_TASK_STATE_RUNNING ) )
 1254              		.loc 1 631 60 view .LVU400
 1255 00f8 0A99     		ldr	r1, [sp, #40]
 1256 00fa 6958     		ldr	r1, [r5, r1]
ARM GAS  /var/folders/bq/yv49bw8j2kd6w3hsq868qv180000gn/T//ccsEouTz.s 			page 47


 1257 00fc C91B     		subs	r1, r1, r7
 630:radio_planner/src/radio_planner.c ****               ( ( int32_t )( rp->tasks[rank].start_time_ms - now ) >= 0 ) ) ||
 1258              		.loc 1 630 65 view .LVU401
 1259 00fe 76D5     		bpl	.L70
 1260              	.L71:
 627:radio_planner/src/radio_planner.c ****     {
 1261              		.loc 1 627 48 is_stmt 1 view .LVU402
 627:radio_planner/src/radio_planner.c ****     {
 1262              		.loc 1 627 49 is_stmt 0 view .LVU403
 1263 0100 0130     		adds	r0, r0, #1
 1264              	.LVL98:
 627:radio_planner/src/radio_planner.c ****     {
 1265              		.loc 1 627 31 is_stmt 1 view .LVU404
 627:radio_planner/src/radio_planner.c ****     {
 1266              		.loc 1 627 5 is_stmt 0 view .LVU405
 1267 0102 0828     		cmp	r0, #8
 1268 0104 F0D1     		bne	.L66
 627:radio_planner/src/radio_planner.c ****     {
 1269              		.loc 1 627 5 view .LVU406
 1270              	.LBE83:
 644:radio_planner/src/radio_planner.c ****     return RP_SOMETHING_TO_DO;
 1271              		.loc 1 644 5 is_stmt 1 view .LVU407
 645:radio_planner/src/radio_planner.c **** }
 1272              		.loc 1 645 5 view .LVU408
 1273              	.LVL99:
 645:radio_planner/src/radio_planner.c **** }
 1274              		.loc 1 645 5 is_stmt 0 view .LVU409
 1275              	.LBE85:
 1276              	.LBE90:
 1277              	.LBB91:
 341:radio_planner/src/radio_planner.c ****         BSP_DBG_TRACE_PRINTF_RP(
 1278              		.loc 1 341 9 is_stmt 1 view .LVU410
 1279              	.LBE91:
 1280              	.LBB109:
 1281              	.LBB86:
 644:radio_planner/src/radio_planner.c ****     return RP_SOMETHING_TO_DO;
 1282              		.loc 1 644 23 is_stmt 0 view .LVU411
 1283 0106 2200     		movs	r2, r4
 1284 0108 3133     		adds	r3, r3, #49
 1285 010a 1B01     		lsls	r3, r3, #4
 1286 010c E318     		adds	r3, r4, r3
 1287 010e 23CB     		ldmia	r3!, {r0, r1, r5}
 1288 0110 23C2     		stmia	r2!, {r0, r1, r5}
 1289 0112 1B68     		ldr	r3, [r3]
 1290 0114 1360     		str	r3, [r2]
 1291              	.LBE86:
 1292              	.LBE109:
 1293              	.LBB110:
 341:radio_planner/src/radio_planner.c ****         BSP_DBG_TRACE_PRINTF_RP(
 1294              		.loc 1 341 70 view .LVU412
 1295 0116 6368     		ldr	r3, [r4, #4]
 1296 0118 DB1B     		subs	r3, r3, r7
 1297              	.LVL100:
 346:radio_planner/src/radio_planner.c **** 
 1298              		.loc 1 346 89 is_stmt 1 view .LVU413
 349:radio_planner/src/radio_planner.c ****         {  // The high priority task is in the future
 1299              		.loc 1 349 9 view .LVU414
ARM GAS  /var/folders/bq/yv49bw8j2kd6w3hsq868qv180000gn/T//ccsEouTz.s 			page 48


 349:radio_planner/src/radio_planner.c ****         {  // The high priority task is in the future
 1300              		.loc 1 349 11 is_stmt 0 view .LVU415
 1301 011a 082B     		cmp	r3, #8
 1302 011c 0FDC     		bgt	.L72
 354:radio_planner/src/radio_planner.c ****         {  // The high priority task is in the past, error case
 1303              		.loc 1 354 14 is_stmt 1 view .LVU416
 354:radio_planner/src/radio_planner.c ****         {  // The high priority task is in the past, error case
 1304              		.loc 1 354 16 is_stmt 0 view .LVU417
 1305 011e 002B     		cmp	r3, #0
 1306 0120 7BDA     		bge	.L73
 356:radio_planner/src/radio_planner.c ****             {
 1307              		.loc 1 356 13 is_stmt 1 view .LVU418
 356:radio_planner/src/radio_planner.c ****             {
 1308              		.loc 1 356 15 is_stmt 0 view .LVU419
 1309 0122 E378     		ldrb	r3, [r4, #3]
 1310              	.LVL101:
 356:radio_planner/src/radio_planner.c ****             {
 1311              		.loc 1 356 15 view .LVU420
 1312 0124 022B     		cmp	r3, #2
 1313 0126 0AD0     		beq	.L72
 358:radio_planner/src/radio_planner.c ****                 BSP_DBG_TRACE_PRINTF_RP( " RP: ERROR - delay #%ld - hook #%u\n", delay, rp->priorit
 1314              		.loc 1 358 17 is_stmt 1 view .LVU421
 358:radio_planner/src/radio_planner.c ****                 BSP_DBG_TRACE_PRINTF_RP( " RP: ERROR - delay #%ld - hook #%u\n", delay, rp->priorit
 1315              		.loc 1 358 35 is_stmt 0 view .LVU422
 1316 0128 9D22     		movs	r2, #157
 1317 012a D200     		lsls	r2, r2, #3
 1318 012c A358     		ldr	r3, [r4, r2]
 1319 012e 0133     		adds	r3, r3, #1
 1320 0130 A350     		str	r3, [r4, r2]
 359:radio_planner/src/radio_planner.c **** 
 1321              		.loc 1 359 116 is_stmt 1 view .LVU423
 361:radio_planner/src/radio_planner.c ****             }
 1322              		.loc 1 361 17 view .LVU424
 361:radio_planner/src/radio_planner.c ****             }
 1323              		.loc 1 361 60 is_stmt 0 view .LVU425
 1324 0132 0322     		movs	r2, #3
 361:radio_planner/src/radio_planner.c ****             }
 1325              		.loc 1 361 44 view .LVU426
 1326 0134 2378     		ldrb	r3, [r4]
 361:radio_planner/src/radio_planner.c ****             }
 1327              		.loc 1 361 60 view .LVU427
 1328 0136 3133     		adds	r3, r3, #49
 1329 0138 1B01     		lsls	r3, r3, #4
 1330 013a E318     		adds	r3, r4, r3
 1331 013c DA70     		strb	r2, [r3, #3]
 1332              	.LVL102:
 1333              	.L72:
 396:radio_planner/src/radio_planner.c **** 
 1334              		.loc 1 396 9 is_stmt 1 view .LVU428
 396:radio_planner/src/radio_planner.c **** 
 1335              		.loc 1 396 48 is_stmt 0 view .LVU429
 1336 013e A023     		movs	r3, #160
 396:radio_planner/src/radio_planner.c **** 
 1337              		.loc 1 396 64 view .LVU430
 1338 0140 C521     		movs	r1, #197
 396:radio_planner/src/radio_planner.c **** 
 1339              		.loc 1 396 48 view .LVU431
ARM GAS  /var/folders/bq/yv49bw8j2kd6w3hsq868qv180000gn/T//ccsEouTz.s 			page 49


 1340 0142 DB00     		lsls	r3, r3, #3
 1341 0144 E25C     		ldrb	r2, [r4, r3]
 396:radio_planner/src/radio_planner.c **** 
 1342              		.loc 1 396 64 view .LVU432
 1343 0146 8900     		lsls	r1, r1, #2
 1344 0148 1301     		lsls	r3, r2, #4
 1345 014a E318     		adds	r3, r4, r3
 1346              	.LVL103:
 398:radio_planner/src/radio_planner.c ****             ( rp->timer_hook_id != rp->priority_task.hook_id ) )
 1347              		.loc 1 398 9 is_stmt 1 view .LVU433
 398:radio_planner/src/radio_planner.c ****             ( rp->timer_hook_id != rp->priority_task.hook_id ) )
 1348              		.loc 1 398 25 is_stmt 0 view .LVU434
 1349 014c 5858     		ldr	r0, [r3, r1]
 1350 014e 0138     		subs	r0, r0, #1
 1351 0150 C01B     		subs	r0, r0, r7
 398:radio_planner/src/radio_planner.c ****             ( rp->timer_hook_id != rp->priority_task.hook_id ) )
 1352              		.loc 1 398 11 view .LVU435
 1353 0152 0628     		cmp	r0, #6
 1354 0154 09D8     		bhi	.L75
 398:radio_planner/src/radio_planner.c ****             ( rp->timer_hook_id != rp->priority_task.hook_id ) )
 1355              		.loc 1 398 61 view .LVU436
 1356 0156 6D49     		ldr	r1, .L106+24
 398:radio_planner/src/radio_planner.c ****             ( rp->timer_hook_id != rp->priority_task.hook_id ) )
 1357              		.loc 1 398 54 view .LVU437
 1358 0158 615C     		ldrb	r1, [r4, r1]
 1359 015a 0129     		cmp	r1, #1
 1360 015c 05D1     		bne	.L75
 398:radio_planner/src/radio_planner.c ****             ( rp->timer_hook_id != rp->priority_task.hook_id ) )
 1361              		.loc 1 398 114 view .LVU438
 1362 015e 2178     		ldrb	r1, [r4]
 1363 0160 9142     		cmp	r1, r2
 1364 0162 02D0     		beq	.L75
 401:radio_planner/src/radio_planner.c ****             rp->tasks[rp->timer_hook_id].state = RP_TASK_STATE_ABORTED;
 1365              		.loc 1 401 117 is_stmt 1 view .LVU439
 402:radio_planner/src/radio_planner.c ****         }
 1366              		.loc 1 402 13 view .LVU440
 402:radio_planner/src/radio_planner.c ****         }
 1367              		.loc 1 402 48 is_stmt 0 view .LVU441
 1368 0164 0322     		movs	r2, #3
 1369 0166 0299     		ldr	r1, [sp, #8]
 1370 0168 5A54     		strb	r2, [r3, r1]
 1371              	.LVL104:
 1372              	.L75:
 406:radio_planner/src/radio_planner.c ****         {
 1373              		.loc 1 406 9 is_stmt 1 view .LVU442
 406:radio_planner/src/radio_planner.c ****         {
 1374              		.loc 1 406 25 is_stmt 0 view .LVU443
 1375 016a 059B     		ldr	r3, [sp, #20]
 1376 016c E35C     		ldrb	r3, [r4, r3]
 406:radio_planner/src/radio_planner.c ****         {
 1377              		.loc 1 406 41 view .LVU444
 1378 016e 3133     		adds	r3, r3, #49
 1379 0170 1B01     		lsls	r3, r3, #4
 1380 0172 E318     		adds	r3, r4, r3
 406:radio_planner/src/radio_planner.c ****         {
 1381              		.loc 1 406 11 view .LVU445
 1382 0174 DB78     		ldrb	r3, [r3, #3]
ARM GAS  /var/folders/bq/yv49bw8j2kd6w3hsq868qv180000gn/T//ccsEouTz.s 			page 50


 1383 0176 022B     		cmp	r3, #2
 1384 0178 02D0     		beq	.L76
 408:radio_planner/src/radio_planner.c ****         }
 1385              		.loc 1 408 13 is_stmt 1 view .LVU446
 1386 017a 2000     		movs	r0, r4
 1387 017c FFF7FEFF 		bl	rp_task_call_aborted
 1388              	.LVL105:
 1389              	.L76:
 412:radio_planner/src/radio_planner.c **** 
 1390              		.loc 1 412 9 view .LVU447
 412:radio_planner/src/radio_planner.c **** 
 1391              		.loc 1 412 33 is_stmt 0 view .LVU448
 1392 0180 FFF7FEFF 		bl	rp_bsp_timestamp_get
 1393              	.LVL106:
 1394              	.LBB92:
 1395              	.LBI92:
 648:radio_planner/src/radio_planner.c ****                                                 const uint32_t now )
 1396              		.loc 1 648 31 is_stmt 1 view .LVU449
 1397              	.LBB93:
 651:radio_planner/src/radio_planner.c ****     uint8_t  index    = 0;
 1398              		.loc 1 651 5 view .LVU450
 652:radio_planner/src/radio_planner.c ****     uint32_t time_tmp = now;
 1399              		.loc 1 652 5 view .LVU451
 653:radio_planner/src/radio_planner.c **** 
 1400              		.loc 1 653 5 view .LVU452
 655:radio_planner/src/radio_planner.c ****     {  // Garbage collector
 1401              		.loc 1 655 5 view .LVU453
 655:radio_planner/src/radio_planner.c ****     {  // Garbage collector
 1402              		.loc 1 655 23 view .LVU454
 660:radio_planner/src/radio_planner.c ****         }
 1403              		.loc 1 660 38 is_stmt 0 view .LVU455
 1404 0184 0322     		movs	r2, #3
 1405              	.LVL107:
 1406              	.L78:
 657:radio_planner/src/radio_planner.c ****             ( ( ( int32_t )( rp->tasks[hook_id].start_time_ms - time_tmp ) < 0 ) ) )
 1407              		.loc 1 657 9 is_stmt 1 view .LVU456
 657:radio_planner/src/radio_planner.c ****             ( ( ( int32_t )( rp->tasks[hook_id].start_time_ms - time_tmp ) < 0 ) ) )
 1408              		.loc 1 657 11 is_stmt 0 view .LVU457
 1409 0186 019B     		ldr	r3, [sp, #4]
 1410 0188 1B78     		ldrb	r3, [r3]
 1411 018a 002B     		cmp	r3, #0
 1412 018c 06D1     		bne	.L77
 658:radio_planner/src/radio_planner.c ****         {
 1413              		.loc 1 658 63 view .LVU458
 1414 018e 069B     		ldr	r3, [sp, #24]
 1415 0190 1B68     		ldr	r3, [r3]
 1416 0192 0293     		str	r3, [sp, #8]
 1417 0194 1B1A     		subs	r3, r3, r0
 657:radio_planner/src/radio_planner.c ****             ( ( ( int32_t )( rp->tasks[hook_id].start_time_ms - time_tmp ) < 0 ) ) )
 1418              		.loc 1 657 68 view .LVU459
 1419 0196 01D5     		bpl	.L77
 660:radio_planner/src/radio_planner.c ****         }
 1420              		.loc 1 660 13 is_stmt 1 view .LVU460
 660:radio_planner/src/radio_planner.c ****         }
 1421              		.loc 1 660 38 is_stmt 0 view .LVU461
 1422 0198 019B     		ldr	r3, [sp, #4]
 1423 019a 1A70     		strb	r2, [r3]
ARM GAS  /var/folders/bq/yv49bw8j2kd6w3hsq868qv180000gn/T//ccsEouTz.s 			page 51


 1424              	.L77:
 655:radio_planner/src/radio_planner.c ****     {  // Garbage collector
 1425              		.loc 1 655 46 is_stmt 1 view .LVU462
 655:radio_planner/src/radio_planner.c ****     {  // Garbage collector
 1426              		.loc 1 655 23 view .LVU463
 1427 019c 019B     		ldr	r3, [sp, #4]
 1428 019e 1033     		adds	r3, r3, #16
 1429 01a0 0193     		str	r3, [sp, #4]
 1430 01a2 069B     		ldr	r3, [sp, #24]
 655:radio_planner/src/radio_planner.c ****     {  // Garbage collector
 1431              		.loc 1 655 5 is_stmt 0 view .LVU464
 1432 01a4 0199     		ldr	r1, [sp, #4]
 1433 01a6 1033     		adds	r3, r3, #16
 1434 01a8 0693     		str	r3, [sp, #24]
 1435 01aa 079B     		ldr	r3, [sp, #28]
 1436 01ac 8B42     		cmp	r3, r1
 1437 01ae EAD1     		bne	.L78
 1438 01b0 0023     		movs	r3, #0
 1439              	.L81:
 665:radio_planner/src/radio_planner.c ****             ( ( ( int32_t )( rp->tasks[hook_id].start_time_ms - time_tmp ) >= 0 ) ) )
 1440              		.loc 1 665 11 view .LVU465
 1441 01b2 0399     		ldr	r1, [sp, #12]
 1442 01b4 1A01     		lsls	r2, r3, #4
 1443 01b6 895C     		ldrb	r1, [r1, r2]
 1444 01b8 DDB2     		uxtb	r5, r3
 1445              	.LVL108:
 665:radio_planner/src/radio_planner.c ****             ( ( ( int32_t )( rp->tasks[hook_id].start_time_ms - time_tmp ) >= 0 ) ) )
 1446              		.loc 1 665 9 is_stmt 1 view .LVU466
 665:radio_planner/src/radio_planner.c ****             ( ( ( int32_t )( rp->tasks[hook_id].start_time_ms - time_tmp ) >= 0 ) ) )
 1447              		.loc 1 665 11 is_stmt 0 view .LVU467
 1448 01ba 0129     		cmp	r1, #1
 1449 01bc 03D8     		bhi	.L79
 666:radio_planner/src/radio_planner.c ****         {
 1450              		.loc 1 666 48 view .LVU468
 1451 01be 0499     		ldr	r1, [sp, #16]
 1452 01c0 8958     		ldr	r1, [r1, r2]
 666:radio_planner/src/radio_planner.c ****         {
 1453              		.loc 1 666 63 view .LVU469
 1454 01c2 0A1A     		subs	r2, r1, r0
 665:radio_planner/src/radio_planner.c ****             ( ( ( int32_t )( rp->tasks[hook_id].start_time_ms - time_tmp ) >= 0 ) ) )
 1455              		.loc 1 665 66 view .LVU470
 1456 01c4 64D5     		bpl	.L80
 1457              	.L79:
 663:radio_planner/src/radio_planner.c ****     {
 1458              		.loc 1 663 46 is_stmt 1 view .LVU471
 1459              	.LVL109:
 663:radio_planner/src/radio_planner.c ****     {
 1460              		.loc 1 663 23 view .LVU472
 1461 01c6 0133     		adds	r3, r3, #1
 1462              	.LVL110:
 663:radio_planner/src/radio_planner.c ****     {
 1463              		.loc 1 663 5 is_stmt 0 view .LVU473
 1464 01c8 082B     		cmp	r3, #8
 1465 01ca F2D1     		bne	.L81
 673:radio_planner/src/radio_planner.c ****     {
 1466              		.loc 1 673 5 is_stmt 1 view .LVU474
 1467              	.LVL111:
ARM GAS  /var/folders/bq/yv49bw8j2kd6w3hsq868qv180000gn/T//ccsEouTz.s 			page 52


 673:radio_planner/src/radio_planner.c ****     {
 1468              		.loc 1 673 5 is_stmt 0 view .LVU475
 1469              	.LBE93:
 1470              	.LBE92:
 412:radio_planner/src/radio_planner.c **** 
 1471              		.loc 1 412 31 view .LVU476
 1472 01cc 0022     		movs	r2, #0
 1473 01ce 4F4B     		ldr	r3, .L106+24
 1474 01d0 E254     		strb	r2, [r4, r3]
 414:radio_planner/src/radio_planner.c ****         {
 1475              		.loc 1 414 9 is_stmt 1 view .LVU477
 1476 01d2 88E0     		b	.L54
 1477              	.L63:
 414:radio_planner/src/radio_planner.c ****         {
 1478              		.loc 1 414 9 is_stmt 0 view .LVU478
 1479              	.LBE110:
 1480              	.LBB111:
 1481              	.LBB87:
 614:radio_planner/src/radio_planner.c ****             ( rp->tasks[rank].state == RP_TASK_STATE_RUNNING ) )
 1482              		.loc 1 614 77 view .LVU479
 1483 01d4 022A     		cmp	r2, #2
 1484 01d6 00D1     		bne	.LCB1343
 1485 01d8 7DE7     		b	.L64	@long jump
 1486              	.LCB1343:
 1487              	.L65:
 610:radio_planner/src/radio_planner.c ****     {
 1488              		.loc 1 610 46 is_stmt 1 view .LVU480
 610:radio_planner/src/radio_planner.c ****     {
 1489              		.loc 1 610 23 view .LVU481
 1490              	.LVL112:
 610:radio_planner/src/radio_planner.c ****     {
 1491              		.loc 1 610 23 is_stmt 0 view .LVU482
 1492 01da 0133     		adds	r3, r3, #1
 1493              	.LVL113:
 610:radio_planner/src/radio_planner.c ****     {
 1494              		.loc 1 610 5 view .LVU483
 1495 01dc 082B     		cmp	r3, #8
 1496 01de 00D0     		beq	.LCB1354
 1497 01e0 6BE7     		b	.L67	@long jump
 1498              	.LCB1354:
 1499              	.LVL114:
 622:radio_planner/src/radio_planner.c ****     {
 1500              		.loc 1 622 5 is_stmt 1 view .LVU484
 622:radio_planner/src/radio_planner.c ****     {
 1501              		.loc 1 622 5 is_stmt 0 view .LVU485
 1502              	.LBE87:
 1503              	.LBE111:
 428:radio_planner/src/radio_planner.c ****         BSP_DBG_TRACE_PRINTF_RP( " RP: No more active tasks\n" );
 1504              		.loc 1 428 9 is_stmt 1 view .LVU486
 1505 01e2 2000     		movs	r0, r4
 1506 01e4 FFF7FEFF 		bl	rp_task_call_aborted
 1507              	.LVL115:
 1508 01e8 7DE0     		b	.L54
 1509              	.LVL116:
 1510              	.L69:
 1511              	.LBB112:
 1512              	.LBB88:
ARM GAS  /var/folders/bq/yv49bw8j2kd6w3hsq868qv180000gn/T//ccsEouTz.s 			page 53


 1513              	.LBB84:
 631:radio_planner/src/radio_planner.c ****             ( rp->tasks[rank].state == RP_TASK_STATE_RUNNING ) )
 1514              		.loc 1 631 77 is_stmt 0 view .LVU487
 1515 01ea 0229     		cmp	r1, #2
 1516 01ec 88D1     		bne	.L71
 1517              	.L70:
 1518              	.LBB82:
 634:radio_planner/src/radio_planner.c **** 
 1519              		.loc 1 634 13 is_stmt 1 view .LVU488
 634:radio_planner/src/radio_planner.c **** 
 1520              		.loc 1 634 39 is_stmt 0 view .LVU489
 1521 01ee 0A99     		ldr	r1, [sp, #40]
 634:radio_planner/src/radio_planner.c **** 
 1522              		.loc 1 634 71 view .LVU490
 1523 01f0 A218     		adds	r2, r4, r2
 634:radio_planner/src/radio_planner.c **** 
 1524              		.loc 1 634 39 view .LVU491
 1525 01f2 6958     		ldr	r1, [r5, r1]
 1526 01f4 0891     		str	r1, [sp, #32]
 634:radio_planner/src/radio_planner.c **** 
 1527              		.loc 1 634 71 view .LVU492
 1528 01f6 C721     		movs	r1, #199
 1529 01f8 8900     		lsls	r1, r1, #2
 1530 01fa 5218     		adds	r2, r2, r1
 634:radio_planner/src/radio_planner.c **** 
 1531              		.loc 1 634 22 view .LVU493
 1532 01fc 1268     		ldr	r2, [r2]
 1533 01fe 0899     		ldr	r1, [sp, #32]
 1534 0200 8A18     		adds	r2, r1, r2
 1535              	.LVL117:
 636:radio_planner/src/radio_planner.c ****             if( ( tmp < 0 ) && ( ( int32_t )( time_tmp - now ) >= 0 ) )
 1536              		.loc 1 636 13 is_stmt 1 view .LVU494
 637:radio_planner/src/radio_planner.c ****             {
 1537              		.loc 1 637 13 view .LVU495
 636:radio_planner/src/radio_planner.c ****             if( ( tmp < 0 ) && ( ( int32_t )( time_tmp - now ) >= 0 ) )
 1538              		.loc 1 636 49 is_stmt 0 view .LVU496
 1539 0202 6146     		mov	r1, ip
 1540 0204 511A     		subs	r1, r2, r1
 1541              	.LVL118:
 637:radio_planner/src/radio_planner.c ****             {
 1542              		.loc 1 637 15 view .LVU497
 1543 0206 00D4     		bmi	.LCB1402
 1544 0208 7AE7     		b	.L71	@long jump
 1545              	.LCB1402:
 637:radio_planner/src/radio_planner.c ****             {
 1546              		.loc 1 637 56 view .LVU498
 1547 020a D21B     		subs	r2, r2, r7
 1548              	.LVL119:
 637:radio_planner/src/radio_planner.c ****             {
 1549              		.loc 1 637 29 view .LVU499
 1550 020c 00D5     		bpl	.LCB1406
 1551 020e 77E7     		b	.L71	@long jump
 1552              	.LCB1406:
 639:radio_planner/src/radio_planner.c ****                 hook_time_to_exe_tmp = rp->tasks[rank].start_time_ms;
 1553              		.loc 1 639 17 is_stmt 1 view .LVU500
 639:radio_planner/src/radio_planner.c ****                 hook_time_to_exe_tmp = rp->tasks[rank].start_time_ms;
 1554              		.loc 1 639 38 is_stmt 0 view .LVU501
ARM GAS  /var/folders/bq/yv49bw8j2kd6w3hsq868qv180000gn/T//ccsEouTz.s 			page 54


 1555 0210 0B9B     		ldr	r3, [sp, #44]
 1556              	.LVL120:
 640:radio_planner/src/radio_planner.c ****             }
 1557              		.loc 1 640 38 view .LVU502
 1558 0212 089A     		ldr	r2, [sp, #32]
 639:radio_planner/src/radio_planner.c ****                 hook_time_to_exe_tmp = rp->tasks[rank].start_time_ms;
 1559              		.loc 1 639 38 view .LVU503
 1560 0214 EB5C     		ldrb	r3, [r5, r3]
 1561              	.LVL121:
 640:radio_planner/src/radio_planner.c ****             }
 1562              		.loc 1 640 17 is_stmt 1 view .LVU504
 640:radio_planner/src/radio_planner.c ****             }
 1563              		.loc 1 640 38 is_stmt 0 view .LVU505
 1564 0216 9446     		mov	ip, r2
 1565 0218 72E7     		b	.L71
 1566              	.LVL122:
 1567              	.L73:
 640:radio_planner/src/radio_planner.c ****             }
 1568              		.loc 1 640 38 view .LVU506
 1569              	.LBE82:
 1570              	.LBE84:
 1571              	.LBE88:
 1572              	.LBE112:
 1573              	.LBB113:
 367:radio_planner/src/radio_planner.c ****             {  // Radio is already running
 1574              		.loc 1 367 13 is_stmt 1 view .LVU507
 367:radio_planner/src/radio_planner.c ****             {  // Radio is already running
 1575              		.loc 1 367 15 is_stmt 0 view .LVU508
 1576 021a 029A     		ldr	r2, [sp, #8]
 1577 021c 2378     		ldrb	r3, [r4]
 1578              	.LVL123:
 367:radio_planner/src/radio_planner.c ****             {  // Radio is already running
 1579              		.loc 1 367 15 view .LVU509
 1580 021e B55C     		ldrb	r5, [r6, r2]
 1581 0220 022D     		cmp	r5, #2
 1582 0222 2DD1     		bne	.L74
 369:radio_planner/src/radio_planner.c ****                 {  // priority task not equal to radio task => abort radio task
 1583              		.loc 1 369 17 is_stmt 1 view .LVU510
 369:radio_planner/src/radio_planner.c ****                 {  // priority task not equal to radio task => abort radio task
 1584              		.loc 1 369 49 is_stmt 0 view .LVU511
 1585 0224 C422     		movs	r2, #196
 1586 0226 9200     		lsls	r2, r2, #2
 369:radio_planner/src/radio_planner.c ****                 {  // priority task not equal to radio task => abort radio task
 1587              		.loc 1 369 19 view .LVU512
 1588 0228 B25C     		ldrb	r2, [r6, r2]
 1589 022a 9A42     		cmp	r2, r3
 1590 022c 87D0     		beq	.L72
 371:radio_planner/src/radio_planner.c ****                     BSP_DBG_TRACE_PRINTF_RP( "RP: Abort running task with hook #%u\n", rp->radio_ta
 1591              		.loc 1 371 21 is_stmt 1 view .LVU513
 371:radio_planner/src/radio_planner.c ****                     BSP_DBG_TRACE_PRINTF_RP( "RP: Abort running task with hook #%u\n", rp->radio_ta
 1592              		.loc 1 371 56 is_stmt 0 view .LVU514
 1593 022e 0323     		movs	r3, #3
 1594 0230 029A     		ldr	r2, [sp, #8]
 373:radio_planner/src/radio_planner.c ****                     ral_set_sleep( rp->ral );
 1595              		.loc 1 373 21 view .LVU515
 1596 0232 FF21     		movs	r1, #255
 371:radio_planner/src/radio_planner.c ****                     BSP_DBG_TRACE_PRINTF_RP( "RP: Abort running task with hook #%u\n", rp->radio_ta
ARM GAS  /var/folders/bq/yv49bw8j2kd6w3hsq868qv180000gn/T//ccsEouTz.s 			page 55


 1597              		.loc 1 371 56 view .LVU516
 1598 0234 B354     		strb	r3, [r6, r2]
 1599              	.LVL124:
 372:radio_planner/src/radio_planner.c ****                     ral_clear_irq_status( rp->ral, RAL_IRQ_ALL );
 1600              		.loc 1 372 107 is_stmt 1 view .LVU517
 373:radio_planner/src/radio_planner.c ****                     ral_set_sleep( rp->ral );
 1601              		.loc 1 373 21 view .LVU518
 373:radio_planner/src/radio_planner.c ****                     ral_set_sleep( rp->ral );
 1602              		.loc 1 373 45 is_stmt 0 view .LVU519
 1603 0236 A526     		movs	r6, #165
 1604 0238 F600     		lsls	r6, r6, #3
 373:radio_planner/src/radio_planner.c ****                     ral_set_sleep( rp->ral );
 1605              		.loc 1 373 21 view .LVU520
 1606 023a 4900     		lsls	r1, r1, #1
 1607 023c A059     		ldr	r0, [r4, r6]
 1608 023e FFF7FEFF 		bl	ral_clear_irq_status
 1609              	.LVL125:
 374:radio_planner/src/radio_planner.c **** 
 1610              		.loc 1 374 21 is_stmt 1 view .LVU521
 1611 0242 A059     		ldr	r0, [r4, r6]
 1612 0244 FFF7FEFF 		bl	ral_set_sleep
 1613              	.LVL126:
 377:radio_planner/src/radio_planner.c **** 
 1614              		.loc 1 377 21 view .LVU522
 1615 0248 A059     		ldr	r0, [r4, r6]
 1616 024a FFF7FEFF 		bl	ral_set_tcxo_off
 1617              	.LVL127:
 379:radio_planner/src/radio_planner.c **** 
 1618              		.loc 1 379 21 view .LVU523
 379:radio_planner/src/radio_planner.c **** 
 1619              		.loc 1 379 49 is_stmt 0 view .LVU524
 1620 024e FFF7FEFF 		bl	rp_bsp_irq_get_pending
 1621              	.LVL128:
 379:radio_planner/src/radio_planner.c **** 
 1622              		.loc 1 379 47 view .LVU525
 1623 0252 9F23     		movs	r3, #159
 1624 0254 DB00     		lsls	r3, r3, #3
 1625 0256 E054     		strb	r0, [r4, r3]
 381:radio_planner/src/radio_planner.c **** 
 1626              		.loc 1 381 21 is_stmt 1 view .LVU526
 1627 0258 059B     		ldr	r3, [sp, #20]
 1628 025a E65C     		ldrb	r6, [r4, r3]
 1629 025c FFF7FEFF 		bl	rp_bsp_timestamp_get
 1630              	.LVL129:
 1631 0260 3100     		movs	r1, r6
 1632 0262 0200     		movs	r2, r0
 1633 0264 2000     		movs	r0, r4
 1634 0266 FFF7FEFF 		bl	rp_consumption_statistics_updated
 1635              	.LVL130:
 383:radio_planner/src/radio_planner.c ****                     rp->tasks[rp->radio_task_id].state = RP_TASK_STATE_RUNNING;
 1636              		.loc 1 383 21 view .LVU527
 383:radio_planner/src/radio_planner.c ****                     rp->tasks[rp->radio_task_id].state = RP_TASK_STATE_RUNNING;
 1637              		.loc 1 383 75 is_stmt 0 view .LVU528
 1638 026a 2378     		ldrb	r3, [r4]
 383:radio_planner/src/radio_planner.c ****                     rp->tasks[rp->radio_task_id].state = RP_TASK_STATE_RUNNING;
 1639              		.loc 1 383 56 view .LVU529
 1640 026c 059A     		ldr	r2, [sp, #20]
ARM GAS  /var/folders/bq/yv49bw8j2kd6w3hsq868qv180000gn/T//ccsEouTz.s 			page 56


 1641 026e A354     		strb	r3, [r4, r2]
 384:radio_planner/src/radio_planner.c ****                     rp_task_launch_current( rp );
 1642              		.loc 1 384 21 is_stmt 1 view .LVU530
 384:radio_planner/src/radio_planner.c ****                     rp_task_launch_current( rp );
 1643              		.loc 1 384 56 is_stmt 0 view .LVU531
 1644 0270 3133     		adds	r3, r3, #49
 1645 0272 1B01     		lsls	r3, r3, #4
 1646 0274 E318     		adds	r3, r4, r3
 1647 0276 DD70     		strb	r5, [r3, #3]
 385:radio_planner/src/radio_planner.c ****                 }  // else case already managed during enqueue task
 1648              		.loc 1 385 21 is_stmt 1 view .LVU532
 1649              	.L104:
 392:radio_planner/src/radio_planner.c ****             }
 1650              		.loc 1 392 17 view .LVU533
 1651 0278 2000     		movs	r0, r4
 1652 027a FFF7FEFF 		bl	rp_task_launch_current
 1653              	.LVL131:
 1654 027e 5EE7     		b	.L72
 1655              	.LVL132:
 1656              	.L74:
 390:radio_planner/src/radio_planner.c ****                 rp->tasks[rp->radio_task_id].state = RP_TASK_STATE_RUNNING;
 1657              		.loc 1 390 17 view .LVU534
 390:radio_planner/src/radio_planner.c ****                 rp->tasks[rp->radio_task_id].state = RP_TASK_STATE_RUNNING;
 1658              		.loc 1 390 52 is_stmt 0 view .LVU535
 1659 0280 059A     		ldr	r2, [sp, #20]
 1660 0282 A354     		strb	r3, [r4, r2]
 1661              	.LVL133:
 391:radio_planner/src/radio_planner.c ****                 rp_task_launch_current( rp );
 1662              		.loc 1 391 17 is_stmt 1 view .LVU536
 391:radio_planner/src/radio_planner.c ****                 rp_task_launch_current( rp );
 1663              		.loc 1 391 52 is_stmt 0 view .LVU537
 1664 0284 0222     		movs	r2, #2
 1665 0286 3133     		adds	r3, r3, #49
 1666 0288 1B01     		lsls	r3, r3, #4
 1667 028a E318     		adds	r3, r4, r3
 1668 028c DA70     		strb	r2, [r3, #3]
 1669 028e F3E7     		b	.L104
 1670              	.LVL134:
 1671              	.L80:
 1672              	.LBB97:
 1673              	.LBB95:
 1674              	.LBB94:
 680:radio_planner/src/radio_planner.c ****             ( ( int32_t )( rp->tasks[i].start_time_ms - time_tmp ) < 0 ) &&
 1675              		.loc 1 680 11 view .LVU538
 1676 0290 039F     		ldr	r7, [sp, #12]
 1677 0292 1A01     		lsls	r2, r3, #4
 1678 0294 BF5C     		ldrb	r7, [r7, r2]
 1679 0296 DEB2     		uxtb	r6, r3
 1680              	.LVL135:
 680:radio_planner/src/radio_planner.c ****             ( ( int32_t )( rp->tasks[i].start_time_ms - time_tmp ) < 0 ) &&
 1681              		.loc 1 680 9 is_stmt 1 view .LVU539
 680:radio_planner/src/radio_planner.c ****             ( ( int32_t )( rp->tasks[i].start_time_ms - time_tmp ) < 0 ) &&
 1682              		.loc 1 680 11 is_stmt 0 view .LVU540
 1683 0298 012F     		cmp	r7, #1
 1684 029a 07D8     		bhi	.L83
 681:radio_planner/src/radio_planner.c ****             ( ( int32_t )( rp->tasks[i].start_time_ms - now ) >= 0 ) )
 1685              		.loc 1 681 40 view .LVU541
ARM GAS  /var/folders/bq/yv49bw8j2kd6w3hsq868qv180000gn/T//ccsEouTz.s 			page 57


 1686 029c 049F     		ldr	r7, [sp, #16]
 1687 029e BA58     		ldr	r2, [r7, r2]
 681:radio_planner/src/radio_planner.c ****             ( ( int32_t )( rp->tasks[i].start_time_ms - now ) >= 0 ) )
 1688              		.loc 1 681 55 view .LVU542
 1689 02a0 571A     		subs	r7, r2, r1
 680:radio_planner/src/radio_planner.c ****             ( ( int32_t )( rp->tasks[i].start_time_ms - time_tmp ) < 0 ) &&
 1690              		.loc 1 680 60 view .LVU543
 1691 02a2 03D5     		bpl	.L83
 682:radio_planner/src/radio_planner.c ****         {
 1692              		.loc 1 682 55 view .LVU544
 1693 02a4 171A     		subs	r7, r2, r0
 681:radio_planner/src/radio_planner.c ****             ( ( int32_t )( rp->tasks[i].start_time_ms - now ) >= 0 ) )
 1694              		.loc 1 681 74 view .LVU545
 1695 02a6 01D4     		bmi	.L83
 681:radio_planner/src/radio_planner.c ****             ( ( int32_t )( rp->tasks[i].start_time_ms - now ) >= 0 ) )
 1696              		.loc 1 681 40 view .LVU546
 1697 02a8 1100     		movs	r1, r2
 1698              	.LVL136:
 681:radio_planner/src/radio_planner.c ****             ( ( int32_t )( rp->tasks[i].start_time_ms - now ) >= 0 ) )
 1699              		.loc 1 681 74 view .LVU547
 1700 02aa 3500     		movs	r5, r6
 1701              	.LVL137:
 1702              	.L83:
 678:radio_planner/src/radio_planner.c ****     {
 1703              		.loc 1 678 48 is_stmt 1 view .LVU548
 678:radio_planner/src/radio_planner.c ****     {
 1704              		.loc 1 678 31 view .LVU549
 1705 02ac 0133     		adds	r3, r3, #1
 1706              	.LVL138:
 678:radio_planner/src/radio_planner.c ****     {
 1707              		.loc 1 678 5 is_stmt 0 view .LVU550
 1708 02ae DAB2     		uxtb	r2, r3
 1709 02b0 072A     		cmp	r2, #7
 1710 02b2 EDD9     		bls	.L80
 1711              	.LBE94:
 688:radio_planner/src/radio_planner.c ****     *duration = time_tmp - now;
 1712              		.loc 1 688 5 is_stmt 1 view .LVU551
 688:radio_planner/src/radio_planner.c ****     *duration = time_tmp - now;
 1713              		.loc 1 688 15 is_stmt 0 view .LVU552
 1714 02b4 A023     		movs	r3, #160
 1715              	.LBE95:
 1716              	.LBE97:
 412:radio_planner/src/radio_planner.c **** 
 1717              		.loc 1 412 31 view .LVU553
 1718 02b6 0127     		movs	r7, #1
 1719              	.LBB98:
 1720              	.LBB96:
 688:radio_planner/src/radio_planner.c ****     *duration = time_tmp - now;
 1721              		.loc 1 688 15 view .LVU554
 1722 02b8 DB00     		lsls	r3, r3, #3
 1723 02ba E554     		strb	r5, [r4, r3]
 689:radio_planner/src/radio_planner.c ****     return RP_STATUS_HAVE_TO_SET_TIMER;
 1724              		.loc 1 689 5 is_stmt 1 view .LVU555
 689:radio_planner/src/radio_planner.c ****     return RP_STATUS_HAVE_TO_SET_TIMER;
 1725              		.loc 1 689 15 is_stmt 0 view .LVU556
 1726 02bc 144B     		ldr	r3, .L106+28
 689:radio_planner/src/radio_planner.c ****     return RP_STATUS_HAVE_TO_SET_TIMER;
ARM GAS  /var/folders/bq/yv49bw8j2kd6w3hsq868qv180000gn/T//ccsEouTz.s 			page 58


 1727              		.loc 1 689 26 view .LVU557
 1728 02be 0D1A     		subs	r5, r1, r0
 1729              	.LVL139:
 689:radio_planner/src/radio_planner.c ****     return RP_STATUS_HAVE_TO_SET_TIMER;
 1730              		.loc 1 689 15 view .LVU558
 1731 02c0 E550     		str	r5, [r4, r3]
 1732              	.LVL140:
 690:radio_planner/src/radio_planner.c **** }
 1733              		.loc 1 690 5 is_stmt 1 view .LVU559
 690:radio_planner/src/radio_planner.c **** }
 1734              		.loc 1 690 5 is_stmt 0 view .LVU560
 1735              	.LBE96:
 1736              	.LBE98:
 412:radio_planner/src/radio_planner.c **** 
 1737              		.loc 1 412 31 view .LVU561
 1738 02c2 124B     		ldr	r3, .L106+24
 1739 02c4 134E     		ldr	r6, .L106+32
 1740 02c6 E754     		strb	r7, [r4, r3]
 414:radio_planner/src/radio_planner.c ****         {
 1741              		.loc 1 414 9 is_stmt 1 view .LVU562
 416:radio_planner/src/radio_planner.c ****             {
 1742              		.loc 1 416 13 view .LVU563
 416:radio_planner/src/radio_planner.c ****             {
 1743              		.loc 1 416 15 is_stmt 0 view .LVU564
 1744 02c8 082D     		cmp	r5, #8
 1745 02ca 0ED9     		bls	.L84
 418:radio_planner/src/radio_planner.c ****             }
 1746              		.loc 1 418 17 is_stmt 1 view .LVU565
 1747              	.LVL141:
 1748              	.LBB99:
 1749              	.LBI99:
 738:radio_planner/src/radio_planner.c **** {
 1750              		.loc 1 738 13 view .LVU566
 1751              	.LBB100:
 740:radio_planner/src/radio_planner.c ****     // test could be managed inside the bsp
 1752              		.loc 1 740 5 view .LVU567
 1753 02cc FFF7FEFF 		bl	rp_bsp_timer_stop
 1754              	.LVL142:
 742:radio_planner/src/radio_planner.c **** }
 1755              		.loc 1 742 5 view .LVU568
 1756              	.LBE100:
 1757              	.LBE99:
 418:radio_planner/src/radio_planner.c ****             }
 1758              		.loc 1 418 17 is_stmt 0 view .LVU569
 1759 02d0 2900     		movs	r1, r5
 1760              	.LBB103:
 1761              	.LBB101:
 742:radio_planner/src/radio_planner.c **** }
 1762              		.loc 1 742 63 view .LVU570
 1763 02d2 8023     		movs	r3, #128
 1764              	.LBE101:
 1765              	.LBE103:
 418:radio_planner/src/radio_planner.c ****             }
 1766              		.loc 1 418 17 view .LVU571
 1767 02d4 0839     		subs	r1, r1, #8
 1768              	.LVL143:
 1769              	.LBB104:
ARM GAS  /var/folders/bq/yv49bw8j2kd6w3hsq868qv180000gn/T//ccsEouTz.s 			page 59


 1770              	.LBB102:
 742:radio_planner/src/radio_planner.c **** }
 1771              		.loc 1 742 63 view .LVU572
 1772 02d6 5B02     		lsls	r3, r3, #9
 1773 02d8 9942     		cmp	r1, r3
 1774 02da 00D3     		bcc	.L85
 1775 02dc 0E49     		ldr	r1, .L106+36
 1776              	.LVL144:
 1777              	.L85:
 742:radio_planner/src/radio_planner.c **** }
 1778              		.loc 1 742 5 view .LVU573
 1779 02de 3200     		movs	r2, r6
 1780              	.LVL145:
 1781              	.L105:
 742:radio_planner/src/radio_planner.c **** }
 1782              		.loc 1 742 5 view .LVU574
 1783              	.LBE102:
 1784              	.LBE104:
 1785              	.LBB105:
 1786              	.LBB106:
 1787 02e0 2000     		movs	r0, r4
 1788 02e2 FFF7FEFF 		bl	rp_bsp_timer_start
 1789              	.LVL146:
 1790              	.LBE106:
 1791              	.LBE105:
 1792              	.LBE113:
 429:radio_planner/src/radio_planner.c ****     }
 1793              		.loc 1 429 65 is_stmt 1 view .LVU575
 1794              	.L54:
 431:radio_planner/src/radio_planner.c **** 
 1795              		.loc 1 431 1 is_stmt 0 view .LVU576
 1796 02e6 0DB0     		add	sp, sp, #52
 1797              		@ sp needed
 1798              	.LVL147:
 431:radio_planner/src/radio_planner.c **** 
 1799              		.loc 1 431 1 view .LVU577
 1800 02e8 F0BD     		pop	{r4, r5, r6, r7, pc}
 1801              	.LVL148:
 1802              	.L84:
 1803              	.LBB114:
 422:radio_planner/src/radio_planner.c ****             }
 1804              		.loc 1 422 17 is_stmt 1 view .LVU578
 1805              	.LBB108:
 1806              	.LBI105:
 738:radio_planner/src/radio_planner.c **** {
 1807              		.loc 1 738 13 view .LVU579
 1808              	.LBB107:
 740:radio_planner/src/radio_planner.c ****     // test could be managed inside the bsp
 1809              		.loc 1 740 5 view .LVU580
 1810 02ea FFF7FEFF 		bl	rp_bsp_timer_stop
 1811              	.LVL149:
 742:radio_planner/src/radio_planner.c **** }
 1812              		.loc 1 742 5 view .LVU581
 1813 02ee 3200     		movs	r2, r6
 1814 02f0 3900     		movs	r1, r7
 1815 02f2 F5E7     		b	.L105
 1816              	.L107:
ARM GAS  /var/folders/bq/yv49bw8j2kd6w3hsq868qv180000gn/T//ccsEouTz.s 			page 60


 1817              		.align	2
 1818              	.L106:
 1819 02f4 12030000 		.word	786
 1820 02f8 10270000 		.word	10000
 1821 02fc F5040000 		.word	1269
 1822 0300 13030000 		.word	787
 1823 0304 11030000 		.word	785
 1824 0308 93030000 		.word	915
 1825 030c 24050000 		.word	1316
 1826 0310 FC040000 		.word	1276
 1827 0314 00000000 		.word	rp_timer_irq_callback
 1828 0318 FFFF0000 		.word	65535
 1829              	.LBE107:
 1830              	.LBE108:
 1831              	.LBE114:
 1832              		.cfi_endproc
 1833              	.LFE40:
 1835              		.section	.text.rp_timer_irq_callback,"ax",%progbits
 1836              		.align	1
 1837              		.syntax unified
 1838              		.code	16
 1839              		.thumb_func
 1840              		.fpu softvfp
 1842              	rp_timer_irq_callback:
 1843              	.LVL150:
 1844              	.LFB31:
 813:radio_planner/src/radio_planner.c ****     rp_timer_irq( ( radio_planner_t* ) obj );
 1845              		.loc 1 813 1 view -0
 1846              		.cfi_startproc
 1847              		@ args = 0, pretend = 0, frame = 0
 1848              		@ frame_needed = 0, uses_anonymous_args = 0
 814:radio_planner/src/radio_planner.c **** }
 1849              		.loc 1 814 5 view .LVU583
 1850              	.LBB117:
 1851              	.LBI117:
 745:radio_planner/src/radio_planner.c **** {
 1852              		.loc 1 745 13 view .LVU584
 1853              	.LBB118:
 747:radio_planner/src/radio_planner.c ****     rp_task_arbiter( rp, __func__ );
 1854              		.loc 1 747 5 view .LVU585
 747:radio_planner/src/radio_planner.c ****     rp_task_arbiter( rp, __func__ );
 1855              		.loc 1 747 21 is_stmt 0 view .LVU586
 1856 0000 0022     		movs	r2, #0
 1857              	.LBE118:
 1858              	.LBE117:
 813:radio_planner/src/radio_planner.c ****     rp_timer_irq( ( radio_planner_t* ) obj );
 1859              		.loc 1 813 1 view .LVU587
 1860 0002 10B5     		push	{r4, lr}
 1861              		.cfi_def_cfa_offset 8
 1862              		.cfi_offset 4, -8
 1863              		.cfi_offset 14, -4
 1864              	.LBB121:
 1865              	.LBB119:
 747:radio_planner/src/radio_planner.c ****     rp_task_arbiter( rp, __func__ );
 1866              		.loc 1 747 21 view .LVU588
 1867 0004 024B     		ldr	r3, .L109
 1868              	.LBE119:
ARM GAS  /var/folders/bq/yv49bw8j2kd6w3hsq868qv180000gn/T//ccsEouTz.s 			page 61


 1869              	.LBE121:
 815:radio_planner/src/radio_planner.c **** 
 1870              		.loc 1 815 1 view .LVU589
 1871              		@ sp needed
 1872              	.LBB122:
 1873              	.LBB120:
 747:radio_planner/src/radio_planner.c ****     rp_task_arbiter( rp, __func__ );
 1874              		.loc 1 747 21 view .LVU590
 1875 0006 C254     		strb	r2, [r0, r3]
 748:radio_planner/src/radio_planner.c **** }
 1876              		.loc 1 748 5 is_stmt 1 view .LVU591
 1877 0008 FFF7FEFF 		bl	rp_task_arbiter.isra.0
 1878              	.LVL151:
 748:radio_planner/src/radio_planner.c **** }
 1879              		.loc 1 748 5 is_stmt 0 view .LVU592
 1880              	.LBE120:
 1881              	.LBE122:
 815:radio_planner/src/radio_planner.c **** 
 1882              		.loc 1 815 1 view .LVU593
 1883 000c 10BD     		pop	{r4, pc}
 1884              	.L110:
 1885 000e C046     		.align	2
 1886              	.L109:
 1887 0010 F4040000 		.word	1268
 1888              		.cfi_endproc
 1889              	.LFE31:
 1891              		.section	.text.rp_init,"ax",%progbits
 1892              		.align	1
 1893              		.global	rp_init
 1894              		.syntax unified
 1895              		.code	16
 1896              		.thumb_func
 1897              		.fpu softvfp
 1899              	rp_init:
 1900              	.LVL152:
 1901              	.LFB9:
 154:radio_planner/src/radio_planner.c ****     rp->ral = ral;
 1902              		.loc 1 154 1 is_stmt 1 view -0
 1903              		.cfi_startproc
 1904              		@ args = 0, pretend = 0, frame = 0
 1905              		@ frame_needed = 0, uses_anonymous_args = 0
 155:radio_planner/src/radio_planner.c **** 
 1906              		.loc 1 155 5 view .LVU595
 155:radio_planner/src/radio_planner.c **** 
 1907              		.loc 1 155 13 is_stmt 0 view .LVU596
 1908 0000 A523     		movs	r3, #165
 1909 0002 DB00     		lsls	r3, r3, #3
 1910 0004 C150     		str	r1, [r0, r3]
 157:radio_planner/src/radio_planner.c ****     {
 1911              		.loc 1 157 5 is_stmt 1 view .LVU597
 1912              	.LBB129:
 157:radio_planner/src/radio_planner.c ****     {
 1913              		.loc 1 157 10 view .LVU598
 1914              	.LVL153:
 157:radio_planner/src/radio_planner.c ****     {
 1915              		.loc 1 157 25 view .LVU599
 1916 0006 C423     		movs	r3, #196
ARM GAS  /var/folders/bq/yv49bw8j2kd6w3hsq868qv180000gn/T//ccsEouTz.s 			page 62


 1917 0008 9B00     		lsls	r3, r3, #2
 1918 000a C218     		adds	r2, r0, r3
 1919 000c B833     		adds	r3, r3, #184
 1920              	.LBE129:
 154:radio_planner/src/radio_planner.c ****     rp->ral = ral;
 1921              		.loc 1 154 1 is_stmt 0 view .LVU600
 1922 000e F0B5     		push	{r4, r5, r6, r7, lr}
 1923              		.cfi_def_cfa_offset 20
 1924              		.cfi_offset 4, -20
 1925              		.cfi_offset 5, -16
 1926              		.cfi_offset 6, -12
 1927              		.cfi_offset 7, -8
 1928              		.cfi_offset 14, -4
 1929              	.LBB130:
 157:radio_planner/src/radio_planner.c ****     {
 1930              		.loc 1 157 18 view .LVU601
 1931 0010 0021     		movs	r1, #0
 1932              	.LVL154:
 157:radio_planner/src/radio_planner.c ****     {
 1933              		.loc 1 157 18 view .LVU602
 1934 0012 C418     		adds	r4, r0, r3
 160:radio_planner/src/radio_planner.c ****         rp->tasks[i].priority           = 0;
 1935              		.loc 1 160 41 view .LVU603
 1936 0014 0523     		movs	r3, #5
 162:radio_planner/src/radio_planner.c ****         rp->tasks[i].start_time_ms      = 0;
 1937              		.loc 1 162 41 view .LVU604
 1938 0016 0425     		movs	r5, #4
 160:radio_planner/src/radio_planner.c ****         rp->tasks[i].priority           = 0;
 1939              		.loc 1 160 41 view .LVU605
 1940 0018 9C46     		mov	ip, r3
 168:radio_planner/src/radio_planner.c ****     }
 1941              		.loc 1 168 41 view .LVU606
 1942 001a 0627     		movs	r7, #6
 161:radio_planner/src/radio_planner.c ****         rp->tasks[i].state              = RP_TASK_STATE_FINISHED;
 1943              		.loc 1 161 41 view .LVU607
 1944 001c 0B00     		movs	r3, r1
 1945              	.LVL155:
 1946              	.L112:
 159:radio_planner/src/radio_planner.c ****         rp->tasks[i].type               = RP_TASK_TYPE_NONE;
 1947              		.loc 1 159 9 is_stmt 1 discriminator 3 view .LVU608
 160:radio_planner/src/radio_planner.c ****         rp->tasks[i].priority           = 0;
 1948              		.loc 1 160 41 is_stmt 0 discriminator 3 view .LVU609
 1949 001e 6646     		mov	r6, ip
 1950 0020 5670     		strb	r6, [r2, #1]
 168:radio_planner/src/radio_planner.c ****     }
 1951              		.loc 1 168 41 discriminator 3 view .LVU610
 1952 0022 FA26     		movs	r6, #250
 1953 0024 B600     		lsls	r6, r6, #2
 1954 0026 8619     		adds	r6, r0, r6
 159:radio_planner/src/radio_planner.c ****         rp->tasks[i].type               = RP_TASK_TYPE_NONE;
 1955              		.loc 1 159 41 discriminator 3 view .LVU611
 1956 0028 1170     		strb	r1, [r2]
 160:radio_planner/src/radio_planner.c ****         rp->tasks[i].priority           = 0;
 1957              		.loc 1 160 9 is_stmt 1 discriminator 3 view .LVU612
 161:radio_planner/src/radio_planner.c ****         rp->tasks[i].state              = RP_TASK_STATE_FINISHED;
 1958              		.loc 1 161 9 discriminator 3 view .LVU613
 161:radio_planner/src/radio_planner.c ****         rp->tasks[i].state              = RP_TASK_STATE_FINISHED;
ARM GAS  /var/folders/bq/yv49bw8j2kd6w3hsq868qv180000gn/T//ccsEouTz.s 			page 63


 1959              		.loc 1 161 41 is_stmt 0 discriminator 3 view .LVU614
 1960 002a 9370     		strb	r3, [r2, #2]
 162:radio_planner/src/radio_planner.c ****         rp->tasks[i].start_time_ms      = 0;
 1961              		.loc 1 162 9 is_stmt 1 discriminator 3 view .LVU615
 162:radio_planner/src/radio_planner.c ****         rp->tasks[i].start_time_ms      = 0;
 1962              		.loc 1 162 41 is_stmt 0 discriminator 3 view .LVU616
 1963 002c D570     		strb	r5, [r2, #3]
 163:radio_planner/src/radio_planner.c ****         rp->tasks[i].start_time_init_ms = 0;
 1964              		.loc 1 163 9 is_stmt 1 discriminator 3 view .LVU617
 163:radio_planner/src/radio_planner.c ****         rp->tasks[i].start_time_init_ms = 0;
 1965              		.loc 1 163 41 is_stmt 0 discriminator 3 view .LVU618
 1966 002e 5360     		str	r3, [r2, #4]
 164:radio_planner/src/radio_planner.c ****         rp->tasks[i].duration_time_ms   = 0;
 1967              		.loc 1 164 9 is_stmt 1 discriminator 3 view .LVU619
 164:radio_planner/src/radio_planner.c ****         rp->tasks[i].duration_time_ms   = 0;
 1968              		.loc 1 164 41 is_stmt 0 discriminator 3 view .LVU620
 1969 0030 9360     		str	r3, [r2, #8]
 165:radio_planner/src/radio_planner.c ****         rp->hooks[i]                    = NULL;
 1970              		.loc 1 165 9 is_stmt 1 discriminator 3 view .LVU621
 165:radio_planner/src/radio_planner.c ****         rp->hooks[i]                    = NULL;
 1971              		.loc 1 165 41 is_stmt 0 discriminator 3 view .LVU622
 1972 0032 D360     		str	r3, [r2, #12]
 166:radio_planner/src/radio_planner.c ****         rp->irq_timestamp_ms[i]         = 0;
 1973              		.loc 1 166 9 is_stmt 1 discriminator 3 view .LVU623
 166:radio_planner/src/radio_planner.c ****         rp->irq_timestamp_ms[i]         = 0;
 1974              		.loc 1 166 41 is_stmt 0 discriminator 3 view .LVU624
 1975 0034 2360     		str	r3, [r4]
 167:radio_planner/src/radio_planner.c ****         rp->status[i]                   = RP_STATUS_TASK_ABORTED;
 1976              		.loc 1 167 9 is_stmt 1 discriminator 3 view .LVU625
 167:radio_planner/src/radio_planner.c ****         rp->status[i]                   = RP_STATUS_TASK_ABORTED;
 1977              		.loc 1 167 41 is_stmt 0 discriminator 3 view .LVU626
 1978 0036 A362     		str	r3, [r4, #40]
 168:radio_planner/src/radio_planner.c ****     }
 1979              		.loc 1 168 9 is_stmt 1 discriminator 3 view .LVU627
 168:radio_planner/src/radio_planner.c ****     }
 1980              		.loc 1 168 41 is_stmt 0 discriminator 3 view .LVU628
 1981 0038 7754     		strb	r7, [r6, r1]
 157:radio_planner/src/radio_planner.c ****     {
 1982              		.loc 1 157 42 is_stmt 1 discriminator 3 view .LVU629
 157:radio_planner/src/radio_planner.c ****     {
 1983              		.loc 1 157 43 is_stmt 0 discriminator 3 view .LVU630
 1984 003a 0131     		adds	r1, r1, #1
 1985              	.LVL156:
 157:radio_planner/src/radio_planner.c ****     {
 1986              		.loc 1 157 25 is_stmt 1 discriminator 3 view .LVU631
 1987 003c 1032     		adds	r2, r2, #16
 1988 003e 0434     		adds	r4, r4, #4
 157:radio_planner/src/radio_planner.c ****     {
 1989              		.loc 1 157 5 is_stmt 0 discriminator 3 view .LVU632
 1990 0040 0829     		cmp	r1, #8
 1991 0042 ECD1     		bne	.L112
 1992              	.LBE130:
 170:radio_planner/src/radio_planner.c ****     rp_stats_init( &rp->stats );
 1993              		.loc 1 170 5 is_stmt 1 view .LVU633
 1994              	.LVL157:
 1995              	.LBB131:
 1996              	.LBI131:
ARM GAS  /var/folders/bq/yv49bw8j2kd6w3hsq868qv180000gn/T//ccsEouTz.s 			page 64


 285:radio_planner/src/radio_planner.c **** {
 1997              		.loc 1 285 13 view .LVU634
 1998              	.LBB132:
 287:radio_planner/src/radio_planner.c ****     task->start_time_ms      = 0;
 1999              		.loc 1 287 5 view .LVU635
 288:radio_planner/src/radio_planner.c ****     task->start_time_init_ms = 0;
 2000              		.loc 1 288 5 view .LVU636
 288:radio_planner/src/radio_planner.c ****     task->start_time_init_ms = 0;
 2001              		.loc 1 288 30 is_stmt 0 view .LVU637
 2002 0044 4360     		str	r3, [r0, #4]
 289:radio_planner/src/radio_planner.c ****     task->duration_time_ms   = 0;
 2003              		.loc 1 289 5 is_stmt 1 view .LVU638
 289:radio_planner/src/radio_planner.c ****     task->duration_time_ms   = 0;
 2004              		.loc 1 289 30 is_stmt 0 view .LVU639
 2005 0046 8360     		str	r3, [r0, #8]
 290:radio_planner/src/radio_planner.c ****     task->type               = RP_TASK_TYPE_NONE;
 2006              		.loc 1 290 5 is_stmt 1 view .LVU640
 290:radio_planner/src/radio_planner.c ****     task->type               = RP_TASK_TYPE_NONE;
 2007              		.loc 1 290 30 is_stmt 0 view .LVU641
 2008 0048 C360     		str	r3, [r0, #12]
 291:radio_planner/src/radio_planner.c ****     task->state              = RP_TASK_STATE_FINISHED;
 2009              		.loc 1 291 5 is_stmt 1 view .LVU642
 287:radio_planner/src/radio_planner.c ****     task->start_time_ms      = 0;
 2010              		.loc 1 287 30 is_stmt 0 view .LVU643
 2011 004a A023     		movs	r3, #160
 2012 004c DB00     		lsls	r3, r3, #3
 2013 004e 0380     		strh	r3, [r0]
 292:radio_planner/src/radio_planner.c **** }
 2014              		.loc 1 292 5 is_stmt 1 view .LVU644
 2015 0050 F03B     		subs	r3, r3, #240
 2016 0052 C218     		adds	r2, r0, r3
 2017 0054 8033     		adds	r3, r3, #128
 2018 0056 C118     		adds	r1, r0, r3
 2019              	.LVL158:
 292:radio_planner/src/radio_planner.c **** }
 2020              		.loc 1 292 5 is_stmt 0 view .LVU645
 2021 0058 603B     		subs	r3, r3, #96
 2022 005a C418     		adds	r4, r0, r3
 2023              	.LBE132:
 2024              	.LBE131:
 2025              	.LBB134:
 2026              	.LBB135:
 2027              	.LBB136:
  95:radio_planner/src/radio_planner_stats.h ****         rp_stats->tx_consumption_ms[i]    = 0;
 2028              		.loc 2 95 43 view .LVU646
 2029 005c 0023     		movs	r3, #0
 2030              	.LBE136:
 2031              	.LBE135:
 2032              	.LBE134:
 2033              	.LBB140:
 2034              	.LBB133:
 292:radio_planner/src/radio_planner.c **** }
 2035              		.loc 1 292 30 view .LVU647
 2036 005e C570     		strb	r5, [r0, #3]
 2037              	.LVL159:
 292:radio_planner/src/radio_planner.c **** }
 2038              		.loc 1 292 30 view .LVU648
ARM GAS  /var/folders/bq/yv49bw8j2kd6w3hsq868qv180000gn/T//ccsEouTz.s 			page 65


 2039              	.LBE133:
 2040              	.LBE140:
 171:radio_planner/src/radio_planner.c ****     rp->radio_task_id           = 0;
 2041              		.loc 1 171 5 is_stmt 1 view .LVU649
 2042              	.LBB141:
 2043              	.LBI134:
  91:radio_planner/src/radio_planner_stats.h **** {
 2044              		.loc 2 91 20 view .LVU650
 2045              	.LBB138:
 2046              	.LBB137:
  93:radio_planner/src/radio_planner_stats.h ****     {
 2047              		.loc 2 93 25 view .LVU651
 2048              	.L113:
  95:radio_planner/src/radio_planner_stats.h ****         rp_stats->tx_consumption_ms[i]    = 0;
 2049              		.loc 2 95 9 view .LVU652
  95:radio_planner/src/radio_planner_stats.h ****         rp_stats->tx_consumption_ms[i]    = 0;
 2050              		.loc 2 95 43 is_stmt 0 view .LVU653
 2051 0060 1360     		str	r3, [r2]
  96:radio_planner/src/radio_planner_stats.h ****         rp_stats->rx_consumption_ms[i]    = 0;
 2052              		.loc 2 96 9 is_stmt 1 view .LVU654
  96:radio_planner/src/radio_planner_stats.h ****         rp_stats->rx_consumption_ms[i]    = 0;
 2053              		.loc 2 96 43 is_stmt 0 view .LVU655
 2054 0062 1362     		str	r3, [r2, #32]
  97:radio_planner/src/radio_planner_stats.h ****         rp_stats->tx_consumption_ma[i]    = 0;
 2055              		.loc 2 97 9 is_stmt 1 view .LVU656
  97:radio_planner/src/radio_planner_stats.h ****         rp_stats->tx_consumption_ma[i]    = 0;
 2056              		.loc 2 97 43 is_stmt 0 view .LVU657
 2057 0064 1364     		str	r3, [r2, #64]
  98:radio_planner/src/radio_planner_stats.h ****         rp_stats->rx_consumption_ma[i]    = 0;
 2058              		.loc 2 98 9 is_stmt 1 view .LVU658
  98:radio_planner/src/radio_planner_stats.h ****         rp_stats->rx_consumption_ma[i]    = 0;
 2059              		.loc 2 98 43 is_stmt 0 view .LVU659
 2060 0066 1366     		str	r3, [r2, #96]
  99:radio_planner/src/radio_planner_stats.h ****         rp_stats->task_hook_aborted_nb[i] = 0;
 2061              		.loc 2 99 9 is_stmt 1 view .LVU660
 2062 0068 0432     		adds	r2, r2, #4
  99:radio_planner/src/radio_planner_stats.h ****         rp_stats->task_hook_aborted_nb[i] = 0;
 2063              		.loc 2 99 43 is_stmt 0 view .LVU661
 2064 006a 0B60     		str	r3, [r1]
 100:radio_planner/src/radio_planner_stats.h ****     }
 2065              		.loc 2 100 9 is_stmt 1 view .LVU662
 100:radio_planner/src/radio_planner_stats.h ****     }
 2066              		.loc 2 100 43 is_stmt 0 view .LVU663
 2067 006c 8B63     		str	r3, [r1, #56]
  93:radio_planner/src/radio_planner_stats.h ****     {
 2068              		.loc 2 93 42 is_stmt 1 view .LVU664
  93:radio_planner/src/radio_planner_stats.h ****     {
 2069              		.loc 2 93 25 view .LVU665
 2070 006e 0431     		adds	r1, r1, #4
  93:radio_planner/src/radio_planner_stats.h ****     {
 2071              		.loc 2 93 5 is_stmt 0 view .LVU666
 2072 0070 A242     		cmp	r2, r4
 2073 0072 F5D1     		bne	.L113
 2074              	.LBE137:
 102:radio_planner/src/radio_planner_stats.h ****     rp_stats->rx_total_consumption_ms = 0;
 2075              		.loc 2 102 5 is_stmt 1 view .LVU667
 102:radio_planner/src/radio_planner_stats.h ****     rp_stats->rx_total_consumption_ms = 0;
ARM GAS  /var/folders/bq/yv49bw8j2kd6w3hsq868qv180000gn/T//ccsEouTz.s 			page 66


 2076              		.loc 2 102 39 is_stmt 0 view .LVU668
 2077 0074 9622     		movs	r2, #150
 2078 0076 D200     		lsls	r2, r2, #3
 2079 0078 8218     		adds	r2, r0, r2
 2080 007a 1360     		str	r3, [r2]
 103:radio_planner/src/radio_planner_stats.h ****     rp_stats->tx_total_consumption_ma = 0;
 2081              		.loc 2 103 5 is_stmt 1 view .LVU669
 103:radio_planner/src/radio_planner_stats.h ****     rp_stats->tx_total_consumption_ma = 0;
 2082              		.loc 2 103 39 is_stmt 0 view .LVU670
 2083 007c 114A     		ldr	r2, .L116
 2084              	.LBE138:
 2085              	.LBE141:
 182:radio_planner/src/radio_planner.c **** 
 2086              		.loc 1 182 1 view .LVU671
 2087              		@ sp needed
 2088              	.LBB142:
 2089              	.LBB139:
 103:radio_planner/src/radio_planner_stats.h ****     rp_stats->tx_total_consumption_ma = 0;
 2090              		.loc 2 103 39 view .LVU672
 2091 007e 8218     		adds	r2, r0, r2
 2092 0080 1360     		str	r3, [r2]
 104:radio_planner/src/radio_planner_stats.h ****     rp_stats->rx_total_consumption_ma = 0;
 2093              		.loc 2 104 5 is_stmt 1 view .LVU673
 104:radio_planner/src/radio_planner_stats.h ****     rp_stats->rx_total_consumption_ma = 0;
 2094              		.loc 2 104 39 is_stmt 0 view .LVU674
 2095 0082 9722     		movs	r2, #151
 2096 0084 D200     		lsls	r2, r2, #3
 2097 0086 8218     		adds	r2, r0, r2
 2098 0088 1360     		str	r3, [r2]
 105:radio_planner/src/radio_planner_stats.h ****     rp_stats->tx_timestamp            = 0;
 2099              		.loc 2 105 5 is_stmt 1 view .LVU675
 105:radio_planner/src/radio_planner_stats.h ****     rp_stats->tx_timestamp            = 0;
 2100              		.loc 2 105 39 is_stmt 0 view .LVU676
 2101 008a 0F4A     		ldr	r2, .L116+4
 2102 008c 8218     		adds	r2, r0, r2
 2103 008e 1360     		str	r3, [r2]
 106:radio_planner/src/radio_planner_stats.h ****     rp_stats->rx_timestamp            = 0;
 2104              		.loc 2 106 5 is_stmt 1 view .LVU677
 106:radio_planner/src/radio_planner_stats.h ****     rp_stats->rx_timestamp            = 0;
 2105              		.loc 2 106 39 is_stmt 0 view .LVU678
 2106 0090 9822     		movs	r2, #152
 2107 0092 D200     		lsls	r2, r2, #3
 2108 0094 8218     		adds	r2, r0, r2
 2109 0096 1360     		str	r3, [r2]
 107:radio_planner/src/radio_planner_stats.h ****     rp_stats->rp_error                = 0;
 2110              		.loc 2 107 5 is_stmt 1 view .LVU679
 107:radio_planner/src/radio_planner_stats.h ****     rp_stats->rp_error                = 0;
 2111              		.loc 2 107 39 is_stmt 0 view .LVU680
 2112 0098 0C4A     		ldr	r2, .L116+8
 2113 009a 8218     		adds	r2, r0, r2
 2114 009c 1360     		str	r3, [r2]
 108:radio_planner/src/radio_planner_stats.h **** }
 2115              		.loc 2 108 5 is_stmt 1 view .LVU681
 108:radio_planner/src/radio_planner_stats.h **** }
 2116              		.loc 2 108 39 is_stmt 0 view .LVU682
 2117 009e 9D22     		movs	r2, #157
 2118 00a0 D200     		lsls	r2, r2, #3
ARM GAS  /var/folders/bq/yv49bw8j2kd6w3hsq868qv180000gn/T//ccsEouTz.s 			page 67


 2119 00a2 8218     		adds	r2, r0, r2
 2120 00a4 1360     		str	r3, [r2]
 2121              	.LVL160:
 108:radio_planner/src/radio_planner_stats.h **** }
 2122              		.loc 2 108 39 view .LVU683
 2123              	.LBE139:
 2124              	.LBE142:
 172:radio_planner/src/radio_planner.c ****     rp->timer_task_id           = 0;
 2125              		.loc 1 172 5 is_stmt 1 view .LVU684
 173:radio_planner/src/radio_planner.c ****     rp->hook_to_execute         = 0;
 2126              		.loc 1 173 5 view .LVU685
 174:radio_planner/src/radio_planner.c ****     rp->hook_to_execute_time_ms = 0;
 2127              		.loc 1 174 5 view .LVU686
 174:radio_planner/src/radio_planner.c ****     rp->hook_to_execute_time_ms = 0;
 2128              		.loc 1 174 33 is_stmt 0 view .LVU687
 2129 00a6 0A4A     		ldr	r2, .L116+12
 2130 00a8 8354     		strb	r3, [r0, r2]
 175:radio_planner/src/radio_planner.c ****     rp->timer_state             = RP_TIMER_STATE_IDLE;
 2131              		.loc 1 175 5 is_stmt 1 view .LVU688
 176:radio_planner/src/radio_planner.c ****     rp->semaphore_radio         = 0;
 2132              		.loc 1 176 5 view .LVU689
 177:radio_planner/src/radio_planner.c ****     rp->semaphore_abort_radio   = 0;
 2133              		.loc 1 177 5 view .LVU690
 178:radio_planner/src/radio_planner.c ****     rp->timer_value             = 0;
 2134              		.loc 1 178 5 view .LVU691
 175:radio_planner/src/radio_planner.c ****     rp->timer_state             = RP_TIMER_STATE_IDLE;
 2135              		.loc 1 175 33 is_stmt 0 view .LVU692
 2136 00aa 0432     		adds	r2, r2, #4
 2137 00ac 8350     		str	r3, [r0, r2]
 176:radio_planner/src/radio_planner.c ****     rp->semaphore_radio         = 0;
 2138              		.loc 1 176 33 view .LVU693
 2139 00ae 094A     		ldr	r2, .L116+16
 2140 00b0 8350     		str	r3, [r0, r2]
 178:radio_planner/src/radio_planner.c ****     rp->timer_value             = 0;
 2141              		.loc 1 178 33 view .LVU694
 2142 00b2 0432     		adds	r2, r2, #4
 2143 00b4 8354     		strb	r3, [r0, r2]
 179:radio_planner/src/radio_planner.c ****     rp->timer_hook_id           = 0;
 2144              		.loc 1 179 5 is_stmt 1 view .LVU695
 179:radio_planner/src/radio_planner.c ****     rp->timer_hook_id           = 0;
 2145              		.loc 1 179 33 is_stmt 0 view .LVU696
 2146 00b6 084A     		ldr	r2, .L116+20
 2147 00b8 8350     		str	r3, [r0, r2]
 180:radio_planner/src/radio_planner.c ****     rp->next_state_status       = RP_STATUS_NO_MORE_TASK_SCHEDULE;
 2148              		.loc 1 180 5 is_stmt 1 view .LVU697
 180:radio_planner/src/radio_planner.c ****     rp->next_state_status       = RP_STATUS_NO_MORE_TASK_SCHEDULE;
 2149              		.loc 1 180 33 is_stmt 0 view .LVU698
 2150 00ba 0432     		adds	r2, r2, #4
 2151 00bc 8354     		strb	r3, [r0, r2]
 181:radio_planner/src/radio_planner.c **** }
 2152              		.loc 1 181 5 is_stmt 1 view .LVU699
 181:radio_planner/src/radio_planner.c **** }
 2153              		.loc 1 181 33 is_stmt 0 view .LVU700
 2154 00be 074A     		ldr	r2, .L116+24
 2155 00c0 8354     		strb	r3, [r0, r2]
 182:radio_planner/src/radio_planner.c **** 
 2156              		.loc 1 182 1 view .LVU701
ARM GAS  /var/folders/bq/yv49bw8j2kd6w3hsq868qv180000gn/T//ccsEouTz.s 			page 68


 2157 00c2 F0BD     		pop	{r4, r5, r6, r7, pc}
 2158              	.L117:
 2159              		.align	2
 2160              	.L116:
 2161 00c4 B4040000 		.word	1204
 2162 00c8 BC040000 		.word	1212
 2163 00cc C4040000 		.word	1220
 2164 00d0 EC040000 		.word	1260
 2165 00d4 F4040000 		.word	1268
 2166 00d8 FC040000 		.word	1276
 2167 00dc 24050000 		.word	1316
 2168              		.cfi_endproc
 2169              	.LFE9:
 2171              		.section	.text.rp_hook_init,"ax",%progbits
 2172              		.align	1
 2173              		.global	rp_hook_init
 2174              		.syntax unified
 2175              		.code	16
 2176              		.thumb_func
 2177              		.fpu softvfp
 2179              	rp_hook_init:
 2180              	.LVL161:
 2181              	.LFB10:
 185:radio_planner/src/radio_planner.c ****     if( id >= RP_NB_HOOKS )
 2182              		.loc 1 185 1 is_stmt 1 view -0
 2183              		.cfi_startproc
 2184              		@ args = 0, pretend = 0, frame = 0
 2185              		@ frame_needed = 0, uses_anonymous_args = 0
 186:radio_planner/src/radio_planner.c ****     {
 2186              		.loc 1 186 5 view .LVU703
 185:radio_planner/src/radio_planner.c ****     if( id >= RP_NB_HOOKS )
 2187              		.loc 1 185 1 is_stmt 0 view .LVU704
 2188 0000 10B5     		push	{r4, lr}
 2189              		.cfi_def_cfa_offset 8
 2190              		.cfi_offset 4, -8
 2191              		.cfi_offset 14, -4
 185:radio_planner/src/radio_planner.c ****     if( id >= RP_NB_HOOKS )
 2192              		.loc 1 185 1 view .LVU705
 2193 0002 0400     		movs	r4, r0
 188:radio_planner/src/radio_planner.c ****     }
 2194              		.loc 1 188 16 view .LVU706
 2195 0004 0120     		movs	r0, #1
 2196              	.LVL162:
 186:radio_planner/src/radio_planner.c ****     {
 2197              		.loc 1 186 7 view .LVU707
 2198 0006 0729     		cmp	r1, #7
 2199 0008 07D8     		bhi	.L119
 190:radio_planner/src/radio_planner.c ****     rp->hooks[id]          = hook;
 2200              		.loc 1 190 5 is_stmt 1 view .LVU708
 190:radio_planner/src/radio_planner.c ****     rp->hooks[id]          = hook;
 2201              		.loc 1 190 28 is_stmt 0 view .LVU709
 2202 000a 0448     		ldr	r0, .L121
 2203 000c 8900     		lsls	r1, r1, #2
 2204              	.LVL163:
 190:radio_planner/src/radio_planner.c ****     rp->hooks[id]          = hook;
 2205              		.loc 1 190 28 view .LVU710
 2206 000e 6118     		adds	r1, r4, r1
ARM GAS  /var/folders/bq/yv49bw8j2kd6w3hsq868qv180000gn/T//ccsEouTz.s 			page 69


 2207 0010 0A50     		str	r2, [r1, r0]
 191:radio_planner/src/radio_planner.c ****     return RP_HOOK_STATUS_OK;
 2208              		.loc 1 191 5 is_stmt 1 view .LVU711
 191:radio_planner/src/radio_planner.c ****     return RP_HOOK_STATUS_OK;
 2209              		.loc 1 191 28 is_stmt 0 view .LVU712
 2210 0012 F222     		movs	r2, #242
 2211              	.LVL164:
 192:radio_planner/src/radio_planner.c **** }
 2212              		.loc 1 192 12 view .LVU713
 2213 0014 0020     		movs	r0, #0
 2214              	.LVL165:
 191:radio_planner/src/radio_planner.c ****     return RP_HOOK_STATUS_OK;
 2215              		.loc 1 191 28 view .LVU714
 2216 0016 9200     		lsls	r2, r2, #2
 2217 0018 8B50     		str	r3, [r1, r2]
 2218              	.LVL166:
 192:radio_planner/src/radio_planner.c **** }
 2219              		.loc 1 192 5 is_stmt 1 view .LVU715
 2220              	.L119:
 193:radio_planner/src/radio_planner.c **** 
 2221              		.loc 1 193 1 is_stmt 0 view .LVU716
 2222              		@ sp needed
 2223              	.LVL167:
 193:radio_planner/src/radio_planner.c **** 
 2224              		.loc 1 193 1 view .LVU717
 2225 001a 10BD     		pop	{r4, pc}
 2226              	.L122:
 2227              		.align	2
 2228              	.L121:
 2229 001c 04050000 		.word	1284
 2230              		.cfi_endproc
 2231              	.LFE10:
 2233              		.section	.text.rp_hook_get_id,"ax",%progbits
 2234              		.align	1
 2235              		.global	rp_hook_get_id
 2236              		.syntax unified
 2237              		.code	16
 2238              		.thumb_func
 2239              		.fpu softvfp
 2241              	rp_hook_get_id:
 2242              	.LVL168:
 2243              	.LFB11:
 196:radio_planner/src/radio_planner.c ****     for( int32_t i = 0; i < RP_NB_HOOKS; i++ )
 2244              		.loc 1 196 1 is_stmt 1 view -0
 2245              		.cfi_startproc
 2246              		@ args = 0, pretend = 0, frame = 0
 2247              		@ frame_needed = 0, uses_anonymous_args = 0
 197:radio_planner/src/radio_planner.c ****     {
 2248              		.loc 1 197 5 view .LVU719
 2249              	.LBB143:
 197:radio_planner/src/radio_planner.c ****     {
 2250              		.loc 1 197 10 view .LVU720
 197:radio_planner/src/radio_planner.c ****     {
 2251              		.loc 1 197 25 view .LVU721
 2252              	.LBE143:
 196:radio_planner/src/radio_planner.c ****     for( int32_t i = 0; i < RP_NB_HOOKS; i++ )
 2253              		.loc 1 196 1 is_stmt 0 view .LVU722
ARM GAS  /var/folders/bq/yv49bw8j2kd6w3hsq868qv180000gn/T//ccsEouTz.s 			page 70


 2254 0000 10B5     		push	{r4, lr}
 2255              		.cfi_def_cfa_offset 8
 2256              		.cfi_offset 4, -8
 2257              		.cfi_offset 14, -4
 2258              	.LBB144:
 199:radio_planner/src/radio_planner.c ****         {
 2259              		.loc 1 199 30 view .LVU723
 2260 0002 F224     		movs	r4, #242
 197:radio_planner/src/radio_planner.c ****     {
 2261              		.loc 1 197 18 view .LVU724
 2262 0004 0023     		movs	r3, #0
 199:radio_planner/src/radio_planner.c ****         {
 2263              		.loc 1 199 30 view .LVU725
 2264 0006 A400     		lsls	r4, r4, #2
 2265 0008 0019     		adds	r0, r0, r4
 2266              	.LVL169:
 2267              	.L126:
 199:radio_planner/src/radio_planner.c ****         {
 2268              		.loc 1 199 9 is_stmt 1 view .LVU726
 199:radio_planner/src/radio_planner.c ****         {
 2269              		.loc 1 199 30 is_stmt 0 view .LVU727
 2270 000a 9C00     		lsls	r4, r3, #2
 199:radio_planner/src/radio_planner.c ****         {
 2271              		.loc 1 199 11 view .LVU728
 2272 000c 0459     		ldr	r4, [r0, r4]
 2273 000e 8C42     		cmp	r4, r1
 2274 0010 02D1     		bne	.L124
 201:radio_planner/src/radio_planner.c ****             return RP_HOOK_STATUS_OK;
 2275              		.loc 1 201 13 is_stmt 1 view .LVU729
 202:radio_planner/src/radio_planner.c ****         }
 2276              		.loc 1 202 20 is_stmt 0 view .LVU730
 2277 0012 0020     		movs	r0, #0
 2278              	.LVL170:
 201:radio_planner/src/radio_planner.c ****             return RP_HOOK_STATUS_OK;
 2279              		.loc 1 201 17 view .LVU731
 2280 0014 1370     		strb	r3, [r2]
 202:radio_planner/src/radio_planner.c ****         }
 2281              		.loc 1 202 13 is_stmt 1 view .LVU732
 2282              	.L125:
 202:radio_planner/src/radio_planner.c ****         }
 2283              		.loc 1 202 13 is_stmt 0 view .LVU733
 2284              	.LBE144:
 206:radio_planner/src/radio_planner.c **** 
 2285              		.loc 1 206 1 view .LVU734
 2286              		@ sp needed
 2287 0016 10BD     		pop	{r4, pc}
 2288              	.L124:
 2289              	.LBB145:
 197:radio_planner/src/radio_planner.c ****     {
 2290              		.loc 1 197 42 is_stmt 1 discriminator 2 view .LVU735
 197:radio_planner/src/radio_planner.c ****     {
 2291              		.loc 1 197 43 is_stmt 0 discriminator 2 view .LVU736
 2292 0018 0133     		adds	r3, r3, #1
 2293              	.LVL171:
 197:radio_planner/src/radio_planner.c ****     {
 2294              		.loc 1 197 25 is_stmt 1 discriminator 2 view .LVU737
 197:radio_planner/src/radio_planner.c ****     {
ARM GAS  /var/folders/bq/yv49bw8j2kd6w3hsq868qv180000gn/T//ccsEouTz.s 			page 71


 2295              		.loc 1 197 5 is_stmt 0 discriminator 2 view .LVU738
 2296 001a 082B     		cmp	r3, #8
 2297 001c F5D1     		bne	.L126
 2298              	.LBE145:
 205:radio_planner/src/radio_planner.c **** }
 2299              		.loc 1 205 12 view .LVU739
 2300 001e 0120     		movs	r0, #1
 2301 0020 F9E7     		b	.L125
 2302              		.cfi_endproc
 2303              	.LFE11:
 2305              		.section	.text.rp_task_enqueue,"ax",%progbits
 2306              		.align	1
 2307              		.global	rp_task_enqueue
 2308              		.syntax unified
 2309              		.code	16
 2310              		.thumb_func
 2311              		.fpu softvfp
 2313              	rp_task_enqueue:
 2314              	.LVL172:
 2315              	.LFB12:
 210:radio_planner/src/radio_planner.c ****     rp_bsp_critical_section_begin( );
 2316              		.loc 1 210 1 is_stmt 1 view -0
 2317              		.cfi_startproc
 2318              		@ args = 4, pretend = 0, frame = 16
 2319              		@ frame_needed = 0, uses_anonymous_args = 0
 211:radio_planner/src/radio_planner.c **** 
 2320              		.loc 1 211 5 view .LVU741
 210:radio_planner/src/radio_planner.c ****     rp_bsp_critical_section_begin( );
 2321              		.loc 1 210 1 is_stmt 0 view .LVU742
 2322 0000 F0B5     		push	{r4, r5, r6, r7, lr}
 2323              		.cfi_def_cfa_offset 20
 2324              		.cfi_offset 4, -20
 2325              		.cfi_offset 5, -16
 2326              		.cfi_offset 6, -12
 2327              		.cfi_offset 7, -8
 2328              		.cfi_offset 14, -4
 2329 0002 85B0     		sub	sp, sp, #20
 2330              		.cfi_def_cfa_offset 40
 210:radio_planner/src/radio_planner.c ****     rp_bsp_critical_section_begin( );
 2331              		.loc 1 210 1 view .LVU743
 2332 0004 0393     		str	r3, [sp, #12]
 2333 0006 0500     		movs	r5, r0
 2334 0008 0191     		str	r1, [sp, #4]
 2335 000a 0292     		str	r2, [sp, #8]
 211:radio_planner/src/radio_planner.c **** 
 2336              		.loc 1 211 5 view .LVU744
 2337 000c FFF7FEFF 		bl	rp_bsp_critical_section_begin
 2338              	.LVL173:
 213:radio_planner/src/radio_planner.c ****     if( hook_id >= RP_NB_HOOKS )
 2339              		.loc 1 213 5 is_stmt 1 view .LVU745
 213:radio_planner/src/radio_planner.c ****     if( hook_id >= RP_NB_HOOKS )
 2340              		.loc 1 213 13 is_stmt 0 view .LVU746
 2341 0010 019B     		ldr	r3, [sp, #4]
 2342 0012 1E78     		ldrb	r6, [r3]
 2343              	.LVL174:
 214:radio_planner/src/radio_planner.c ****     {
 2344              		.loc 1 214 5 is_stmt 1 view .LVU747
ARM GAS  /var/folders/bq/yv49bw8j2kd6w3hsq868qv180000gn/T//ccsEouTz.s 			page 72


 214:radio_planner/src/radio_planner.c ****     {
 2345              		.loc 1 214 7 is_stmt 0 view .LVU748
 2346 0014 072E     		cmp	r6, #7
 2347 0016 05D9     		bls	.L129
 216:radio_planner/src/radio_planner.c ****         return RP_HOOK_STATUS_ID_ERROR;
 2348              		.loc 1 216 9 is_stmt 1 view .LVU749
 2349 0018 FFF7FEFF 		bl	rp_bsp_critical_section_end
 2350              	.LVL175:
 217:radio_planner/src/radio_planner.c ****     }
 2351              		.loc 1 217 9 view .LVU750
 217:radio_planner/src/radio_planner.c ****     }
 2352              		.loc 1 217 16 is_stmt 0 view .LVU751
 2353 001c 0127     		movs	r7, #1
 2354              	.LVL176:
 2355              	.L130:
 240:radio_planner/src/radio_planner.c **** 
 2356              		.loc 1 240 1 view .LVU752
 2357 001e 3800     		movs	r0, r7
 2358 0020 05B0     		add	sp, sp, #20
 2359              		@ sp needed
 2360              	.LVL177:
 240:radio_planner/src/radio_planner.c **** 
 2361              		.loc 1 240 1 view .LVU753
 2362 0022 F0BD     		pop	{r4, r5, r6, r7, pc}
 2363              	.LVL178:
 2364              	.L129:
 219:radio_planner/src/radio_planner.c ****     {
 2365              		.loc 1 219 5 is_stmt 1 view .LVU754
 219:radio_planner/src/radio_planner.c ****     {
 2366              		.loc 1 219 27 is_stmt 0 view .LVU755
 2367 0024 1E4B     		ldr	r3, .L133
 2368 0026 3401     		lsls	r4, r6, #4
 2369 0028 2C19     		adds	r4, r5, r4
 2370 002a E75C     		ldrb	r7, [r4, r3]
 219:radio_planner/src/radio_planner.c ****     {
 2371              		.loc 1 219 7 view .LVU756
 2372 002c 022F     		cmp	r7, #2
 2373 002e 02D1     		bne	.L131
 221:radio_planner/src/radio_planner.c ****         rp_bsp_critical_section_end( );
 2374              		.loc 1 221 93 is_stmt 1 view .LVU757
 222:radio_planner/src/radio_planner.c ****         return RP_TASK_STATUS_ALREADY_RUNNING;
 2375              		.loc 1 222 9 view .LVU758
 2376 0030 FFF7FEFF 		bl	rp_bsp_critical_section_end
 2377              	.LVL179:
 223:radio_planner/src/radio_planner.c ****     }
 2378              		.loc 1 223 9 view .LVU759
 223:radio_planner/src/radio_planner.c ****     }
 2379              		.loc 1 223 16 is_stmt 0 view .LVU760
 2380 0034 F3E7     		b	.L130
 2381              	.L131:
 226:radio_planner/src/radio_planner.c ****     rp->radio_params[hook_id]             = *radio_params;
 2382              		.loc 1 226 5 is_stmt 1 view .LVU761
 227:radio_planner/src/radio_planner.c ****     rp->payload[hook_id]                  = payload;
 2383              		.loc 1 227 5 view .LVU762
 226:radio_planner/src/radio_planner.c ****     rp->radio_params[hook_id]             = *radio_params;
 2384              		.loc 1 226 43 is_stmt 0 view .LVU763
 2385 0036 C423     		movs	r3, #196
ARM GAS  /var/folders/bq/yv49bw8j2kd6w3hsq868qv180000gn/T//ccsEouTz.s 			page 73


 2386 0038 0199     		ldr	r1, [sp, #4]
 2387 003a 9B00     		lsls	r3, r3, #2
 2388 003c E318     		adds	r3, r4, r3
 2389 003e 85C9     		ldmia	r1!, {r0, r2, r7}
 2390 0040 85C3     		stmia	r3!, {r0, r2, r7}
 2391              	.LVL180:
 226:radio_planner/src/radio_planner.c ****     rp->radio_params[hook_id]             = *radio_params;
 2392              		.loc 1 226 43 view .LVU764
 2393 0042 0A68     		ldr	r2, [r1]
 2394 0044 1A60     		str	r2, [r3]
 227:radio_planner/src/radio_planner.c ****     rp->payload[hook_id]                  = payload;
 2395              		.loc 1 227 43 view .LVU765
 2396 0046 6022     		movs	r2, #96
 2397 0048 1000     		movs	r0, r2
 2398 004a 7043     		muls	r0, r6
 2399 004c 2818     		adds	r0, r5, r0
 2400 004e 0A99     		ldr	r1, [sp, #40]
 2401 0050 1030     		adds	r0, r0, #16
 2402 0052 FFF7FEFF 		bl	memcpy
 2403              	.LVL181:
 228:radio_planner/src/radio_planner.c ****     rp->payload_size[hook_id]             = payload_size;
 2404              		.loc 1 228 5 is_stmt 1 view .LVU766
 228:radio_planner/src/radio_planner.c ****     rp->payload_size[hook_id]             = payload_size;
 2405              		.loc 1 228 43 is_stmt 0 view .LVU767
 2406 0056 3300     		movs	r3, r6
 2407 0058 029A     		ldr	r2, [sp, #8]
 2408 005a E433     		adds	r3, r3, #228
 2409 005c 9B00     		lsls	r3, r3, #2
 2410 005e 5A51     		str	r2, [r3, r5]
 229:radio_planner/src/radio_planner.c ****     rp->tasks[hook_id].priority           = ( rp->tasks[hook_id].state * RP_NB_HOOKS ) + hook_id;
 2411              		.loc 1 229 5 is_stmt 1 view .LVU768
 229:radio_planner/src/radio_planner.c ****     rp->tasks[hook_id].priority           = ( rp->tasks[hook_id].state * RP_NB_HOOKS ) + hook_id;
 2412              		.loc 1 229 43 is_stmt 0 view .LVU769
 2413 0060 3300     		movs	r3, r6
 2414 0062 D933     		adds	r3, r3, #217
 2415 0064 039A     		ldr	r2, [sp, #12]
 2416 0066 FF33     		adds	r3, r3, #255
 2417 0068 5B00     		lsls	r3, r3, #1
 2418 006a 5A53     		strh	r2, [r3, r5]
 230:radio_planner/src/radio_planner.c ****     rp->tasks[hook_id].start_time_init_ms = rp->tasks[hook_id].start_time_ms;
 2419              		.loc 1 230 5 is_stmt 1 view .LVU770
 231:radio_planner/src/radio_planner.c ****     BSP_DBG_TRACE_PRINTF_RP( "RP: Task #%u enqueue with #%u priority\n", hook_id, rp->tasks[hook_id
 2420              		.loc 1 231 43 is_stmt 0 view .LVU771
 2421 006c C622     		movs	r2, #198
 230:radio_planner/src/radio_planner.c ****     rp->tasks[hook_id].start_time_init_ms = rp->tasks[hook_id].start_time_ms;
 2422              		.loc 1 230 88 view .LVU772
 2423 006e 0C4B     		ldr	r3, .L133
 231:radio_planner/src/radio_planner.c ****     BSP_DBG_TRACE_PRINTF_RP( "RP: Task #%u enqueue with #%u priority\n", hook_id, rp->tasks[hook_id
 2424              		.loc 1 231 43 view .LVU773
 2425 0070 9200     		lsls	r2, r2, #2
 230:radio_planner/src/radio_planner.c ****     rp->tasks[hook_id].start_time_init_ms = rp->tasks[hook_id].start_time_ms;
 2426              		.loc 1 230 88 view .LVU774
 2427 0072 E35C     		ldrb	r3, [r4, r3]
 233:radio_planner/src/radio_planner.c ****     if( rp->semaphore_radio == 0 )
 2428              		.loc 1 233 5 view .LVU775
 2429 0074 2800     		movs	r0, r5
 230:radio_planner/src/radio_planner.c ****     rp->tasks[hook_id].start_time_init_ms = rp->tasks[hook_id].start_time_ms;
ARM GAS  /var/folders/bq/yv49bw8j2kd6w3hsq868qv180000gn/T//ccsEouTz.s 			page 74


 2430              		.loc 1 230 88 view .LVU776
 2431 0076 DB00     		lsls	r3, r3, #3
 2432 0078 F618     		adds	r6, r6, r3
 2433              	.LVL182:
 230:radio_planner/src/radio_planner.c ****     rp->tasks[hook_id].start_time_init_ms = rp->tasks[hook_id].start_time_ms;
 2434              		.loc 1 230 43 view .LVU777
 2435 007a 0A4B     		ldr	r3, .L133+4
 2436 007c E654     		strb	r6, [r4, r3]
 231:radio_planner/src/radio_planner.c ****     BSP_DBG_TRACE_PRINTF_RP( "RP: Task #%u enqueue with #%u priority\n", hook_id, rp->tasks[hook_id
 2437              		.loc 1 231 5 is_stmt 1 view .LVU778
 231:radio_planner/src/radio_planner.c ****     BSP_DBG_TRACE_PRINTF_RP( "RP: Task #%u enqueue with #%u priority\n", hook_id, rp->tasks[hook_id
 2438              		.loc 1 231 63 is_stmt 0 view .LVU779
 2439 007e 0233     		adds	r3, r3, #2
 2440 0080 E358     		ldr	r3, [r4, r3]
 231:radio_planner/src/radio_planner.c ****     BSP_DBG_TRACE_PRINTF_RP( "RP: Task #%u enqueue with #%u priority\n", hook_id, rp->tasks[hook_id
 2441              		.loc 1 231 43 view .LVU780
 2442 0082 A418     		adds	r4, r4, r2
 2443 0084 2360     		str	r3, [r4]
 232:radio_planner/src/radio_planner.c ****     rp_task_compute_ranking( rp );
 2444              		.loc 1 232 112 is_stmt 1 view .LVU781
 233:radio_planner/src/radio_planner.c ****     if( rp->semaphore_radio == 0 )
 2445              		.loc 1 233 5 view .LVU782
 2446 0086 FFF7FEFF 		bl	rp_task_compute_ranking
 2447              	.LVL183:
 234:radio_planner/src/radio_planner.c ****     {
 2448              		.loc 1 234 5 view .LVU783
 234:radio_planner/src/radio_planner.c ****     {
 2449              		.loc 1 234 11 is_stmt 0 view .LVU784
 2450 008a 074B     		ldr	r3, .L133+8
 234:radio_planner/src/radio_planner.c ****     {
 2451              		.loc 1 234 7 view .LVU785
 2452 008c EB5C     		ldrb	r3, [r5, r3]
 2453 008e 002B     		cmp	r3, #0
 2454 0090 02D1     		bne	.L132
 236:radio_planner/src/radio_planner.c ****     }
 2455              		.loc 1 236 9 is_stmt 1 view .LVU786
 2456 0092 2800     		movs	r0, r5
 2457 0094 FFF7FEFF 		bl	rp_task_arbiter.isra.0
 2458              	.LVL184:
 2459              	.L132:
 238:radio_planner/src/radio_planner.c ****     return RP_HOOK_STATUS_OK;
 2460              		.loc 1 238 5 view .LVU787
 2461 0098 FFF7FEFF 		bl	rp_bsp_critical_section_end
 2462              	.LVL185:
 239:radio_planner/src/radio_planner.c **** }
 2463              		.loc 1 239 5 view .LVU788
 239:radio_planner/src/radio_planner.c **** }
 2464              		.loc 1 239 12 is_stmt 0 view .LVU789
 2465 009c 0027     		movs	r7, #0
 2466 009e BEE7     		b	.L130
 2467              	.L134:
 2468              		.align	2
 2469              	.L133:
 2470 00a0 13030000 		.word	787
 2471 00a4 12030000 		.word	786
 2472 00a8 F7040000 		.word	1271
 2473              		.cfi_endproc
ARM GAS  /var/folders/bq/yv49bw8j2kd6w3hsq868qv180000gn/T//ccsEouTz.s 			page 75


 2474              	.LFE12:
 2476              		.section	.text.rp_task_abort,"ax",%progbits
 2477              		.align	1
 2478              		.global	rp_task_abort
 2479              		.syntax unified
 2480              		.code	16
 2481              		.thumb_func
 2482              		.fpu softvfp
 2484              	rp_task_abort:
 2485              	.LVL186:
 2486              	.LFB13:
 243:radio_planner/src/radio_planner.c ****     rp_bsp_critical_section_begin( );
 2487              		.loc 1 243 1 is_stmt 1 view -0
 2488              		.cfi_startproc
 2489              		@ args = 0, pretend = 0, frame = 8
 2490              		@ frame_needed = 0, uses_anonymous_args = 0
 244:radio_planner/src/radio_planner.c ****     if( hook_id >= RP_NB_HOOKS )
 2491              		.loc 1 244 5 view .LVU791
 243:radio_planner/src/radio_planner.c ****     rp_bsp_critical_section_begin( );
 2492              		.loc 1 243 1 is_stmt 0 view .LVU792
 2493 0000 F7B5     		push	{r0, r1, r2, r4, r5, r6, r7, lr}
 2494              		.cfi_def_cfa_offset 32
 2495              		.cfi_offset 0, -32
 2496              		.cfi_offset 1, -28
 2497              		.cfi_offset 2, -24
 2498              		.cfi_offset 4, -20
 2499              		.cfi_offset 5, -16
 2500              		.cfi_offset 6, -12
 2501              		.cfi_offset 7, -8
 2502              		.cfi_offset 14, -4
 243:radio_planner/src/radio_planner.c ****     rp_bsp_critical_section_begin( );
 2503              		.loc 1 243 1 view .LVU793
 2504 0002 0D00     		movs	r5, r1
 2505 0004 0400     		movs	r4, r0
 244:radio_planner/src/radio_planner.c ****     if( hook_id >= RP_NB_HOOKS )
 2506              		.loc 1 244 5 view .LVU794
 2507 0006 FFF7FEFF 		bl	rp_bsp_critical_section_begin
 2508              	.LVL187:
 245:radio_planner/src/radio_planner.c ****     {
 2509              		.loc 1 245 5 is_stmt 1 view .LVU795
 245:radio_planner/src/radio_planner.c ****     {
 2510              		.loc 1 245 7 is_stmt 0 view .LVU796
 2511 000a 072D     		cmp	r5, #7
 2512 000c 03D9     		bls	.L136
 247:radio_planner/src/radio_planner.c ****         return RP_HOOK_STATUS_ID_ERROR;
 2513              		.loc 1 247 9 is_stmt 1 view .LVU797
 2514 000e FFF7FEFF 		bl	rp_bsp_critical_section_end
 2515              	.LVL188:
 248:radio_planner/src/radio_planner.c ****     }
 2516              		.loc 1 248 9 view .LVU798
 248:radio_planner/src/radio_planner.c ****     }
 2517              		.loc 1 248 16 is_stmt 0 view .LVU799
 2518 0012 0120     		movs	r0, #1
 2519              	.L137:
 268:radio_planner/src/radio_planner.c **** 
 2520              		.loc 1 268 1 view .LVU800
 2521              		@ sp needed
ARM GAS  /var/folders/bq/yv49bw8j2kd6w3hsq868qv180000gn/T//ccsEouTz.s 			page 76


 2522              	.LVL189:
 268:radio_planner/src/radio_planner.c **** 
 2523              		.loc 1 268 1 view .LVU801
 2524 0014 FEBD     		pop	{r1, r2, r3, r4, r5, r6, r7, pc}
 2525              	.LVL190:
 2526              	.L136:
 250:radio_planner/src/radio_planner.c ****     {
 2527              		.loc 1 250 5 is_stmt 1 view .LVU802
 2528 0016 2B01     		lsls	r3, r5, #4
 2529 0018 E618     		adds	r6, r4, r3
 250:radio_planner/src/radio_planner.c ****     {
 2530              		.loc 1 250 27 is_stmt 0 view .LVU803
 2531 001a 1D4B     		ldr	r3, .L140
 250:radio_planner/src/radio_planner.c ****     {
 2532              		.loc 1 250 7 view .LVU804
 2533 001c F25C     		ldrb	r2, [r6, r3]
 2534 001e 0193     		str	r3, [sp, #4]
 2535 0020 022A     		cmp	r2, #2
 2536 0022 0ED1     		bne	.L138
 252:radio_planner/src/radio_planner.c **** 
 2537              		.loc 1 252 9 is_stmt 1 view .LVU805
 252:radio_planner/src/radio_planner.c **** 
 2538              		.loc 1 252 26 is_stmt 0 view .LVU806
 2539 0024 A527     		movs	r7, #165
 2540 0026 FF00     		lsls	r7, r7, #3
 252:radio_planner/src/radio_planner.c **** 
 2541              		.loc 1 252 9 view .LVU807
 2542 0028 E059     		ldr	r0, [r4, r7]
 2543 002a FFF7FEFF 		bl	ral_set_sleep
 2544              	.LVL191:
 255:radio_planner/src/radio_planner.c **** 
 2545              		.loc 1 255 9 is_stmt 1 view .LVU808
 2546 002e E059     		ldr	r0, [r4, r7]
 2547 0030 FFF7FEFF 		bl	ral_set_tcxo_off
 2548              	.LVL192:
 257:radio_planner/src/radio_planner.c ****     }
 2549              		.loc 1 257 9 view .LVU809
 2550 0034 FFF7FEFF 		bl	rp_bsp_timestamp_get
 2551              	.LVL193:
 2552 0038 2900     		movs	r1, r5
 2553 003a 0200     		movs	r2, r0
 2554 003c 2000     		movs	r0, r4
 2555 003e FFF7FEFF 		bl	rp_consumption_statistics_updated
 2556              	.LVL194:
 2557              	.L138:
 259:radio_planner/src/radio_planner.c ****     rp->status[hook_id] = RP_STATUS_TASK_ABORTED;
 2558              		.loc 1 259 5 view .LVU810
 2559              	.LBB148:
 2560              	.LBI148:
 285:radio_planner/src/radio_planner.c **** {
 2561              		.loc 1 285 13 view .LVU811
 2562              	.LBB149:
 287:radio_planner/src/radio_planner.c ****     task->start_time_ms      = 0;
 2563              		.loc 1 287 5 view .LVU812
 287:radio_planner/src/radio_planner.c ****     task->start_time_ms      = 0;
 2564              		.loc 1 287 30 is_stmt 0 view .LVU813
 2565 0042 C423     		movs	r3, #196
ARM GAS  /var/folders/bq/yv49bw8j2kd6w3hsq868qv180000gn/T//ccsEouTz.s 			page 77


 2566 0044 0022     		movs	r2, #0
 289:radio_planner/src/radio_planner.c ****     task->duration_time_ms   = 0;
 2567              		.loc 1 289 30 view .LVU814
 2568 0046 C621     		movs	r1, #198
 287:radio_planner/src/radio_planner.c ****     task->start_time_ms      = 0;
 2569              		.loc 1 287 30 view .LVU815
 2570 0048 9B00     		lsls	r3, r3, #2
 2571 004a F254     		strb	r2, [r6, r3]
 288:radio_planner/src/radio_planner.c ****     task->start_time_init_ms = 0;
 2572              		.loc 1 288 5 is_stmt 1 view .LVU816
 288:radio_planner/src/radio_planner.c ****     task->start_time_init_ms = 0;
 2573              		.loc 1 288 30 is_stmt 0 view .LVU817
 2574 004c 0433     		adds	r3, r3, #4
 2575 004e F250     		str	r2, [r6, r3]
 289:radio_planner/src/radio_planner.c ****     task->duration_time_ms   = 0;
 2576              		.loc 1 289 5 is_stmt 1 view .LVU818
 289:radio_planner/src/radio_planner.c ****     task->duration_time_ms   = 0;
 2577              		.loc 1 289 30 is_stmt 0 view .LVU819
 2578 0050 2B01     		lsls	r3, r5, #4
 2579 0052 E318     		adds	r3, r4, r3
 2580 0054 8900     		lsls	r1, r1, #2
 2581 0056 5918     		adds	r1, r3, r1
 2582 0058 0A60     		str	r2, [r1]
 290:radio_planner/src/radio_planner.c ****     task->type               = RP_TASK_TYPE_NONE;
 2583              		.loc 1 290 5 is_stmt 1 view .LVU820
 290:radio_planner/src/radio_planner.c ****     task->type               = RP_TASK_TYPE_NONE;
 2584              		.loc 1 290 30 is_stmt 0 view .LVU821
 2585 005a C721     		movs	r1, #199
 2586 005c 8900     		lsls	r1, r1, #2
 2587 005e 5B18     		adds	r3, r3, r1
 2588 0060 1A60     		str	r2, [r3]
 291:radio_planner/src/radio_planner.c ****     task->state              = RP_TASK_STATE_FINISHED;
 2589              		.loc 1 291 5 is_stmt 1 view .LVU822
 291:radio_planner/src/radio_planner.c ****     task->state              = RP_TASK_STATE_FINISHED;
 2590              		.loc 1 291 30 is_stmt 0 view .LVU823
 2591 0062 0C4B     		ldr	r3, .L140+4
 2592 0064 0532     		adds	r2, r2, #5
 2593 0066 F254     		strb	r2, [r6, r3]
 292:radio_planner/src/radio_planner.c **** }
 2594              		.loc 1 292 5 is_stmt 1 view .LVU824
 292:radio_planner/src/radio_planner.c **** }
 2595              		.loc 1 292 30 is_stmt 0 view .LVU825
 2596 0068 0423     		movs	r3, #4
 2597 006a 019A     		ldr	r2, [sp, #4]
 2598              	.LBE149:
 2599              	.LBE148:
 260:radio_planner/src/radio_planner.c **** 
 2600              		.loc 1 260 25 view .LVU826
 2601 006c 6519     		adds	r5, r4, r5
 2602              	.LVL195:
 2603              	.LBB151:
 2604              	.LBB150:
 292:radio_planner/src/radio_planner.c **** }
