ARM GAS  /var/folders/bq/yv49bw8j2kd6w3hsq868qv180000gn/T//ccyOvgmk.s 			page 1


   1              		.cpu cortex-m0plus
   2              		.eabi_attribute 23, 1
   3              		.eabi_attribute 24, 1
   4              		.eabi_attribute 25, 1
   5              		.eabi_attribute 26, 1
   6              		.eabi_attribute 30, 4
   7              		.eabi_attribute 34, 0
   8              		.eabi_attribute 18, 4
   9              		.file	"ral_sx1280.c"
  10              		.text
  11              	.Ltext0:
  12              		.cfi_sections	.debug_frame
  13              		.section	.text.ral_sx1280_convert_irq_flags_to_radio,"ax",%progbits
  14              		.align	1
  15              		.arch armv6s-m
  16              		.syntax unified
  17              		.code	16
  18              		.thumb_func
  19              		.fpu softvfp
  21              	ral_sx1280_convert_irq_flags_to_radio:
  22              	.LVL0:
  23              	.LFB44:
  24              		.file 1 "smtc_ral/src/ral_sx1280.c"
   1:smtc_ral/src/ral_sx1280.c **** /**
   2:smtc_ral/src/ral_sx1280.c ****  * @file      ral_sx1280.c
   3:smtc_ral/src/ral_sx1280.c ****  *
   4:smtc_ral/src/ral_sx1280.c ****  * @brief     SX1280 radio abstraction layer implementation
   5:smtc_ral/src/ral_sx1280.c ****  *
   6:smtc_ral/src/ral_sx1280.c ****  * Revised BSD License
   7:smtc_ral/src/ral_sx1280.c ****  * Copyright Semtech Corporation 2020. All rights reserved.
   8:smtc_ral/src/ral_sx1280.c ****  *
   9:smtc_ral/src/ral_sx1280.c ****  * Redistribution and use in source and binary forms, with or without
  10:smtc_ral/src/ral_sx1280.c ****  * modification, are permitted provided that the following conditions are met:
  11:smtc_ral/src/ral_sx1280.c ****  *     * Redistributions of source code must retain the above copyright
  12:smtc_ral/src/ral_sx1280.c ****  *       notice, this list of conditions and the following disclaimer.
  13:smtc_ral/src/ral_sx1280.c ****  *     * Redistributions in binary form must reproduce the above copyright
  14:smtc_ral/src/ral_sx1280.c ****  *       notice, this list of conditions and the following disclaimer in the
  15:smtc_ral/src/ral_sx1280.c ****  *       documentation and/or other materials provided with the distribution.
  16:smtc_ral/src/ral_sx1280.c ****  *     * Neither the name of the Semtech corporation nor the
  17:smtc_ral/src/ral_sx1280.c ****  *       names of its contributors may be used to endorse or promote products
  18:smtc_ral/src/ral_sx1280.c ****  *       derived from this software without specific prior written permission.
  19:smtc_ral/src/ral_sx1280.c ****  *
  20:smtc_ral/src/ral_sx1280.c ****  * THIS SOFTWARE IS PROVIDED BY THE COPYRIGHT HOLDERS AND CONTRIBUTORS "AS IS"
  21:smtc_ral/src/ral_sx1280.c ****  * AND ANY EXPRESS OR IMPLIED WARRANTIES, INCLUDING, BUT NOT LIMITED TO, THE
  22:smtc_ral/src/ral_sx1280.c ****  * IMPLIED WARRANTIES OF MERCHANTABILITY AND FITNESS FOR A PARTICULAR PURPOSE
  23:smtc_ral/src/ral_sx1280.c ****  * ARE DISCLAIMED. IN NO EVENT SHALL SEMTECH CORPORATION BE LIABLE FOR ANY
  24:smtc_ral/src/ral_sx1280.c ****  * DIRECT, INDIRECT, INCIDENTAL, SPECIAL, EXEMPLARY, OR CONSEQUENTIAL DAMAGES
  25:smtc_ral/src/ral_sx1280.c ****  * (INCLUDING, BUT NOT LIMITED TO, PROCUREMENT OF SUBSTITUTE GOODS OR SERVICES;
  26:smtc_ral/src/ral_sx1280.c ****  * LOSS OF USE, DATA, OR PROFITS; OR BUSINESS INTERRUPTION) HOWEVER CAUSED AND
  27:smtc_ral/src/ral_sx1280.c ****  * ON ANY THEORY OF LIABILITY, WHETHER IN CONTRACT, STRICT LIABILITY, OR TORT
  28:smtc_ral/src/ral_sx1280.c ****  * (INCLUDING NEGLIGENCE OR OTHERWISE) ARISING IN ANY WAY OUT OF THE USE OF THIS
  29:smtc_ral/src/ral_sx1280.c ****  * SOFTWARE, EVEN IF ADVISED OF THE POSSIBILITY OF SUCH DAMAGE.
  30:smtc_ral/src/ral_sx1280.c ****  */
  31:smtc_ral/src/ral_sx1280.c **** 
  32:smtc_ral/src/ral_sx1280.c **** /*
  33:smtc_ral/src/ral_sx1280.c ****  * -----------------------------------------------------------------------------
  34:smtc_ral/src/ral_sx1280.c ****  * --- DEPENDENCIES ------------------------------------------------------------
ARM GAS  /var/folders/bq/yv49bw8j2kd6w3hsq868qv180000gn/T//ccyOvgmk.s 			page 2


  35:smtc_ral/src/ral_sx1280.c ****  */
  36:smtc_ral/src/ral_sx1280.c **** 
  37:smtc_ral/src/ral_sx1280.c **** #include <string.h>  // memcpy
  38:smtc_ral/src/ral_sx1280.c **** 
  39:smtc_ral/src/ral_sx1280.c **** #include "sx1280.h"
  40:smtc_ral/src/ral_sx1280.c **** #include "ral_sx1280.h"
  41:smtc_ral/src/ral_sx1280.c **** 
  42:smtc_ral/src/ral_sx1280.c **** /*
  43:smtc_ral/src/ral_sx1280.c ****  * -----------------------------------------------------------------------------
  44:smtc_ral/src/ral_sx1280.c ****  * --- PRIVATE MACROS-----------------------------------------------------------
  45:smtc_ral/src/ral_sx1280.c ****  */
  46:smtc_ral/src/ral_sx1280.c **** 
  47:smtc_ral/src/ral_sx1280.c **** /*
  48:smtc_ral/src/ral_sx1280.c ****  * -----------------------------------------------------------------------------
  49:smtc_ral/src/ral_sx1280.c ****  * --- PRIVATE CONSTANTS -------------------------------------------------------
  50:smtc_ral/src/ral_sx1280.c ****  */
  51:smtc_ral/src/ral_sx1280.c **** 
  52:smtc_ral/src/ral_sx1280.c **** /*
  53:smtc_ral/src/ral_sx1280.c ****  * -----------------------------------------------------------------------------
  54:smtc_ral/src/ral_sx1280.c ****  * --- PRIVATE TYPES -----------------------------------------------------------
  55:smtc_ral/src/ral_sx1280.c ****  */
  56:smtc_ral/src/ral_sx1280.c **** 
  57:smtc_ral/src/ral_sx1280.c **** /*
  58:smtc_ral/src/ral_sx1280.c ****  * -----------------------------------------------------------------------------
  59:smtc_ral/src/ral_sx1280.c ****  * --- PRIVATE VARIABLES -------------------------------------------------------
  60:smtc_ral/src/ral_sx1280.c ****  */
  61:smtc_ral/src/ral_sx1280.c **** 
  62:smtc_ral/src/ral_sx1280.c **** static const uint32_t ral_to_sx1280_lora_tx_dbm_to_ua[] = {
  63:smtc_ral/src/ral_sx1280.c ****     10000,  // -18 dBm
  64:smtc_ral/src/ral_sx1280.c ****     10000,  // -17 dBm
  65:smtc_ral/src/ral_sx1280.c ****     10000,  // -16 dBm
  66:smtc_ral/src/ral_sx1280.c ****     10000,  // -15 dBm
  67:smtc_ral/src/ral_sx1280.c ****     10000,  // -14 dBm
  68:smtc_ral/src/ral_sx1280.c ****     10000,  // -13 dBm
  69:smtc_ral/src/ral_sx1280.c ****     10000,  // -12 dBm
  70:smtc_ral/src/ral_sx1280.c ****     10000,  // -11 dBm
  71:smtc_ral/src/ral_sx1280.c ****     10000,  // -10 dBm
  72:smtc_ral/src/ral_sx1280.c ****     10000,  //  -9 dBm
  73:smtc_ral/src/ral_sx1280.c ****     10000,  //  -8 dBm
  74:smtc_ral/src/ral_sx1280.c ****     10000,  //  -7 dBm
  75:smtc_ral/src/ral_sx1280.c ****     10000,  //  -6 dBm
  76:smtc_ral/src/ral_sx1280.c ****     10000,  //  -5 dBm
  77:smtc_ral/src/ral_sx1280.c ****     10000,  //  -4 dBm
  78:smtc_ral/src/ral_sx1280.c ****     10000,  //  -3 dBm
  79:smtc_ral/src/ral_sx1280.c ****     10000,  //  -2 dBm
  80:smtc_ral/src/ral_sx1280.c ****     10000,  //  -1 dBm
  81:smtc_ral/src/ral_sx1280.c ****     10000,  //   0 dBm
  82:smtc_ral/src/ral_sx1280.c ****     10000,  //   1 dBm
  83:smtc_ral/src/ral_sx1280.c ****     11000,  //   2 dBm
  84:smtc_ral/src/ral_sx1280.c ****     11000,  //   3 dBm
  85:smtc_ral/src/ral_sx1280.c ****     12000,  //   4 dBm
  86:smtc_ral/src/ral_sx1280.c ****     12000,  //   5 dBm
  87:smtc_ral/src/ral_sx1280.c ****     14000,  //   6 dBm
  88:smtc_ral/src/ral_sx1280.c ****     14000,  //   7 dBm
  89:smtc_ral/src/ral_sx1280.c ****     16000,  //   8 dBm
  90:smtc_ral/src/ral_sx1280.c ****     16000,  //   9 dBm
  91:smtc_ral/src/ral_sx1280.c ****     18000,  //  10 dBm
ARM GAS  /var/folders/bq/yv49bw8j2kd6w3hsq868qv180000gn/T//ccyOvgmk.s 			page 3


  92:smtc_ral/src/ral_sx1280.c ****     18000,  //  11 dBm
  93:smtc_ral/src/ral_sx1280.c ****     24000,  //  12 dBm
  94:smtc_ral/src/ral_sx1280.c ****     24000,  //  13 dBm
  95:smtc_ral/src/ral_sx1280.c **** };
  96:smtc_ral/src/ral_sx1280.c **** 
  97:smtc_ral/src/ral_sx1280.c **** /*
  98:smtc_ral/src/ral_sx1280.c ****  * -----------------------------------------------------------------------------
  99:smtc_ral/src/ral_sx1280.c ****  * --- PRIVATE FUNCTIONS DECLARATION -------------------------------------------
 100:smtc_ral/src/ral_sx1280.c ****  */
 101:smtc_ral/src/ral_sx1280.c **** 
 102:smtc_ral/src/ral_sx1280.c **** static ral_status_t ral_sx1280_convert_gfsk_params_from_radio( const ral_params_gfsk_t*  params,
 103:smtc_ral/src/ral_sx1280.c ****                                                                sx1280_mod_params_gfsk_t* mod_params
 104:smtc_ral/src/ral_sx1280.c ****                                                                sx1280_pkt_params_gfsk_t* pkt_params
 105:smtc_ral/src/ral_sx1280.c **** 
 106:smtc_ral/src/ral_sx1280.c **** static ral_status_t ral_sx1280_convert_lora_params_from_radio( const ral_params_lora_t*  params,
 107:smtc_ral/src/ral_sx1280.c ****                                                                sx1280_mod_params_lora_t* mod_params
 108:smtc_ral/src/ral_sx1280.c ****                                                                sx1280_pkt_params_lora_t* pkt_params
 109:smtc_ral/src/ral_sx1280.c **** 
 110:smtc_ral/src/ral_sx1280.c **** static ral_status_t ral_sx1280_convert_flrc_params_from_radio( const ral_params_flrc_t*  params,
 111:smtc_ral/src/ral_sx1280.c ****                                                                sx1280_mod_params_flrc_t* mod_params
 112:smtc_ral/src/ral_sx1280.c ****                                                                sx1280_pkt_params_flrc_t* pkt_params
 113:smtc_ral/src/ral_sx1280.c **** 
 114:smtc_ral/src/ral_sx1280.c **** static sx1280_lora_range_pbl_len_t sx1280_convert_pbl_len_from_symb( const uint16_t pbl_len_in_symb
 115:smtc_ral/src/ral_sx1280.c **** 
 116:smtc_ral/src/ral_sx1280.c **** static ral_irq_t ral_sx1280_convert_irq_flags_to_radio( sx1280_irq_mask_t sx1280_irq );
 117:smtc_ral/src/ral_sx1280.c **** 
 118:smtc_ral/src/ral_sx1280.c **** static sx1280_irq_mask_t ral_sx1280_convert_irq_flags_from_radio( ral_irq_t ral_irq );
 119:smtc_ral/src/ral_sx1280.c **** 
 120:smtc_ral/src/ral_sx1280.c **** static uint8_t shift_and_count_trailing_zeros( uint16_t* x );
 121:smtc_ral/src/ral_sx1280.c **** 
 122:smtc_ral/src/ral_sx1280.c **** /*
 123:smtc_ral/src/ral_sx1280.c ****  * -----------------------------------------------------------------------------
 124:smtc_ral/src/ral_sx1280.c ****  * --- PUBLIC FUNCTIONS DEFINITION ---------------------------------------------
 125:smtc_ral/src/ral_sx1280.c ****  */
 126:smtc_ral/src/ral_sx1280.c **** 
 127:smtc_ral/src/ral_sx1280.c **** ral_status_t ral_sx1280_init( const ral_t* ral )
 128:smtc_ral/src/ral_sx1280.c **** {
 129:smtc_ral/src/ral_sx1280.c ****     ral_status_t status = RAL_STATUS_ERROR;
 130:smtc_ral/src/ral_sx1280.c **** 
 131:smtc_ral/src/ral_sx1280.c ****     sx1280_reset( ral->context );
 132:smtc_ral/src/ral_sx1280.c **** 
 133:smtc_ral/src/ral_sx1280.c ****     status = ( ral_status_t ) sx1280_set_reg_mode( ral->context, SX1280_REG_MODE_DCDC );
 134:smtc_ral/src/ral_sx1280.c ****     return status;
 135:smtc_ral/src/ral_sx1280.c **** }
 136:smtc_ral/src/ral_sx1280.c **** 
 137:smtc_ral/src/ral_sx1280.c **** ral_status_t ral_sx1280_setup_gfsk( const ral_t* ral, const ral_params_gfsk_t* params )
 138:smtc_ral/src/ral_sx1280.c **** {
 139:smtc_ral/src/ral_sx1280.c ****     ral_status_t             status     = RAL_STATUS_ERROR;
 140:smtc_ral/src/ral_sx1280.c ****     sx1280_mod_params_gfsk_t mod_params = { 0 };
 141:smtc_ral/src/ral_sx1280.c ****     sx1280_pkt_params_gfsk_t pkt_params = { 0 };
 142:smtc_ral/src/ral_sx1280.c **** 
 143:smtc_ral/src/ral_sx1280.c ****     status = ral_sx1280_convert_gfsk_params_from_radio( params, &mod_params, &pkt_params );
 144:smtc_ral/src/ral_sx1280.c ****     if( status != RAL_STATUS_OK )
 145:smtc_ral/src/ral_sx1280.c ****     {
 146:smtc_ral/src/ral_sx1280.c ****         return status;
 147:smtc_ral/src/ral_sx1280.c ****     }
 148:smtc_ral/src/ral_sx1280.c **** 
ARM GAS  /var/folders/bq/yv49bw8j2kd6w3hsq868qv180000gn/T//ccyOvgmk.s 			page 4


 149:smtc_ral/src/ral_sx1280.c ****     status = ( ral_status_t ) sx1280_set_standby( ral->context, SX1280_STANDBY_CFG_RC );
 150:smtc_ral/src/ral_sx1280.c ****     if( status != RAL_STATUS_OK )
 151:smtc_ral/src/ral_sx1280.c ****     {
 152:smtc_ral/src/ral_sx1280.c ****         return status;
 153:smtc_ral/src/ral_sx1280.c ****     }
 154:smtc_ral/src/ral_sx1280.c **** 
 155:smtc_ral/src/ral_sx1280.c ****     status = ( ral_status_t ) sx1280_set_pkt_type( ral->context, SX1280_PKT_TYPE_GFSK );
 156:smtc_ral/src/ral_sx1280.c ****     if( status != RAL_STATUS_OK )
 157:smtc_ral/src/ral_sx1280.c ****     {
 158:smtc_ral/src/ral_sx1280.c ****         return status;
 159:smtc_ral/src/ral_sx1280.c ****     }
 160:smtc_ral/src/ral_sx1280.c **** 
 161:smtc_ral/src/ral_sx1280.c ****     status = ( ral_status_t ) sx1280_set_rf_freq( ral->context, params->freq_in_hz );
 162:smtc_ral/src/ral_sx1280.c ****     if( status != RAL_STATUS_OK )
 163:smtc_ral/src/ral_sx1280.c ****     {
 164:smtc_ral/src/ral_sx1280.c ****         return status;
 165:smtc_ral/src/ral_sx1280.c ****     }
 166:smtc_ral/src/ral_sx1280.c **** 
 167:smtc_ral/src/ral_sx1280.c ****     status = ( ral_status_t ) sx1280_set_tx_params( ral->context, params->pwr_in_dbm, SX1280_RAMP_2
 168:smtc_ral/src/ral_sx1280.c ****     if( status != RAL_STATUS_OK )
 169:smtc_ral/src/ral_sx1280.c ****     {
 170:smtc_ral/src/ral_sx1280.c ****         return status;
 171:smtc_ral/src/ral_sx1280.c ****     }
 172:smtc_ral/src/ral_sx1280.c **** 
 173:smtc_ral/src/ral_sx1280.c ****     status = ( ral_status_t ) sx1280_set_buffer_base_addr( ral->context, 0x00, 0x00 );
 174:smtc_ral/src/ral_sx1280.c ****     if( status != RAL_STATUS_OK )
 175:smtc_ral/src/ral_sx1280.c ****     {
 176:smtc_ral/src/ral_sx1280.c ****         return status;
 177:smtc_ral/src/ral_sx1280.c ****     }
 178:smtc_ral/src/ral_sx1280.c **** 
 179:smtc_ral/src/ral_sx1280.c ****     status = ( ral_status_t ) sx1280_set_gfsk_mod_params( ral->context, &mod_params );
 180:smtc_ral/src/ral_sx1280.c ****     if( status != RAL_STATUS_OK )
 181:smtc_ral/src/ral_sx1280.c ****     {
 182:smtc_ral/src/ral_sx1280.c ****         return status;
 183:smtc_ral/src/ral_sx1280.c ****     }
 184:smtc_ral/src/ral_sx1280.c **** 
 185:smtc_ral/src/ral_sx1280.c ****     status = ( ral_status_t ) sx1280_set_gfsk_pkt_params( ral->context, &pkt_params );
 186:smtc_ral/src/ral_sx1280.c ****     if( status != RAL_STATUS_OK )
 187:smtc_ral/src/ral_sx1280.c ****     {
 188:smtc_ral/src/ral_sx1280.c ****         return status;
 189:smtc_ral/src/ral_sx1280.c ****     }
 190:smtc_ral/src/ral_sx1280.c **** 
 191:smtc_ral/src/ral_sx1280.c ****     if( params->crc_type != RAL_GFSK_CRC_OFF )
 192:smtc_ral/src/ral_sx1280.c ****     {
 193:smtc_ral/src/ral_sx1280.c ****         status = ( ral_status_t ) sx1280_set_gfsk_crc_seed( ral->context, params->crc_seed );
 194:smtc_ral/src/ral_sx1280.c ****         if( status != RAL_STATUS_OK )
 195:smtc_ral/src/ral_sx1280.c ****         {
 196:smtc_ral/src/ral_sx1280.c ****             return status;
 197:smtc_ral/src/ral_sx1280.c ****         }
 198:smtc_ral/src/ral_sx1280.c **** 
 199:smtc_ral/src/ral_sx1280.c ****         status = ( ral_status_t ) sx1280_set_gfsk_crc_polynomial( ral->context, params->crc_polynom
 200:smtc_ral/src/ral_sx1280.c ****         if( status != RAL_STATUS_OK )
 201:smtc_ral/src/ral_sx1280.c ****         {
 202:smtc_ral/src/ral_sx1280.c ****             return status;
 203:smtc_ral/src/ral_sx1280.c ****         }
 204:smtc_ral/src/ral_sx1280.c ****     }
 205:smtc_ral/src/ral_sx1280.c **** 
ARM GAS  /var/folders/bq/yv49bw8j2kd6w3hsq868qv180000gn/T//ccyOvgmk.s 			page 5


 206:smtc_ral/src/ral_sx1280.c ****     status = ( ral_status_t ) sx1280_set_gfsk_sync_word( ral->context, 1, params->sync_word,
 207:smtc_ral/src/ral_sx1280.c ****                                                          params->sync_word_len_in_bytes );
 208:smtc_ral/src/ral_sx1280.c ****     if( status != RAL_STATUS_OK )
 209:smtc_ral/src/ral_sx1280.c ****     {
 210:smtc_ral/src/ral_sx1280.c ****         return status;
 211:smtc_ral/src/ral_sx1280.c ****     }
 212:smtc_ral/src/ral_sx1280.c **** 
 213:smtc_ral/src/ral_sx1280.c ****     if( params->dc_free_is_on == true )
 214:smtc_ral/src/ral_sx1280.c ****     {
 215:smtc_ral/src/ral_sx1280.c ****         status = ( ral_status_t ) sx1280_set_gfsk_whitening_seed( ral->context, params->whitening_s
 216:smtc_ral/src/ral_sx1280.c ****     }
 217:smtc_ral/src/ral_sx1280.c **** 
 218:smtc_ral/src/ral_sx1280.c ****     return status;
 219:smtc_ral/src/ral_sx1280.c **** }
 220:smtc_ral/src/ral_sx1280.c **** 
 221:smtc_ral/src/ral_sx1280.c **** ral_status_t ral_sx1280_setup_rx_gfsk( const ral_t* ral, const ral_params_gfsk_t* params )
 222:smtc_ral/src/ral_sx1280.c **** {
 223:smtc_ral/src/ral_sx1280.c ****     ral_status_t status = RAL_STATUS_ERROR;
 224:smtc_ral/src/ral_sx1280.c **** 
 225:smtc_ral/src/ral_sx1280.c ****     // Force unused parameter to a known value.
 226:smtc_ral/src/ral_sx1280.c ****     ral_params_gfsk_t local_params = *params;
 227:smtc_ral/src/ral_sx1280.c ****     local_params.pwr_in_dbm        = 0;
 228:smtc_ral/src/ral_sx1280.c ****     local_params.fdev_in_hz        = 0;
 229:smtc_ral/src/ral_sx1280.c **** 
 230:smtc_ral/src/ral_sx1280.c ****     status = ral_sx1280_setup_gfsk( ral, &local_params );
 231:smtc_ral/src/ral_sx1280.c ****     if( status == RAL_STATUS_OK )
 232:smtc_ral/src/ral_sx1280.c ****     {
 233:smtc_ral/src/ral_sx1280.c ****         status = ( ral_status_t ) sx1280_set_dio_irq_params(
 234:smtc_ral/src/ral_sx1280.c ****             ral->context, SX1280_IRQ_RX_DONE | SX1280_IRQ_SYNC_WORD_ERROR | SX1280_IRQ_CRC_ERROR | 
 235:smtc_ral/src/ral_sx1280.c ****             SX1280_IRQ_RX_DONE | SX1280_IRQ_SYNC_WORD_ERROR | SX1280_IRQ_CRC_ERROR | SX1280_IRQ_TIM
 236:smtc_ral/src/ral_sx1280.c ****             SX1280_IRQ_NONE, SX1280_IRQ_NONE );
 237:smtc_ral/src/ral_sx1280.c ****         if( status != RAL_STATUS_OK )
 238:smtc_ral/src/ral_sx1280.c ****         {
 239:smtc_ral/src/ral_sx1280.c ****             return status;
 240:smtc_ral/src/ral_sx1280.c ****         }
 241:smtc_ral/src/ral_sx1280.c ****     }
 242:smtc_ral/src/ral_sx1280.c ****     return status;
 243:smtc_ral/src/ral_sx1280.c **** }
 244:smtc_ral/src/ral_sx1280.c **** 
 245:smtc_ral/src/ral_sx1280.c **** ral_status_t ral_sx1280_setup_tx_gfsk( const ral_t* ral, const ral_params_gfsk_t* params )
 246:smtc_ral/src/ral_sx1280.c **** {
 247:smtc_ral/src/ral_sx1280.c ****     ral_status_t status = RAL_STATUS_ERROR;
 248:smtc_ral/src/ral_sx1280.c **** 
 249:smtc_ral/src/ral_sx1280.c ****     // Force unused parameter to a known value.
 250:smtc_ral/src/ral_sx1280.c ****     ral_params_gfsk_t local_params = *params;
 251:smtc_ral/src/ral_sx1280.c ****     local_params.bw_ssb_in_hz      = 0;
 252:smtc_ral/src/ral_sx1280.c **** 
 253:smtc_ral/src/ral_sx1280.c ****     status = ral_sx1280_setup_gfsk( ral, &local_params );
 254:smtc_ral/src/ral_sx1280.c ****     if( status == RAL_STATUS_OK )
 255:smtc_ral/src/ral_sx1280.c ****     {
 256:smtc_ral/src/ral_sx1280.c ****         status = ( ral_status_t ) sx1280_set_dio_irq_params( ral->context, SX1280_IRQ_TX_DONE, SX12
 257:smtc_ral/src/ral_sx1280.c ****                                                              SX1280_IRQ_NONE, SX1280_IRQ_NONE );
 258:smtc_ral/src/ral_sx1280.c ****     }
 259:smtc_ral/src/ral_sx1280.c ****     return status;
 260:smtc_ral/src/ral_sx1280.c **** }
 261:smtc_ral/src/ral_sx1280.c **** 
 262:smtc_ral/src/ral_sx1280.c **** ral_status_t ral_sx1280_setup_lora( const ral_t* ral, const ral_params_lora_t* params )
ARM GAS  /var/folders/bq/yv49bw8j2kd6w3hsq868qv180000gn/T//ccyOvgmk.s 			page 6


 263:smtc_ral/src/ral_sx1280.c **** {
 264:smtc_ral/src/ral_sx1280.c ****     ral_status_t             status     = RAL_STATUS_ERROR;
 265:smtc_ral/src/ral_sx1280.c ****     sx1280_mod_params_lora_t mod_params = { 0 };
 266:smtc_ral/src/ral_sx1280.c ****     sx1280_pkt_params_lora_t pkt_params = { 0 };
 267:smtc_ral/src/ral_sx1280.c **** 
 268:smtc_ral/src/ral_sx1280.c ****     status = ral_sx1280_convert_lora_params_from_radio( params, &mod_params, &pkt_params );
 269:smtc_ral/src/ral_sx1280.c ****     if( status != RAL_STATUS_OK )
 270:smtc_ral/src/ral_sx1280.c ****     {
 271:smtc_ral/src/ral_sx1280.c ****         return status;
 272:smtc_ral/src/ral_sx1280.c ****     }
 273:smtc_ral/src/ral_sx1280.c **** 
 274:smtc_ral/src/ral_sx1280.c ****     status = ( ral_status_t ) sx1280_set_standby( ral->context, SX1280_STANDBY_CFG_RC );
 275:smtc_ral/src/ral_sx1280.c ****     if( status != RAL_STATUS_OK )
 276:smtc_ral/src/ral_sx1280.c ****     {
 277:smtc_ral/src/ral_sx1280.c ****         return status;
 278:smtc_ral/src/ral_sx1280.c ****     }
 279:smtc_ral/src/ral_sx1280.c **** 
 280:smtc_ral/src/ral_sx1280.c ****     status = ( ral_status_t ) sx1280_set_pkt_type( ral->context, SX1280_PKT_TYPE_LORA );
 281:smtc_ral/src/ral_sx1280.c ****     if( status != RAL_STATUS_OK )
 282:smtc_ral/src/ral_sx1280.c ****     {
 283:smtc_ral/src/ral_sx1280.c ****         return status;
 284:smtc_ral/src/ral_sx1280.c ****     }
 285:smtc_ral/src/ral_sx1280.c **** 
 286:smtc_ral/src/ral_sx1280.c ****     status = ( ral_status_t ) sx1280_set_rf_freq( ral->context, params->freq_in_hz );
 287:smtc_ral/src/ral_sx1280.c ****     if( status != RAL_STATUS_OK )
 288:smtc_ral/src/ral_sx1280.c ****     {
 289:smtc_ral/src/ral_sx1280.c ****         return status;
 290:smtc_ral/src/ral_sx1280.c ****     }
 291:smtc_ral/src/ral_sx1280.c **** 
 292:smtc_ral/src/ral_sx1280.c ****     int8_t pwr_in_dbm_clipped = params->pwr_in_dbm;
 293:smtc_ral/src/ral_sx1280.c ****     if( params->pwr_in_dbm > SX1280_PWR_MAX )
 294:smtc_ral/src/ral_sx1280.c ****     {
 295:smtc_ral/src/ral_sx1280.c ****         pwr_in_dbm_clipped = SX1280_PWR_MAX;
 296:smtc_ral/src/ral_sx1280.c ****     }
 297:smtc_ral/src/ral_sx1280.c ****     else if( params->pwr_in_dbm < SX1280_PWR_MIN )
 298:smtc_ral/src/ral_sx1280.c ****     {
 299:smtc_ral/src/ral_sx1280.c ****         pwr_in_dbm_clipped = SX1280_PWR_MIN;
 300:smtc_ral/src/ral_sx1280.c ****     }
 301:smtc_ral/src/ral_sx1280.c ****     status = ( ral_status_t ) sx1280_set_tx_params( ral->context, pwr_in_dbm_clipped, SX1280_RAMP_2
 302:smtc_ral/src/ral_sx1280.c ****     if( status != RAL_STATUS_OK )
 303:smtc_ral/src/ral_sx1280.c ****     {
 304:smtc_ral/src/ral_sx1280.c ****         return status;
 305:smtc_ral/src/ral_sx1280.c ****     }
 306:smtc_ral/src/ral_sx1280.c **** 
 307:smtc_ral/src/ral_sx1280.c ****     status = ( ral_status_t ) sx1280_set_buffer_base_addr( ral->context, 0x00, 0x00 );
 308:smtc_ral/src/ral_sx1280.c ****     if( status != RAL_STATUS_OK )
 309:smtc_ral/src/ral_sx1280.c ****     {
 310:smtc_ral/src/ral_sx1280.c ****         return status;
 311:smtc_ral/src/ral_sx1280.c ****     }
 312:smtc_ral/src/ral_sx1280.c **** 
 313:smtc_ral/src/ral_sx1280.c ****     status = ( ral_status_t ) sx1280_set_lora_mod_params( ral->context, &mod_params );
 314:smtc_ral/src/ral_sx1280.c ****     if( status != RAL_STATUS_OK )
 315:smtc_ral/src/ral_sx1280.c ****     {
 316:smtc_ral/src/ral_sx1280.c ****         return status;
 317:smtc_ral/src/ral_sx1280.c ****     }
 318:smtc_ral/src/ral_sx1280.c **** 
 319:smtc_ral/src/ral_sx1280.c ****     status = ( ral_status_t ) sx1280_set_lora_pkt_params( ral->context, &pkt_params );
ARM GAS  /var/folders/bq/yv49bw8j2kd6w3hsq868qv180000gn/T//ccyOvgmk.s 			page 7


 320:smtc_ral/src/ral_sx1280.c ****     if( status != RAL_STATUS_OK )
 321:smtc_ral/src/ral_sx1280.c ****     {
 322:smtc_ral/src/ral_sx1280.c ****         return status;
 323:smtc_ral/src/ral_sx1280.c ****     }
 324:smtc_ral/src/ral_sx1280.c **** 
 325:smtc_ral/src/ral_sx1280.c ****     status = ( ral_status_t ) sx1280_set_lora_sync_word( ral->context, params->sync_word );
 326:smtc_ral/src/ral_sx1280.c **** 
 327:smtc_ral/src/ral_sx1280.c ****     return status;
 328:smtc_ral/src/ral_sx1280.c **** }
 329:smtc_ral/src/ral_sx1280.c **** 
 330:smtc_ral/src/ral_sx1280.c **** ral_status_t ral_sx1280_setup_rx_lora( const ral_t* ral, const ral_params_lora_t* params )
 331:smtc_ral/src/ral_sx1280.c **** {
 332:smtc_ral/src/ral_sx1280.c ****     ral_status_t status = RAL_STATUS_ERROR;
 333:smtc_ral/src/ral_sx1280.c **** 
 334:smtc_ral/src/ral_sx1280.c ****     // Force unused parameter to a known value.
 335:smtc_ral/src/ral_sx1280.c ****     ral_params_lora_t local_params = *params;
 336:smtc_ral/src/ral_sx1280.c ****     local_params.pwr_in_dbm        = 0;
 337:smtc_ral/src/ral_sx1280.c **** 
 338:smtc_ral/src/ral_sx1280.c ****     status = ral_sx1280_setup_lora( ral, &local_params );
 339:smtc_ral/src/ral_sx1280.c ****     if( status == RAL_STATUS_OK )
 340:smtc_ral/src/ral_sx1280.c ****     {
 341:smtc_ral/src/ral_sx1280.c ****         status = ( ral_status_t ) sx1280_set_dio_irq_params(
 342:smtc_ral/src/ral_sx1280.c ****             ral->context, SX1280_IRQ_RX_DONE | SX1280_IRQ_HEADER_ERROR | SX1280_IRQ_CRC_ERROR | SX1
 343:smtc_ral/src/ral_sx1280.c ****             SX1280_IRQ_RX_DONE | SX1280_IRQ_HEADER_ERROR | SX1280_IRQ_CRC_ERROR | SX1280_IRQ_TIMEOU
 344:smtc_ral/src/ral_sx1280.c ****             SX1280_IRQ_NONE );
 345:smtc_ral/src/ral_sx1280.c ****         if( status != RAL_STATUS_OK )
 346:smtc_ral/src/ral_sx1280.c ****         {
 347:smtc_ral/src/ral_sx1280.c ****             return status;
 348:smtc_ral/src/ral_sx1280.c ****         }
 349:smtc_ral/src/ral_sx1280.c ****     }
 350:smtc_ral/src/ral_sx1280.c ****     return status;
 351:smtc_ral/src/ral_sx1280.c **** }
 352:smtc_ral/src/ral_sx1280.c **** 
 353:smtc_ral/src/ral_sx1280.c **** ral_status_t ral_sx1280_setup_tx_lora( const ral_t* ral, const ral_params_lora_t* params )
 354:smtc_ral/src/ral_sx1280.c **** {
 355:smtc_ral/src/ral_sx1280.c ****     ral_status_t status = RAL_STATUS_ERROR;
 356:smtc_ral/src/ral_sx1280.c **** 
 357:smtc_ral/src/ral_sx1280.c ****     // Force unused parameter to a known value.
 358:smtc_ral/src/ral_sx1280.c ****     ral_params_lora_t local_params = *params;
 359:smtc_ral/src/ral_sx1280.c ****     local_params.symb_nb_timeout   = 0;
 360:smtc_ral/src/ral_sx1280.c **** 
 361:smtc_ral/src/ral_sx1280.c ****     status = ral_sx1280_setup_lora( ral, &local_params );
 362:smtc_ral/src/ral_sx1280.c ****     if( status == RAL_STATUS_OK )
 363:smtc_ral/src/ral_sx1280.c ****     {
 364:smtc_ral/src/ral_sx1280.c ****         status = ( ral_status_t ) sx1280_set_dio_irq_params( ral->context, SX1280_IRQ_TX_DONE, SX12
 365:smtc_ral/src/ral_sx1280.c ****                                                              SX1280_IRQ_NONE, SX1280_IRQ_NONE );
 366:smtc_ral/src/ral_sx1280.c ****     }
 367:smtc_ral/src/ral_sx1280.c ****     return status;
 368:smtc_ral/src/ral_sx1280.c **** }
 369:smtc_ral/src/ral_sx1280.c **** 
 370:smtc_ral/src/ral_sx1280.c **** ral_status_t ral_sx1280_setup_flrc( const ral_t* ral, const ral_params_flrc_t* params )
 371:smtc_ral/src/ral_sx1280.c **** {
 372:smtc_ral/src/ral_sx1280.c ****     ral_status_t             status     = RAL_STATUS_ERROR;
 373:smtc_ral/src/ral_sx1280.c ****     sx1280_mod_params_flrc_t mod_params = { 0 };
 374:smtc_ral/src/ral_sx1280.c ****     sx1280_pkt_params_flrc_t pkt_params = { 0 };
 375:smtc_ral/src/ral_sx1280.c **** 
 376:smtc_ral/src/ral_sx1280.c ****     status = ral_sx1280_convert_flrc_params_from_radio( params, &mod_params, &pkt_params );
ARM GAS  /var/folders/bq/yv49bw8j2kd6w3hsq868qv180000gn/T//ccyOvgmk.s 			page 8


 377:smtc_ral/src/ral_sx1280.c ****     if( status != RAL_STATUS_OK )
 378:smtc_ral/src/ral_sx1280.c ****     {
 379:smtc_ral/src/ral_sx1280.c ****         return status;
 380:smtc_ral/src/ral_sx1280.c ****     }
 381:smtc_ral/src/ral_sx1280.c **** 
 382:smtc_ral/src/ral_sx1280.c ****     status = ( ral_status_t ) sx1280_set_standby( ral->context, SX1280_STANDBY_CFG_RC );
 383:smtc_ral/src/ral_sx1280.c ****     if( status != RAL_STATUS_OK )
 384:smtc_ral/src/ral_sx1280.c ****     {
 385:smtc_ral/src/ral_sx1280.c ****         return status;
 386:smtc_ral/src/ral_sx1280.c ****     }
 387:smtc_ral/src/ral_sx1280.c **** 
 388:smtc_ral/src/ral_sx1280.c ****     status = ( ral_status_t ) sx1280_set_pkt_type( ral->context, SX1280_PKT_TYPE_FLRC );
 389:smtc_ral/src/ral_sx1280.c ****     if( status != RAL_STATUS_OK )
 390:smtc_ral/src/ral_sx1280.c ****     {
 391:smtc_ral/src/ral_sx1280.c ****         return status;
 392:smtc_ral/src/ral_sx1280.c ****     }
 393:smtc_ral/src/ral_sx1280.c **** 
 394:smtc_ral/src/ral_sx1280.c ****     status = ( ral_status_t ) sx1280_set_rf_freq( ral->context, params->freq_in_hz );
 395:smtc_ral/src/ral_sx1280.c ****     if( status != RAL_STATUS_OK )
 396:smtc_ral/src/ral_sx1280.c ****     {
 397:smtc_ral/src/ral_sx1280.c ****         return status;
 398:smtc_ral/src/ral_sx1280.c ****     }
 399:smtc_ral/src/ral_sx1280.c **** 
 400:smtc_ral/src/ral_sx1280.c ****     status = ( ral_status_t ) sx1280_set_tx_params( ral->context, params->pwr_in_dbm, SX1280_RAMP_2
 401:smtc_ral/src/ral_sx1280.c ****     if( status != RAL_STATUS_OK )
 402:smtc_ral/src/ral_sx1280.c ****     {
 403:smtc_ral/src/ral_sx1280.c ****         return status;
 404:smtc_ral/src/ral_sx1280.c ****     }
 405:smtc_ral/src/ral_sx1280.c **** 
 406:smtc_ral/src/ral_sx1280.c ****     status = ( ral_status_t ) sx1280_set_buffer_base_addr( ral->context, 0x00, 0x00 );
 407:smtc_ral/src/ral_sx1280.c ****     if( status != RAL_STATUS_OK )
 408:smtc_ral/src/ral_sx1280.c ****     {
 409:smtc_ral/src/ral_sx1280.c ****         return status;
 410:smtc_ral/src/ral_sx1280.c ****     }
 411:smtc_ral/src/ral_sx1280.c **** 
 412:smtc_ral/src/ral_sx1280.c ****     status = ( ral_status_t ) sx1280_set_flrc_mod_params( ral->context, &mod_params );
 413:smtc_ral/src/ral_sx1280.c ****     if( status != RAL_STATUS_OK )
 414:smtc_ral/src/ral_sx1280.c ****     {
 415:smtc_ral/src/ral_sx1280.c ****         return status;
 416:smtc_ral/src/ral_sx1280.c ****     }
 417:smtc_ral/src/ral_sx1280.c **** 
 418:smtc_ral/src/ral_sx1280.c ****     status = ( ral_status_t ) sx1280_set_flrc_pkt_params( ral->context, &pkt_params );
 419:smtc_ral/src/ral_sx1280.c ****     if( status != RAL_STATUS_OK )
 420:smtc_ral/src/ral_sx1280.c ****     {
 421:smtc_ral/src/ral_sx1280.c ****         return status;
 422:smtc_ral/src/ral_sx1280.c ****     }
 423:smtc_ral/src/ral_sx1280.c **** 
 424:smtc_ral/src/ral_sx1280.c ****     status = ( ral_status_t ) sx1280_set_flrc_crc_seed( ral->context, params->crc_seed );
 425:smtc_ral/src/ral_sx1280.c ****     if( status != RAL_STATUS_OK )
 426:smtc_ral/src/ral_sx1280.c ****     {
 427:smtc_ral/src/ral_sx1280.c ****         return status;
 428:smtc_ral/src/ral_sx1280.c ****     }
 429:smtc_ral/src/ral_sx1280.c **** 
 430:smtc_ral/src/ral_sx1280.c ****     status = ( ral_status_t ) sx1280_set_flrc_sync_word( ral->context, 1, params->sync_word, pkt_pa
 431:smtc_ral/src/ral_sx1280.c **** 
 432:smtc_ral/src/ral_sx1280.c ****     return status;
 433:smtc_ral/src/ral_sx1280.c **** }
ARM GAS  /var/folders/bq/yv49bw8j2kd6w3hsq868qv180000gn/T//ccyOvgmk.s 			page 9


 434:smtc_ral/src/ral_sx1280.c **** 
 435:smtc_ral/src/ral_sx1280.c **** ral_status_t ral_sx1280_setup_rx_flrc( const ral_t* ral, const ral_params_flrc_t* params )
 436:smtc_ral/src/ral_sx1280.c **** {
 437:smtc_ral/src/ral_sx1280.c ****     ral_status_t status = RAL_STATUS_ERROR;
 438:smtc_ral/src/ral_sx1280.c **** 
 439:smtc_ral/src/ral_sx1280.c ****     // Force unused parameter to a known value.
 440:smtc_ral/src/ral_sx1280.c ****     ral_params_flrc_t local_params = *params;
 441:smtc_ral/src/ral_sx1280.c ****     local_params.pwr_in_dbm        = 0;
 442:smtc_ral/src/ral_sx1280.c **** 
 443:smtc_ral/src/ral_sx1280.c ****     status = ral_sx1280_setup_flrc( ral, &local_params );
 444:smtc_ral/src/ral_sx1280.c ****     if( status == RAL_STATUS_OK )
 445:smtc_ral/src/ral_sx1280.c ****     {
 446:smtc_ral/src/ral_sx1280.c ****         status = ( ral_status_t ) sx1280_set_dio_irq_params(
 447:smtc_ral/src/ral_sx1280.c ****             ral->context, SX1280_IRQ_RX_DONE | SX1280_IRQ_SYNC_WORD_ERROR | SX1280_IRQ_CRC_ERROR | 
 448:smtc_ral/src/ral_sx1280.c ****             SX1280_IRQ_RX_DONE | SX1280_IRQ_SYNC_WORD_ERROR | SX1280_IRQ_CRC_ERROR | SX1280_IRQ_TIM
 449:smtc_ral/src/ral_sx1280.c ****             SX1280_IRQ_NONE, SX1280_IRQ_NONE );
 450:smtc_ral/src/ral_sx1280.c ****         if( status != RAL_STATUS_OK )
 451:smtc_ral/src/ral_sx1280.c ****         {
 452:smtc_ral/src/ral_sx1280.c ****             return status;
 453:smtc_ral/src/ral_sx1280.c ****         }
 454:smtc_ral/src/ral_sx1280.c ****     }
 455:smtc_ral/src/ral_sx1280.c ****     return status;
 456:smtc_ral/src/ral_sx1280.c **** }
 457:smtc_ral/src/ral_sx1280.c **** 
 458:smtc_ral/src/ral_sx1280.c **** ral_status_t ral_sx1280_setup_tx_flrc( const ral_t* ral, const ral_params_flrc_t* params )
 459:smtc_ral/src/ral_sx1280.c **** {
 460:smtc_ral/src/ral_sx1280.c ****     ral_status_t status = RAL_STATUS_ERROR;
 461:smtc_ral/src/ral_sx1280.c **** 
 462:smtc_ral/src/ral_sx1280.c ****     // Force unused parameter to a known value.
 463:smtc_ral/src/ral_sx1280.c ****     ral_params_flrc_t local_params = *params;
 464:smtc_ral/src/ral_sx1280.c ****     local_params.bw_ssb_in_hz      = 0;
 465:smtc_ral/src/ral_sx1280.c **** 
 466:smtc_ral/src/ral_sx1280.c ****     status = ral_sx1280_setup_flrc( ral, &local_params );
 467:smtc_ral/src/ral_sx1280.c ****     if( status == RAL_STATUS_OK )
 468:smtc_ral/src/ral_sx1280.c ****     {
 469:smtc_ral/src/ral_sx1280.c ****         status = ( ral_status_t ) sx1280_set_dio_irq_params( ral->context, SX1280_IRQ_TX_DONE, SX12
 470:smtc_ral/src/ral_sx1280.c ****                                                              SX1280_IRQ_NONE, SX1280_IRQ_NONE );
 471:smtc_ral/src/ral_sx1280.c ****     }
 472:smtc_ral/src/ral_sx1280.c ****     return status;
 473:smtc_ral/src/ral_sx1280.c **** }
 474:smtc_ral/src/ral_sx1280.c **** 
 475:smtc_ral/src/ral_sx1280.c **** ral_status_t ral_sx1280_setup_tx_lora_e( const ral_t* ral, const ral_params_lora_e_t* params )
 476:smtc_ral/src/ral_sx1280.c **** {
 477:smtc_ral/src/ral_sx1280.c ****     return RAL_STATUS_UNSUPPORTED_FEATURE;
 478:smtc_ral/src/ral_sx1280.c **** }
 479:smtc_ral/src/ral_sx1280.c **** 
 480:smtc_ral/src/ral_sx1280.c **** ral_status_t ral_sx1280_tx_bpsk( const ral_t* ral, const ral_params_bpsk_t* params )
 481:smtc_ral/src/ral_sx1280.c **** {
 482:smtc_ral/src/ral_sx1280.c ****     return RAL_STATUS_UNSUPPORTED_FEATURE;
 483:smtc_ral/src/ral_sx1280.c **** }
 484:smtc_ral/src/ral_sx1280.c **** 
 485:smtc_ral/src/ral_sx1280.c **** ral_status_t ral_sx1280_setup_cad( const ral_t* ral, const ral_lora_cad_params_t* params )
 486:smtc_ral/src/ral_sx1280.c **** {
 487:smtc_ral/src/ral_sx1280.c ****     ral_status_t             status = RAL_STATUS_ERROR;
 488:smtc_ral/src/ral_sx1280.c ****     sx1280_lora_cad_params_t sx1280_lora_cad_params;
 489:smtc_ral/src/ral_sx1280.c **** 
 490:smtc_ral/src/ral_sx1280.c ****     switch( params->cad_symb_nb )
ARM GAS  /var/folders/bq/yv49bw8j2kd6w3hsq868qv180000gn/T//ccyOvgmk.s 			page 10


 491:smtc_ral/src/ral_sx1280.c ****     {
 492:smtc_ral/src/ral_sx1280.c ****     case RAL_LORA_CAD_01_SYMB:
 493:smtc_ral/src/ral_sx1280.c ****         sx1280_lora_cad_params.cad_symb_nb = SX1280_LORA_CAD_01_SYMB;
 494:smtc_ral/src/ral_sx1280.c ****         break;
 495:smtc_ral/src/ral_sx1280.c ****     case RAL_LORA_CAD_02_SYMB:
 496:smtc_ral/src/ral_sx1280.c ****         sx1280_lora_cad_params.cad_symb_nb = SX1280_LORA_CAD_02_SYMB;
 497:smtc_ral/src/ral_sx1280.c ****         break;
 498:smtc_ral/src/ral_sx1280.c ****     case RAL_LORA_CAD_04_SYMB:
 499:smtc_ral/src/ral_sx1280.c ****         sx1280_lora_cad_params.cad_symb_nb = SX1280_LORA_CAD_04_SYMB;
 500:smtc_ral/src/ral_sx1280.c ****         break;
 501:smtc_ral/src/ral_sx1280.c ****     case RAL_LORA_CAD_08_SYMB:
 502:smtc_ral/src/ral_sx1280.c ****         sx1280_lora_cad_params.cad_symb_nb = SX1280_LORA_CAD_08_SYMB;
 503:smtc_ral/src/ral_sx1280.c ****         break;
 504:smtc_ral/src/ral_sx1280.c ****     case RAL_LORA_CAD_16_SYMB:
 505:smtc_ral/src/ral_sx1280.c ****         sx1280_lora_cad_params.cad_symb_nb = SX1280_LORA_CAD_16_SYMB;
 506:smtc_ral/src/ral_sx1280.c ****         break;
 507:smtc_ral/src/ral_sx1280.c ****     default:
 508:smtc_ral/src/ral_sx1280.c ****         return RAL_STATUS_UNKNOWN_VALUE;
 509:smtc_ral/src/ral_sx1280.c ****     }
 510:smtc_ral/src/ral_sx1280.c **** 
 511:smtc_ral/src/ral_sx1280.c ****     status = ( ral_status_t ) sx1280_set_cad_params( ral->context, &sx1280_lora_cad_params );
 512:smtc_ral/src/ral_sx1280.c **** 
 513:smtc_ral/src/ral_sx1280.c ****     if( status == RAL_STATUS_OK )
 514:smtc_ral/src/ral_sx1280.c ****     {
 515:smtc_ral/src/ral_sx1280.c ****         status = ( ral_status_t ) sx1280_set_dio_irq_params( ral->context, SX1280_IRQ_CAD_DONE | SX
 516:smtc_ral/src/ral_sx1280.c ****                                                              SX1280_IRQ_CAD_DONE | SX1280_IRQ_CAD_D
 517:smtc_ral/src/ral_sx1280.c ****                                                              SX1280_IRQ_NONE );
 518:smtc_ral/src/ral_sx1280.c ****     }
 519:smtc_ral/src/ral_sx1280.c **** 
 520:smtc_ral/src/ral_sx1280.c ****     return status;
 521:smtc_ral/src/ral_sx1280.c **** }
 522:smtc_ral/src/ral_sx1280.c **** 
 523:smtc_ral/src/ral_sx1280.c **** ral_status_t ral_sx1280_set_pkt_payload( const ral_t* ral, const uint8_t* buffer, const uint16_t si
 524:smtc_ral/src/ral_sx1280.c **** {
 525:smtc_ral/src/ral_sx1280.c ****     return ( ral_status_t ) sx1280_write_buffer( ral->context, 0x00, buffer, size );
 526:smtc_ral/src/ral_sx1280.c **** }
 527:smtc_ral/src/ral_sx1280.c **** 
 528:smtc_ral/src/ral_sx1280.c **** ral_status_t ral_sx1280_get_pkt_payload( const ral_t* ral, uint8_t* buffer, uint16_t max_size, uint
 529:smtc_ral/src/ral_sx1280.c **** {
 530:smtc_ral/src/ral_sx1280.c ****     ral_status_t              status        = RAL_STATUS_ERROR;
 531:smtc_ral/src/ral_sx1280.c ****     sx1280_rx_buffer_status_t sx_buf_status = { 0 };
 532:smtc_ral/src/ral_sx1280.c **** 
 533:smtc_ral/src/ral_sx1280.c ****     status = ( ral_status_t ) sx1280_get_rx_buffer_status( ral->context, &sx_buf_status );
 534:smtc_ral/src/ral_sx1280.c ****     if( status == RAL_STATUS_OK )
 535:smtc_ral/src/ral_sx1280.c ****     {
 536:smtc_ral/src/ral_sx1280.c ****         if( size != NULL )
 537:smtc_ral/src/ral_sx1280.c ****         {
 538:smtc_ral/src/ral_sx1280.c ****             sx1280_pkt_type_t           pkt_type     = SX1280_PKT_TYPE_GFSK;
 539:smtc_ral/src/ral_sx1280.c ****             sx1280_lora_pkt_len_modes_t pkt_len_mode = SX1280_LORA_RANGE_PKT_EXPLICIT;
 540:smtc_ral/src/ral_sx1280.c **** 
 541:smtc_ral/src/ral_sx1280.c ****             status = ( ral_status_t ) sx1280_get_pkt_type( ral->context, &pkt_type );
 542:smtc_ral/src/ral_sx1280.c **** 
 543:smtc_ral/src/ral_sx1280.c ****             if( ( status == RAL_STATUS_OK ) && ( pkt_type == SX1280_PKT_TYPE_LORA ) )
 544:smtc_ral/src/ral_sx1280.c ****             {
 545:smtc_ral/src/ral_sx1280.c ****                 status = ( ral_status_t ) sx1280_get_lora_pkt_len_mode( ral->context, &pkt_len_mode
 546:smtc_ral/src/ral_sx1280.c ****             }
 547:smtc_ral/src/ral_sx1280.c **** 
ARM GAS  /var/folders/bq/yv49bw8j2kd6w3hsq868qv180000gn/T//ccyOvgmk.s 			page 11


 548:smtc_ral/src/ral_sx1280.c ****             if( status == RAL_STATUS_OK )
 549:smtc_ral/src/ral_sx1280.c ****             {
 550:smtc_ral/src/ral_sx1280.c ****                 if( ( pkt_type == SX1280_PKT_TYPE_LORA ) && ( pkt_len_mode == SX1280_LORA_RANGE_PKT
 551:smtc_ral/src/ral_sx1280.c ****                 {
 552:smtc_ral/src/ral_sx1280.c ****                     uint8_t pkt_len = 0;
 553:smtc_ral/src/ral_sx1280.c **** 
 554:smtc_ral/src/ral_sx1280.c ****                     status = ( ral_status_t ) sx1280_get_lora_pkt_len( ral->context, &pkt_len );
 555:smtc_ral/src/ral_sx1280.c ****                     *size  = ( uint16_t ) pkt_len;
 556:smtc_ral/src/ral_sx1280.c ****                 }
 557:smtc_ral/src/ral_sx1280.c ****                 else
 558:smtc_ral/src/ral_sx1280.c ****                 {
 559:smtc_ral/src/ral_sx1280.c ****                     *size = sx_buf_status.pld_len_in_bytes;
 560:smtc_ral/src/ral_sx1280.c ****                 }
 561:smtc_ral/src/ral_sx1280.c **** 
 562:smtc_ral/src/ral_sx1280.c ****                 if( status == RAL_STATUS_OK )
 563:smtc_ral/src/ral_sx1280.c ****                 {
 564:smtc_ral/src/ral_sx1280.c ****                     if( *size <= max_size )
 565:smtc_ral/src/ral_sx1280.c ****                     {
 566:smtc_ral/src/ral_sx1280.c ****                         status = ( ral_status_t ) sx1280_read_buffer( ral->context, sx_buf_status.b
 567:smtc_ral/src/ral_sx1280.c ****                                                                       buffer, *size );
 568:smtc_ral/src/ral_sx1280.c ****                     }
 569:smtc_ral/src/ral_sx1280.c ****                     else
 570:smtc_ral/src/ral_sx1280.c ****                     {
 571:smtc_ral/src/ral_sx1280.c ****                         status = RAL_STATUS_ERROR;
 572:smtc_ral/src/ral_sx1280.c ****                     }
 573:smtc_ral/src/ral_sx1280.c ****                 }
 574:smtc_ral/src/ral_sx1280.c ****             }
 575:smtc_ral/src/ral_sx1280.c ****         }
 576:smtc_ral/src/ral_sx1280.c ****     }
 577:smtc_ral/src/ral_sx1280.c ****     return status;
 578:smtc_ral/src/ral_sx1280.c **** }
 579:smtc_ral/src/ral_sx1280.c **** 
 580:smtc_ral/src/ral_sx1280.c **** ral_status_t ral_sx1280_get_gfsk_pkt_status( const ral_t* ral, ral_rx_pkt_status_gfsk_t* pkt_status
 581:smtc_ral/src/ral_sx1280.c **** {
 582:smtc_ral/src/ral_sx1280.c ****     ral_status_t             status        = RAL_STATUS_ERROR;
 583:smtc_ral/src/ral_sx1280.c ****     sx1280_pkt_status_gfsk_t sx_pkt_status = { 0 };
 584:smtc_ral/src/ral_sx1280.c **** 
 585:smtc_ral/src/ral_sx1280.c ****     status = ( ral_status_t ) sx1280_get_gfsk_pkt_status( ral->context, &sx_pkt_status );
 586:smtc_ral/src/ral_sx1280.c **** 
 587:smtc_ral/src/ral_sx1280.c ****     if( status == RAL_STATUS_OK )
 588:smtc_ral/src/ral_sx1280.c ****     {
 589:smtc_ral/src/ral_sx1280.c ****         pkt_status->rssi_avg_in_dbm = sx_pkt_status.rssi;
 590:smtc_ral/src/ral_sx1280.c ****     }
 591:smtc_ral/src/ral_sx1280.c **** 
 592:smtc_ral/src/ral_sx1280.c ****     return status;
 593:smtc_ral/src/ral_sx1280.c **** }
 594:smtc_ral/src/ral_sx1280.c **** 
 595:smtc_ral/src/ral_sx1280.c **** ral_status_t ral_sx1280_get_lora_pkt_status( const ral_t* ral, ral_rx_pkt_status_lora_t* pkt_status
 596:smtc_ral/src/ral_sx1280.c **** {
 597:smtc_ral/src/ral_sx1280.c ****     ral_status_t             status        = RAL_STATUS_ERROR;
 598:smtc_ral/src/ral_sx1280.c ****     sx1280_pkt_status_lora_t sx_pkt_status = { 0 };
 599:smtc_ral/src/ral_sx1280.c **** 
 600:smtc_ral/src/ral_sx1280.c ****     status = ( ral_status_t ) sx1280_get_lora_pkt_status( ral->context, &sx_pkt_status );
 601:smtc_ral/src/ral_sx1280.c **** 
 602:smtc_ral/src/ral_sx1280.c ****     if( status == RAL_STATUS_OK )
 603:smtc_ral/src/ral_sx1280.c ****     {
 604:smtc_ral/src/ral_sx1280.c ****         pkt_status->rssi_pkt_in_dbm       = sx_pkt_status.rssi;
ARM GAS  /var/folders/bq/yv49bw8j2kd6w3hsq868qv180000gn/T//ccyOvgmk.s 			page 12


 605:smtc_ral/src/ral_sx1280.c ****         pkt_status->snr_pkt_in_db         = sx_pkt_status.snr;
 606:smtc_ral/src/ral_sx1280.c ****         pkt_status->signal_rssi_pkt_in_db = sx_pkt_status.rssi;
 607:smtc_ral/src/ral_sx1280.c ****     }
 608:smtc_ral/src/ral_sx1280.c ****     return status;
 609:smtc_ral/src/ral_sx1280.c **** }
 610:smtc_ral/src/ral_sx1280.c **** 
 611:smtc_ral/src/ral_sx1280.c **** ral_status_t ral_sx1280_get_lora_incoming_pkt_config( const ral_t* ral, ral_lora_cr_t* rx_cr, bool*
 612:smtc_ral/src/ral_sx1280.c **** {
 613:smtc_ral/src/ral_sx1280.c ****     ral_status_t           status = RAL_STATUS_ERROR;
 614:smtc_ral/src/ral_sx1280.c ****     sx1280_lora_range_cr_t sx1280_lora_cr;
 615:smtc_ral/src/ral_sx1280.c **** 
 616:smtc_ral/src/ral_sx1280.c ****     status = ( ral_status_t ) sx1280_get_lora_rx_packet_cr( ral->context, &sx1280_lora_cr );
 617:smtc_ral/src/ral_sx1280.c **** 
 618:smtc_ral/src/ral_sx1280.c ****     if( status == RAL_STATUS_OK )
 619:smtc_ral/src/ral_sx1280.c ****     {
 620:smtc_ral/src/ral_sx1280.c ****         switch( sx1280_lora_cr )
 621:smtc_ral/src/ral_sx1280.c ****         {
 622:smtc_ral/src/ral_sx1280.c ****         case SX1280_LORA_RANGE_CR_4_5:
 623:smtc_ral/src/ral_sx1280.c ****             *rx_cr = RAL_LORA_CR_4_5;
 624:smtc_ral/src/ral_sx1280.c ****             break;
 625:smtc_ral/src/ral_sx1280.c ****         case SX1280_LORA_RANGE_CR_4_6:
 626:smtc_ral/src/ral_sx1280.c ****             *rx_cr = RAL_LORA_CR_4_6;
 627:smtc_ral/src/ral_sx1280.c ****             break;
 628:smtc_ral/src/ral_sx1280.c ****         case SX1280_LORA_RANGE_CR_4_7:
 629:smtc_ral/src/ral_sx1280.c ****             *rx_cr = RAL_LORA_CR_4_7;
 630:smtc_ral/src/ral_sx1280.c ****             break;
 631:smtc_ral/src/ral_sx1280.c ****         case SX1280_LORA_RANGE_CR_4_8:
 632:smtc_ral/src/ral_sx1280.c ****             *rx_cr = RAL_LORA_CR_4_8;
 633:smtc_ral/src/ral_sx1280.c ****             break;
 634:smtc_ral/src/ral_sx1280.c ****         case SX1280_LORA_RANGE_CR_LI_4_5:
 635:smtc_ral/src/ral_sx1280.c ****             *rx_cr = RAL_LORA_CR_LI_4_5;
 636:smtc_ral/src/ral_sx1280.c ****             break;
 637:smtc_ral/src/ral_sx1280.c ****         case SX1280_LORA_RANGE_CR_LI_4_6:
 638:smtc_ral/src/ral_sx1280.c ****             *rx_cr = RAL_LORA_CR_LI_4_6;
 639:smtc_ral/src/ral_sx1280.c ****             break;
 640:smtc_ral/src/ral_sx1280.c ****         case SX1280_LORA_RANGE_CR_LI_4_8:
 641:smtc_ral/src/ral_sx1280.c ****             *rx_cr = RAL_LORA_CR_LI_4_8;
 642:smtc_ral/src/ral_sx1280.c ****             break;
 643:smtc_ral/src/ral_sx1280.c ****         default:
 644:smtc_ral/src/ral_sx1280.c ****             return RAL_STATUS_UNKNOWN_VALUE;
 645:smtc_ral/src/ral_sx1280.c ****         }
 646:smtc_ral/src/ral_sx1280.c **** 
 647:smtc_ral/src/ral_sx1280.c ****         status = ( ral_status_t ) sx1280_get_lora_rx_packet_crc_config( ral->context, rx_is_crc_en 
 648:smtc_ral/src/ral_sx1280.c ****     }
 649:smtc_ral/src/ral_sx1280.c **** 
 650:smtc_ral/src/ral_sx1280.c ****     return status;
 651:smtc_ral/src/ral_sx1280.c **** }
 652:smtc_ral/src/ral_sx1280.c **** 
 653:smtc_ral/src/ral_sx1280.c **** ral_status_t ral_sx1280_get_flrc_pkt_status( const ral_t* ral, ral_rx_pkt_status_flrc_t* pkt_status
 654:smtc_ral/src/ral_sx1280.c **** {
 655:smtc_ral/src/ral_sx1280.c ****     ral_status_t             status        = RAL_STATUS_ERROR;
 656:smtc_ral/src/ral_sx1280.c ****     sx1280_pkt_status_flrc_t sx_pkt_status = { 0 };
 657:smtc_ral/src/ral_sx1280.c **** 
 658:smtc_ral/src/ral_sx1280.c ****     status = ( ral_status_t ) sx1280_get_flrc_pkt_status( ral->context, &sx_pkt_status );
 659:smtc_ral/src/ral_sx1280.c **** 
 660:smtc_ral/src/ral_sx1280.c ****     if( status == RAL_STATUS_OK )
 661:smtc_ral/src/ral_sx1280.c ****     {
ARM GAS  /var/folders/bq/yv49bw8j2kd6w3hsq868qv180000gn/T//ccyOvgmk.s 			page 13


 662:smtc_ral/src/ral_sx1280.c ****         pkt_status->rssi_in_dbm = sx_pkt_status.rssi;
 663:smtc_ral/src/ral_sx1280.c ****     }
 664:smtc_ral/src/ral_sx1280.c ****     return status;
 665:smtc_ral/src/ral_sx1280.c **** }
 666:smtc_ral/src/ral_sx1280.c **** 
 667:smtc_ral/src/ral_sx1280.c **** ral_status_t ral_sx1280_set_sleep( const ral_t* ral )
 668:smtc_ral/src/ral_sx1280.c **** {
 669:smtc_ral/src/ral_sx1280.c ****     return ( ral_status_t ) sx1280_set_sleep(
 670:smtc_ral/src/ral_sx1280.c ****         ral->context, SX1280_SLEEP_CFG_DATA_RETENTION | SX1280_SLEEP_CFG_DATA_BUFFER_RETENTION );
 671:smtc_ral/src/ral_sx1280.c **** }
 672:smtc_ral/src/ral_sx1280.c **** 
 673:smtc_ral/src/ral_sx1280.c **** ral_status_t ral_sx1280_set_standby( const ral_t* ral )
 674:smtc_ral/src/ral_sx1280.c **** {
 675:smtc_ral/src/ral_sx1280.c ****     return ( ral_status_t ) sx1280_set_standby( ral->context, SX1280_STANDBY_CFG_RC );
 676:smtc_ral/src/ral_sx1280.c **** }
 677:smtc_ral/src/ral_sx1280.c **** 
 678:smtc_ral/src/ral_sx1280.c **** ral_status_t ral_sx1280_set_tx( const ral_t* ral )
 679:smtc_ral/src/ral_sx1280.c **** {
 680:smtc_ral/src/ral_sx1280.c ****     // Set no timeout.
 681:smtc_ral/src/ral_sx1280.c ****     return ( ral_status_t ) sx1280_set_tx( ral->context, SX1280_TICK_SIZE_1000_US, 0 );
 682:smtc_ral/src/ral_sx1280.c **** }
 683:smtc_ral/src/ral_sx1280.c **** 
 684:smtc_ral/src/ral_sx1280.c **** ral_status_t ral_sx1280_set_tx_cw( const ral_t* ral )
 685:smtc_ral/src/ral_sx1280.c **** {
 686:smtc_ral/src/ral_sx1280.c ****     return ( ral_status_t ) sx1280_set_tx_cw( ral->context );
 687:smtc_ral/src/ral_sx1280.c **** }
 688:smtc_ral/src/ral_sx1280.c **** 
 689:smtc_ral/src/ral_sx1280.c **** // WORKAROUND #1 - LoRa modem not handling rx_single nb_symb_timeout
 690:smtc_ral/src/ral_sx1280.c **** //                 (helper functions)
 691:smtc_ral/src/ral_sx1280.c **** 
 692:smtc_ral/src/ral_sx1280.c **** /*!
 693:smtc_ral/src/ral_sx1280.c ****  * Get LoRa header time in ms for given spreading factor and bandwidth
 694:smtc_ral/src/ral_sx1280.c ****  *
 695:smtc_ral/src/ral_sx1280.c ****  * \param [in] sf_reg LoRa spreading factor register bits value [7:4]
 696:smtc_ral/src/ral_sx1280.c ****  * \param [in] bw_reg LoRa bandwidth register bits value [3:1]
 697:smtc_ral/src/ral_sx1280.c ****  *
 698:smtc_ral/src/ral_sx1280.c ****  * \retval ral_bw RAL LoRa bandwidth value
 699:smtc_ral/src/ral_sx1280.c ****  */
 700:smtc_ral/src/ral_sx1280.c **** static uint16_t sx1280_get_lora_hdr_time_in_ms( uint8_t sf_reg, uint8_t bw_reg )
 701:smtc_ral/src/ral_sx1280.c **** {
 702:smtc_ral/src/ral_sx1280.c ****     // Header times in ms pre-computed table
 703:smtc_ral/src/ral_sx1280.c ****     // hdr_nb_symb = 16.25
 704:smtc_ral/src/ral_sx1280.c ****     // ts_in_ms = ( 1 << sf ) / bw_in_khz
 705:smtc_ral/src/ral_sx1280.c ****     // hdr_time_in_ms = ceil( hdr_nb_symb * ts_in_ms );
 706:smtc_ral/src/ral_sx1280.c ****     //
 707:smtc_ral/src/ral_sx1280.c ****     const uint16_t hdr_times_in_ms[8][4] = {
 708:smtc_ral/src/ral_sx1280.c ****         // clang-format off
 709:smtc_ral/src/ral_sx1280.c ****         {   3,   2,   1,   1 }, // SF5  : 200 kHz, 400 kHz, 800 kHz, 1600 kHz
 710:smtc_ral/src/ral_sx1280.c ****         {   6,   3,   2,   1 }, // SF6  : 200 kHz, 400 kHz, 800 kHz, 1600 kHz
 711:smtc_ral/src/ral_sx1280.c ****         {  11,   6,   3,   2 }, // SF7  : 200 kHz, 400 kHz, 800 kHz, 1600 kHz
 712:smtc_ral/src/ral_sx1280.c ****         {  21,  11,   6,   3 }, // SF8  : 200 kHz, 400 kHz, 800 kHz, 1600 kHz
 713:smtc_ral/src/ral_sx1280.c ****         {  42,  21,  11,   6 }, // SF9  : 200 kHz, 400 kHz, 800 kHz, 1600 kHz
 714:smtc_ral/src/ral_sx1280.c ****         {  84,  42,  21,  11 }, // SF10 : 200 kHz, 400 kHz, 800 kHz, 1600 kHz
 715:smtc_ral/src/ral_sx1280.c ****         { 167,  84,  42,  21 }, // SF11 : 200 kHz, 400 kHz, 800 kHz, 1600 kHz
 716:smtc_ral/src/ral_sx1280.c ****         { 333, 167,  84,  42 }, // SF12 : 200 kHz, 400 kHz, 800 kHz, 1600 kHz
 717:smtc_ral/src/ral_sx1280.c ****         // clang-format on
 718:smtc_ral/src/ral_sx1280.c ****     };
ARM GAS  /var/folders/bq/yv49bw8j2kd6w3hsq868qv180000gn/T//ccyOvgmk.s 			page 14


 719:smtc_ral/src/ral_sx1280.c ****     uint8_t bw_index = 0;
 720:smtc_ral/src/ral_sx1280.c ****     switch( bw_reg )
 721:smtc_ral/src/ral_sx1280.c ****     {
 722:smtc_ral/src/ral_sx1280.c ****     case( SX1280_LORA_RANGE_BW_200 & 0x0E ):
 723:smtc_ral/src/ral_sx1280.c ****         bw_index = 0;
 724:smtc_ral/src/ral_sx1280.c ****         break;
 725:smtc_ral/src/ral_sx1280.c ****     case( SX1280_LORA_RANGE_BW_400 & 0x0E ):
 726:smtc_ral/src/ral_sx1280.c ****         bw_index = 1;
 727:smtc_ral/src/ral_sx1280.c ****         break;
 728:smtc_ral/src/ral_sx1280.c ****     case( SX1280_LORA_RANGE_BW_800 & 0x0E ):
 729:smtc_ral/src/ral_sx1280.c ****         bw_index = 2;
 730:smtc_ral/src/ral_sx1280.c ****         break;
 731:smtc_ral/src/ral_sx1280.c ****     default:
 732:smtc_ral/src/ral_sx1280.c ****         // Intentional fall through
 733:smtc_ral/src/ral_sx1280.c ****     case( SX1280_LORA_RANGE_BW_1600 & 0x0E ):
 734:smtc_ral/src/ral_sx1280.c ****         bw_index = 3;
 735:smtc_ral/src/ral_sx1280.c ****         break;
 736:smtc_ral/src/ral_sx1280.c ****     }
 737:smtc_ral/src/ral_sx1280.c **** 
 738:smtc_ral/src/ral_sx1280.c ****     return hdr_times_in_ms[( sf_reg >> 4 ) - 5][bw_index];
 739:smtc_ral/src/ral_sx1280.c **** }
 740:smtc_ral/src/ral_sx1280.c **** 
 741:smtc_ral/src/ral_sx1280.c **** // WORKAROUND #1 - END (helper functions)
 742:smtc_ral/src/ral_sx1280.c **** 
 743:smtc_ral/src/ral_sx1280.c **** ral_status_t ral_sx1280_set_rx( const ral_t* ral, const uint32_t timeout_ms )
 744:smtc_ral/src/ral_sx1280.c **** {
 745:smtc_ral/src/ral_sx1280.c ****     // WORKAROUND #1 - LoRa modem not handling rx_single nb_symb_timeout
 746:smtc_ral/src/ral_sx1280.c ****     uint32_t          local_timeout_ms = 0;
 747:smtc_ral/src/ral_sx1280.c ****     sx1280_pkt_type_t pkt_type         = SX1280_PKT_TYPE_GFSK;
 748:smtc_ral/src/ral_sx1280.c **** 
 749:smtc_ral/src/ral_sx1280.c ****     sx1280_get_pkt_type( ral->context, &pkt_type );
 750:smtc_ral/src/ral_sx1280.c ****     switch( pkt_type )
 751:smtc_ral/src/ral_sx1280.c ****     {
 752:smtc_ral/src/ral_sx1280.c ****     case SX1280_PKT_TYPE_LORA:
 753:smtc_ral/src/ral_sx1280.c ****         // Intentional fall through
 754:smtc_ral/src/ral_sx1280.c ****     case SX1280_PKT_TYPE_RANGING:
 755:smtc_ral/src/ral_sx1280.c ****     {
 756:smtc_ral/src/ral_sx1280.c ****         uint8_t reg = 0;
 757:smtc_ral/src/ral_sx1280.c **** 
 758:smtc_ral/src/ral_sx1280.c ****         // Address 0x902: sf[7:4] - bw[3:1]
 759:smtc_ral/src/ral_sx1280.c ****         sx1280_read_register( ral->context, 0x902, &reg, 1 );
 760:smtc_ral/src/ral_sx1280.c **** 
 761:smtc_ral/src/ral_sx1280.c ****         local_timeout_ms = timeout_ms + sx1280_get_lora_hdr_time_in_ms( ( reg & 0xF0 ), ( reg & 0x0
 762:smtc_ral/src/ral_sx1280.c ****         break;
 763:smtc_ral/src/ral_sx1280.c ****     }
 764:smtc_ral/src/ral_sx1280.c ****     case SX1280_PKT_TYPE_GFSK:
 765:smtc_ral/src/ral_sx1280.c ****         // Intentional fall through
 766:smtc_ral/src/ral_sx1280.c ****     case SX1280_PKT_TYPE_FLRC:
 767:smtc_ral/src/ral_sx1280.c ****         // Intentional fall through
 768:smtc_ral/src/ral_sx1280.c ****     case SX1280_PKT_TYPE_BLE:
 769:smtc_ral/src/ral_sx1280.c ****         local_timeout_ms = timeout_ms;
 770:smtc_ral/src/ral_sx1280.c ****         break;
 771:smtc_ral/src/ral_sx1280.c ****     default:
 772:smtc_ral/src/ral_sx1280.c ****         return RAL_STATUS_UNKNOWN_VALUE;
 773:smtc_ral/src/ral_sx1280.c ****     }
 774:smtc_ral/src/ral_sx1280.c ****     // WORKAROUND #1 - END
 775:smtc_ral/src/ral_sx1280.c **** 
ARM GAS  /var/folders/bq/yv49bw8j2kd6w3hsq868qv180000gn/T//ccyOvgmk.s 			page 15


 776:smtc_ral/src/ral_sx1280.c ****     if( timeout_ms == 0xFFFFFFFF )
 777:smtc_ral/src/ral_sx1280.c ****     {  // Continuous mode
 778:smtc_ral/src/ral_sx1280.c ****         return ( ral_status_t ) sx1280_set_rx( ral->context, SX1280_TICK_SIZE_1000_US, 0xFFFF );
 779:smtc_ral/src/ral_sx1280.c ****     }
 780:smtc_ral/src/ral_sx1280.c ****     else
 781:smtc_ral/src/ral_sx1280.c ****     {
 782:smtc_ral/src/ral_sx1280.c ****         if( local_timeout_ms <= UINT16_MAX )
 783:smtc_ral/src/ral_sx1280.c ****         {
 784:smtc_ral/src/ral_sx1280.c ****             return ( ral_status_t ) sx1280_set_rx( ral->context, SX1280_TICK_SIZE_1000_US, local_ti
 785:smtc_ral/src/ral_sx1280.c ****         }
 786:smtc_ral/src/ral_sx1280.c ****         else
 787:smtc_ral/src/ral_sx1280.c ****         {
 788:smtc_ral/src/ral_sx1280.c ****             return ( ral_status_t ) sx1280_set_rx( ral->context, SX1280_TICK_SIZE_4000_US, local_ti
 789:smtc_ral/src/ral_sx1280.c ****         }
 790:smtc_ral/src/ral_sx1280.c ****     }
 791:smtc_ral/src/ral_sx1280.c **** }
 792:smtc_ral/src/ral_sx1280.c **** 
 793:smtc_ral/src/ral_sx1280.c **** ral_status_t ral_sx1280_set_cad( const ral_t* ral )
 794:smtc_ral/src/ral_sx1280.c **** {
 795:smtc_ral/src/ral_sx1280.c ****     return ( ral_status_t ) sx1280_set_cad( ral->context );
 796:smtc_ral/src/ral_sx1280.c **** }
 797:smtc_ral/src/ral_sx1280.c **** 
 798:smtc_ral/src/ral_sx1280.c **** ral_status_t ral_sx1280_get_irq_status( const ral_t* ral, ral_irq_t* ral_irq )
 799:smtc_ral/src/ral_sx1280.c **** {
 800:smtc_ral/src/ral_sx1280.c ****     ral_status_t      status          = RAL_STATUS_ERROR;
 801:smtc_ral/src/ral_sx1280.c ****     sx1280_irq_mask_t sx1280_irq_mask = SX1280_IRQ_NONE;
 802:smtc_ral/src/ral_sx1280.c **** 
 803:smtc_ral/src/ral_sx1280.c ****     status = ( ral_status_t ) sx1280_get_irq_status( ral->context, &sx1280_irq_mask );
 804:smtc_ral/src/ral_sx1280.c ****     if( status == RAL_STATUS_OK )
 805:smtc_ral/src/ral_sx1280.c ****     {
 806:smtc_ral/src/ral_sx1280.c ****         *ral_irq = ral_sx1280_convert_irq_flags_to_radio( sx1280_irq_mask );
 807:smtc_ral/src/ral_sx1280.c ****     }
 808:smtc_ral/src/ral_sx1280.c ****     return status;
 809:smtc_ral/src/ral_sx1280.c **** }
 810:smtc_ral/src/ral_sx1280.c **** 
 811:smtc_ral/src/ral_sx1280.c **** ral_status_t ral_sx1280_clear_irq_status( const ral_t* ral, const ral_irq_t ral_irq )
 812:smtc_ral/src/ral_sx1280.c **** {
 813:smtc_ral/src/ral_sx1280.c ****     sx1280_irq_mask_t sx1280_irq_mask = ral_sx1280_convert_irq_flags_from_radio( ral_irq );
 814:smtc_ral/src/ral_sx1280.c **** 
 815:smtc_ral/src/ral_sx1280.c ****     if( sx1280_irq_mask != 0 )
 816:smtc_ral/src/ral_sx1280.c ****     {
 817:smtc_ral/src/ral_sx1280.c ****         return ( ral_status_t ) sx1280_clear_irq_status( ral->context, sx1280_irq_mask );
 818:smtc_ral/src/ral_sx1280.c ****     }
 819:smtc_ral/src/ral_sx1280.c ****     else
 820:smtc_ral/src/ral_sx1280.c ****     {
 821:smtc_ral/src/ral_sx1280.c ****         return RAL_STATUS_OK;
 822:smtc_ral/src/ral_sx1280.c ****     }
 823:smtc_ral/src/ral_sx1280.c **** }
 824:smtc_ral/src/ral_sx1280.c **** 
 825:smtc_ral/src/ral_sx1280.c **** ral_status_t ral_sx1280_get_and_clear_irq_status( const ral_t* ral, ral_irq_t* ral_irq )
 826:smtc_ral/src/ral_sx1280.c **** {
 827:smtc_ral/src/ral_sx1280.c ****     ral_irq_t         ral_irq_mask;
 828:smtc_ral/src/ral_sx1280.c ****     ral_status_t      status          = RAL_STATUS_ERROR;
 829:smtc_ral/src/ral_sx1280.c ****     sx1280_irq_mask_t sx1280_irq_mask = SX1280_IRQ_NONE;
 830:smtc_ral/src/ral_sx1280.c **** 
 831:smtc_ral/src/ral_sx1280.c ****     status = ( ral_status_t ) sx1280_get_and_clear_irq_status( ral->context, &sx1280_irq_mask );
 832:smtc_ral/src/ral_sx1280.c **** 
ARM GAS  /var/folders/bq/yv49bw8j2kd6w3hsq868qv180000gn/T//ccyOvgmk.s 			page 16


 833:smtc_ral/src/ral_sx1280.c ****     if( status == RAL_STATUS_OK )
 834:smtc_ral/src/ral_sx1280.c ****     {
 835:smtc_ral/src/ral_sx1280.c ****         ral_irq_mask = ral_sx1280_convert_irq_flags_to_radio( sx1280_irq_mask );
 836:smtc_ral/src/ral_sx1280.c ****         if( ral_irq != NULL )
 837:smtc_ral/src/ral_sx1280.c ****         {
 838:smtc_ral/src/ral_sx1280.c ****             *ral_irq = ral_irq_mask;
 839:smtc_ral/src/ral_sx1280.c ****         }
 840:smtc_ral/src/ral_sx1280.c ****     }
 841:smtc_ral/src/ral_sx1280.c ****     return status;
 842:smtc_ral/src/ral_sx1280.c **** }
 843:smtc_ral/src/ral_sx1280.c **** 
 844:smtc_ral/src/ral_sx1280.c **** ral_status_t ral_sx1280_set_dio_irq_params( const ral_t* ral, const ral_irq_t ral_irq )
 845:smtc_ral/src/ral_sx1280.c **** {
 846:smtc_ral/src/ral_sx1280.c ****     uint16_t sx1280_irq = ral_sx1280_convert_irq_flags_from_radio( ral_irq );
 847:smtc_ral/src/ral_sx1280.c **** 
 848:smtc_ral/src/ral_sx1280.c ****     return ( ral_status_t ) sx1280_set_dio_irq_params( ral->context, sx1280_irq, sx1280_irq, SX1280
 849:smtc_ral/src/ral_sx1280.c ****                                                        SX1280_IRQ_NONE );
 850:smtc_ral/src/ral_sx1280.c **** }
 851:smtc_ral/src/ral_sx1280.c **** 
 852:smtc_ral/src/ral_sx1280.c **** ral_status_t ral_sx1280_process_irq( const ral_t* ral, ral_irq_t* ral_irq )
 853:smtc_ral/src/ral_sx1280.c **** {
 854:smtc_ral/src/ral_sx1280.c ****     ral_status_t      status          = RAL_STATUS_ERROR;
 855:smtc_ral/src/ral_sx1280.c ****     sx1280_irq_mask_t sx1280_irq_mask = SX1280_IRQ_NONE;
 856:smtc_ral/src/ral_sx1280.c **** 
 857:smtc_ral/src/ral_sx1280.c ****     status = ( ral_status_t ) sx1280_process_irq( ral->context, &sx1280_irq_mask );
 858:smtc_ral/src/ral_sx1280.c ****     if( status == RAL_STATUS_OK )
 859:smtc_ral/src/ral_sx1280.c ****     {
 860:smtc_ral/src/ral_sx1280.c ****         *ral_irq = ral_sx1280_convert_irq_flags_to_radio( sx1280_irq_mask );
 861:smtc_ral/src/ral_sx1280.c ****     }
 862:smtc_ral/src/ral_sx1280.c ****     return status;
 863:smtc_ral/src/ral_sx1280.c **** }
 864:smtc_ral/src/ral_sx1280.c **** 
 865:smtc_ral/src/ral_sx1280.c **** ral_status_t ral_sx1280_get_rssi( const ral_t* ral, int16_t* rssi )
 866:smtc_ral/src/ral_sx1280.c **** {
 867:smtc_ral/src/ral_sx1280.c ****     return ( ral_status_t ) sx1280_get_rssi_inst( ral->context, rssi );
 868:smtc_ral/src/ral_sx1280.c **** }
 869:smtc_ral/src/ral_sx1280.c **** 
 870:smtc_ral/src/ral_sx1280.c **** ral_status_t ral_sx1280_get_lora_time_on_air_in_ms( const ral_params_lora_t* params, uint32_t* toa 
 871:smtc_ral/src/ral_sx1280.c **** {
 872:smtc_ral/src/ral_sx1280.c ****     ral_status_t             status     = RAL_STATUS_ERROR;
 873:smtc_ral/src/ral_sx1280.c ****     sx1280_mod_params_lora_t mod_params = { 0 };
 874:smtc_ral/src/ral_sx1280.c ****     sx1280_pkt_params_lora_t pkt_params = { 0 };
 875:smtc_ral/src/ral_sx1280.c **** 
 876:smtc_ral/src/ral_sx1280.c ****     status = ral_sx1280_convert_lora_params_from_radio( params, &mod_params, &pkt_params );
 877:smtc_ral/src/ral_sx1280.c ****     if( status != RAL_STATUS_OK )
 878:smtc_ral/src/ral_sx1280.c ****     {
 879:smtc_ral/src/ral_sx1280.c ****         return status;
 880:smtc_ral/src/ral_sx1280.c ****     }
 881:smtc_ral/src/ral_sx1280.c **** 
 882:smtc_ral/src/ral_sx1280.c ****     *toa = sx1280_get_lora_time_on_air_in_ms( &pkt_params, &mod_params );
 883:smtc_ral/src/ral_sx1280.c **** 
 884:smtc_ral/src/ral_sx1280.c ****     return status;
 885:smtc_ral/src/ral_sx1280.c **** }
 886:smtc_ral/src/ral_sx1280.c **** 
 887:smtc_ral/src/ral_sx1280.c **** ral_status_t ral_sx1280_get_gfsk_time_on_air_in_ms( const ral_params_gfsk_t* params, uint32_t* toa 
 888:smtc_ral/src/ral_sx1280.c **** {
 889:smtc_ral/src/ral_sx1280.c ****     ral_status_t             status     = RAL_STATUS_ERROR;
ARM GAS  /var/folders/bq/yv49bw8j2kd6w3hsq868qv180000gn/T//ccyOvgmk.s 			page 17


 890:smtc_ral/src/ral_sx1280.c ****     sx1280_mod_params_gfsk_t mod_params = { 0 };
 891:smtc_ral/src/ral_sx1280.c ****     sx1280_pkt_params_gfsk_t pkt_params = { 0 };
 892:smtc_ral/src/ral_sx1280.c **** 
 893:smtc_ral/src/ral_sx1280.c ****     status = ral_sx1280_convert_gfsk_params_from_radio( params, &mod_params, &pkt_params );
 894:smtc_ral/src/ral_sx1280.c ****     if( status != RAL_STATUS_OK )
 895:smtc_ral/src/ral_sx1280.c ****     {
 896:smtc_ral/src/ral_sx1280.c ****         return status;
 897:smtc_ral/src/ral_sx1280.c ****     }
 898:smtc_ral/src/ral_sx1280.c **** 
 899:smtc_ral/src/ral_sx1280.c ****     *toa = sx1280_get_gfsk_time_on_air_in_ms( &pkt_params, &mod_params );
 900:smtc_ral/src/ral_sx1280.c **** 
 901:smtc_ral/src/ral_sx1280.c ****     return RAL_STATUS_OK;
 902:smtc_ral/src/ral_sx1280.c **** }
 903:smtc_ral/src/ral_sx1280.c **** 
 904:smtc_ral/src/ral_sx1280.c **** ral_status_t ral_sx1280_get_flrc_time_on_air_in_ms( const ral_params_flrc_t* params, uint32_t* toa 
 905:smtc_ral/src/ral_sx1280.c **** {
 906:smtc_ral/src/ral_sx1280.c ****     ral_status_t             status     = RAL_STATUS_ERROR;
 907:smtc_ral/src/ral_sx1280.c ****     sx1280_mod_params_flrc_t mod_params = { 0 };
 908:smtc_ral/src/ral_sx1280.c ****     sx1280_pkt_params_flrc_t pkt_params = { 0 };
 909:smtc_ral/src/ral_sx1280.c **** 
 910:smtc_ral/src/ral_sx1280.c ****     status = ral_sx1280_convert_flrc_params_from_radio( params, &mod_params, &pkt_params );
 911:smtc_ral/src/ral_sx1280.c ****     if( status != RAL_STATUS_OK )
 912:smtc_ral/src/ral_sx1280.c ****     {
 913:smtc_ral/src/ral_sx1280.c ****         return status;
 914:smtc_ral/src/ral_sx1280.c ****     }
 915:smtc_ral/src/ral_sx1280.c **** 
 916:smtc_ral/src/ral_sx1280.c ****     *toa = sx1280_get_flrc_time_on_air_in_ms( &pkt_params, &mod_params );
 917:smtc_ral/src/ral_sx1280.c **** 
 918:smtc_ral/src/ral_sx1280.c ****     return RAL_STATUS_OK;
 919:smtc_ral/src/ral_sx1280.c **** }
 920:smtc_ral/src/ral_sx1280.c **** 
 921:smtc_ral/src/ral_sx1280.c **** ral_status_t ral_sx1280_convert_lora_rx_bw_to_ua( const ral_params_lora_t* params, uint32_t* micro_
 922:smtc_ral/src/ral_sx1280.c **** {
 923:smtc_ral/src/ral_sx1280.c ****     switch( params->bw )
 924:smtc_ral/src/ral_sx1280.c ****     {
 925:smtc_ral/src/ral_sx1280.c ****     case RAL_LORA_BW_200_KHZ:
 926:smtc_ral/src/ral_sx1280.c ****     {
 927:smtc_ral/src/ral_sx1280.c ****         *micro_ampere = 6200;
 928:smtc_ral/src/ral_sx1280.c ****         return RAL_STATUS_OK;
 929:smtc_ral/src/ral_sx1280.c ****     }
 930:smtc_ral/src/ral_sx1280.c ****     case RAL_LORA_BW_400_KHZ:
 931:smtc_ral/src/ral_sx1280.c ****     {
 932:smtc_ral/src/ral_sx1280.c ****         *micro_ampere = 6700;
 933:smtc_ral/src/ral_sx1280.c ****         return RAL_STATUS_OK;
 934:smtc_ral/src/ral_sx1280.c ****     }
 935:smtc_ral/src/ral_sx1280.c ****     case RAL_LORA_BW_800_KHZ:
 936:smtc_ral/src/ral_sx1280.c ****     {
 937:smtc_ral/src/ral_sx1280.c ****         *micro_ampere = 7700;
 938:smtc_ral/src/ral_sx1280.c ****         return RAL_STATUS_OK;
 939:smtc_ral/src/ral_sx1280.c ****     }
 940:smtc_ral/src/ral_sx1280.c ****     case RAL_LORA_BW_1600_KHZ:
 941:smtc_ral/src/ral_sx1280.c ****     {
 942:smtc_ral/src/ral_sx1280.c ****         *micro_ampere = 8200;
 943:smtc_ral/src/ral_sx1280.c ****         return RAL_STATUS_OK;
 944:smtc_ral/src/ral_sx1280.c ****     }
 945:smtc_ral/src/ral_sx1280.c ****     default:
 946:smtc_ral/src/ral_sx1280.c ****         return RAL_STATUS_UNKNOWN_VALUE;
ARM GAS  /var/folders/bq/yv49bw8j2kd6w3hsq868qv180000gn/T//ccyOvgmk.s 			page 18


 947:smtc_ral/src/ral_sx1280.c ****     }
 948:smtc_ral/src/ral_sx1280.c **** }
 949:smtc_ral/src/ral_sx1280.c **** 
 950:smtc_ral/src/ral_sx1280.c **** ral_status_t ral_sx1280_convert_lora_tx_dbm_to_ua( const ral_params_lora_t* params, uint32_t* micro
 951:smtc_ral/src/ral_sx1280.c **** {
 952:smtc_ral/src/ral_sx1280.c ****     if( ( params->pwr_in_dbm < -18 ) || ( params->pwr_in_dbm > 13 ) )
 953:smtc_ral/src/ral_sx1280.c ****     {
 954:smtc_ral/src/ral_sx1280.c ****         return RAL_STATUS_UNKNOWN_VALUE;
 955:smtc_ral/src/ral_sx1280.c ****     }
 956:smtc_ral/src/ral_sx1280.c **** 
 957:smtc_ral/src/ral_sx1280.c ****     *micro_ampere = ral_to_sx1280_lora_tx_dbm_to_ua[params->pwr_in_dbm + 18];
 958:smtc_ral/src/ral_sx1280.c **** 
 959:smtc_ral/src/ral_sx1280.c ****     return RAL_STATUS_OK;
 960:smtc_ral/src/ral_sx1280.c **** }
 961:smtc_ral/src/ral_sx1280.c **** 
 962:smtc_ral/src/ral_sx1280.c **** ral_status_t ral_sx1280_read_register( const ral_t* ral, uint16_t address, uint8_t* buffer, uint16_
 963:smtc_ral/src/ral_sx1280.c **** {
 964:smtc_ral/src/ral_sx1280.c ****     return ( ral_status_t ) sx1280_read_register( ral->context, address, buffer, size );
 965:smtc_ral/src/ral_sx1280.c **** }
 966:smtc_ral/src/ral_sx1280.c **** 
 967:smtc_ral/src/ral_sx1280.c **** ral_status_t ral_sx1280_write_register( const ral_t* ral, uint16_t address, uint8_t* buffer, uint16
 968:smtc_ral/src/ral_sx1280.c **** {
 969:smtc_ral/src/ral_sx1280.c ****     return ( ral_status_t ) sx1280_write_register( ral->context, address, buffer, size );
 970:smtc_ral/src/ral_sx1280.c **** }
 971:smtc_ral/src/ral_sx1280.c **** 
 972:smtc_ral/src/ral_sx1280.c **** /*
 973:smtc_ral/src/ral_sx1280.c ****  * -----------------------------------------------------------------------------
 974:smtc_ral/src/ral_sx1280.c ****  * --- PRIVATE FUNCTIONS DEFINITION --------------------------------------------
 975:smtc_ral/src/ral_sx1280.c ****  */
 976:smtc_ral/src/ral_sx1280.c **** 
 977:smtc_ral/src/ral_sx1280.c **** static ral_status_t ral_sx1280_convert_gfsk_params_from_radio( const ral_params_gfsk_t*  params,
 978:smtc_ral/src/ral_sx1280.c ****                                                                sx1280_mod_params_gfsk_t* mod_params
 979:smtc_ral/src/ral_sx1280.c ****                                                                sx1280_pkt_params_gfsk_t* pkt_params
 980:smtc_ral/src/ral_sx1280.c **** {
 981:smtc_ral/src/ral_sx1280.c ****     ral_status_t status = RAL_STATUS_ERROR;
 982:smtc_ral/src/ral_sx1280.c **** 
 983:smtc_ral/src/ral_sx1280.c ****     uint32_t                          bw_dsb_in_hz    = params->bw_ssb_in_hz << 1;
 984:smtc_ral/src/ral_sx1280.c ****     sx1280_gfsk_ble_br_bw_t           br_bw_dsb_param = 0;
 985:smtc_ral/src/ral_sx1280.c ****     sx1280_gfsk_crc_types_t           crc_type;
 986:smtc_ral/src/ral_sx1280.c ****     sx1280_gfsk_flrc_ble_mod_shapes_t pulse_shape;
 987:smtc_ral/src/ral_sx1280.c **** 
 988:smtc_ral/src/ral_sx1280.c ****     status = ( ral_status_t ) sx1280_get_gfsk_br_bw_param( params->br_in_bps, bw_dsb_in_hz, &br_bw_
 989:smtc_ral/src/ral_sx1280.c ****     if( status != RAL_STATUS_OK )
 990:smtc_ral/src/ral_sx1280.c ****     {
 991:smtc_ral/src/ral_sx1280.c ****         return status;
 992:smtc_ral/src/ral_sx1280.c ****     }
 993:smtc_ral/src/ral_sx1280.c **** 
 994:smtc_ral/src/ral_sx1280.c ****     switch( params->crc_type )
 995:smtc_ral/src/ral_sx1280.c ****     {
 996:smtc_ral/src/ral_sx1280.c ****     case RAL_GFSK_CRC_OFF:
 997:smtc_ral/src/ral_sx1280.c ****         crc_type = SX1280_GFSK_CRC_OFF;
 998:smtc_ral/src/ral_sx1280.c ****         break;
 999:smtc_ral/src/ral_sx1280.c ****     case RAL_GFSK_CRC_1_BYTE:
1000:smtc_ral/src/ral_sx1280.c ****         crc_type = SX1280_GFSK_CRC_1_BYTES;
1001:smtc_ral/src/ral_sx1280.c ****         break;
1002:smtc_ral/src/ral_sx1280.c ****     case RAL_GFSK_CRC_2_BYTES:
1003:smtc_ral/src/ral_sx1280.c ****         crc_type = SX1280_GFSK_CRC_2_BYTES;
ARM GAS  /var/folders/bq/yv49bw8j2kd6w3hsq868qv180000gn/T//ccyOvgmk.s 			page 19


1004:smtc_ral/src/ral_sx1280.c ****         break;
1005:smtc_ral/src/ral_sx1280.c ****     default:
1006:smtc_ral/src/ral_sx1280.c ****         return RAL_STATUS_UNKNOWN_VALUE;
1007:smtc_ral/src/ral_sx1280.c ****     }
1008:smtc_ral/src/ral_sx1280.c **** 
1009:smtc_ral/src/ral_sx1280.c ****     switch( params->pulse_shape )
1010:smtc_ral/src/ral_sx1280.c ****     {
1011:smtc_ral/src/ral_sx1280.c ****     case RAL_GFSK_MOD_SHAPE_OFF:
1012:smtc_ral/src/ral_sx1280.c ****         pulse_shape = SX1280_GFSK_FLRC_BLE_MOD_SHAPE_OFF;
1013:smtc_ral/src/ral_sx1280.c ****         break;
1014:smtc_ral/src/ral_sx1280.c ****     case RAL_GFSK_MOD_SHAPE_BT_05:
1015:smtc_ral/src/ral_sx1280.c ****         pulse_shape = SX1280_GFSK_FLRC_BLE_MOD_SHAPE_BT_05;
1016:smtc_ral/src/ral_sx1280.c ****         break;
1017:smtc_ral/src/ral_sx1280.c ****     case RAL_GFSK_MOD_SHAPE_BT_1:
1018:smtc_ral/src/ral_sx1280.c ****         pulse_shape = SX1280_GFSK_FLRC_BLE_MOD_SHAPE_BT_1;
1019:smtc_ral/src/ral_sx1280.c ****         break;
1020:smtc_ral/src/ral_sx1280.c ****     default:
1021:smtc_ral/src/ral_sx1280.c ****         return RAL_STATUS_UNKNOWN_VALUE;
1022:smtc_ral/src/ral_sx1280.c ****     }
1023:smtc_ral/src/ral_sx1280.c **** 
1024:smtc_ral/src/ral_sx1280.c ****     *mod_params = ( sx1280_mod_params_gfsk_t ){
1025:smtc_ral/src/ral_sx1280.c ****         .br_bw     = br_bw_dsb_param,
1026:smtc_ral/src/ral_sx1280.c ****         .mod_ind   = SX1280_GFSK_BLE_MOD_IND_1_00,
1027:smtc_ral/src/ral_sx1280.c ****         .mod_shape = pulse_shape,
1028:smtc_ral/src/ral_sx1280.c ****     };
1029:smtc_ral/src/ral_sx1280.c **** 
1030:smtc_ral/src/ral_sx1280.c ****     *pkt_params = ( sx1280_pkt_params_gfsk_t ){
1031:smtc_ral/src/ral_sx1280.c ****         .pbl_len          = ( sx1280_gfsk_pbl_len_t )( ( ( params->pbl_len_in_bytes << 3 ) << 2 ) -
1032:smtc_ral/src/ral_sx1280.c ****         .sync_word_len    = ( sx1280_gfsk_sync_word_len_t )( ( params->sync_word_len_in_bytes - 1 )
1033:smtc_ral/src/ral_sx1280.c ****         .match_sync_word  = SX1280_GFSK_FLRC_RX_MATCH_SYNCWORD_1,
1034:smtc_ral/src/ral_sx1280.c ****         .hdr_type         = params->pld_is_fix ? SX1280_GFSK_FLRC_PKT_FIX_LEN : SX1280_GFSK_FLRC_PK
1035:smtc_ral/src/ral_sx1280.c ****         .pld_len_in_bytes = params->pld_len_in_bytes,
1036:smtc_ral/src/ral_sx1280.c ****         .crc_type         = crc_type,
1037:smtc_ral/src/ral_sx1280.c ****         .dc_free          = params->dc_free_is_on ? SX1280_GFSK_FLRC_BLE_DC_FREE_ON : SX1280_GFSK_F
1038:smtc_ral/src/ral_sx1280.c ****     };
1039:smtc_ral/src/ral_sx1280.c **** 
1040:smtc_ral/src/ral_sx1280.c ****     return RAL_STATUS_OK;
1041:smtc_ral/src/ral_sx1280.c **** }
1042:smtc_ral/src/ral_sx1280.c **** 
1043:smtc_ral/src/ral_sx1280.c **** static ral_status_t ral_sx1280_convert_lora_params_from_radio( const ral_params_lora_t*  params,
1044:smtc_ral/src/ral_sx1280.c ****                                                                sx1280_mod_params_lora_t* mod_params
1045:smtc_ral/src/ral_sx1280.c ****                                                                sx1280_pkt_params_lora_t* pkt_params
1046:smtc_ral/src/ral_sx1280.c **** {
1047:smtc_ral/src/ral_sx1280.c ****     uint16_t pbl_len_in_symb = params->pbl_len_in_symb;
1048:smtc_ral/src/ral_sx1280.c **** 
1049:smtc_ral/src/ral_sx1280.c ****     // Ensure that the preamble length is at least 12 symbols when using SF5 or SF6
1050:smtc_ral/src/ral_sx1280.c ****     if( ( params->sf == RAL_LORA_SF5 ) || ( params->sf == RAL_LORA_SF6 ) )
1051:smtc_ral/src/ral_sx1280.c ****     {
1052:smtc_ral/src/ral_sx1280.c ****         if( pbl_len_in_symb < 12 )
1053:smtc_ral/src/ral_sx1280.c ****         {
1054:smtc_ral/src/ral_sx1280.c ****             pbl_len_in_symb = 12;
1055:smtc_ral/src/ral_sx1280.c ****         }
1056:smtc_ral/src/ral_sx1280.c ****     }
1057:smtc_ral/src/ral_sx1280.c **** 
1058:smtc_ral/src/ral_sx1280.c ****     mod_params->sf = ( sx1280_lora_sf_t )( params->sf << 4 );
1059:smtc_ral/src/ral_sx1280.c **** 
1060:smtc_ral/src/ral_sx1280.c ****     switch( params->bw )
ARM GAS  /var/folders/bq/yv49bw8j2kd6w3hsq868qv180000gn/T//ccyOvgmk.s 			page 20


1061:smtc_ral/src/ral_sx1280.c ****     {
1062:smtc_ral/src/ral_sx1280.c ****     case RAL_LORA_BW_200_KHZ:
1063:smtc_ral/src/ral_sx1280.c ****         mod_params->bw = SX1280_LORA_RANGE_BW_200;
1064:smtc_ral/src/ral_sx1280.c ****         break;
1065:smtc_ral/src/ral_sx1280.c ****     case RAL_LORA_BW_400_KHZ:
1066:smtc_ral/src/ral_sx1280.c ****         mod_params->bw = SX1280_LORA_RANGE_BW_400;
1067:smtc_ral/src/ral_sx1280.c ****         break;
1068:smtc_ral/src/ral_sx1280.c ****     case RAL_LORA_BW_800_KHZ:
1069:smtc_ral/src/ral_sx1280.c ****         mod_params->bw = SX1280_LORA_RANGE_BW_800;
1070:smtc_ral/src/ral_sx1280.c ****         break;
1071:smtc_ral/src/ral_sx1280.c ****     case RAL_LORA_BW_1600_KHZ:
1072:smtc_ral/src/ral_sx1280.c ****         mod_params->bw = SX1280_LORA_RANGE_BW_1600;
1073:smtc_ral/src/ral_sx1280.c ****         break;
1074:smtc_ral/src/ral_sx1280.c ****     default:
1075:smtc_ral/src/ral_sx1280.c ****         return RAL_STATUS_UNKNOWN_VALUE;
1076:smtc_ral/src/ral_sx1280.c ****     }
1077:smtc_ral/src/ral_sx1280.c **** 
1078:smtc_ral/src/ral_sx1280.c ****     switch( params->cr )
1079:smtc_ral/src/ral_sx1280.c ****     {
1080:smtc_ral/src/ral_sx1280.c ****     case RAL_LORA_CR_4_5:
1081:smtc_ral/src/ral_sx1280.c ****         mod_params->cr = SX1280_LORA_RANGE_CR_4_5;
1082:smtc_ral/src/ral_sx1280.c ****         break;
1083:smtc_ral/src/ral_sx1280.c ****     case RAL_LORA_CR_4_6:
1084:smtc_ral/src/ral_sx1280.c ****         mod_params->cr = SX1280_LORA_RANGE_CR_4_6;
1085:smtc_ral/src/ral_sx1280.c ****         break;
1086:smtc_ral/src/ral_sx1280.c ****     case RAL_LORA_CR_4_7:
1087:smtc_ral/src/ral_sx1280.c ****         mod_params->cr = SX1280_LORA_RANGE_CR_4_7;
1088:smtc_ral/src/ral_sx1280.c ****         break;
1089:smtc_ral/src/ral_sx1280.c ****     case RAL_LORA_CR_4_8:
1090:smtc_ral/src/ral_sx1280.c ****         mod_params->cr = SX1280_LORA_RANGE_CR_4_8;
1091:smtc_ral/src/ral_sx1280.c ****         break;
1092:smtc_ral/src/ral_sx1280.c ****     case RAL_LORA_CR_LI_4_5:
1093:smtc_ral/src/ral_sx1280.c ****         mod_params->cr = SX1280_LORA_RANGE_CR_LI_4_5;
1094:smtc_ral/src/ral_sx1280.c ****         break;
1095:smtc_ral/src/ral_sx1280.c ****     case RAL_LORA_CR_LI_4_6:
1096:smtc_ral/src/ral_sx1280.c ****         mod_params->cr = SX1280_LORA_RANGE_CR_LI_4_6;
1097:smtc_ral/src/ral_sx1280.c ****         break;
1098:smtc_ral/src/ral_sx1280.c ****     case RAL_LORA_CR_LI_4_8:
1099:smtc_ral/src/ral_sx1280.c ****         mod_params->cr = SX1280_LORA_RANGE_CR_LI_4_8;
1100:smtc_ral/src/ral_sx1280.c ****         break;
1101:smtc_ral/src/ral_sx1280.c ****     default:
1102:smtc_ral/src/ral_sx1280.c ****         return RAL_STATUS_UNKNOWN_VALUE;
1103:smtc_ral/src/ral_sx1280.c ****     }
1104:smtc_ral/src/ral_sx1280.c **** 
1105:smtc_ral/src/ral_sx1280.c ****     *pkt_params = ( sx1280_pkt_params_lora_t ){
1106:smtc_ral/src/ral_sx1280.c ****         .pbl_len_in_symb  = sx1280_convert_pbl_len_from_symb( pbl_len_in_symb ),
1107:smtc_ral/src/ral_sx1280.c ****         .hdr_type         = params->pld_is_fix ? SX1280_LORA_RANGE_PKT_IMPLICIT : SX1280_LORA_RANGE
1108:smtc_ral/src/ral_sx1280.c ****         .pld_len_in_bytes = params->pld_len_in_bytes,
1109:smtc_ral/src/ral_sx1280.c ****         .crc_is_on        = params->crc_is_on,
1110:smtc_ral/src/ral_sx1280.c ****         .invert_iq_is_on  = params->invert_iq_is_on,
1111:smtc_ral/src/ral_sx1280.c ****     };
1112:smtc_ral/src/ral_sx1280.c **** 
1113:smtc_ral/src/ral_sx1280.c ****     return RAL_STATUS_OK;
1114:smtc_ral/src/ral_sx1280.c **** }
1115:smtc_ral/src/ral_sx1280.c **** 
1116:smtc_ral/src/ral_sx1280.c **** static ral_status_t ral_sx1280_convert_flrc_params_from_radio( const ral_params_flrc_t*  params,
1117:smtc_ral/src/ral_sx1280.c ****                                                                sx1280_mod_params_flrc_t* mod_params
ARM GAS  /var/folders/bq/yv49bw8j2kd6w3hsq868qv180000gn/T//ccyOvgmk.s 			page 21


1118:smtc_ral/src/ral_sx1280.c ****                                                                sx1280_pkt_params_flrc_t* pkt_params
1119:smtc_ral/src/ral_sx1280.c **** {
1120:smtc_ral/src/ral_sx1280.c ****     ral_status_t status = RAL_STATUS_ERROR;
1121:smtc_ral/src/ral_sx1280.c **** 
1122:smtc_ral/src/ral_sx1280.c ****     uint32_t                          bw_dsb_in_hz    = params->bw_ssb_in_hz << 1;
1123:smtc_ral/src/ral_sx1280.c ****     sx1280_flrc_br_bw_t               br_bw_dsb_param = 0;
1124:smtc_ral/src/ral_sx1280.c ****     sx1280_gfsk_flrc_ble_mod_shapes_t mod_shape;
1125:smtc_ral/src/ral_sx1280.c **** 
1126:smtc_ral/src/ral_sx1280.c ****     status = ( ral_status_t ) sx1280_get_flrc_br_bw_param( params->br_in_bps, bw_dsb_in_hz, &br_bw_
1127:smtc_ral/src/ral_sx1280.c ****     if( status != RAL_STATUS_OK )
1128:smtc_ral/src/ral_sx1280.c ****     {
1129:smtc_ral/src/ral_sx1280.c ****         return status;
1130:smtc_ral/src/ral_sx1280.c ****     }
1131:smtc_ral/src/ral_sx1280.c **** 
1132:smtc_ral/src/ral_sx1280.c ****     switch( params->mod_shape )
1133:smtc_ral/src/ral_sx1280.c ****     {
1134:smtc_ral/src/ral_sx1280.c ****     case RAL_FLRC_MOD_SHAPE_OFF:
1135:smtc_ral/src/ral_sx1280.c ****         mod_shape = SX1280_GFSK_FLRC_BLE_MOD_SHAPE_OFF;
1136:smtc_ral/src/ral_sx1280.c ****         break;
1137:smtc_ral/src/ral_sx1280.c ****     case RAL_FLRC_MOD_SHAPE_BT_05:
1138:smtc_ral/src/ral_sx1280.c ****         mod_shape = SX1280_GFSK_FLRC_BLE_MOD_SHAPE_BT_05;
1139:smtc_ral/src/ral_sx1280.c ****         break;
1140:smtc_ral/src/ral_sx1280.c ****     case RAL_FLRC_MOD_SHAPE_BT_1:
1141:smtc_ral/src/ral_sx1280.c ****         mod_shape = SX1280_GFSK_FLRC_BLE_MOD_SHAPE_BT_1;
1142:smtc_ral/src/ral_sx1280.c ****         break;
1143:smtc_ral/src/ral_sx1280.c ****     default:
1144:smtc_ral/src/ral_sx1280.c ****         return RAL_STATUS_UNKNOWN_VALUE;
1145:smtc_ral/src/ral_sx1280.c ****     }
1146:smtc_ral/src/ral_sx1280.c **** 
1147:smtc_ral/src/ral_sx1280.c ****     *mod_params = ( sx1280_mod_params_flrc_t ){
1148:smtc_ral/src/ral_sx1280.c ****         .br_bw     = br_bw_dsb_param,
1149:smtc_ral/src/ral_sx1280.c ****         .cr        = ( sx1280_flrc_cr_t )( params->cr << 1 ),
1150:smtc_ral/src/ral_sx1280.c ****         .mod_shape = mod_shape,
1151:smtc_ral/src/ral_sx1280.c ****     };
1152:smtc_ral/src/ral_sx1280.c **** 
1153:smtc_ral/src/ral_sx1280.c ****     *pkt_params = ( sx1280_pkt_params_flrc_t ){
1154:smtc_ral/src/ral_sx1280.c ****         .pbl_len          = ( sx1280_flrc_pbl_len_t )( ( ( params->pbl_len_in_bytes << 3 ) << 2 ) -
1155:smtc_ral/src/ral_sx1280.c ****         .sync_word_len    = ( params->sync_word_is_on == true ) ? SX1280_FLRC_SYNC_WORD_ON : SX1280
1156:smtc_ral/src/ral_sx1280.c ****         .match_sync_word  = SX1280_GFSK_FLRC_RX_MATCH_SYNCWORD_1,
1157:smtc_ral/src/ral_sx1280.c ****         .hdr_type         = params->pld_is_fix ? SX1280_GFSK_FLRC_PKT_FIX_LEN : SX1280_GFSK_FLRC_PK
1158:smtc_ral/src/ral_sx1280.c ****         .pld_len_in_bytes = params->pld_len_in_bytes,
1159:smtc_ral/src/ral_sx1280.c ****         .crc_type         = SX1280_FLRC_CRC_OFF,
1160:smtc_ral/src/ral_sx1280.c ****     };
1161:smtc_ral/src/ral_sx1280.c **** 
1162:smtc_ral/src/ral_sx1280.c ****     switch( params->crc_type )
1163:smtc_ral/src/ral_sx1280.c ****     {
1164:smtc_ral/src/ral_sx1280.c ****     case RAL_FLRC_CRC_OFF:
1165:smtc_ral/src/ral_sx1280.c ****         pkt_params->crc_type = SX1280_FLRC_CRC_OFF;
1166:smtc_ral/src/ral_sx1280.c ****         break;
1167:smtc_ral/src/ral_sx1280.c ****     case RAL_FLRC_CRC_2_BYTES:
1168:smtc_ral/src/ral_sx1280.c ****         pkt_params->crc_type = SX1280_FLRC_CRC_2_BYTES;
1169:smtc_ral/src/ral_sx1280.c ****         break;
1170:smtc_ral/src/ral_sx1280.c ****     case RAL_FLRC_CRC_3_BYTES:
1171:smtc_ral/src/ral_sx1280.c ****         pkt_params->crc_type = SX1280_FLRC_CRC_3_BYTES;
1172:smtc_ral/src/ral_sx1280.c ****         break;
1173:smtc_ral/src/ral_sx1280.c ****     case RAL_FLRC_CRC_4_BYTES:
1174:smtc_ral/src/ral_sx1280.c ****         pkt_params->crc_type = SX1280_FLRC_CRC_4_BYTES;
ARM GAS  /var/folders/bq/yv49bw8j2kd6w3hsq868qv180000gn/T//ccyOvgmk.s 			page 22


1175:smtc_ral/src/ral_sx1280.c ****         break;
1176:smtc_ral/src/ral_sx1280.c ****     default:
1177:smtc_ral/src/ral_sx1280.c ****         return RAL_STATUS_UNKNOWN_VALUE;
1178:smtc_ral/src/ral_sx1280.c ****     }
1179:smtc_ral/src/ral_sx1280.c **** 
1180:smtc_ral/src/ral_sx1280.c ****     return RAL_STATUS_OK;
1181:smtc_ral/src/ral_sx1280.c **** }
1182:smtc_ral/src/ral_sx1280.c **** 
1183:smtc_ral/src/ral_sx1280.c **** static sx1280_lora_range_pbl_len_t sx1280_convert_pbl_len_from_symb( const uint16_t pbl_len_in_symb
1184:smtc_ral/src/ral_sx1280.c **** {
1185:smtc_ral/src/ral_sx1280.c ****     uint16_t mant = pbl_len_in_symb;
1186:smtc_ral/src/ral_sx1280.c ****     int      exp  = shift_and_count_trailing_zeros( &mant );
1187:smtc_ral/src/ral_sx1280.c **** 
1188:smtc_ral/src/ral_sx1280.c ****     // This will loop at most 5 times
1189:smtc_ral/src/ral_sx1280.c ****     while( mant > 15 )
1190:smtc_ral/src/ral_sx1280.c ****     {
1191:smtc_ral/src/ral_sx1280.c ****         // Divide by two, rounding up
1192:smtc_ral/src/ral_sx1280.c ****         mant = ( mant + 1 ) >> 1;
1193:smtc_ral/src/ral_sx1280.c ****         exp++;
1194:smtc_ral/src/ral_sx1280.c ****     }
1195:smtc_ral/src/ral_sx1280.c **** 
1196:smtc_ral/src/ral_sx1280.c ****     return ( sx1280_lora_range_pbl_len_t ){
1197:smtc_ral/src/ral_sx1280.c ****         .mant = mant,
1198:smtc_ral/src/ral_sx1280.c ****         .exp  = exp,
1199:smtc_ral/src/ral_sx1280.c ****     };
1200:smtc_ral/src/ral_sx1280.c **** }
1201:smtc_ral/src/ral_sx1280.c **** 
1202:smtc_ral/src/ral_sx1280.c **** static ral_irq_t ral_sx1280_convert_irq_flags_to_radio( sx1280_irq_mask_t sx1280_irq )
1203:smtc_ral/src/ral_sx1280.c **** {
  25              		.loc 1 1203 1 view -0
  26              		.cfi_startproc
  27              		@ args = 0, pretend = 0, frame = 0
  28              		@ frame_needed = 0, uses_anonymous_args = 0
  29              		@ link register save eliminated.
1204:smtc_ral/src/ral_sx1280.c ****     ral_irq_t ral_irq = RAL_IRQ_NONE;
  30              		.loc 1 1204 5 view .LVU1
1205:smtc_ral/src/ral_sx1280.c **** 
1206:smtc_ral/src/ral_sx1280.c ****     if( ( sx1280_irq & SX1280_IRQ_TX_DONE ) == SX1280_IRQ_TX_DONE )
  31              		.loc 1 1206 5 view .LVU2
1203:smtc_ral/src/ral_sx1280.c ****     ral_irq_t ral_irq = RAL_IRQ_NONE;
  32              		.loc 1 1203 1 is_stmt 0 view .LVU3
  33 0000 0300     		movs	r3, r0
  34 0002 0121     		movs	r1, #1
  35 0004 0222     		movs	r2, #2
  36 0006 0840     		ands	r0, r1
  37              	.LVL1:
  38              		.loc 1 1206 7 view .LVU4
  39 0008 0B42     		tst	r3, r1
  40 000a 00D0     		beq	.L2
1207:smtc_ral/src/ral_sx1280.c ****     {
1208:smtc_ral/src/ral_sx1280.c ****         ral_irq |= RAL_IRQ_TX_DONE;
  41              		.loc 1 1208 17 view .LVU5
  42 000c 1000     		movs	r0, r2
  43              	.L2:
  44              	.LVL2:
1209:smtc_ral/src/ral_sx1280.c ****     }
1210:smtc_ral/src/ral_sx1280.c ****     if( ( sx1280_irq & SX1280_IRQ_RX_DONE ) == SX1280_IRQ_RX_DONE )
ARM GAS  /var/folders/bq/yv49bw8j2kd6w3hsq868qv180000gn/T//ccyOvgmk.s 			page 23


  45              		.loc 1 1210 5 is_stmt 1 view .LVU6
  46              		.loc 1 1210 7 is_stmt 0 view .LVU7
  47 000e 1342     		tst	r3, r2
  48 0010 01D0     		beq	.L3
1211:smtc_ral/src/ral_sx1280.c ****     {
1212:smtc_ral/src/ral_sx1280.c ****         ral_irq |= RAL_IRQ_RX_DONE;
  49              		.loc 1 1212 9 is_stmt 1 view .LVU8
  50              		.loc 1 1212 17 is_stmt 0 view .LVU9
  51 0012 0422     		movs	r2, #4
  52 0014 1043     		orrs	r0, r2
  53              	.LVL3:
  54              	.L3:
1213:smtc_ral/src/ral_sx1280.c ****     }
1214:smtc_ral/src/ral_sx1280.c ****     if( ( sx1280_irq & SX1280_IRQ_TIMEOUT ) == SX1280_IRQ_TIMEOUT )
  55              		.loc 1 1214 5 is_stmt 1 view .LVU10
  56              		.loc 1 1214 7 is_stmt 0 view .LVU11
  57 0016 5A04     		lsls	r2, r3, #17
  58 0018 01D5     		bpl	.L4
1215:smtc_ral/src/ral_sx1280.c ****     {
1216:smtc_ral/src/ral_sx1280.c ****         ral_irq |= RAL_IRQ_RX_TIMEOUT;
  59              		.loc 1 1216 9 is_stmt 1 view .LVU12
  60              		.loc 1 1216 17 is_stmt 0 view .LVU13
  61 001a 0822     		movs	r2, #8
  62 001c 1043     		orrs	r0, r2
  63              	.LVL4:
  64              	.L4:
1217:smtc_ral/src/ral_sx1280.c ****     }
1218:smtc_ral/src/ral_sx1280.c ****     if( ( ( sx1280_irq & SX1280_IRQ_SYNC_WORD_VALID ) == SX1280_IRQ_SYNC_WORD_VALID ) ||
  65              		.loc 1 1218 5 is_stmt 1 view .LVU14
  66              		.loc 1 1218 7 is_stmt 0 view .LVU15
  67 001e 1422     		movs	r2, #20
  68 0020 1342     		tst	r3, r2
  69 0022 01D0     		beq	.L5
1219:smtc_ral/src/ral_sx1280.c ****         ( ( sx1280_irq & SX1280_IRQ_HEADER_VALID ) == SX1280_IRQ_HEADER_VALID ) )
1220:smtc_ral/src/ral_sx1280.c ****     {
1221:smtc_ral/src/ral_sx1280.c ****         ral_irq |= RAL_IRQ_RX_HDR_OK;
  70              		.loc 1 1221 9 is_stmt 1 view .LVU16
  71              		.loc 1 1221 17 is_stmt 0 view .LVU17
  72 0024 043A     		subs	r2, r2, #4
  73 0026 1043     		orrs	r0, r2
  74              	.LVL5:
  75              	.L5:
1222:smtc_ral/src/ral_sx1280.c ****     }
1223:smtc_ral/src/ral_sx1280.c ****     if( ( ( sx1280_irq & SX1280_IRQ_SYNC_WORD_ERROR ) == SX1280_IRQ_SYNC_WORD_ERROR ) ||
  76              		.loc 1 1223 5 is_stmt 1 view .LVU18
  77              		.loc 1 1223 7 is_stmt 0 view .LVU19
  78 0028 2822     		movs	r2, #40
  79 002a 1342     		tst	r3, r2
  80 002c 01D0     		beq	.L6
1224:smtc_ral/src/ral_sx1280.c ****         ( ( sx1280_irq & SX1280_IRQ_HEADER_ERROR ) == SX1280_IRQ_HEADER_ERROR ) )
1225:smtc_ral/src/ral_sx1280.c ****     {
1226:smtc_ral/src/ral_sx1280.c ****         ral_irq |= RAL_IRQ_RX_HDR_ERROR;
  81              		.loc 1 1226 9 is_stmt 1 view .LVU20
  82              		.loc 1 1226 17 is_stmt 0 view .LVU21
  83 002e 083A     		subs	r2, r2, #8
  84 0030 1043     		orrs	r0, r2
  85              	.LVL6:
ARM GAS  /var/folders/bq/yv49bw8j2kd6w3hsq868qv180000gn/T//ccyOvgmk.s 			page 24


  86              	.L6:
1227:smtc_ral/src/ral_sx1280.c ****     }
1228:smtc_ral/src/ral_sx1280.c ****     if( ( sx1280_irq & SX1280_IRQ_CRC_ERROR ) == SX1280_IRQ_CRC_ERROR )
  87              		.loc 1 1228 5 is_stmt 1 view .LVU22
  88              		.loc 1 1228 7 is_stmt 0 view .LVU23
  89 0032 4022     		movs	r2, #64
  90 0034 1342     		tst	r3, r2
  91 0036 00D0     		beq	.L7
1229:smtc_ral/src/ral_sx1280.c ****     {
1230:smtc_ral/src/ral_sx1280.c ****         ral_irq |= RAL_IRQ_RX_CRC_ERROR;
  92              		.loc 1 1230 9 is_stmt 1 view .LVU24
  93              		.loc 1 1230 17 is_stmt 0 view .LVU25
  94 0038 1043     		orrs	r0, r2
  95              	.LVL7:
  96              	.L7:
1231:smtc_ral/src/ral_sx1280.c ****     }
1232:smtc_ral/src/ral_sx1280.c ****     if( ( sx1280_irq & SX1280_IRQ_CAD_DONE ) == SX1280_IRQ_CAD_DONE )
  97              		.loc 1 1232 5 is_stmt 1 view .LVU26
  98              		.loc 1 1232 7 is_stmt 0 view .LVU27
  99 003a DA04     		lsls	r2, r3, #19
 100 003c 01D5     		bpl	.L8
1233:smtc_ral/src/ral_sx1280.c ****     {
1234:smtc_ral/src/ral_sx1280.c ****         ral_irq |= RAL_IRQ_CAD_DONE;
 101              		.loc 1 1234 9 is_stmt 1 view .LVU28
 102              		.loc 1 1234 17 is_stmt 0 view .LVU29
 103 003e 8022     		movs	r2, #128
 104 0040 1043     		orrs	r0, r2
 105              	.LVL8:
 106              	.L8:
1235:smtc_ral/src/ral_sx1280.c ****     }
1236:smtc_ral/src/ral_sx1280.c ****     if( ( sx1280_irq & SX1280_IRQ_CAD_DET ) == SX1280_IRQ_CAD_DET )
 107              		.loc 1 1236 5 is_stmt 1 view .LVU30
 108              		.loc 1 1236 7 is_stmt 0 view .LVU31
 109 0042 9B04     		lsls	r3, r3, #18
 110 0044 02D5     		bpl	.L9
1237:smtc_ral/src/ral_sx1280.c ****     {
1238:smtc_ral/src/ral_sx1280.c ****         ral_irq |= RAL_IRQ_CAD_OK;
 111              		.loc 1 1238 9 is_stmt 1 view .LVU32
 112              		.loc 1 1238 17 is_stmt 0 view .LVU33
 113 0046 8023     		movs	r3, #128
 114 0048 5B00     		lsls	r3, r3, #1
 115 004a 1843     		orrs	r0, r3
 116              	.LVL9:
 117              	.L9:
1239:smtc_ral/src/ral_sx1280.c ****     }
1240:smtc_ral/src/ral_sx1280.c ****     return ral_irq;
 118              		.loc 1 1240 5 is_stmt 1 view .LVU34
1241:smtc_ral/src/ral_sx1280.c **** }
 119              		.loc 1 1241 1 is_stmt 0 view .LVU35
 120              		@ sp needed
 121 004c 7047     		bx	lr
 122              		.cfi_endproc
 123              	.LFE44:
 125              		.section	.text.ral_sx1280_convert_irq_flags_from_radio,"ax",%progbits
 126              		.align	1
 127              		.syntax unified
 128              		.code	16
ARM GAS  /var/folders/bq/yv49bw8j2kd6w3hsq868qv180000gn/T//ccyOvgmk.s 			page 25


 129              		.thumb_func
 130              		.fpu softvfp
 132              	ral_sx1280_convert_irq_flags_from_radio:
 133              	.LVL10:
 134              	.LFB45:
1242:smtc_ral/src/ral_sx1280.c **** 
1243:smtc_ral/src/ral_sx1280.c **** static sx1280_irq_mask_t ral_sx1280_convert_irq_flags_from_radio( ral_irq_t ral_irq )
1244:smtc_ral/src/ral_sx1280.c **** {
 135              		.loc 1 1244 1 is_stmt 1 view -0
 136              		.cfi_startproc
 137              		@ args = 0, pretend = 0, frame = 0
 138              		@ frame_needed = 0, uses_anonymous_args = 0
 139              		@ link register save eliminated.
1245:smtc_ral/src/ral_sx1280.c ****     sx1280_irq_mask_t sx1280_irq_mask = SX1280_IRQ_NONE;
 140              		.loc 1 1245 5 view .LVU37
1246:smtc_ral/src/ral_sx1280.c **** 
1247:smtc_ral/src/ral_sx1280.c ****     if( ( ral_irq & RAL_IRQ_TX_DONE ) == RAL_IRQ_TX_DONE )
 141              		.loc 1 1247 5 view .LVU38
1244:smtc_ral/src/ral_sx1280.c ****     sx1280_irq_mask_t sx1280_irq_mask = SX1280_IRQ_NONE;
 142              		.loc 1 1244 1 is_stmt 0 view .LVU39
 143 0000 0300     		movs	r3, r0
 144              		.loc 1 1247 7 view .LVU40
 145 0002 8007     		lsls	r0, r0, #30
 146              	.LVL11:
1248:smtc_ral/src/ral_sx1280.c ****     {
1249:smtc_ral/src/ral_sx1280.c ****         sx1280_irq_mask |= SX1280_IRQ_TX_DONE;
 147              		.loc 1 1249 25 view .LVU41
 148 0004 C00F     		lsrs	r0, r0, #31
 149              	.LVL12:
1250:smtc_ral/src/ral_sx1280.c ****     }
1251:smtc_ral/src/ral_sx1280.c ****     if( ( ral_irq & RAL_IRQ_RX_DONE ) == RAL_IRQ_RX_DONE )
 150              		.loc 1 1251 5 is_stmt 1 view .LVU42
 151              		.loc 1 1251 7 is_stmt 0 view .LVU43
 152 0006 5A07     		lsls	r2, r3, #29
 153 0008 01D5     		bpl	.L35
1252:smtc_ral/src/ral_sx1280.c ****     {
1253:smtc_ral/src/ral_sx1280.c ****         sx1280_irq_mask |= SX1280_IRQ_RX_DONE;
 154              		.loc 1 1253 9 is_stmt 1 view .LVU44
 155              		.loc 1 1253 25 is_stmt 0 view .LVU45
 156 000a 0222     		movs	r2, #2
 157 000c 1043     		orrs	r0, r2
 158              	.LVL13:
 159              	.L35:
1254:smtc_ral/src/ral_sx1280.c ****     }
1255:smtc_ral/src/ral_sx1280.c ****     if( ( ral_irq & RAL_IRQ_RX_TIMEOUT ) == RAL_IRQ_RX_TIMEOUT )
 160              		.loc 1 1255 5 is_stmt 1 view .LVU46
 161              		.loc 1 1255 7 is_stmt 0 view .LVU47
 162 000e 1A07     		lsls	r2, r3, #28
 163 0010 02D5     		bpl	.L36
1256:smtc_ral/src/ral_sx1280.c ****     {
1257:smtc_ral/src/ral_sx1280.c ****         sx1280_irq_mask |= SX1280_IRQ_TIMEOUT;
 164              		.loc 1 1257 9 is_stmt 1 view .LVU48
 165              		.loc 1 1257 25 is_stmt 0 view .LVU49
 166 0012 8022     		movs	r2, #128
 167 0014 D201     		lsls	r2, r2, #7
 168 0016 1043     		orrs	r0, r2
 169              	.LVL14:
ARM GAS  /var/folders/bq/yv49bw8j2kd6w3hsq868qv180000gn/T//ccyOvgmk.s 			page 26


 170              	.L36:
1258:smtc_ral/src/ral_sx1280.c ****     }
1259:smtc_ral/src/ral_sx1280.c ****     if( ( ral_irq & RAL_IRQ_RX_HDR_OK ) == RAL_IRQ_RX_HDR_OK )
 171              		.loc 1 1259 5 is_stmt 1 view .LVU50
 172              		.loc 1 1259 7 is_stmt 0 view .LVU51
 173 0018 DA06     		lsls	r2, r3, #27
 174 001a 01D5     		bpl	.L37
1260:smtc_ral/src/ral_sx1280.c ****     {
1261:smtc_ral/src/ral_sx1280.c ****         sx1280_irq_mask |= SX1280_IRQ_SYNC_WORD_VALID;
 175              		.loc 1 1261 9 is_stmt 1 view .LVU52
 176              	.LVL15:
1262:smtc_ral/src/ral_sx1280.c ****         sx1280_irq_mask |= SX1280_IRQ_HEADER_VALID;
 177              		.loc 1 1262 9 view .LVU53
 178              		.loc 1 1262 25 is_stmt 0 view .LVU54
 179 001c 1422     		movs	r2, #20
 180 001e 1043     		orrs	r0, r2
 181              	.LVL16:
 182              	.L37:
1263:smtc_ral/src/ral_sx1280.c ****     }
1264:smtc_ral/src/ral_sx1280.c ****     if( ( ral_irq & RAL_IRQ_RX_HDR_ERROR ) == RAL_IRQ_RX_HDR_ERROR )
 183              		.loc 1 1264 5 is_stmt 1 view .LVU55
 184              		.loc 1 1264 7 is_stmt 0 view .LVU56
 185 0020 9A06     		lsls	r2, r3, #26
 186 0022 01D5     		bpl	.L38
1265:smtc_ral/src/ral_sx1280.c ****     {
1266:smtc_ral/src/ral_sx1280.c ****         sx1280_irq_mask |= SX1280_IRQ_SYNC_WORD_ERROR;
 187              		.loc 1 1266 9 is_stmt 1 view .LVU57
 188              	.LVL17:
1267:smtc_ral/src/ral_sx1280.c ****         sx1280_irq_mask |= SX1280_IRQ_HEADER_ERROR;
 189              		.loc 1 1267 9 view .LVU58
 190              		.loc 1 1267 25 is_stmt 0 view .LVU59
 191 0024 2822     		movs	r2, #40
 192 0026 1043     		orrs	r0, r2
 193              	.LVL18:
 194              	.L38:
1268:smtc_ral/src/ral_sx1280.c ****     }
1269:smtc_ral/src/ral_sx1280.c ****     if( ( ral_irq & RAL_IRQ_RX_CRC_ERROR ) == RAL_IRQ_RX_CRC_ERROR )
 195              		.loc 1 1269 5 is_stmt 1 view .LVU60
 196              		.loc 1 1269 7 is_stmt 0 view .LVU61
 197 0028 4022     		movs	r2, #64
 198 002a 1342     		tst	r3, r2
 199 002c 00D0     		beq	.L39
1270:smtc_ral/src/ral_sx1280.c ****     {
1271:smtc_ral/src/ral_sx1280.c ****         sx1280_irq_mask |= SX1280_IRQ_CRC_ERROR;
 200              		.loc 1 1271 9 is_stmt 1 view .LVU62
 201              		.loc 1 1271 25 is_stmt 0 view .LVU63
 202 002e 1043     		orrs	r0, r2
 203              	.LVL19:
 204              	.L39:
1272:smtc_ral/src/ral_sx1280.c ****     }
1273:smtc_ral/src/ral_sx1280.c ****     if( ( ral_irq & RAL_IRQ_CAD_DONE ) == RAL_IRQ_CAD_DONE )
 205              		.loc 1 1273 5 is_stmt 1 view .LVU64
 206              		.loc 1 1273 7 is_stmt 0 view .LVU65
 207 0030 1A06     		lsls	r2, r3, #24
 208 0032 02D5     		bpl	.L40
1274:smtc_ral/src/ral_sx1280.c ****     {
1275:smtc_ral/src/ral_sx1280.c ****         sx1280_irq_mask |= SX1280_IRQ_CAD_DONE;
ARM GAS  /var/folders/bq/yv49bw8j2kd6w3hsq868qv180000gn/T//ccyOvgmk.s 			page 27


 209              		.loc 1 1275 9 is_stmt 1 view .LVU66
 210              		.loc 1 1275 25 is_stmt 0 view .LVU67
 211 0034 8022     		movs	r2, #128
 212 0036 5201     		lsls	r2, r2, #5
 213 0038 1043     		orrs	r0, r2
 214              	.LVL20:
 215              	.L40:
1276:smtc_ral/src/ral_sx1280.c ****     }
1277:smtc_ral/src/ral_sx1280.c ****     if( ( ral_irq & RAL_IRQ_CAD_OK ) == RAL_IRQ_CAD_OK )
 216              		.loc 1 1277 5 is_stmt 1 view .LVU68
 217              		.loc 1 1277 7 is_stmt 0 view .LVU69
 218 003a DA05     		lsls	r2, r3, #23
 219 003c 02D5     		bpl	.L41
1278:smtc_ral/src/ral_sx1280.c ****     {
1279:smtc_ral/src/ral_sx1280.c ****         sx1280_irq_mask |= SX1280_IRQ_CAD_DET;
 220              		.loc 1 1279 9 is_stmt 1 view .LVU70
 221              		.loc 1 1279 25 is_stmt 0 view .LVU71
 222 003e 8022     		movs	r2, #128
 223 0040 9201     		lsls	r2, r2, #6
 224 0042 1043     		orrs	r0, r2
 225              	.LVL21:
 226              	.L41:
1280:smtc_ral/src/ral_sx1280.c ****     }
1281:smtc_ral/src/ral_sx1280.c ****     if( ( ral_irq & RAL_IRQ_ALL ) == RAL_IRQ_ALL )
 227              		.loc 1 1281 5 is_stmt 1 view .LVU72
 228              		.loc 1 1281 7 is_stmt 0 view .LVU73
 229 0044 FF22     		movs	r2, #255
 230 0046 5200     		lsls	r2, r2, #1
 231 0048 1340     		ands	r3, r2
 232 004a 9342     		cmp	r3, r2
 233 004c 00D1     		bne	.L42
1282:smtc_ral/src/ral_sx1280.c ****     {
1283:smtc_ral/src/ral_sx1280.c ****         sx1280_irq_mask |= SX1280_IRQ_ALL;
 234              		.loc 1 1283 25 view .LVU74
 235 004e 0148     		ldr	r0, .L64
 236              	.LVL22:
 237              	.L42:
1284:smtc_ral/src/ral_sx1280.c ****     }
1285:smtc_ral/src/ral_sx1280.c **** 
1286:smtc_ral/src/ral_sx1280.c ****     return sx1280_irq_mask;
 238              		.loc 1 1286 5 is_stmt 1 view .LVU75
1287:smtc_ral/src/ral_sx1280.c **** }
 239              		.loc 1 1287 1 is_stmt 0 view .LVU76
 240              		@ sp needed
 241 0050 7047     		bx	lr
 242              	.L65:
 243 0052 C046     		.align	2
 244              	.L64:
 245 0054 FFFF0000 		.word	65535
 246              		.cfi_endproc
 247              	.LFE45:
 249              		.section	.text.ral_sx1280_convert_lora_params_from_radio,"ax",%progbits
 250              		.align	1
 251              		.syntax unified
 252              		.code	16
 253              		.thumb_func
 254              		.fpu softvfp
ARM GAS  /var/folders/bq/yv49bw8j2kd6w3hsq868qv180000gn/T//ccyOvgmk.s 			page 28


 256              	ral_sx1280_convert_lora_params_from_radio:
 257              	.LVL23:
 258              	.LFB41:
1046:smtc_ral/src/ral_sx1280.c ****     uint16_t pbl_len_in_symb = params->pbl_len_in_symb;
 259              		.loc 1 1046 1 is_stmt 1 view -0
 260              		.cfi_startproc
 261              		@ args = 0, pretend = 0, frame = 0
 262              		@ frame_needed = 0, uses_anonymous_args = 0
1047:smtc_ral/src/ral_sx1280.c **** 
 263              		.loc 1 1047 5 view .LVU78
1046:smtc_ral/src/ral_sx1280.c ****     uint16_t pbl_len_in_symb = params->pbl_len_in_symb;
 264              		.loc 1 1046 1 is_stmt 0 view .LVU79
 265 0000 70B5     		push	{r4, r5, r6, lr}
 266              		.cfi_def_cfa_offset 16
 267              		.cfi_offset 4, -16
 268              		.cfi_offset 5, -12
 269              		.cfi_offset 6, -8
 270              		.cfi_offset 14, -4
1046:smtc_ral/src/ral_sx1280.c ****     uint16_t pbl_len_in_symb = params->pbl_len_in_symb;
 271              		.loc 1 1046 1 view .LVU80
 272 0002 0400     		movs	r4, r0
1047:smtc_ral/src/ral_sx1280.c **** 
 273              		.loc 1 1047 14 view .LVU81
 274 0004 0389     		ldrh	r3, [r0, #8]
 275              	.LVL24:
1050:smtc_ral/src/ral_sx1280.c ****     {
 276              		.loc 1 1050 5 is_stmt 1 view .LVU82
1050:smtc_ral/src/ral_sx1280.c ****     {
 277              		.loc 1 1050 17 is_stmt 0 view .LVU83
 278 0006 0079     		ldrb	r0, [r0, #4]
 279              	.LVL25:
1050:smtc_ral/src/ral_sx1280.c ****     {
 280              		.loc 1 1050 7 view .LVU84
 281 0008 451F     		subs	r5, r0, #5
 282 000a 012D     		cmp	r5, #1
 283 000c 04D8     		bhi	.L67
1052:smtc_ral/src/ral_sx1280.c ****         {
 284              		.loc 1 1052 9 is_stmt 1 view .LVU85
 285 000e 1D1C     		adds	r5, r3, #0
 286 0010 0C2B     		cmp	r3, #12
 287 0012 00D2     		bcs	.L68
 288 0014 0C25     		movs	r5, #12
 289              	.L68:
 290 0016 ABB2     		uxth	r3, r5
 291              	.LVL26:
 292              	.L67:
1058:smtc_ral/src/ral_sx1280.c **** 
 293              		.loc 1 1058 5 view .LVU86
1058:smtc_ral/src/ral_sx1280.c **** 
 294              		.loc 1 1058 55 is_stmt 0 view .LVU87
 295 0018 0001     		lsls	r0, r0, #4
1058:smtc_ral/src/ral_sx1280.c **** 
 296              		.loc 1 1058 20 view .LVU88
 297 001a 0870     		strb	r0, [r1]
1060:smtc_ral/src/ral_sx1280.c ****     {
 298              		.loc 1 1060 5 is_stmt 1 view .LVU89
 299 001c 6079     		ldrb	r0, [r4, #5]
ARM GAS  /var/folders/bq/yv49bw8j2kd6w3hsq868qv180000gn/T//ccyOvgmk.s 			page 29


 300 001e 0838     		subs	r0, r0, #8
 301 0020 0528     		cmp	r0, #5
 302 0022 04D8     		bhi	.L69
 303 0024 FFF7FEFF 		bl	__gnu_thumb1_case_uqi
 304              	.L71:
 305 0028 05       		.byte	(.L74-.L71)/2
 306 0029 03       		.byte	(.L69-.L71)/2
 307 002a 10       		.byte	(.L73-.L71)/2
 308 002b 03       		.byte	(.L69-.L71)/2
 309 002c 12       		.byte	(.L72-.L71)/2
 310 002d 14       		.byte	(.L70-.L71)/2
 311              		.p2align 1
 312              	.L69:
1075:smtc_ral/src/ral_sx1280.c ****     }
 313              		.loc 1 1075 16 is_stmt 0 view .LVU90
 314 002e 0220     		movs	r0, #2
 315              	.LVL27:
 316              	.L75:
1114:smtc_ral/src/ral_sx1280.c **** 
 317              		.loc 1 1114 1 view .LVU91
 318              		@ sp needed
 319 0030 70BD     		pop	{r4, r5, r6, pc}
 320              	.LVL28:
 321              	.L74:
1063:smtc_ral/src/ral_sx1280.c ****         break;
 322              		.loc 1 1063 9 is_stmt 1 view .LVU92
1063:smtc_ral/src/ral_sx1280.c ****         break;
 323              		.loc 1 1063 24 is_stmt 0 view .LVU93
 324 0032 3420     		movs	r0, #52
 325              	.L95:
1072:smtc_ral/src/ral_sx1280.c ****         break;
 326              		.loc 1 1072 24 view .LVU94
 327 0034 4870     		strb	r0, [r1, #1]
1073:smtc_ral/src/ral_sx1280.c ****     default:
 328              		.loc 1 1073 9 is_stmt 1 view .LVU95
1078:smtc_ral/src/ral_sx1280.c ****     {
 329              		.loc 1 1078 5 view .LVU96
 330 0036 A079     		ldrb	r0, [r4, #6]
 331 0038 0628     		cmp	r0, #6
 332 003a F8D8     		bhi	.L69
 333 003c FFF7FEFF 		bl	__gnu_thumb1_case_uqi
 334              	.L78:
 335 0040 0A       		.byte	(.L84-.L78)/2
 336 0041 32       		.byte	(.L83-.L78)/2
 337 0042 34       		.byte	(.L82-.L78)/2
 338 0043 36       		.byte	(.L81-.L78)/2
 339 0044 38       		.byte	(.L80-.L78)/2
 340 0045 3A       		.byte	(.L79-.L78)/2
 341 0046 3C       		.byte	(.L77-.L78)/2
 342 0047 00       		.p2align 1
 343              	.L73:
1066:smtc_ral/src/ral_sx1280.c ****         break;
 344              		.loc 1 1066 9 view .LVU97
1066:smtc_ral/src/ral_sx1280.c ****         break;
 345              		.loc 1 1066 24 is_stmt 0 view .LVU98
 346 0048 2620     		movs	r0, #38
 347 004a F3E7     		b	.L95
ARM GAS  /var/folders/bq/yv49bw8j2kd6w3hsq868qv180000gn/T//ccyOvgmk.s 			page 30


 348              	.L72:
1069:smtc_ral/src/ral_sx1280.c ****         break;
 349              		.loc 1 1069 9 is_stmt 1 view .LVU99
1069:smtc_ral/src/ral_sx1280.c ****         break;
 350              		.loc 1 1069 24 is_stmt 0 view .LVU100
 351 004c 1820     		movs	r0, #24
 352 004e F1E7     		b	.L95
 353              	.L70:
1072:smtc_ral/src/ral_sx1280.c ****         break;
 354              		.loc 1 1072 9 is_stmt 1 view .LVU101
1072:smtc_ral/src/ral_sx1280.c ****         break;
 355              		.loc 1 1072 24 is_stmt 0 view .LVU102
 356 0050 0A20     		movs	r0, #10
 357 0052 EFE7     		b	.L95
 358              	.L84:
1081:smtc_ral/src/ral_sx1280.c ****         break;
 359              		.loc 1 1081 9 is_stmt 1 view .LVU103
1081:smtc_ral/src/ral_sx1280.c ****         break;
 360              		.loc 1 1081 24 is_stmt 0 view .LVU104
 361 0054 0120     		movs	r0, #1
 362              	.L96:
1099:smtc_ral/src/ral_sx1280.c ****         break;
 363              		.loc 1 1099 24 view .LVU105
 364 0056 8870     		strb	r0, [r1, #2]
1100:smtc_ral/src/ral_sx1280.c ****     default:
 365              		.loc 1 1100 9 is_stmt 1 view .LVU106
1105:smtc_ral/src/ral_sx1280.c ****         .pbl_len_in_symb  = sx1280_convert_pbl_len_from_symb( pbl_len_in_symb ),
 366              		.loc 1 1105 5 view .LVU107
 367              	.LVL29:
 368              	.LBB6:
 369              	.LBI6:
1183:smtc_ral/src/ral_sx1280.c **** {
 370              		.loc 1 1183 36 view .LVU108
 371              	.LBB7:
1185:smtc_ral/src/ral_sx1280.c ****     int      exp  = shift_and_count_trailing_zeros( &mant );
 372              		.loc 1 1185 5 view .LVU109
1186:smtc_ral/src/ral_sx1280.c **** 
 373              		.loc 1 1186 5 view .LVU110
 374              	.LBB8:
 375              	.LBI8:
1288:smtc_ral/src/ral_sx1280.c **** 
1289:smtc_ral/src/ral_sx1280.c **** static uint8_t shift_and_count_trailing_zeros( uint16_t* x )
 376              		.loc 1 1289 16 view .LVU111
 377              	.LBB9:
1290:smtc_ral/src/ral_sx1280.c **** {
1291:smtc_ral/src/ral_sx1280.c ****     uint8_t exponent = 0;
 378              		.loc 1 1291 5 view .LVU112
1292:smtc_ral/src/ral_sx1280.c **** 
1293:smtc_ral/src/ral_sx1280.c ****     if( ( *x & 0x00FF ) == 0 )
 379              		.loc 1 1293 5 view .LVU113
1291:smtc_ral/src/ral_sx1280.c **** 
 380              		.loc 1 1291 13 is_stmt 0 view .LVU114
 381 0058 0021     		movs	r1, #0
 382              	.LVL30:
 383              		.loc 1 1293 7 view .LVU115
 384 005a D8B2     		uxtb	r0, r3
 385 005c 8842     		cmp	r0, r1
ARM GAS  /var/folders/bq/yv49bw8j2kd6w3hsq868qv180000gn/T//ccyOvgmk.s 			page 31


 386 005e 01D1     		bne	.L86
1294:smtc_ral/src/ral_sx1280.c ****     {
1295:smtc_ral/src/ral_sx1280.c ****         exponent += 8;
 387              		.loc 1 1295 9 is_stmt 1 view .LVU116
 388              	.LVL31:
1296:smtc_ral/src/ral_sx1280.c ****         *x >>= 8;
 389              		.loc 1 1296 9 view .LVU117
 390              		.loc 1 1296 12 is_stmt 0 view .LVU118
 391 0060 1B0A     		lsrs	r3, r3, #8
 392              	.LVL32:
1295:smtc_ral/src/ral_sx1280.c ****         *x >>= 8;
 393              		.loc 1 1295 18 view .LVU119
 394 0062 0831     		adds	r1, r1, #8
 395              	.LVL33:
 396              	.L86:
1297:smtc_ral/src/ral_sx1280.c ****     }
1298:smtc_ral/src/ral_sx1280.c ****     if( ( *x & 0x000F ) == 0 )
 397              		.loc 1 1298 5 is_stmt 1 view .LVU120
 398              		.loc 1 1298 7 is_stmt 0 view .LVU121
 399 0064 1807     		lsls	r0, r3, #28
 400 0066 02D1     		bne	.L87
1299:smtc_ral/src/ral_sx1280.c ****     {
1300:smtc_ral/src/ral_sx1280.c ****         exponent += 4;
 401              		.loc 1 1300 9 is_stmt 1 view .LVU122
 402              		.loc 1 1300 18 is_stmt 0 view .LVU123
 403 0068 0431     		adds	r1, r1, #4
 404              	.LVL34:
 405              		.loc 1 1300 18 view .LVU124
 406 006a C9B2     		uxtb	r1, r1
1301:smtc_ral/src/ral_sx1280.c ****         *x >>= 4;
 407              		.loc 1 1301 9 is_stmt 1 view .LVU125
 408              		.loc 1 1301 12 is_stmt 0 view .LVU126
 409 006c 1B09     		lsrs	r3, r3, #4
 410              	.LVL35:
 411              	.L87:
1302:smtc_ral/src/ral_sx1280.c ****     }
1303:smtc_ral/src/ral_sx1280.c ****     if( ( *x & 0x0003 ) == 0 )
 412              		.loc 1 1303 5 is_stmt 1 view .LVU127
 413              		.loc 1 1303 7 is_stmt 0 view .LVU128
 414 006e 9807     		lsls	r0, r3, #30
 415 0070 02D1     		bne	.L88
1304:smtc_ral/src/ral_sx1280.c ****     {
1305:smtc_ral/src/ral_sx1280.c ****         exponent += 2;
 416              		.loc 1 1305 9 is_stmt 1 view .LVU129
 417              		.loc 1 1305 18 is_stmt 0 view .LVU130
 418 0072 0231     		adds	r1, r1, #2
 419              	.LVL36:
 420              		.loc 1 1305 18 view .LVU131
 421 0074 C9B2     		uxtb	r1, r1
1306:smtc_ral/src/ral_sx1280.c ****         *x >>= 2;
 422              		.loc 1 1306 9 is_stmt 1 view .LVU132
 423              		.loc 1 1306 12 is_stmt 0 view .LVU133
 424 0076 9B08     		lsrs	r3, r3, #2
 425              	.LVL37:
 426              	.L88:
1307:smtc_ral/src/ral_sx1280.c ****     }
1308:smtc_ral/src/ral_sx1280.c ****     if( ( *x & 0x0001 ) == 0 )
ARM GAS  /var/folders/bq/yv49bw8j2kd6w3hsq868qv180000gn/T//ccyOvgmk.s 			page 32


 427              		.loc 1 1308 5 is_stmt 1 view .LVU134
 428              		.loc 1 1308 7 is_stmt 0 view .LVU135
 429 0078 D807     		lsls	r0, r3, #31
 430 007a 02D4     		bmi	.L90
1309:smtc_ral/src/ral_sx1280.c ****     {
1310:smtc_ral/src/ral_sx1280.c ****         exponent += 1;
 431              		.loc 1 1310 9 is_stmt 1 view .LVU136
 432              		.loc 1 1310 18 is_stmt 0 view .LVU137
 433 007c 0131     		adds	r1, r1, #1
 434              	.LVL38:
 435              		.loc 1 1310 18 view .LVU138
 436 007e C9B2     		uxtb	r1, r1
1311:smtc_ral/src/ral_sx1280.c ****         *x >>= 1;
 437              		.loc 1 1311 9 is_stmt 1 view .LVU139
 438              		.loc 1 1311 12 is_stmt 0 view .LVU140
 439 0080 5B08     		lsrs	r3, r3, #1
 440              	.LVL39:
1312:smtc_ral/src/ral_sx1280.c ****     }
1313:smtc_ral/src/ral_sx1280.c **** 
1314:smtc_ral/src/ral_sx1280.c ****     return exponent;
 441              		.loc 1 1314 5 is_stmt 1 view .LVU141
 442              		.loc 1 1314 5 is_stmt 0 view .LVU142
 443              	.LBE9:
 444              	.LBE8:
1189:smtc_ral/src/ral_sx1280.c ****     {
 445              		.loc 1 1189 5 is_stmt 1 view .LVU143
 446              	.L90:
1189:smtc_ral/src/ral_sx1280.c ****     {
 447              		.loc 1 1189 10 view .LVU144
 448 0082 0F2B     		cmp	r3, #15
 449 0084 1AD8     		bhi	.L91
1196:smtc_ral/src/ral_sx1280.c ****         .mant = mant,
 450              		.loc 1 1196 5 view .LVU145
 451              	.LVL40:
1196:smtc_ral/src/ral_sx1280.c ****         .mant = mant,
 452              		.loc 1 1196 5 is_stmt 0 view .LVU146
 453              	.LBE7:
 454              	.LBE6:
1107:smtc_ral/src/ral_sx1280.c ****         .pld_len_in_bytes = params->pld_len_in_bytes,
 455              		.loc 1 1107 81 view .LVU147
 456 0086 E07A     		ldrb	r0, [r4, #11]
1108:smtc_ral/src/ral_sx1280.c ****         .crc_is_on        = params->crc_is_on,
 457              		.loc 1 1108 35 view .LVU148
 458 0088 267B     		ldrb	r6, [r4, #12]
1107:smtc_ral/src/ral_sx1280.c ****         .pld_len_in_bytes = params->pld_len_in_bytes,
 459              		.loc 1 1107 81 view .LVU149
 460 008a 451E     		subs	r5, r0, #1
 461 008c A841     		sbcs	r0, r0, r5
1109:smtc_ral/src/ral_sx1280.c ****         .invert_iq_is_on  = params->invert_iq_is_on,
 462              		.loc 1 1109 35 view .LVU150
 463 008e 657B     		ldrb	r5, [r4, #13]
1110:smtc_ral/src/ral_sx1280.c ****     };
 464              		.loc 1 1110 35 view .LVU151
 465 0090 A47B     		ldrb	r4, [r4, #14]
 466              	.LVL41:
1107:smtc_ral/src/ral_sx1280.c ****         .pld_len_in_bytes = params->pld_len_in_bytes,
 467              		.loc 1 1107 81 view .LVU152
ARM GAS  /var/folders/bq/yv49bw8j2kd6w3hsq868qv180000gn/T//ccyOvgmk.s 			page 33


 468 0092 C001     		lsls	r0, r0, #7
1105:smtc_ral/src/ral_sx1280.c ****         .pbl_len_in_symb  = sx1280_convert_pbl_len_from_symb( pbl_len_in_symb ),
 469              		.loc 1 1105 17 view .LVU153
 470 0094 9070     		strb	r0, [r2, #2]
 471 0096 1370     		strb	r3, [r2]
1113:smtc_ral/src/ral_sx1280.c **** }
 472              		.loc 1 1113 12 view .LVU154
 473 0098 0020     		movs	r0, #0
1105:smtc_ral/src/ral_sx1280.c ****         .pbl_len_in_symb  = sx1280_convert_pbl_len_from_symb( pbl_len_in_symb ),
 474              		.loc 1 1105 17 view .LVU155
 475 009a 5170     		strb	r1, [r2, #1]
 476 009c D670     		strb	r6, [r2, #3]
 477 009e 1571     		strb	r5, [r2, #4]
 478 00a0 5471     		strb	r4, [r2, #5]
1113:smtc_ral/src/ral_sx1280.c **** }
 479              		.loc 1 1113 5 is_stmt 1 view .LVU156
1113:smtc_ral/src/ral_sx1280.c **** }
 480              		.loc 1 1113 12 is_stmt 0 view .LVU157
 481 00a2 C5E7     		b	.L75
 482              	.LVL42:
 483              	.L83:
1084:smtc_ral/src/ral_sx1280.c ****         break;
 484              		.loc 1 1084 9 is_stmt 1 view .LVU158
1084:smtc_ral/src/ral_sx1280.c ****         break;
 485              		.loc 1 1084 24 is_stmt 0 view .LVU159
 486 00a4 0220     		movs	r0, #2
 487 00a6 D6E7     		b	.L96
 488              	.L82:
1087:smtc_ral/src/ral_sx1280.c ****         break;
 489              		.loc 1 1087 9 is_stmt 1 view .LVU160
1087:smtc_ral/src/ral_sx1280.c ****         break;
 490              		.loc 1 1087 24 is_stmt 0 view .LVU161
 491 00a8 0320     		movs	r0, #3
 492 00aa D4E7     		b	.L96
 493              	.L81:
1090:smtc_ral/src/ral_sx1280.c ****         break;
 494              		.loc 1 1090 9 is_stmt 1 view .LVU162
1090:smtc_ral/src/ral_sx1280.c ****         break;
 495              		.loc 1 1090 24 is_stmt 0 view .LVU163
 496 00ac 0420     		movs	r0, #4
 497 00ae D2E7     		b	.L96
 498              	.L80:
1093:smtc_ral/src/ral_sx1280.c ****         break;
 499              		.loc 1 1093 9 is_stmt 1 view .LVU164
1093:smtc_ral/src/ral_sx1280.c ****         break;
 500              		.loc 1 1093 24 is_stmt 0 view .LVU165
 501 00b0 0520     		movs	r0, #5
 502 00b2 D0E7     		b	.L96
 503              	.L79:
1096:smtc_ral/src/ral_sx1280.c ****         break;
 504              		.loc 1 1096 9 is_stmt 1 view .LVU166
1096:smtc_ral/src/ral_sx1280.c ****         break;
 505              		.loc 1 1096 24 is_stmt 0 view .LVU167
 506 00b4 0620     		movs	r0, #6
 507 00b6 CEE7     		b	.L96
 508              	.L77:
1099:smtc_ral/src/ral_sx1280.c ****         break;
ARM GAS  /var/folders/bq/yv49bw8j2kd6w3hsq868qv180000gn/T//ccyOvgmk.s 			page 34


 509              		.loc 1 1099 9 is_stmt 1 view .LVU168
1099:smtc_ral/src/ral_sx1280.c ****         break;
 510              		.loc 1 1099 24 is_stmt 0 view .LVU169
 511 00b8 0720     		movs	r0, #7
 512 00ba CCE7     		b	.L96
 513              	.LVL43:
 514              	.L91:
 515              	.LBB11:
 516              	.LBB10:
1192:smtc_ral/src/ral_sx1280.c ****         exp++;
 517              		.loc 1 1192 9 is_stmt 1 view .LVU170
1192:smtc_ral/src/ral_sx1280.c ****         exp++;
 518              		.loc 1 1192 23 is_stmt 0 view .LVU171
 519 00bc 0133     		adds	r3, r3, #1
 520              	.LVL44:
1192:smtc_ral/src/ral_sx1280.c ****         exp++;
 521              		.loc 1 1192 29 view .LVU172
 522 00be 5B10     		asrs	r3, r3, #1
1192:smtc_ral/src/ral_sx1280.c ****         exp++;
 523              		.loc 1 1192 14 view .LVU173
 524 00c0 9BB2     		uxth	r3, r3
 525              	.LVL45:
1193:smtc_ral/src/ral_sx1280.c ****     }
 526              		.loc 1 1193 9 is_stmt 1 view .LVU174
1193:smtc_ral/src/ral_sx1280.c ****     }
 527              		.loc 1 1193 12 is_stmt 0 view .LVU175
 528 00c2 0131     		adds	r1, r1, #1
 529              	.LVL46:
1193:smtc_ral/src/ral_sx1280.c ****     }
 530              		.loc 1 1193 12 view .LVU176
 531 00c4 DDE7     		b	.L90
 532              	.LBE10:
 533              	.LBE11:
 534              		.cfi_endproc
 535              	.LFE41:
 537              		.section	.text.ral_sx1280_convert_gfsk_params_from_radio,"ax",%progbits
 538              		.align	1
 539              		.syntax unified
 540              		.code	16
 541              		.thumb_func
 542              		.fpu softvfp
 544              	ral_sx1280_convert_gfsk_params_from_radio:
 545              	.LVL47:
 546              	.LFB40:
 980:smtc_ral/src/ral_sx1280.c ****     ral_status_t status = RAL_STATUS_ERROR;
 547              		.loc 1 980 1 is_stmt 1 view -0
 548              		.cfi_startproc
 549              		@ args = 0, pretend = 0, frame = 8
 550              		@ frame_needed = 0, uses_anonymous_args = 0
 981:smtc_ral/src/ral_sx1280.c **** 
 551              		.loc 1 981 5 view .LVU178
 983:smtc_ral/src/ral_sx1280.c ****     sx1280_gfsk_ble_br_bw_t           br_bw_dsb_param = 0;
 552              		.loc 1 983 5 view .LVU179
 980:smtc_ral/src/ral_sx1280.c ****     ral_status_t status = RAL_STATUS_ERROR;
 553              		.loc 1 980 1 is_stmt 0 view .LVU180
 554 0000 F7B5     		push	{r0, r1, r2, r4, r5, r6, r7, lr}
 555              		.cfi_def_cfa_offset 32
ARM GAS  /var/folders/bq/yv49bw8j2kd6w3hsq868qv180000gn/T//ccyOvgmk.s 			page 35


 556              		.cfi_offset 0, -32
 557              		.cfi_offset 1, -28
 558              		.cfi_offset 2, -24
 559              		.cfi_offset 4, -20
 560              		.cfi_offset 5, -16
 561              		.cfi_offset 6, -12
 562              		.cfi_offset 7, -8
 563              		.cfi_offset 14, -4
 983:smtc_ral/src/ral_sx1280.c ****     sx1280_gfsk_ble_br_bw_t           br_bw_dsb_param = 0;
 564              		.loc 1 983 39 view .LVU181
 565 0002 C369     		ldr	r3, [r0, #28]
 980:smtc_ral/src/ral_sx1280.c ****     ral_status_t status = RAL_STATUS_ERROR;
 566              		.loc 1 980 1 view .LVU182
 567 0004 0E00     		movs	r6, r1
 568 0006 1500     		movs	r5, r2
 983:smtc_ral/src/ral_sx1280.c ****     sx1280_gfsk_ble_br_bw_t           br_bw_dsb_param = 0;
 569              		.loc 1 983 39 view .LVU183
 570 0008 5900     		lsls	r1, r3, #1
 571              	.LVL48:
 984:smtc_ral/src/ral_sx1280.c ****     sx1280_gfsk_crc_types_t           crc_type;
 572              		.loc 1 984 5 is_stmt 1 view .LVU184
 984:smtc_ral/src/ral_sx1280.c ****     sx1280_gfsk_crc_types_t           crc_type;
 573              		.loc 1 984 39 is_stmt 0 view .LVU185
 574 000a 6A46     		mov	r2, sp
 575              	.LVL49:
 984:smtc_ral/src/ral_sx1280.c ****     sx1280_gfsk_crc_types_t           crc_type;
 576              		.loc 1 984 39 view .LVU186
 577 000c 0023     		movs	r3, #0
 980:smtc_ral/src/ral_sx1280.c ****     ral_status_t status = RAL_STATUS_ERROR;
 578              		.loc 1 980 1 view .LVU187
 579 000e 0400     		movs	r4, r0
 984:smtc_ral/src/ral_sx1280.c ****     sx1280_gfsk_crc_types_t           crc_type;
 580              		.loc 1 984 39 view .LVU188
 581 0010 D371     		strb	r3, [r2, #7]
 985:smtc_ral/src/ral_sx1280.c ****     sx1280_gfsk_flrc_ble_mod_shapes_t pulse_shape;
 582              		.loc 1 985 5 is_stmt 1 view .LVU189
 986:smtc_ral/src/ral_sx1280.c **** 
 583              		.loc 1 986 5 view .LVU190
 988:smtc_ral/src/ral_sx1280.c ****     if( status != RAL_STATUS_OK )
 584              		.loc 1 988 5 view .LVU191
 988:smtc_ral/src/ral_sx1280.c ****     if( status != RAL_STATUS_OK )
 585              		.loc 1 988 31 is_stmt 0 view .LVU192
 586 0012 4068     		ldr	r0, [r0, #4]
 587              	.LVL50:
 988:smtc_ral/src/ral_sx1280.c ****     if( status != RAL_STATUS_OK )
 588              		.loc 1 988 31 view .LVU193
 589 0014 0732     		adds	r2, r2, #7
 590 0016 FFF7FEFF 		bl	sx1280_get_gfsk_br_bw_param
 591              	.LVL51:
 989:smtc_ral/src/ral_sx1280.c ****     {
 592              		.loc 1 989 5 is_stmt 1 view .LVU194
 989:smtc_ral/src/ral_sx1280.c ****     {
 593              		.loc 1 989 7 is_stmt 0 view .LVU195
 594 001a 0028     		cmp	r0, #0
 595 001c 2AD1     		bne	.L98
 994:smtc_ral/src/ral_sx1280.c ****     {
 596              		.loc 1 994 5 is_stmt 1 view .LVU196
ARM GAS  /var/folders/bq/yv49bw8j2kd6w3hsq868qv180000gn/T//ccyOvgmk.s 			page 36


 994:smtc_ral/src/ral_sx1280.c ****     {
 597              		.loc 1 994 19 is_stmt 0 view .LVU197
 598 001e A37C     		ldrb	r3, [r4, #18]
 599 0020 022B     		cmp	r3, #2
 600 0022 2CD8     		bhi	.L105
1009:smtc_ral/src/ral_sx1280.c ****     {
 601              		.loc 1 1009 19 view .LVU198
 602 0024 A27E     		ldrb	r2, [r4, #26]
 603 0026 1B01     		lsls	r3, r3, #4
 604 0028 DBB2     		uxtb	r3, r3
 605              	.LVL52:
1009:smtc_ral/src/ral_sx1280.c ****     {
 606              		.loc 1 1009 5 is_stmt 1 view .LVU199
 607 002a 022A     		cmp	r2, #2
 608 002c 23D0     		beq	.L103
 609 002e 042A     		cmp	r2, #4
 610 0030 23D0     		beq	.L104
 611 0032 002A     		cmp	r2, #0
 612 0034 23D1     		bne	.L105
 613              	.L99:
 614              	.LVL53:
1024:smtc_ral/src/ral_sx1280.c ****         .br_bw     = br_bw_dsb_param,
 615              		.loc 1 1024 5 view .LVU200
1024:smtc_ral/src/ral_sx1280.c ****         .br_bw     = br_bw_dsb_param,
 616              		.loc 1 1024 17 is_stmt 0 view .LVU201
 617 0036 6946     		mov	r1, sp
 618 0038 C979     		ldrb	r1, [r1, #7]
 619 003a B270     		strb	r2, [r6, #2]
1030:smtc_ral/src/ral_sx1280.c ****         .pbl_len          = ( sx1280_gfsk_pbl_len_t )( ( ( params->pbl_len_in_bytes << 3 ) << 2 ) -
 620              		.loc 1 1030 5 is_stmt 1 view .LVU202
1024:smtc_ral/src/ral_sx1280.c ****         .br_bw     = br_bw_dsb_param,
 621              		.loc 1 1024 17 is_stmt 0 view .LVU203
 622 003c 3170     		strb	r1, [r6]
 623 003e 0321     		movs	r1, #3
 624 0040 7170     		strb	r1, [r6, #1]
1034:smtc_ral/src/ral_sx1280.c ****         .pld_len_in_bytes = params->pld_len_in_bytes,
 625              		.loc 1 1034 79 view .LVU204
 626 0042 217C     		ldrb	r1, [r4, #16]
1031:smtc_ral/src/ral_sx1280.c ****         .sync_word_len    = ( sx1280_gfsk_sync_word_len_t )( ( params->sync_word_len_in_bytes - 1 )
 627              		.loc 1 1031 92 view .LVU205
 628 0044 2789     		ldrh	r7, [r4, #8]
1034:smtc_ral/src/ral_sx1280.c ****         .pld_len_in_bytes = params->pld_len_in_bytes,
 629              		.loc 1 1034 79 view .LVU206
 630 0046 4A42     		rsbs	r2, r1, #0
 631 0048 5141     		adcs	r1, r1, r2
 632              	.LVL54:
1035:smtc_ral/src/ral_sx1280.c ****         .crc_type         = crc_type,
 633              		.loc 1 1035 35 view .LVU207
 634 004a 627C     		ldrb	r2, [r4, #17]
1032:smtc_ral/src/ral_sx1280.c ****         .match_sync_word  = SX1280_GFSK_FLRC_RX_MATCH_SYNCWORD_1,
 635              		.loc 1 1032 95 view .LVU208
 636 004c A67A     		ldrb	r6, [r4, #10]
 637              	.LVL55:
1035:smtc_ral/src/ral_sx1280.c ****         .crc_type         = crc_type,
 638              		.loc 1 1035 35 view .LVU209
 639 004e 9446     		mov	ip, r2
1037:smtc_ral/src/ral_sx1280.c ****     };
ARM GAS  /var/folders/bq/yv49bw8j2kd6w3hsq868qv180000gn/T//ccyOvgmk.s 			page 37


 640              		.loc 1 1037 85 view .LVU210
 641 0050 E27C     		ldrb	r2, [r4, #19]
1034:smtc_ral/src/ral_sx1280.c ****         .pld_len_in_bytes = params->pld_len_in_bytes,
 642              		.loc 1 1034 79 view .LVU211
 643 0052 4901     		lsls	r1, r1, #5
1037:smtc_ral/src/ral_sx1280.c ****     };
 644              		.loc 1 1037 85 view .LVU212
 645 0054 5442     		rsbs	r4, r2, #0
 646 0056 6241     		adcs	r2, r2, r4
 647              	.LVL56:
1030:smtc_ral/src/ral_sx1280.c ****         .pbl_len          = ( sx1280_gfsk_pbl_len_t )( ( ( params->pbl_len_in_bytes << 3 ) << 2 ) -
 648              		.loc 1 1030 17 view .LVU213
 649 0058 E970     		strb	r1, [r5, #3]
 650              	.LVL57:
1030:smtc_ral/src/ral_sx1280.c ****         .pbl_len          = ( sx1280_gfsk_pbl_len_t )( ( ( params->pbl_len_in_bytes << 3 ) << 2 ) -
 651              		.loc 1 1030 17 view .LVU214
 652 005a 1024     		movs	r4, #16
 653 005c 6146     		mov	r1, ip
1031:smtc_ral/src/ral_sx1280.c ****         .sync_word_len    = ( sx1280_gfsk_sync_word_len_t )( ( params->sync_word_len_in_bytes - 1 )
 654              		.loc 1 1031 92 view .LVU215
 655 005e 7F01     		lsls	r7, r7, #5
1032:smtc_ral/src/ral_sx1280.c ****         .match_sync_word  = SX1280_GFSK_FLRC_RX_MATCH_SYNCWORD_1,
 656              		.loc 1 1032 95 view .LVU216
 657 0060 013E     		subs	r6, r6, #1
1031:smtc_ral/src/ral_sx1280.c ****         .sync_word_len    = ( sx1280_gfsk_sync_word_len_t )( ( params->sync_word_len_in_bytes - 1 )
 658              		.loc 1 1031 99 view .LVU217
 659 0062 103F     		subs	r7, r7, #16
1032:smtc_ral/src/ral_sx1280.c ****         .match_sync_word  = SX1280_GFSK_FLRC_RX_MATCH_SYNCWORD_1,
 660              		.loc 1 1032 101 view .LVU218
 661 0064 7600     		lsls	r6, r6, #1
1037:smtc_ral/src/ral_sx1280.c ****     };
 662              		.loc 1 1037 85 view .LVU219
 663 0066 D200     		lsls	r2, r2, #3
1030:smtc_ral/src/ral_sx1280.c ****         .pbl_len          = ( sx1280_gfsk_pbl_len_t )( ( ( params->pbl_len_in_bytes << 3 ) << 2 ) -
 664              		.loc 1 1030 17 view .LVU220
 665 0068 2F70     		strb	r7, [r5]
 666 006a 6E70     		strb	r6, [r5, #1]
 667 006c AC70     		strb	r4, [r5, #2]
 668 006e 2971     		strb	r1, [r5, #4]
 669 0070 6B71     		strb	r3, [r5, #5]
 670 0072 AA71     		strb	r2, [r5, #6]
1040:smtc_ral/src/ral_sx1280.c **** }
 671              		.loc 1 1040 5 is_stmt 1 view .LVU221
 672              	.LVL58:
 673              	.L98:
1041:smtc_ral/src/ral_sx1280.c **** 
 674              		.loc 1 1041 1 is_stmt 0 view .LVU222
 675              		@ sp needed
 676              	.LVL59:
1041:smtc_ral/src/ral_sx1280.c **** 
 677              		.loc 1 1041 1 view .LVU223
 678 0074 FEBD     		pop	{r1, r2, r3, r4, r5, r6, r7, pc}
 679              	.LVL60:
 680              	.L103:
1009:smtc_ral/src/ral_sx1280.c ****     {
 681              		.loc 1 1009 5 view .LVU224
 682 0076 2022     		movs	r2, #32
ARM GAS  /var/folders/bq/yv49bw8j2kd6w3hsq868qv180000gn/T//ccyOvgmk.s 			page 38


 683 0078 DDE7     		b	.L99
 684              	.L104:
1018:smtc_ral/src/ral_sx1280.c ****         break;
 685              		.loc 1 1018 21 view .LVU225
 686 007a 1022     		movs	r2, #16
 687 007c DBE7     		b	.L99
 688              	.LVL61:
 689              	.L105:
1009:smtc_ral/src/ral_sx1280.c ****     {
 690              		.loc 1 1009 5 view .LVU226
 691 007e 0220     		movs	r0, #2
 692              	.LVL62:
1009:smtc_ral/src/ral_sx1280.c ****     {
 693              		.loc 1 1009 5 view .LVU227
 694 0080 F8E7     		b	.L98
 695              		.cfi_endproc
 696              	.LFE40:
 698              		.section	.text.ral_sx1280_convert_flrc_params_from_radio,"ax",%progbits
 699              		.align	1
 700              		.syntax unified
 701              		.code	16
 702              		.thumb_func
 703              		.fpu softvfp
 705              	ral_sx1280_convert_flrc_params_from_radio:
 706              	.LVL63:
 707              	.LFB42:
1119:smtc_ral/src/ral_sx1280.c ****     ral_status_t status = RAL_STATUS_ERROR;
 708              		.loc 1 1119 1 is_stmt 1 view -0
 709              		.cfi_startproc
 710              		@ args = 0, pretend = 0, frame = 8
 711              		@ frame_needed = 0, uses_anonymous_args = 0
1120:smtc_ral/src/ral_sx1280.c **** 
 712              		.loc 1 1120 5 view .LVU229
1122:smtc_ral/src/ral_sx1280.c ****     sx1280_flrc_br_bw_t               br_bw_dsb_param = 0;
 713              		.loc 1 1122 5 view .LVU230
1119:smtc_ral/src/ral_sx1280.c ****     ral_status_t status = RAL_STATUS_ERROR;
 714              		.loc 1 1119 1 is_stmt 0 view .LVU231
 715 0000 73B5     		push	{r0, r1, r4, r5, r6, lr}
 716              		.cfi_def_cfa_offset 24
 717              		.cfi_offset 0, -24
 718              		.cfi_offset 1, -20
 719              		.cfi_offset 4, -16
 720              		.cfi_offset 5, -12
 721              		.cfi_offset 6, -8
 722              		.cfi_offset 14, -4
1122:smtc_ral/src/ral_sx1280.c ****     sx1280_flrc_br_bw_t               br_bw_dsb_param = 0;
 723              		.loc 1 1122 39 view .LVU232
 724 0002 036A     		ldr	r3, [r0, #32]
1119:smtc_ral/src/ral_sx1280.c ****     ral_status_t status = RAL_STATUS_ERROR;
 725              		.loc 1 1119 1 view .LVU233
 726 0004 0E00     		movs	r6, r1
 727 0006 1400     		movs	r4, r2
1122:smtc_ral/src/ral_sx1280.c ****     sx1280_flrc_br_bw_t               br_bw_dsb_param = 0;
 728              		.loc 1 1122 39 view .LVU234
 729 0008 5900     		lsls	r1, r3, #1
 730              	.LVL64:
1123:smtc_ral/src/ral_sx1280.c ****     sx1280_gfsk_flrc_ble_mod_shapes_t mod_shape;
ARM GAS  /var/folders/bq/yv49bw8j2kd6w3hsq868qv180000gn/T//ccyOvgmk.s 			page 39


 731              		.loc 1 1123 5 is_stmt 1 view .LVU235
1123:smtc_ral/src/ral_sx1280.c ****     sx1280_gfsk_flrc_ble_mod_shapes_t mod_shape;
 732              		.loc 1 1123 39 is_stmt 0 view .LVU236
 733 000a 6A46     		mov	r2, sp
 734              	.LVL65:
1123:smtc_ral/src/ral_sx1280.c ****     sx1280_gfsk_flrc_ble_mod_shapes_t mod_shape;
 735              		.loc 1 1123 39 view .LVU237
 736 000c 0023     		movs	r3, #0
1119:smtc_ral/src/ral_sx1280.c ****     ral_status_t status = RAL_STATUS_ERROR;
 737              		.loc 1 1119 1 view .LVU238
 738 000e 0500     		movs	r5, r0
1123:smtc_ral/src/ral_sx1280.c ****     sx1280_gfsk_flrc_ble_mod_shapes_t mod_shape;
 739              		.loc 1 1123 39 view .LVU239
 740 0010 D371     		strb	r3, [r2, #7]
1124:smtc_ral/src/ral_sx1280.c **** 
 741              		.loc 1 1124 5 is_stmt 1 view .LVU240
1126:smtc_ral/src/ral_sx1280.c ****     if( status != RAL_STATUS_OK )
 742              		.loc 1 1126 5 view .LVU241
1126:smtc_ral/src/ral_sx1280.c ****     if( status != RAL_STATUS_OK )
 743              		.loc 1 1126 31 is_stmt 0 view .LVU242
 744 0012 4068     		ldr	r0, [r0, #4]
 745              	.LVL66:
1126:smtc_ral/src/ral_sx1280.c ****     if( status != RAL_STATUS_OK )
 746              		.loc 1 1126 31 view .LVU243
 747 0014 0732     		adds	r2, r2, #7
 748 0016 FFF7FEFF 		bl	sx1280_get_flrc_br_bw_param
 749              	.LVL67:
1126:smtc_ral/src/ral_sx1280.c ****     if( status != RAL_STATUS_OK )
 750              		.loc 1 1126 31 view .LVU244
 751 001a 031E     		subs	r3, r0, #0
 752              	.LVL68:
1127:smtc_ral/src/ral_sx1280.c ****     {
 753              		.loc 1 1127 5 is_stmt 1 view .LVU245
1127:smtc_ral/src/ral_sx1280.c ****     {
 754              		.loc 1 1127 7 is_stmt 0 view .LVU246
 755 001c 26D1     		bne	.L109
1132:smtc_ral/src/ral_sx1280.c ****     {
 756              		.loc 1 1132 5 is_stmt 1 view .LVU247
1132:smtc_ral/src/ral_sx1280.c ****     {
 757              		.loc 1 1132 19 is_stmt 0 view .LVU248
 758 001e 2A7F     		ldrb	r2, [r5, #28]
 759 0020 022A     		cmp	r2, #2
 760 0022 2CD8     		bhi	.L120
1147:smtc_ral/src/ral_sx1280.c ****         .br_bw     = br_bw_dsb_param,
 761              		.loc 1 1147 17 view .LVU249
 762 0024 6846     		mov	r0, sp
 763              	.LVL69:
1147:smtc_ral/src/ral_sx1280.c ****         .br_bw     = br_bw_dsb_param,
 764              		.loc 1 1147 17 view .LVU250
 765 0026 1749     		ldr	r1, .L122
 766 0028 C079     		ldrb	r0, [r0, #7]
 767 002a 895C     		ldrb	r1, [r1, r2]
 768              	.LVL70:
1147:smtc_ral/src/ral_sx1280.c ****         .br_bw     = br_bw_dsb_param,
 769              		.loc 1 1147 5 is_stmt 1 view .LVU251
1149:smtc_ral/src/ral_sx1280.c ****         .mod_shape = mod_shape,
 770              		.loc 1 1149 55 is_stmt 0 view .LVU252
ARM GAS  /var/folders/bq/yv49bw8j2kd6w3hsq868qv180000gn/T//ccyOvgmk.s 			page 40


 771 002c 2A7A     		ldrb	r2, [r5, #8]
1147:smtc_ral/src/ral_sx1280.c ****         .br_bw     = br_bw_dsb_param,
 772              		.loc 1 1147 17 view .LVU253
 773 002e 3070     		strb	r0, [r6]
1149:smtc_ral/src/ral_sx1280.c ****         .mod_shape = mod_shape,
 774              		.loc 1 1149 55 view .LVU254
 775 0030 5200     		lsls	r2, r2, #1
1147:smtc_ral/src/ral_sx1280.c ****         .br_bw     = br_bw_dsb_param,
 776              		.loc 1 1147 17 view .LVU255
 777 0032 7270     		strb	r2, [r6, #1]
 778 0034 B170     		strb	r1, [r6, #2]
1153:smtc_ral/src/ral_sx1280.c ****         .pbl_len          = ( sx1280_flrc_pbl_len_t )( ( ( params->pbl_len_in_bytes << 3 ) << 2 ) -
 779              		.loc 1 1153 5 is_stmt 1 view .LVU256
1155:smtc_ral/src/ral_sx1280.c ****         .match_sync_word  = SX1280_GFSK_FLRC_RX_MATCH_SYNCWORD_1,
 780              		.loc 1 1155 92 is_stmt 0 view .LVU257
 781 0036 297B     		ldrb	r1, [r5, #12]
 782              	.LVL71:
1154:smtc_ral/src/ral_sx1280.c ****         .sync_word_len    = ( params->sync_word_is_on == true ) ? SX1280_FLRC_SYNC_WORD_ON : SX1280
 783              		.loc 1 1154 92 view .LVU258
 784 0038 6889     		ldrh	r0, [r5, #10]
1155:smtc_ral/src/ral_sx1280.c ****         .match_sync_word  = SX1280_GFSK_FLRC_RX_MATCH_SYNCWORD_1,
 785              		.loc 1 1155 92 view .LVU259
 786 003a 4A1E     		subs	r2, r1, #1
 787 003c 9141     		sbcs	r1, r1, r2
1157:smtc_ral/src/ral_sx1280.c ****         .pld_len_in_bytes = params->pld_len_in_bytes,
 788              		.loc 1 1157 79 view .LVU260
 789 003e 2A7D     		ldrb	r2, [r5, #20]
1155:smtc_ral/src/ral_sx1280.c ****         .match_sync_word  = SX1280_GFSK_FLRC_RX_MATCH_SYNCWORD_1,
 790              		.loc 1 1155 92 view .LVU261
 791 0040 8900     		lsls	r1, r1, #2
1157:smtc_ral/src/ral_sx1280.c ****         .pld_len_in_bytes = params->pld_len_in_bytes,
 792              		.loc 1 1157 79 view .LVU262
 793 0042 5642     		rsbs	r6, r2, #0
 794 0044 7241     		adcs	r2, r2, r6
 795              	.LVL72:
1158:smtc_ral/src/ral_sx1280.c ****         .crc_type         = SX1280_FLRC_CRC_OFF,
 796              		.loc 1 1158 35 view .LVU263
 797 0046 6E7D     		ldrb	r6, [r5, #21]
1153:smtc_ral/src/ral_sx1280.c ****         .pbl_len          = ( sx1280_flrc_pbl_len_t )( ( ( params->pbl_len_in_bytes << 3 ) << 2 ) -
 798              		.loc 1 1153 17 view .LVU264
 799 0048 6170     		strb	r1, [r4, #1]
 800              	.LVL73:
1153:smtc_ral/src/ral_sx1280.c ****         .pbl_len          = ( sx1280_flrc_pbl_len_t )( ( ( params->pbl_len_in_bytes << 3 ) << 2 ) -
 801              		.loc 1 1153 17 view .LVU265
 802 004a 1021     		movs	r1, #16
1154:smtc_ral/src/ral_sx1280.c ****         .sync_word_len    = ( params->sync_word_is_on == true ) ? SX1280_FLRC_SYNC_WORD_ON : SX1280
 803              		.loc 1 1154 92 view .LVU266
 804 004c 4001     		lsls	r0, r0, #5
1154:smtc_ral/src/ral_sx1280.c ****         .sync_word_len    = ( params->sync_word_is_on == true ) ? SX1280_FLRC_SYNC_WORD_ON : SX1280
 805              		.loc 1 1154 99 view .LVU267
 806 004e 1038     		subs	r0, r0, #16
1157:smtc_ral/src/ral_sx1280.c ****         .pld_len_in_bytes = params->pld_len_in_bytes,
 807              		.loc 1 1157 79 view .LVU268
 808 0050 5201     		lsls	r2, r2, #5
1153:smtc_ral/src/ral_sx1280.c ****         .pbl_len          = ( sx1280_flrc_pbl_len_t )( ( ( params->pbl_len_in_bytes << 3 ) << 2 ) -
 809              		.loc 1 1153 17 view .LVU269
 810 0052 2070     		strb	r0, [r4]
ARM GAS  /var/folders/bq/yv49bw8j2kd6w3hsq868qv180000gn/T//ccyOvgmk.s 			page 41


 811 0054 A170     		strb	r1, [r4, #2]
 812 0056 E270     		strb	r2, [r4, #3]
 813 0058 2671     		strb	r6, [r4, #4]
 814 005a 6371     		strb	r3, [r4, #5]
1162:smtc_ral/src/ral_sx1280.c ****     {
 815              		.loc 1 1162 5 is_stmt 1 view .LVU270
1162:smtc_ral/src/ral_sx1280.c ****     {
 816              		.loc 1 1162 19 is_stmt 0 view .LVU271
 817 005c A87D     		ldrb	r0, [r5, #22]
 818 005e 0328     		cmp	r0, #3
 819 0060 0DD8     		bhi	.L120
 820 0062 FFF7FEFF 		bl	__gnu_thumb1_case_uqi
 821              	.L113:
 822 0066 02       		.byte	(.L116-.L113)/2
 823 0067 05       		.byte	(.L115-.L113)/2
 824 0068 07       		.byte	(.L114-.L113)/2
 825 0069 0A       		.byte	(.L112-.L113)/2
 826              		.p2align 1
 827              	.L116:
 828 006a 0300     		movs	r3, r0
 829              	.L109:
1181:smtc_ral/src/ral_sx1280.c **** 
 830              		.loc 1 1181 1 view .LVU272
 831 006c 1800     		movs	r0, r3
 832              		@ sp needed
 833              	.LVL74:
 834              	.LVL75:
1181:smtc_ral/src/ral_sx1280.c **** 
 835              		.loc 1 1181 1 view .LVU273
 836 006e 76BD     		pop	{r1, r2, r4, r5, r6, pc}
 837              	.LVL76:
 838              	.L115:
1168:smtc_ral/src/ral_sx1280.c ****         break;
 839              		.loc 1 1168 9 is_stmt 1 view .LVU274
1168:smtc_ral/src/ral_sx1280.c ****         break;
 840              		.loc 1 1168 30 is_stmt 0 view .LVU275
 841 0070 6171     		strb	r1, [r4, #5]
1169:smtc_ral/src/ral_sx1280.c ****     case RAL_FLRC_CRC_3_BYTES:
 842              		.loc 1 1169 9 is_stmt 1 view .LVU276
 843 0072 FBE7     		b	.L109
 844              	.L114:
1171:smtc_ral/src/ral_sx1280.c ****         break;
 845              		.loc 1 1171 9 view .LVU277
1171:smtc_ral/src/ral_sx1280.c ****         break;
 846              		.loc 1 1171 30 is_stmt 0 view .LVU278
 847 0074 2022     		movs	r2, #32
 848              	.L121:
1174:smtc_ral/src/ral_sx1280.c ****         break;
 849              		.loc 1 1174 30 view .LVU279
 850 0076 6271     		strb	r2, [r4, #5]
1175:smtc_ral/src/ral_sx1280.c ****     default:
 851              		.loc 1 1175 9 is_stmt 1 view .LVU280
 852 0078 F8E7     		b	.L109
 853              	.L112:
1174:smtc_ral/src/ral_sx1280.c ****         break;
 854              		.loc 1 1174 9 view .LVU281
1174:smtc_ral/src/ral_sx1280.c ****         break;
ARM GAS  /var/folders/bq/yv49bw8j2kd6w3hsq868qv180000gn/T//ccyOvgmk.s 			page 42


 855              		.loc 1 1174 30 is_stmt 0 view .LVU282
 856 007a 3022     		movs	r2, #48
 857 007c FBE7     		b	.L121
 858              	.L120:
1177:smtc_ral/src/ral_sx1280.c ****     }
 859              		.loc 1 1177 16 view .LVU283
 860 007e 0223     		movs	r3, #2
 861 0080 F4E7     		b	.L109
 862              	.L123:
 863 0082 C046     		.align	2
 864              	.L122:
 865 0084 00000000 		.word	.LANCHOR0
 866              		.cfi_endproc
 867              	.LFE42:
 869              		.section	.text.ral_sx1280_init,"ax",%progbits
 870              		.align	1
 871              		.global	ral_sx1280_init
 872              		.syntax unified
 873              		.code	16
 874              		.thumb_func
 875              		.fpu softvfp
 877              	ral_sx1280_init:
 878              	.LVL77:
 879              	.LFB1:
 128:smtc_ral/src/ral_sx1280.c ****     ral_status_t status = RAL_STATUS_ERROR;
 880              		.loc 1 128 1 is_stmt 1 view -0
 881              		.cfi_startproc
 882              		@ args = 0, pretend = 0, frame = 0
 883              		@ frame_needed = 0, uses_anonymous_args = 0
 129:smtc_ral/src/ral_sx1280.c **** 
 884              		.loc 1 129 5 view .LVU285
 131:smtc_ral/src/ral_sx1280.c **** 
 885              		.loc 1 131 5 view .LVU286
 128:smtc_ral/src/ral_sx1280.c ****     ral_status_t status = RAL_STATUS_ERROR;
 886              		.loc 1 128 1 is_stmt 0 view .LVU287
 887 0000 10B5     		push	{r4, lr}
 888              		.cfi_def_cfa_offset 8
 889              		.cfi_offset 4, -8
 890              		.cfi_offset 14, -4
 128:smtc_ral/src/ral_sx1280.c ****     ral_status_t status = RAL_STATUS_ERROR;
 891              		.loc 1 128 1 view .LVU288
 892 0002 0400     		movs	r4, r0
 131:smtc_ral/src/ral_sx1280.c **** 
 893              		.loc 1 131 5 view .LVU289
 894 0004 0068     		ldr	r0, [r0]
 895              	.LVL78:
 131:smtc_ral/src/ral_sx1280.c **** 
 896              		.loc 1 131 5 view .LVU290
 897 0006 FFF7FEFF 		bl	sx1280_reset
 898              	.LVL79:
 133:smtc_ral/src/ral_sx1280.c ****     return status;
 899              		.loc 1 133 5 is_stmt 1 view .LVU291
 133:smtc_ral/src/ral_sx1280.c ****     return status;
 900              		.loc 1 133 31 is_stmt 0 view .LVU292
 901 000a 0121     		movs	r1, #1
 902 000c 2068     		ldr	r0, [r4]
 903 000e FFF7FEFF 		bl	sx1280_set_reg_mode
ARM GAS  /var/folders/bq/yv49bw8j2kd6w3hsq868qv180000gn/T//ccyOvgmk.s 			page 43


 904              	.LVL80:
 134:smtc_ral/src/ral_sx1280.c **** }
 905              		.loc 1 134 5 is_stmt 1 view .LVU293
 135:smtc_ral/src/ral_sx1280.c **** 
 906              		.loc 1 135 1 is_stmt 0 view .LVU294
 907              		@ sp needed
 908              	.LVL81:
 135:smtc_ral/src/ral_sx1280.c **** 
 909              		.loc 1 135 1 view .LVU295
 910 0012 10BD     		pop	{r4, pc}
 911              		.cfi_endproc
 912              	.LFE1:
 914              		.section	.text.ral_sx1280_setup_gfsk,"ax",%progbits
 915              		.align	1
 916              		.global	ral_sx1280_setup_gfsk
 917              		.syntax unified
 918              		.code	16
 919              		.thumb_func
 920              		.fpu softvfp
 922              	ral_sx1280_setup_gfsk:
 923              	.LVL82:
 924              	.LFB2:
 138:smtc_ral/src/ral_sx1280.c ****     ral_status_t             status     = RAL_STATUS_ERROR;
 925              		.loc 1 138 1 is_stmt 1 view -0
 926              		.cfi_startproc
 927              		@ args = 0, pretend = 0, frame = 16
 928              		@ frame_needed = 0, uses_anonymous_args = 0
 139:smtc_ral/src/ral_sx1280.c ****     sx1280_mod_params_gfsk_t mod_params = { 0 };
 929              		.loc 1 139 5 view .LVU297
 140:smtc_ral/src/ral_sx1280.c ****     sx1280_pkt_params_gfsk_t pkt_params = { 0 };
 930              		.loc 1 140 5 view .LVU298
 138:smtc_ral/src/ral_sx1280.c ****     ral_status_t             status     = RAL_STATUS_ERROR;
 931              		.loc 1 138 1 is_stmt 0 view .LVU299
 932 0000 30B5     		push	{r4, r5, lr}
 933              		.cfi_def_cfa_offset 12
 934              		.cfi_offset 4, -12
 935              		.cfi_offset 5, -8
 936              		.cfi_offset 14, -4
 937 0002 0D00     		movs	r5, r1
 938 0004 85B0     		sub	sp, sp, #20
 939              		.cfi_def_cfa_offset 32
 140:smtc_ral/src/ral_sx1280.c ****     sx1280_pkt_params_gfsk_t pkt_params = { 0 };
 940              		.loc 1 140 30 view .LVU300
 941 0006 0322     		movs	r2, #3
 942 0008 0021     		movs	r1, #0
 943              	.LVL83:
 138:smtc_ral/src/ral_sx1280.c ****     ral_status_t             status     = RAL_STATUS_ERROR;
 944              		.loc 1 138 1 view .LVU301
 945 000a 0400     		movs	r4, r0
 140:smtc_ral/src/ral_sx1280.c ****     sx1280_pkt_params_gfsk_t pkt_params = { 0 };
 946              		.loc 1 140 30 view .LVU302
 947 000c 01A8     		add	r0, sp, #4
 948              	.LVL84:
 140:smtc_ral/src/ral_sx1280.c ****     sx1280_pkt_params_gfsk_t pkt_params = { 0 };
 949              		.loc 1 140 30 view .LVU303
 950 000e FFF7FEFF 		bl	memset
 951              	.LVL85:
ARM GAS  /var/folders/bq/yv49bw8j2kd6w3hsq868qv180000gn/T//ccyOvgmk.s 			page 44


 141:smtc_ral/src/ral_sx1280.c **** 
 952              		.loc 1 141 5 is_stmt 1 view .LVU304
 141:smtc_ral/src/ral_sx1280.c **** 
 953              		.loc 1 141 30 is_stmt 0 view .LVU305
 954 0012 0722     		movs	r2, #7
 955 0014 0021     		movs	r1, #0
 956 0016 02A8     		add	r0, sp, #8
 957 0018 FFF7FEFF 		bl	memset
 958              	.LVL86:
 143:smtc_ral/src/ral_sx1280.c ****     if( status != RAL_STATUS_OK )
 959              		.loc 1 143 5 is_stmt 1 view .LVU306
 143:smtc_ral/src/ral_sx1280.c ****     if( status != RAL_STATUS_OK )
 960              		.loc 1 143 14 is_stmt 0 view .LVU307
 961 001c 2800     		movs	r0, r5
 962 001e 02AA     		add	r2, sp, #8
 963 0020 01A9     		add	r1, sp, #4
 964 0022 FFF7FEFF 		bl	ral_sx1280_convert_gfsk_params_from_radio
 965              	.LVL87:
 144:smtc_ral/src/ral_sx1280.c ****     {
 966              		.loc 1 144 5 is_stmt 1 view .LVU308
 144:smtc_ral/src/ral_sx1280.c ****     {
 967              		.loc 1 144 7 is_stmt 0 view .LVU309
 968 0026 0028     		cmp	r0, #0
 969 0028 38D1     		bne	.L126
 149:smtc_ral/src/ral_sx1280.c ****     if( status != RAL_STATUS_OK )
 970              		.loc 1 149 5 is_stmt 1 view .LVU310
 149:smtc_ral/src/ral_sx1280.c ****     if( status != RAL_STATUS_OK )
 971              		.loc 1 149 31 is_stmt 0 view .LVU311
 972 002a 0100     		movs	r1, r0
 973 002c 2068     		ldr	r0, [r4]
 974              	.LVL88:
 149:smtc_ral/src/ral_sx1280.c ****     if( status != RAL_STATUS_OK )
 975              		.loc 1 149 31 view .LVU312
 976 002e FFF7FEFF 		bl	sx1280_set_standby
 977              	.LVL89:
 150:smtc_ral/src/ral_sx1280.c ****     {
 978              		.loc 1 150 5 is_stmt 1 view .LVU313
 150:smtc_ral/src/ral_sx1280.c ****     {
 979              		.loc 1 150 7 is_stmt 0 view .LVU314
 980 0032 0028     		cmp	r0, #0
 981 0034 32D1     		bne	.L126
 155:smtc_ral/src/ral_sx1280.c ****     if( status != RAL_STATUS_OK )
 982              		.loc 1 155 5 is_stmt 1 view .LVU315
 155:smtc_ral/src/ral_sx1280.c ****     if( status != RAL_STATUS_OK )
 983              		.loc 1 155 31 is_stmt 0 view .LVU316
 984 0036 0100     		movs	r1, r0
 985 0038 2068     		ldr	r0, [r4]
 986              	.LVL90:
 155:smtc_ral/src/ral_sx1280.c ****     if( status != RAL_STATUS_OK )
 987              		.loc 1 155 31 view .LVU317
 988 003a FFF7FEFF 		bl	sx1280_set_pkt_type
 989              	.LVL91:
 156:smtc_ral/src/ral_sx1280.c ****     {
 990              		.loc 1 156 5 is_stmt 1 view .LVU318
 156:smtc_ral/src/ral_sx1280.c ****     {
 991              		.loc 1 156 7 is_stmt 0 view .LVU319
 992 003e 0028     		cmp	r0, #0
ARM GAS  /var/folders/bq/yv49bw8j2kd6w3hsq868qv180000gn/T//ccyOvgmk.s 			page 45


 993 0040 2CD1     		bne	.L126
 161:smtc_ral/src/ral_sx1280.c ****     if( status != RAL_STATUS_OK )
 994              		.loc 1 161 5 is_stmt 1 view .LVU320
 161:smtc_ral/src/ral_sx1280.c ****     if( status != RAL_STATUS_OK )
 995              		.loc 1 161 31 is_stmt 0 view .LVU321
 996 0042 2968     		ldr	r1, [r5]
 997 0044 2068     		ldr	r0, [r4]
 998              	.LVL92:
 161:smtc_ral/src/ral_sx1280.c ****     if( status != RAL_STATUS_OK )
 999              		.loc 1 161 31 view .LVU322
 1000 0046 FFF7FEFF 		bl	sx1280_set_rf_freq
 1001              	.LVL93:
 162:smtc_ral/src/ral_sx1280.c ****     {
 1002              		.loc 1 162 5 is_stmt 1 view .LVU323
 162:smtc_ral/src/ral_sx1280.c ****     {
 1003              		.loc 1 162 7 is_stmt 0 view .LVU324
 1004 004a 0028     		cmp	r0, #0
 1005 004c 26D1     		bne	.L126
 167:smtc_ral/src/ral_sx1280.c ****     if( status != RAL_STATUS_OK )
 1006              		.loc 1 167 5 is_stmt 1 view .LVU325
 167:smtc_ral/src/ral_sx1280.c ****     if( status != RAL_STATUS_OK )
 1007              		.loc 1 167 31 is_stmt 0 view .LVU326
 1008 004e 1F21     		movs	r1, #31
 1009 0050 6B1C     		adds	r3, r5, #1
 1010 0052 E022     		movs	r2, #224
 1011 0054 5956     		ldrsb	r1, [r3, r1]
 1012 0056 2068     		ldr	r0, [r4]
 1013              	.LVL94:
 167:smtc_ral/src/ral_sx1280.c ****     if( status != RAL_STATUS_OK )
 1014              		.loc 1 167 31 view .LVU327
 1015 0058 FFF7FEFF 		bl	sx1280_set_tx_params
 1016              	.LVL95:
 168:smtc_ral/src/ral_sx1280.c ****     {
 1017              		.loc 1 168 5 is_stmt 1 view .LVU328
 168:smtc_ral/src/ral_sx1280.c ****     {
 1018              		.loc 1 168 7 is_stmt 0 view .LVU329
 1019 005c 0028     		cmp	r0, #0
 1020 005e 1DD1     		bne	.L126
 173:smtc_ral/src/ral_sx1280.c ****     if( status != RAL_STATUS_OK )
 1021              		.loc 1 173 5 is_stmt 1 view .LVU330
 173:smtc_ral/src/ral_sx1280.c ****     if( status != RAL_STATUS_OK )
 1022              		.loc 1 173 31 is_stmt 0 view .LVU331
 1023 0060 0200     		movs	r2, r0
 1024 0062 0100     		movs	r1, r0
 1025 0064 2068     		ldr	r0, [r4]
 1026              	.LVL96:
 173:smtc_ral/src/ral_sx1280.c ****     if( status != RAL_STATUS_OK )
 1027              		.loc 1 173 31 view .LVU332
 1028 0066 FFF7FEFF 		bl	sx1280_set_buffer_base_addr
 1029              	.LVL97:
 174:smtc_ral/src/ral_sx1280.c ****     {
 1030              		.loc 1 174 5 is_stmt 1 view .LVU333
 174:smtc_ral/src/ral_sx1280.c ****     {
 1031              		.loc 1 174 7 is_stmt 0 view .LVU334
 1032 006a 0028     		cmp	r0, #0
 1033 006c 16D1     		bne	.L126
 179:smtc_ral/src/ral_sx1280.c ****     if( status != RAL_STATUS_OK )
ARM GAS  /var/folders/bq/yv49bw8j2kd6w3hsq868qv180000gn/T//ccyOvgmk.s 			page 46


 1034              		.loc 1 179 5 is_stmt 1 view .LVU335
 179:smtc_ral/src/ral_sx1280.c ****     if( status != RAL_STATUS_OK )
 1035              		.loc 1 179 31 is_stmt 0 view .LVU336
 1036 006e 2068     		ldr	r0, [r4]
 1037              	.LVL98:
 179:smtc_ral/src/ral_sx1280.c ****     if( status != RAL_STATUS_OK )
 1038              		.loc 1 179 31 view .LVU337
 1039 0070 01A9     		add	r1, sp, #4
 1040 0072 FFF7FEFF 		bl	sx1280_set_gfsk_mod_params
 1041              	.LVL99:
 180:smtc_ral/src/ral_sx1280.c ****     {
 1042              		.loc 1 180 5 is_stmt 1 view .LVU338
 180:smtc_ral/src/ral_sx1280.c ****     {
 1043              		.loc 1 180 7 is_stmt 0 view .LVU339
 1044 0076 0028     		cmp	r0, #0
 1045 0078 10D1     		bne	.L126
 185:smtc_ral/src/ral_sx1280.c ****     if( status != RAL_STATUS_OK )
 1046              		.loc 1 185 5 is_stmt 1 view .LVU340
 185:smtc_ral/src/ral_sx1280.c ****     if( status != RAL_STATUS_OK )
 1047              		.loc 1 185 31 is_stmt 0 view .LVU341
 1048 007a 2068     		ldr	r0, [r4]
 1049              	.LVL100:
 185:smtc_ral/src/ral_sx1280.c ****     if( status != RAL_STATUS_OK )
 1050              		.loc 1 185 31 view .LVU342
 1051 007c 02A9     		add	r1, sp, #8
 1052 007e FFF7FEFF 		bl	sx1280_set_gfsk_pkt_params
 1053              	.LVL101:
 186:smtc_ral/src/ral_sx1280.c ****     {
 1054              		.loc 1 186 5 is_stmt 1 view .LVU343
 186:smtc_ral/src/ral_sx1280.c ****     {
 1055              		.loc 1 186 7 is_stmt 0 view .LVU344
 1056 0082 0028     		cmp	r0, #0
 1057 0084 0AD1     		bne	.L126
 191:smtc_ral/src/ral_sx1280.c ****     {
 1058              		.loc 1 191 5 is_stmt 1 view .LVU345
 191:smtc_ral/src/ral_sx1280.c ****     {
 1059              		.loc 1 191 7 is_stmt 0 view .LVU346
 1060 0086 AB7C     		ldrb	r3, [r5, #18]
 1061 0088 002B     		cmp	r3, #0
 1062 008a 09D1     		bne	.L127
 1063              	.LVL102:
 1064              	.L129:
 206:smtc_ral/src/ral_sx1280.c ****                                                          params->sync_word_len_in_bytes );
 1065              		.loc 1 206 5 is_stmt 1 view .LVU347
 206:smtc_ral/src/ral_sx1280.c ****                                                          params->sync_word_len_in_bytes );
 1066              		.loc 1 206 31 is_stmt 0 view .LVU348
 1067 008c 0121     		movs	r1, #1
 1068 008e AB7A     		ldrb	r3, [r5, #10]
 1069 0090 EA68     		ldr	r2, [r5, #12]
 1070 0092 2068     		ldr	r0, [r4]
 1071 0094 FFF7FEFF 		bl	sx1280_set_gfsk_sync_word
 1072              	.LVL103:
 208:smtc_ral/src/ral_sx1280.c ****     {
 1073              		.loc 1 208 5 is_stmt 1 view .LVU349
 208:smtc_ral/src/ral_sx1280.c ****     {
 1074              		.loc 1 208 7 is_stmt 0 view .LVU350
 1075 0098 0028     		cmp	r0, #0
ARM GAS  /var/folders/bq/yv49bw8j2kd6w3hsq868qv180000gn/T//ccyOvgmk.s 			page 47


 1076 009a 0ED0     		beq	.L133
 1077              	.LVL104:
 1078              	.L126:
 219:smtc_ral/src/ral_sx1280.c **** 
 1079              		.loc 1 219 1 view .LVU351
 1080 009c 05B0     		add	sp, sp, #20
 1081              		@ sp needed
 1082              	.LVL105:
 1083              	.LVL106:
 219:smtc_ral/src/ral_sx1280.c **** 
 1084              		.loc 1 219 1 view .LVU352
 1085 009e 30BD     		pop	{r4, r5, pc}
 1086              	.LVL107:
 1087              	.L127:
 193:smtc_ral/src/ral_sx1280.c ****         if( status != RAL_STATUS_OK )
 1088              		.loc 1 193 9 is_stmt 1 view .LVU353
 193:smtc_ral/src/ral_sx1280.c ****         if( status != RAL_STATUS_OK )
 1089              		.loc 1 193 35 is_stmt 0 view .LVU354
 1090 00a0 A98A     		ldrh	r1, [r5, #20]
 1091 00a2 2068     		ldr	r0, [r4]
 1092              	.LVL108:
 193:smtc_ral/src/ral_sx1280.c ****         if( status != RAL_STATUS_OK )
 1093              		.loc 1 193 35 view .LVU355
 1094 00a4 FFF7FEFF 		bl	sx1280_set_gfsk_crc_seed
 1095              	.LVL109:
 194:smtc_ral/src/ral_sx1280.c ****         {
 1096              		.loc 1 194 9 is_stmt 1 view .LVU356
 194:smtc_ral/src/ral_sx1280.c ****         {
 1097              		.loc 1 194 11 is_stmt 0 view .LVU357
 1098 00a8 0028     		cmp	r0, #0
 1099 00aa F7D1     		bne	.L126
 199:smtc_ral/src/ral_sx1280.c ****         if( status != RAL_STATUS_OK )
 1100              		.loc 1 199 9 is_stmt 1 view .LVU358
 199:smtc_ral/src/ral_sx1280.c ****         if( status != RAL_STATUS_OK )
 1101              		.loc 1 199 35 is_stmt 0 view .LVU359
 1102 00ac E98A     		ldrh	r1, [r5, #22]
 1103 00ae 2068     		ldr	r0, [r4]
 1104              	.LVL110:
 199:smtc_ral/src/ral_sx1280.c ****         if( status != RAL_STATUS_OK )
 1105              		.loc 1 199 35 view .LVU360
 1106 00b0 FFF7FEFF 		bl	sx1280_set_gfsk_crc_polynomial
 1107              	.LVL111:
 200:smtc_ral/src/ral_sx1280.c ****         {
 1108              		.loc 1 200 9 is_stmt 1 view .LVU361
 200:smtc_ral/src/ral_sx1280.c ****         {
 1109              		.loc 1 200 11 is_stmt 0 view .LVU362
 1110 00b4 0028     		cmp	r0, #0
 1111 00b6 E9D0     		beq	.L129
 1112 00b8 F0E7     		b	.L126
 1113              	.L133:
 213:smtc_ral/src/ral_sx1280.c ****     {
 1114              		.loc 1 213 5 is_stmt 1 view .LVU363
 213:smtc_ral/src/ral_sx1280.c ****     {
 1115              		.loc 1 213 7 is_stmt 0 view .LVU364
 1116 00ba EB7C     		ldrb	r3, [r5, #19]
 1117 00bc 002B     		cmp	r3, #0
 1118 00be EDD0     		beq	.L126
ARM GAS  /var/folders/bq/yv49bw8j2kd6w3hsq868qv180000gn/T//ccyOvgmk.s 			page 48


 215:smtc_ral/src/ral_sx1280.c ****     }
 1119              		.loc 1 215 9 is_stmt 1 view .LVU365
 215:smtc_ral/src/ral_sx1280.c ****     }
 1120              		.loc 1 215 35 is_stmt 0 view .LVU366
 1121 00c0 298B     		ldrh	r1, [r5, #24]
 1122 00c2 2068     		ldr	r0, [r4]
 1123              	.LVL112:
 215:smtc_ral/src/ral_sx1280.c ****     }
 1124              		.loc 1 215 35 view .LVU367
 1125 00c4 FFF7FEFF 		bl	sx1280_set_gfsk_whitening_seed
 1126              	.LVL113:
 215:smtc_ral/src/ral_sx1280.c ****     }
 1127              		.loc 1 215 35 view .LVU368
 1128 00c8 E8E7     		b	.L126
 1129              		.cfi_endproc
 1130              	.LFE2:
 1132              		.section	.text.ral_sx1280_setup_rx_gfsk,"ax",%progbits
 1133              		.align	1
 1134              		.global	ral_sx1280_setup_rx_gfsk
 1135              		.syntax unified
 1136              		.code	16
 1137              		.thumb_func
 1138              		.fpu softvfp
 1140              	ral_sx1280_setup_rx_gfsk:
 1141              	.LVL114:
 1142              	.LFB3:
 222:smtc_ral/src/ral_sx1280.c ****     ral_status_t status = RAL_STATUS_ERROR;
 1143              		.loc 1 222 1 is_stmt 1 view -0
 1144              		.cfi_startproc
 1145              		@ args = 0, pretend = 0, frame = 40
 1146              		@ frame_needed = 0, uses_anonymous_args = 0
 223:smtc_ral/src/ral_sx1280.c **** 
 1147              		.loc 1 223 5 view .LVU370
 226:smtc_ral/src/ral_sx1280.c ****     local_params.pwr_in_dbm        = 0;
 1148              		.loc 1 226 5 view .LVU371
 227:smtc_ral/src/ral_sx1280.c ****     local_params.fdev_in_hz        = 0;
 1149              		.loc 1 227 5 view .LVU372
 222:smtc_ral/src/ral_sx1280.c ****     ral_status_t status = RAL_STATUS_ERROR;
 1150              		.loc 1 222 1 is_stmt 0 view .LVU373
 1151 0000 70B5     		push	{r4, r5, r6, lr}
 1152              		.cfi_def_cfa_offset 16
 1153              		.cfi_offset 4, -16
 1154              		.cfi_offset 5, -12
 1155              		.cfi_offset 6, -8
 1156              		.cfi_offset 14, -4
 1157 0002 8CB0     		sub	sp, sp, #48
 1158              		.cfi_def_cfa_offset 64
 222:smtc_ral/src/ral_sx1280.c ****     ral_status_t status = RAL_STATUS_ERROR;
 1159              		.loc 1 222 1 view .LVU374
 1160 0004 0B00     		movs	r3, r1
 226:smtc_ral/src/ral_sx1280.c ****     local_params.pwr_in_dbm        = 0;
 1161              		.loc 1 226 23 view .LVU375
 1162 0006 02A9     		add	r1, sp, #8
 1163              	.LVL115:
 226:smtc_ral/src/ral_sx1280.c ****     local_params.pwr_in_dbm        = 0;
 1164              		.loc 1 226 23 view .LVU376
 1165 0008 0A00     		movs	r2, r1
ARM GAS  /var/folders/bq/yv49bw8j2kd6w3hsq868qv180000gn/T//ccyOvgmk.s 			page 49


 222:smtc_ral/src/ral_sx1280.c ****     ral_status_t status = RAL_STATUS_ERROR;
 1166              		.loc 1 222 1 view .LVU377
 1167 000a 0400     		movs	r4, r0
 226:smtc_ral/src/ral_sx1280.c ****     local_params.pwr_in_dbm        = 0;
 1168              		.loc 1 226 23 view .LVU378
 1169 000c 61CB     		ldmia	r3!, {r0, r5, r6}
 1170 000e 61C2     		stmia	r2!, {r0, r5, r6}
 1171              	.LVL116:
 226:smtc_ral/src/ral_sx1280.c ****     local_params.pwr_in_dbm        = 0;
 1172              		.loc 1 226 23 view .LVU379
 1173 0010 61CB     		ldmia	r3!, {r0, r5, r6}
 1174 0012 61C2     		stmia	r2!, {r0, r5, r6}
 1175              	.LVL117:
 226:smtc_ral/src/ral_sx1280.c ****     local_params.pwr_in_dbm        = 0;
 1176              		.loc 1 226 23 view .LVU380
 1177 0014 61CB     		ldmia	r3!, {r0, r5, r6}
 1178 0016 61C2     		stmia	r2!, {r0, r5, r6}
 1179              	.LVL118:
 226:smtc_ral/src/ral_sx1280.c ****     local_params.pwr_in_dbm        = 0;
 1180              		.loc 1 226 23 view .LVU381
 1181 0018 1B68     		ldr	r3, [r3]
 1182              	.LVL119:
 230:smtc_ral/src/ral_sx1280.c ****     if( status == RAL_STATUS_OK )
 1183              		.loc 1 230 14 view .LVU382
 1184 001a 2000     		movs	r0, r4
 226:smtc_ral/src/ral_sx1280.c ****     local_params.pwr_in_dbm        = 0;
 1185              		.loc 1 226 23 view .LVU383
 1186 001c 1360     		str	r3, [r2]
 227:smtc_ral/src/ral_sx1280.c ****     local_params.fdev_in_hz        = 0;
 1187              		.loc 1 227 36 view .LVU384
 1188 001e 0922     		movs	r2, #9
 1189 0020 0023     		movs	r3, #0
 1190 0022 6A44     		add	r2, r2, sp
 1191 0024 D377     		strb	r3, [r2, #31]
 228:smtc_ral/src/ral_sx1280.c **** 
 1192              		.loc 1 228 5 is_stmt 1 view .LVU385
 228:smtc_ral/src/ral_sx1280.c **** 
 1193              		.loc 1 228 36 is_stmt 0 view .LVU386
 1194 0026 4B62     		str	r3, [r1, #36]
 230:smtc_ral/src/ral_sx1280.c ****     if( status == RAL_STATUS_OK )
 1195              		.loc 1 230 5 is_stmt 1 view .LVU387
 230:smtc_ral/src/ral_sx1280.c ****     if( status == RAL_STATUS_OK )
 1196              		.loc 1 230 14 is_stmt 0 view .LVU388
 1197 0028 FFF7FEFF 		bl	ral_sx1280_setup_gfsk
 1198              	.LVL120:
 231:smtc_ral/src/ral_sx1280.c ****     {
 1199              		.loc 1 231 5 is_stmt 1 view .LVU389
 231:smtc_ral/src/ral_sx1280.c ****     {
 1200              		.loc 1 231 7 is_stmt 0 view .LVU390
 1201 002c 0028     		cmp	r0, #0
 1202 002e 06D1     		bne	.L135
 233:smtc_ral/src/ral_sx1280.c ****             ral->context, SX1280_IRQ_RX_DONE | SX1280_IRQ_SYNC_WORD_ERROR | SX1280_IRQ_CRC_ERROR | 
 1203              		.loc 1 233 9 is_stmt 1 view .LVU391
 233:smtc_ral/src/ral_sx1280.c ****             ral->context, SX1280_IRQ_RX_DONE | SX1280_IRQ_SYNC_WORD_ERROR | SX1280_IRQ_CRC_ERROR | 
 1204              		.loc 1 233 35 is_stmt 0 view .LVU392
 1205 0030 044A     		ldr	r2, .L136
 1206 0032 0300     		movs	r3, r0
ARM GAS  /var/folders/bq/yv49bw8j2kd6w3hsq868qv180000gn/T//ccyOvgmk.s 			page 50


 1207 0034 0090     		str	r0, [sp]
 1208 0036 1100     		movs	r1, r2
 1209 0038 2068     		ldr	r0, [r4]
 1210              	.LVL121:
 233:smtc_ral/src/ral_sx1280.c ****             ral->context, SX1280_IRQ_RX_DONE | SX1280_IRQ_SYNC_WORD_ERROR | SX1280_IRQ_CRC_ERROR | 
 1211              		.loc 1 233 35 view .LVU393
 1212 003a FFF7FEFF 		bl	sx1280_set_dio_irq_params
 1213              	.LVL122:
 237:smtc_ral/src/ral_sx1280.c ****         {
 1214              		.loc 1 237 9 is_stmt 1 view .LVU394
 1215              	.L135:
 243:smtc_ral/src/ral_sx1280.c **** 
 1216              		.loc 1 243 1 is_stmt 0 view .LVU395
 1217 003e 0CB0     		add	sp, sp, #48
 1218              		@ sp needed
 1219              	.LVL123:
 243:smtc_ral/src/ral_sx1280.c **** 
 1220              		.loc 1 243 1 view .LVU396
 1221 0040 70BD     		pop	{r4, r5, r6, pc}
 1222              	.L137:
 1223 0042 C046     		.align	2
 1224              	.L136:
 1225 0044 4A400000 		.word	16458
 1226              		.cfi_endproc
 1227              	.LFE3:
 1229              		.section	.text.ral_sx1280_setup_tx_gfsk,"ax",%progbits
 1230              		.align	1
 1231              		.global	ral_sx1280_setup_tx_gfsk
 1232              		.syntax unified
 1233              		.code	16
 1234              		.thumb_func
 1235              		.fpu softvfp
 1237              	ral_sx1280_setup_tx_gfsk:
 1238              	.LVL124:
 1239              	.LFB4:
 246:smtc_ral/src/ral_sx1280.c ****     ral_status_t status = RAL_STATUS_ERROR;
 1240              		.loc 1 246 1 is_stmt 1 view -0
 1241              		.cfi_startproc
 1242              		@ args = 0, pretend = 0, frame = 40
 1243              		@ frame_needed = 0, uses_anonymous_args = 0
 247:smtc_ral/src/ral_sx1280.c **** 
 1244              		.loc 1 247 5 view .LVU398
 250:smtc_ral/src/ral_sx1280.c ****     local_params.bw_ssb_in_hz      = 0;
 1245              		.loc 1 250 5 view .LVU399
 251:smtc_ral/src/ral_sx1280.c **** 
 1246              		.loc 1 251 5 view .LVU400
 246:smtc_ral/src/ral_sx1280.c ****     ral_status_t status = RAL_STATUS_ERROR;
 1247              		.loc 1 246 1 is_stmt 0 view .LVU401
 1248 0000 70B5     		push	{r4, r5, r6, lr}
 1249              		.cfi_def_cfa_offset 16
 1250              		.cfi_offset 4, -16
 1251              		.cfi_offset 5, -12
 1252              		.cfi_offset 6, -8
 1253              		.cfi_offset 14, -4
 1254 0002 8CB0     		sub	sp, sp, #48
 1255              		.cfi_def_cfa_offset 64
 246:smtc_ral/src/ral_sx1280.c ****     ral_status_t status = RAL_STATUS_ERROR;
ARM GAS  /var/folders/bq/yv49bw8j2kd6w3hsq868qv180000gn/T//ccyOvgmk.s 			page 51


 1256              		.loc 1 246 1 view .LVU402
 1257 0004 0B00     		movs	r3, r1
 250:smtc_ral/src/ral_sx1280.c ****     local_params.bw_ssb_in_hz      = 0;
 1258              		.loc 1 250 23 view .LVU403
 1259 0006 02A9     		add	r1, sp, #8
 1260              	.LVL125:
 250:smtc_ral/src/ral_sx1280.c ****     local_params.bw_ssb_in_hz      = 0;
 1261              		.loc 1 250 23 view .LVU404
 1262 0008 0A00     		movs	r2, r1
 246:smtc_ral/src/ral_sx1280.c ****     ral_status_t status = RAL_STATUS_ERROR;
 1263              		.loc 1 246 1 view .LVU405
 1264 000a 0400     		movs	r4, r0
 250:smtc_ral/src/ral_sx1280.c ****     local_params.bw_ssb_in_hz      = 0;
 1265              		.loc 1 250 23 view .LVU406
 1266 000c 61CB     		ldmia	r3!, {r0, r5, r6}
 1267 000e 61C2     		stmia	r2!, {r0, r5, r6}
 1268              	.LVL126:
 250:smtc_ral/src/ral_sx1280.c ****     local_params.bw_ssb_in_hz      = 0;
 1269              		.loc 1 250 23 view .LVU407
 1270 0010 61CB     		ldmia	r3!, {r0, r5, r6}
 1271 0012 61C2     		stmia	r2!, {r0, r5, r6}
 1272              	.LVL127:
 250:smtc_ral/src/ral_sx1280.c ****     local_params.bw_ssb_in_hz      = 0;
 1273              		.loc 1 250 23 view .LVU408
 1274 0014 61CB     		ldmia	r3!, {r0, r5, r6}
 1275 0016 61C2     		stmia	r2!, {r0, r5, r6}
 1276              	.LVL128:
 250:smtc_ral/src/ral_sx1280.c ****     local_params.bw_ssb_in_hz      = 0;
 1277              		.loc 1 250 23 view .LVU409
 1278 0018 1B68     		ldr	r3, [r3]
 1279              	.LVL129:
 253:smtc_ral/src/ral_sx1280.c ****     if( status == RAL_STATUS_OK )
 1280              		.loc 1 253 14 view .LVU410
 1281 001a 2000     		movs	r0, r4
 250:smtc_ral/src/ral_sx1280.c ****     local_params.bw_ssb_in_hz      = 0;
 1282              		.loc 1 250 23 view .LVU411
 1283 001c 1360     		str	r3, [r2]
 251:smtc_ral/src/ral_sx1280.c **** 
 1284              		.loc 1 251 36 view .LVU412
 1285 001e 0023     		movs	r3, #0
 1286 0020 CB61     		str	r3, [r1, #28]
 253:smtc_ral/src/ral_sx1280.c ****     if( status == RAL_STATUS_OK )
 1287              		.loc 1 253 5 is_stmt 1 view .LVU413
 253:smtc_ral/src/ral_sx1280.c ****     if( status == RAL_STATUS_OK )
 1288              		.loc 1 253 14 is_stmt 0 view .LVU414
 1289 0022 FFF7FEFF 		bl	ral_sx1280_setup_gfsk
 1290              	.LVL130:
 254:smtc_ral/src/ral_sx1280.c ****     {
 1291              		.loc 1 254 5 is_stmt 1 view .LVU415
 254:smtc_ral/src/ral_sx1280.c ****     {
 1292              		.loc 1 254 7 is_stmt 0 view .LVU416
 1293 0026 0028     		cmp	r0, #0
 1294 0028 06D1     		bne	.L139
 256:smtc_ral/src/ral_sx1280.c ****                                                              SX1280_IRQ_NONE, SX1280_IRQ_NONE );
 1295              		.loc 1 256 9 is_stmt 1 view .LVU417
 256:smtc_ral/src/ral_sx1280.c ****                                                              SX1280_IRQ_NONE, SX1280_IRQ_NONE );
 1296              		.loc 1 256 35 is_stmt 0 view .LVU418
ARM GAS  /var/folders/bq/yv49bw8j2kd6w3hsq868qv180000gn/T//ccyOvgmk.s 			page 52


 1297 002a 0122     		movs	r2, #1
 1298 002c 0300     		movs	r3, r0
 1299 002e 0090     		str	r0, [sp]
 1300 0030 1100     		movs	r1, r2
 1301 0032 2068     		ldr	r0, [r4]
 1302              	.LVL131:
 256:smtc_ral/src/ral_sx1280.c ****                                                              SX1280_IRQ_NONE, SX1280_IRQ_NONE );
 1303              		.loc 1 256 35 view .LVU419
 1304 0034 FFF7FEFF 		bl	sx1280_set_dio_irq_params
 1305              	.LVL132:
 1306              	.L139:
 259:smtc_ral/src/ral_sx1280.c **** }
 1307              		.loc 1 259 5 is_stmt 1 view .LVU420
 260:smtc_ral/src/ral_sx1280.c **** 
 1308              		.loc 1 260 1 is_stmt 0 view .LVU421
 1309 0038 0CB0     		add	sp, sp, #48
 1310              		@ sp needed
 1311              	.LVL133:
 260:smtc_ral/src/ral_sx1280.c **** 
 1312              		.loc 1 260 1 view .LVU422
 1313 003a 70BD     		pop	{r4, r5, r6, pc}
 1314              		.cfi_endproc
 1315              	.LFE4:
 1317              		.section	.rodata.ral_sx1280_setup_lora.cst1,"aM",%progbits,1
 1318              	.LC2:
 1319 0000 EE       		.byte	-18
 1320              		.section	.text.ral_sx1280_setup_lora,"ax",%progbits
 1321              		.align	1
 1322              		.global	ral_sx1280_setup_lora
 1323              		.syntax unified
 1324              		.code	16
 1325              		.thumb_func
 1326              		.fpu softvfp
 1328              	ral_sx1280_setup_lora:
 1329              	.LVL134:
 1330              	.LFB5:
 263:smtc_ral/src/ral_sx1280.c ****     ral_status_t             status     = RAL_STATUS_ERROR;
 1331              		.loc 1 263 1 is_stmt 1 view -0
 1332              		.cfi_startproc
 1333              		@ args = 0, pretend = 0, frame = 16
 1334              		@ frame_needed = 0, uses_anonymous_args = 0
 264:smtc_ral/src/ral_sx1280.c ****     sx1280_mod_params_lora_t mod_params = { 0 };
 1335              		.loc 1 264 5 view .LVU424
 265:smtc_ral/src/ral_sx1280.c ****     sx1280_pkt_params_lora_t pkt_params = { 0 };
 1336              		.loc 1 265 5 view .LVU425
 263:smtc_ral/src/ral_sx1280.c ****     ral_status_t             status     = RAL_STATUS_ERROR;
 1337              		.loc 1 263 1 is_stmt 0 view .LVU426
 1338 0000 30B5     		push	{r4, r5, lr}
 1339              		.cfi_def_cfa_offset 12
 1340              		.cfi_offset 4, -12
 1341              		.cfi_offset 5, -8
 1342              		.cfi_offset 14, -4
 1343 0002 0D00     		movs	r5, r1
 1344 0004 85B0     		sub	sp, sp, #20
 1345              		.cfi_def_cfa_offset 32
 265:smtc_ral/src/ral_sx1280.c ****     sx1280_pkt_params_lora_t pkt_params = { 0 };
 1346              		.loc 1 265 30 view .LVU427
ARM GAS  /var/folders/bq/yv49bw8j2kd6w3hsq868qv180000gn/T//ccyOvgmk.s 			page 53


 1347 0006 0322     		movs	r2, #3
 1348 0008 0021     		movs	r1, #0
 1349              	.LVL135:
 263:smtc_ral/src/ral_sx1280.c ****     ral_status_t             status     = RAL_STATUS_ERROR;
 1350              		.loc 1 263 1 view .LVU428
 1351 000a 0400     		movs	r4, r0
 265:smtc_ral/src/ral_sx1280.c ****     sx1280_pkt_params_lora_t pkt_params = { 0 };
 1352              		.loc 1 265 30 view .LVU429
 1353 000c 01A8     		add	r0, sp, #4
 1354              	.LVL136:
 265:smtc_ral/src/ral_sx1280.c ****     sx1280_pkt_params_lora_t pkt_params = { 0 };
 1355              		.loc 1 265 30 view .LVU430
 1356 000e FFF7FEFF 		bl	memset
 1357              	.LVL137:
 266:smtc_ral/src/ral_sx1280.c **** 
 1358              		.loc 1 266 5 is_stmt 1 view .LVU431
 266:smtc_ral/src/ral_sx1280.c **** 
 1359              		.loc 1 266 30 is_stmt 0 view .LVU432
 1360 0012 0622     		movs	r2, #6
 1361 0014 0021     		movs	r1, #0
 1362 0016 02A8     		add	r0, sp, #8
 1363 0018 FFF7FEFF 		bl	memset
 1364              	.LVL138:
 268:smtc_ral/src/ral_sx1280.c ****     if( status != RAL_STATUS_OK )
 1365              		.loc 1 268 5 is_stmt 1 view .LVU433
 268:smtc_ral/src/ral_sx1280.c ****     if( status != RAL_STATUS_OK )
 1366              		.loc 1 268 14 is_stmt 0 view .LVU434
 1367 001c 2800     		movs	r0, r5
 1368 001e 02AA     		add	r2, sp, #8
 1369 0020 01A9     		add	r1, sp, #4
 1370 0022 FFF7FEFF 		bl	ral_sx1280_convert_lora_params_from_radio
 1371              	.LVL139:
 269:smtc_ral/src/ral_sx1280.c ****     {
 1372              		.loc 1 269 5 is_stmt 1 view .LVU435
 269:smtc_ral/src/ral_sx1280.c ****     {
 1373              		.loc 1 269 7 is_stmt 0 view .LVU436
 1374 0026 0028     		cmp	r0, #0
 1375 0028 3AD1     		bne	.L141
 274:smtc_ral/src/ral_sx1280.c ****     if( status != RAL_STATUS_OK )
 1376              		.loc 1 274 5 is_stmt 1 view .LVU437
 274:smtc_ral/src/ral_sx1280.c ****     if( status != RAL_STATUS_OK )
 1377              		.loc 1 274 31 is_stmt 0 view .LVU438
 1378 002a 0100     		movs	r1, r0
 1379 002c 2068     		ldr	r0, [r4]
 1380              	.LVL140:
 274:smtc_ral/src/ral_sx1280.c ****     if( status != RAL_STATUS_OK )
 1381              		.loc 1 274 31 view .LVU439
 1382 002e FFF7FEFF 		bl	sx1280_set_standby
 1383              	.LVL141:
 275:smtc_ral/src/ral_sx1280.c ****     {
 1384              		.loc 1 275 5 is_stmt 1 view .LVU440
 275:smtc_ral/src/ral_sx1280.c ****     {
 1385              		.loc 1 275 7 is_stmt 0 view .LVU441
 1386 0032 0028     		cmp	r0, #0
 1387 0034 34D1     		bne	.L141
 280:smtc_ral/src/ral_sx1280.c ****     if( status != RAL_STATUS_OK )
 1388              		.loc 1 280 5 is_stmt 1 view .LVU442
ARM GAS  /var/folders/bq/yv49bw8j2kd6w3hsq868qv180000gn/T//ccyOvgmk.s 			page 54


 280:smtc_ral/src/ral_sx1280.c ****     if( status != RAL_STATUS_OK )
 1389              		.loc 1 280 31 is_stmt 0 view .LVU443
 1390 0036 0121     		movs	r1, #1
 1391 0038 2068     		ldr	r0, [r4]
 1392              	.LVL142:
 280:smtc_ral/src/ral_sx1280.c ****     if( status != RAL_STATUS_OK )
 1393              		.loc 1 280 31 view .LVU444
 1394 003a FFF7FEFF 		bl	sx1280_set_pkt_type
 1395              	.LVL143:
 281:smtc_ral/src/ral_sx1280.c ****     {
 1396              		.loc 1 281 5 is_stmt 1 view .LVU445
 281:smtc_ral/src/ral_sx1280.c ****     {
 1397              		.loc 1 281 7 is_stmt 0 view .LVU446
 1398 003e 0028     		cmp	r0, #0
 1399 0040 2ED1     		bne	.L141
 286:smtc_ral/src/ral_sx1280.c ****     if( status != RAL_STATUS_OK )
 1400              		.loc 1 286 5 is_stmt 1 view .LVU447
 286:smtc_ral/src/ral_sx1280.c ****     if( status != RAL_STATUS_OK )
 1401              		.loc 1 286 31 is_stmt 0 view .LVU448
 1402 0042 2968     		ldr	r1, [r5]
 1403 0044 2068     		ldr	r0, [r4]
 1404              	.LVL144:
 286:smtc_ral/src/ral_sx1280.c ****     if( status != RAL_STATUS_OK )
 1405              		.loc 1 286 31 view .LVU449
 1406 0046 FFF7FEFF 		bl	sx1280_set_rf_freq
 1407              	.LVL145:
 287:smtc_ral/src/ral_sx1280.c ****     {
 1408              		.loc 1 287 5 is_stmt 1 view .LVU450
 287:smtc_ral/src/ral_sx1280.c ****     {
 1409              		.loc 1 287 7 is_stmt 0 view .LVU451
 1410 004a 0028     		cmp	r0, #0
 1411 004c 28D1     		bne	.L141
 292:smtc_ral/src/ral_sx1280.c ****     if( params->pwr_in_dbm > SX1280_PWR_MAX )
 1412              		.loc 1 292 5 is_stmt 1 view .LVU452
 1413              	.LVL146:
 293:smtc_ral/src/ral_sx1280.c ****     {
 1414              		.loc 1 293 5 view .LVU453
 1415 004e 2B7C     		ldrb	r3, [r5, #16]
 1416 0050 191C     		adds	r1, r3, #0
 1417 0052 5BB2     		sxtb	r3, r3
 1418 0054 1233     		adds	r3, r3, #18
 1419 0056 01DA     		bge	.L142
 1420 0058 124B     		ldr	r3, .L144
 1421 005a 1978     		ldrb	r1, [r3]
 1422              	.L142:
 1423              	.LVL147:
 301:smtc_ral/src/ral_sx1280.c ****     if( status != RAL_STATUS_OK )
 1424              		.loc 1 301 5 view .LVU454
 301:smtc_ral/src/ral_sx1280.c ****     if( status != RAL_STATUS_OK )
 1425              		.loc 1 301 31 is_stmt 0 view .LVU455
 1426 005c 4BB2     		sxtb	r3, r1
 1427 005e 0D2B     		cmp	r3, #13
 1428 0060 00DD     		ble	.L143
 1429 0062 0D21     		movs	r1, #13
 1430              	.LVL148:
 1431              	.L143:
 301:smtc_ral/src/ral_sx1280.c ****     if( status != RAL_STATUS_OK )
ARM GAS  /var/folders/bq/yv49bw8j2kd6w3hsq868qv180000gn/T//ccyOvgmk.s 			page 55


 1432              		.loc 1 301 31 view .LVU456
 1433 0064 E022     		movs	r2, #224
 1434 0066 2068     		ldr	r0, [r4]
 1435              	.LVL149:
 301:smtc_ral/src/ral_sx1280.c ****     if( status != RAL_STATUS_OK )
 1436              		.loc 1 301 31 view .LVU457
 1437 0068 49B2     		sxtb	r1, r1
 1438 006a FFF7FEFF 		bl	sx1280_set_tx_params
 1439              	.LVL150:
 302:smtc_ral/src/ral_sx1280.c ****     {
 1440              		.loc 1 302 5 is_stmt 1 view .LVU458
 302:smtc_ral/src/ral_sx1280.c ****     {
 1441              		.loc 1 302 7 is_stmt 0 view .LVU459
 1442 006e 0028     		cmp	r0, #0
 1443 0070 16D1     		bne	.L141
 307:smtc_ral/src/ral_sx1280.c ****     if( status != RAL_STATUS_OK )
 1444              		.loc 1 307 5 is_stmt 1 view .LVU460
 307:smtc_ral/src/ral_sx1280.c ****     if( status != RAL_STATUS_OK )
 1445              		.loc 1 307 31 is_stmt 0 view .LVU461
 1446 0072 0200     		movs	r2, r0
 1447 0074 0100     		movs	r1, r0
 1448 0076 2068     		ldr	r0, [r4]
 1449              	.LVL151:
 307:smtc_ral/src/ral_sx1280.c ****     if( status != RAL_STATUS_OK )
 1450              		.loc 1 307 31 view .LVU462
 1451 0078 FFF7FEFF 		bl	sx1280_set_buffer_base_addr
 1452              	.LVL152:
 308:smtc_ral/src/ral_sx1280.c ****     {
 1453              		.loc 1 308 5 is_stmt 1 view .LVU463
 308:smtc_ral/src/ral_sx1280.c ****     {
 1454              		.loc 1 308 7 is_stmt 0 view .LVU464
 1455 007c 0028     		cmp	r0, #0
 1456 007e 0FD1     		bne	.L141
 313:smtc_ral/src/ral_sx1280.c ****     if( status != RAL_STATUS_OK )
 1457              		.loc 1 313 5 is_stmt 1 view .LVU465
 313:smtc_ral/src/ral_sx1280.c ****     if( status != RAL_STATUS_OK )
 1458              		.loc 1 313 31 is_stmt 0 view .LVU466
 1459 0080 2068     		ldr	r0, [r4]
 1460              	.LVL153:
 313:smtc_ral/src/ral_sx1280.c ****     if( status != RAL_STATUS_OK )
 1461              		.loc 1 313 31 view .LVU467
 1462 0082 01A9     		add	r1, sp, #4
 1463 0084 FFF7FEFF 		bl	sx1280_set_lora_mod_params
 1464              	.LVL154:
 314:smtc_ral/src/ral_sx1280.c ****     {
 1465              		.loc 1 314 5 is_stmt 1 view .LVU468
 314:smtc_ral/src/ral_sx1280.c ****     {
 1466              		.loc 1 314 7 is_stmt 0 view .LVU469
 1467 0088 0028     		cmp	r0, #0
 1468 008a 09D1     		bne	.L141
 319:smtc_ral/src/ral_sx1280.c ****     if( status != RAL_STATUS_OK )
 1469              		.loc 1 319 5 is_stmt 1 view .LVU470
 319:smtc_ral/src/ral_sx1280.c ****     if( status != RAL_STATUS_OK )
 1470              		.loc 1 319 31 is_stmt 0 view .LVU471
 1471 008c 2068     		ldr	r0, [r4]
 1472              	.LVL155:
 319:smtc_ral/src/ral_sx1280.c ****     if( status != RAL_STATUS_OK )
ARM GAS  /var/folders/bq/yv49bw8j2kd6w3hsq868qv180000gn/T//ccyOvgmk.s 			page 56


 1473              		.loc 1 319 31 view .LVU472
 1474 008e 02A9     		add	r1, sp, #8
 1475 0090 FFF7FEFF 		bl	sx1280_set_lora_pkt_params
 1476              	.LVL156:
 320:smtc_ral/src/ral_sx1280.c ****     {
 1477              		.loc 1 320 5 is_stmt 1 view .LVU473
 320:smtc_ral/src/ral_sx1280.c ****     {
 1478              		.loc 1 320 7 is_stmt 0 view .LVU474
 1479 0094 0028     		cmp	r0, #0
 1480 0096 03D1     		bne	.L141
 325:smtc_ral/src/ral_sx1280.c **** 
 1481              		.loc 1 325 5 is_stmt 1 view .LVU475
 325:smtc_ral/src/ral_sx1280.c **** 
 1482              		.loc 1 325 31 is_stmt 0 view .LVU476
 1483 0098 A97A     		ldrb	r1, [r5, #10]
 1484 009a 2068     		ldr	r0, [r4]
 1485              	.LVL157:
 325:smtc_ral/src/ral_sx1280.c **** 
 1486              		.loc 1 325 31 view .LVU477
 1487 009c FFF7FEFF 		bl	sx1280_set_lora_sync_word
 1488              	.LVL158:
 327:smtc_ral/src/ral_sx1280.c **** }
 1489              		.loc 1 327 5 is_stmt 1 view .LVU478
 1490              	.L141:
 328:smtc_ral/src/ral_sx1280.c **** 
 1491              		.loc 1 328 1 is_stmt 0 view .LVU479
 1492 00a0 05B0     		add	sp, sp, #20
 1493              		@ sp needed
 1494              	.LVL159:
 1495              	.LVL160:
 328:smtc_ral/src/ral_sx1280.c **** 
 1496              		.loc 1 328 1 view .LVU480
 1497 00a2 30BD     		pop	{r4, r5, pc}
 1498              	.L145:
 1499              		.align	2
 1500              	.L144:
 1501 00a4 00000000 		.word	.LC2
 1502              		.cfi_endproc
 1503              	.LFE5:
 1505              		.section	.text.ral_sx1280_setup_rx_lora,"ax",%progbits
 1506              		.align	1
 1507              		.global	ral_sx1280_setup_rx_lora
 1508              		.syntax unified
 1509              		.code	16
 1510              		.thumb_func
 1511              		.fpu softvfp
 1513              	ral_sx1280_setup_rx_lora:
 1514              	.LVL161:
 1515              	.LFB6:
 331:smtc_ral/src/ral_sx1280.c ****     ral_status_t status = RAL_STATUS_ERROR;
 1516              		.loc 1 331 1 is_stmt 1 view -0
 1517              		.cfi_startproc
 1518              		@ args = 0, pretend = 0, frame = 24
 1519              		@ frame_needed = 0, uses_anonymous_args = 0
 332:smtc_ral/src/ral_sx1280.c **** 
 1520              		.loc 1 332 5 view .LVU482
 335:smtc_ral/src/ral_sx1280.c ****     local_params.pwr_in_dbm        = 0;
ARM GAS  /var/folders/bq/yv49bw8j2kd6w3hsq868qv180000gn/T//ccyOvgmk.s 			page 57


 1521              		.loc 1 335 5 view .LVU483
 331:smtc_ral/src/ral_sx1280.c ****     ral_status_t status = RAL_STATUS_ERROR;
 1522              		.loc 1 331 1 is_stmt 0 view .LVU484
 1523 0000 70B5     		push	{r4, r5, r6, lr}
 1524              		.cfi_def_cfa_offset 16
 1525              		.cfi_offset 4, -16
 1526              		.cfi_offset 5, -12
 1527              		.cfi_offset 6, -8
 1528              		.cfi_offset 14, -4
 1529 0002 88B0     		sub	sp, sp, #32
 1530              		.cfi_def_cfa_offset 48
 331:smtc_ral/src/ral_sx1280.c ****     ral_status_t status = RAL_STATUS_ERROR;
 1531              		.loc 1 331 1 view .LVU485
 1532 0004 0B00     		movs	r3, r1
 335:smtc_ral/src/ral_sx1280.c ****     local_params.pwr_in_dbm        = 0;
 1533              		.loc 1 335 23 view .LVU486
 1534 0006 03A9     		add	r1, sp, #12
 1535              	.LVL162:
 335:smtc_ral/src/ral_sx1280.c ****     local_params.pwr_in_dbm        = 0;
 1536              		.loc 1 335 23 view .LVU487
 1537 0008 0A00     		movs	r2, r1
 331:smtc_ral/src/ral_sx1280.c ****     ral_status_t status = RAL_STATUS_ERROR;
 1538              		.loc 1 331 1 view .LVU488
 1539 000a 0400     		movs	r4, r0
 335:smtc_ral/src/ral_sx1280.c ****     local_params.pwr_in_dbm        = 0;
 1540              		.loc 1 335 23 view .LVU489
 1541 000c 61CB     		ldmia	r3!, {r0, r5, r6}
 1542 000e 61C2     		stmia	r2!, {r0, r5, r6}
 1543              	.LVL163:
 335:smtc_ral/src/ral_sx1280.c ****     local_params.pwr_in_dbm        = 0;
 1544              		.loc 1 335 23 view .LVU490
 1545 0010 21CB     		ldmia	r3!, {r0, r5}
 1546 0012 21C2     		stmia	r2!, {r0, r5}
 1547              	.LVL164:
 336:smtc_ral/src/ral_sx1280.c **** 
 1548              		.loc 1 336 5 is_stmt 1 view .LVU491
 336:smtc_ral/src/ral_sx1280.c **** 
 1549              		.loc 1 336 36 is_stmt 0 view .LVU492
 1550 0014 0023     		movs	r3, #0
 1551              	.LVL165:
 338:smtc_ral/src/ral_sx1280.c ****     if( status == RAL_STATUS_OK )
 1552              		.loc 1 338 14 view .LVU493
 1553 0016 2000     		movs	r0, r4
 336:smtc_ral/src/ral_sx1280.c **** 
 1554              		.loc 1 336 36 view .LVU494
 1555 0018 0B74     		strb	r3, [r1, #16]
 338:smtc_ral/src/ral_sx1280.c ****     if( status == RAL_STATUS_OK )
 1556              		.loc 1 338 5 is_stmt 1 view .LVU495
 338:smtc_ral/src/ral_sx1280.c ****     if( status == RAL_STATUS_OK )
 1557              		.loc 1 338 14 is_stmt 0 view .LVU496
 1558 001a FFF7FEFF 		bl	ral_sx1280_setup_lora
 1559              	.LVL166:
 339:smtc_ral/src/ral_sx1280.c ****     {
 1560              		.loc 1 339 5 is_stmt 1 view .LVU497
 339:smtc_ral/src/ral_sx1280.c ****     {
 1561              		.loc 1 339 7 is_stmt 0 view .LVU498
 1562 001e 0028     		cmp	r0, #0
ARM GAS  /var/folders/bq/yv49bw8j2kd6w3hsq868qv180000gn/T//ccyOvgmk.s 			page 58


 1563 0020 06D1     		bne	.L147
 341:smtc_ral/src/ral_sx1280.c ****             ral->context, SX1280_IRQ_RX_DONE | SX1280_IRQ_HEADER_ERROR | SX1280_IRQ_CRC_ERROR | SX1
 1564              		.loc 1 341 9 is_stmt 1 view .LVU499
 341:smtc_ral/src/ral_sx1280.c ****             ral->context, SX1280_IRQ_RX_DONE | SX1280_IRQ_HEADER_ERROR | SX1280_IRQ_CRC_ERROR | SX1
 1565              		.loc 1 341 35 is_stmt 0 view .LVU500
 1566 0022 044A     		ldr	r2, .L148
 1567 0024 0300     		movs	r3, r0
 1568 0026 0090     		str	r0, [sp]
 1569 0028 1100     		movs	r1, r2
 1570 002a 2068     		ldr	r0, [r4]
 1571              	.LVL167:
 341:smtc_ral/src/ral_sx1280.c ****             ral->context, SX1280_IRQ_RX_DONE | SX1280_IRQ_HEADER_ERROR | SX1280_IRQ_CRC_ERROR | SX1
 1572              		.loc 1 341 35 view .LVU501
 1573 002c FFF7FEFF 		bl	sx1280_set_dio_irq_params
 1574              	.LVL168:
 345:smtc_ral/src/ral_sx1280.c ****         {
 1575              		.loc 1 345 9 is_stmt 1 view .LVU502
 1576              	.L147:
 351:smtc_ral/src/ral_sx1280.c **** 
 1577              		.loc 1 351 1 is_stmt 0 view .LVU503
 1578 0030 08B0     		add	sp, sp, #32
 1579              		@ sp needed
 1580              	.LVL169:
 351:smtc_ral/src/ral_sx1280.c **** 
 1581              		.loc 1 351 1 view .LVU504
 1582 0032 70BD     		pop	{r4, r5, r6, pc}
 1583              	.L149:
 1584              		.align	2
 1585              	.L148:
 1586 0034 62400000 		.word	16482
 1587              		.cfi_endproc
 1588              	.LFE6:
 1590              		.section	.text.ral_sx1280_setup_tx_lora,"ax",%progbits
 1591              		.align	1
 1592              		.global	ral_sx1280_setup_tx_lora
 1593              		.syntax unified
 1594              		.code	16
 1595              		.thumb_func
 1596              		.fpu softvfp
 1598              	ral_sx1280_setup_tx_lora:
 1599              	.LVL170:
 1600              	.LFB7:
 354:smtc_ral/src/ral_sx1280.c ****     ral_status_t status = RAL_STATUS_ERROR;
 1601              		.loc 1 354 1 is_stmt 1 view -0
 1602              		.cfi_startproc
 1603              		@ args = 0, pretend = 0, frame = 24
 1604              		@ frame_needed = 0, uses_anonymous_args = 0
 355:smtc_ral/src/ral_sx1280.c **** 
 1605              		.loc 1 355 5 view .LVU506
 358:smtc_ral/src/ral_sx1280.c ****     local_params.symb_nb_timeout   = 0;
 1606              		.loc 1 358 5 view .LVU507
 354:smtc_ral/src/ral_sx1280.c ****     ral_status_t status = RAL_STATUS_ERROR;
 1607              		.loc 1 354 1 is_stmt 0 view .LVU508
 1608 0000 70B5     		push	{r4, r5, r6, lr}
 1609              		.cfi_def_cfa_offset 16
 1610              		.cfi_offset 4, -16
 1611              		.cfi_offset 5, -12
ARM GAS  /var/folders/bq/yv49bw8j2kd6w3hsq868qv180000gn/T//ccyOvgmk.s 			page 59


 1612              		.cfi_offset 6, -8
 1613              		.cfi_offset 14, -4
 1614 0002 88B0     		sub	sp, sp, #32
 1615              		.cfi_def_cfa_offset 48
 354:smtc_ral/src/ral_sx1280.c ****     ral_status_t status = RAL_STATUS_ERROR;
 1616              		.loc 1 354 1 view .LVU509
 1617 0004 0B00     		movs	r3, r1
 358:smtc_ral/src/ral_sx1280.c ****     local_params.symb_nb_timeout   = 0;
 1618              		.loc 1 358 23 view .LVU510
 1619 0006 03A9     		add	r1, sp, #12
 1620              	.LVL171:
 358:smtc_ral/src/ral_sx1280.c ****     local_params.symb_nb_timeout   = 0;
 1621              		.loc 1 358 23 view .LVU511
 1622 0008 0A00     		movs	r2, r1
 354:smtc_ral/src/ral_sx1280.c ****     ral_status_t status = RAL_STATUS_ERROR;
 1623              		.loc 1 354 1 view .LVU512
 1624 000a 0400     		movs	r4, r0
 358:smtc_ral/src/ral_sx1280.c ****     local_params.symb_nb_timeout   = 0;
 1625              		.loc 1 358 23 view .LVU513
 1626 000c 61CB     		ldmia	r3!, {r0, r5, r6}
 1627 000e 61C2     		stmia	r2!, {r0, r5, r6}
 1628              	.LVL172:
 358:smtc_ral/src/ral_sx1280.c ****     local_params.symb_nb_timeout   = 0;
 1629              		.loc 1 358 23 view .LVU514
 1630 0010 21CB     		ldmia	r3!, {r0, r5}
 1631 0012 21C2     		stmia	r2!, {r0, r5}
 1632              	.LVL173:
 359:smtc_ral/src/ral_sx1280.c **** 
 1633              		.loc 1 359 5 is_stmt 1 view .LVU515
 359:smtc_ral/src/ral_sx1280.c **** 
 1634              		.loc 1 359 36 is_stmt 0 view .LVU516
 1635 0014 0023     		movs	r3, #0
 1636              	.LVL174:
 361:smtc_ral/src/ral_sx1280.c ****     if( status == RAL_STATUS_OK )
 1637              		.loc 1 361 14 view .LVU517
 1638 0016 2000     		movs	r0, r4
 359:smtc_ral/src/ral_sx1280.c **** 
 1639              		.loc 1 359 36 view .LVU518
 1640 0018 CB73     		strb	r3, [r1, #15]
 361:smtc_ral/src/ral_sx1280.c ****     if( status == RAL_STATUS_OK )
 1641              		.loc 1 361 5 is_stmt 1 view .LVU519
 361:smtc_ral/src/ral_sx1280.c ****     if( status == RAL_STATUS_OK )
 1642              		.loc 1 361 14 is_stmt 0 view .LVU520
 1643 001a FFF7FEFF 		bl	ral_sx1280_setup_lora
 1644              	.LVL175:
 362:smtc_ral/src/ral_sx1280.c ****     {
 1645              		.loc 1 362 5 is_stmt 1 view .LVU521
 362:smtc_ral/src/ral_sx1280.c ****     {
 1646              		.loc 1 362 7 is_stmt 0 view .LVU522
 1647 001e 0028     		cmp	r0, #0
 1648 0020 06D1     		bne	.L151
 364:smtc_ral/src/ral_sx1280.c ****                                                              SX1280_IRQ_NONE, SX1280_IRQ_NONE );
 1649              		.loc 1 364 9 is_stmt 1 view .LVU523
 364:smtc_ral/src/ral_sx1280.c ****                                                              SX1280_IRQ_NONE, SX1280_IRQ_NONE );
 1650              		.loc 1 364 35 is_stmt 0 view .LVU524
 1651 0022 0122     		movs	r2, #1
 1652 0024 0300     		movs	r3, r0
ARM GAS  /var/folders/bq/yv49bw8j2kd6w3hsq868qv180000gn/T//ccyOvgmk.s 			page 60


 1653 0026 0090     		str	r0, [sp]
 1654 0028 1100     		movs	r1, r2
 1655 002a 2068     		ldr	r0, [r4]
 1656              	.LVL176:
 364:smtc_ral/src/ral_sx1280.c ****                                                              SX1280_IRQ_NONE, SX1280_IRQ_NONE );
 1657              		.loc 1 364 35 view .LVU525
 1658 002c FFF7FEFF 		bl	sx1280_set_dio_irq_params
 1659              	.LVL177:
 1660              	.L151:
 367:smtc_ral/src/ral_sx1280.c **** }
 1661              		.loc 1 367 5 is_stmt 1 view .LVU526
 368:smtc_ral/src/ral_sx1280.c **** 
 1662              		.loc 1 368 1 is_stmt 0 view .LVU527
 1663 0030 08B0     		add	sp, sp, #32
 1664              		@ sp needed
 1665              	.LVL178:
 368:smtc_ral/src/ral_sx1280.c **** 
 1666              		.loc 1 368 1 view .LVU528
 1667 0032 70BD     		pop	{r4, r5, r6, pc}
 1668              		.cfi_endproc
 1669              	.LFE7:
 1671              		.section	.text.ral_sx1280_setup_flrc,"ax",%progbits
 1672              		.align	1
 1673              		.global	ral_sx1280_setup_flrc
 1674              		.syntax unified
 1675              		.code	16
 1676              		.thumb_func
 1677              		.fpu softvfp
 1679              	ral_sx1280_setup_flrc:
 1680              	.LVL179:
 1681              	.LFB8:
 371:smtc_ral/src/ral_sx1280.c ****     ral_status_t             status     = RAL_STATUS_ERROR;
 1682              		.loc 1 371 1 is_stmt 1 view -0
 1683              		.cfi_startproc
 1684              		@ args = 0, pretend = 0, frame = 16
 1685              		@ frame_needed = 0, uses_anonymous_args = 0
 372:smtc_ral/src/ral_sx1280.c ****     sx1280_mod_params_flrc_t mod_params = { 0 };
 1686              		.loc 1 372 5 view .LVU530
 373:smtc_ral/src/ral_sx1280.c ****     sx1280_pkt_params_flrc_t pkt_params = { 0 };
 1687              		.loc 1 373 5 view .LVU531
 371:smtc_ral/src/ral_sx1280.c ****     ral_status_t             status     = RAL_STATUS_ERROR;
 1688              		.loc 1 371 1 is_stmt 0 view .LVU532
 1689 0000 7FB5     		push	{r0, r1, r2, r3, r4, r5, r6, lr}
 1690              		.cfi_def_cfa_offset 32
 1691              		.cfi_offset 0, -32
 1692              		.cfi_offset 1, -28
 1693              		.cfi_offset 2, -24
 1694              		.cfi_offset 3, -20
 1695              		.cfi_offset 4, -16
 1696              		.cfi_offset 5, -12
 1697              		.cfi_offset 6, -8
 1698              		.cfi_offset 14, -4
 371:smtc_ral/src/ral_sx1280.c ****     ral_status_t             status     = RAL_STATUS_ERROR;
 1699              		.loc 1 371 1 view .LVU533
 1700 0002 0D00     		movs	r5, r1
 373:smtc_ral/src/ral_sx1280.c ****     sx1280_pkt_params_flrc_t pkt_params = { 0 };
 1701              		.loc 1 373 30 view .LVU534
ARM GAS  /var/folders/bq/yv49bw8j2kd6w3hsq868qv180000gn/T//ccyOvgmk.s 			page 61


 1702 0004 0322     		movs	r2, #3
 1703 0006 0021     		movs	r1, #0
 1704              	.LVL180:
 374:smtc_ral/src/ral_sx1280.c **** 
 1705              		.loc 1 374 30 view .LVU535
 1706 0008 02AE     		add	r6, sp, #8
 371:smtc_ral/src/ral_sx1280.c ****     ral_status_t             status     = RAL_STATUS_ERROR;
 1707              		.loc 1 371 1 view .LVU536
 1708 000a 0400     		movs	r4, r0
 373:smtc_ral/src/ral_sx1280.c ****     sx1280_pkt_params_flrc_t pkt_params = { 0 };
 1709              		.loc 1 373 30 view .LVU537
 1710 000c 01A8     		add	r0, sp, #4
 1711              	.LVL181:
 373:smtc_ral/src/ral_sx1280.c ****     sx1280_pkt_params_flrc_t pkt_params = { 0 };
 1712              		.loc 1 373 30 view .LVU538
 1713 000e FFF7FEFF 		bl	memset
 1714              	.LVL182:
 374:smtc_ral/src/ral_sx1280.c **** 
 1715              		.loc 1 374 5 is_stmt 1 view .LVU539
 374:smtc_ral/src/ral_sx1280.c **** 
 1716              		.loc 1 374 30 is_stmt 0 view .LVU540
 1717 0012 0622     		movs	r2, #6
 1718 0014 0021     		movs	r1, #0
 1719 0016 3000     		movs	r0, r6
 1720 0018 FFF7FEFF 		bl	memset
 1721              	.LVL183:
 376:smtc_ral/src/ral_sx1280.c ****     if( status != RAL_STATUS_OK )
 1722              		.loc 1 376 5 is_stmt 1 view .LVU541
 376:smtc_ral/src/ral_sx1280.c ****     if( status != RAL_STATUS_OK )
 1723              		.loc 1 376 14 is_stmt 0 view .LVU542
 1724 001c 3200     		movs	r2, r6
 1725 001e 2800     		movs	r0, r5
 1726 0020 01A9     		add	r1, sp, #4
 1727 0022 FFF7FEFF 		bl	ral_sx1280_convert_flrc_params_from_radio
 1728              	.LVL184:
 377:smtc_ral/src/ral_sx1280.c ****     {
 1729              		.loc 1 377 5 is_stmt 1 view .LVU543
 377:smtc_ral/src/ral_sx1280.c ****     {
 1730              		.loc 1 377 7 is_stmt 0 view .LVU544
 1731 0026 0028     		cmp	r0, #0
 1732 0028 39D1     		bne	.L153
 382:smtc_ral/src/ral_sx1280.c ****     if( status != RAL_STATUS_OK )
 1733              		.loc 1 382 5 is_stmt 1 view .LVU545
 382:smtc_ral/src/ral_sx1280.c ****     if( status != RAL_STATUS_OK )
 1734              		.loc 1 382 31 is_stmt 0 view .LVU546
 1735 002a 0100     		movs	r1, r0
 1736 002c 2068     		ldr	r0, [r4]
 1737              	.LVL185:
 382:smtc_ral/src/ral_sx1280.c ****     if( status != RAL_STATUS_OK )
 1738              		.loc 1 382 31 view .LVU547
 1739 002e FFF7FEFF 		bl	sx1280_set_standby
 1740              	.LVL186:
 383:smtc_ral/src/ral_sx1280.c ****     {
 1741              		.loc 1 383 5 is_stmt 1 view .LVU548
 383:smtc_ral/src/ral_sx1280.c ****     {
 1742              		.loc 1 383 7 is_stmt 0 view .LVU549
 1743 0032 0028     		cmp	r0, #0
ARM GAS  /var/folders/bq/yv49bw8j2kd6w3hsq868qv180000gn/T//ccyOvgmk.s 			page 62


 1744 0034 33D1     		bne	.L153
 388:smtc_ral/src/ral_sx1280.c ****     if( status != RAL_STATUS_OK )
 1745              		.loc 1 388 5 is_stmt 1 view .LVU550
 388:smtc_ral/src/ral_sx1280.c ****     if( status != RAL_STATUS_OK )
 1746              		.loc 1 388 31 is_stmt 0 view .LVU551
 1747 0036 0321     		movs	r1, #3
 1748 0038 2068     		ldr	r0, [r4]
 1749              	.LVL187:
 388:smtc_ral/src/ral_sx1280.c ****     if( status != RAL_STATUS_OK )
 1750              		.loc 1 388 31 view .LVU552
 1751 003a FFF7FEFF 		bl	sx1280_set_pkt_type
 1752              	.LVL188:
 389:smtc_ral/src/ral_sx1280.c ****     {
 1753              		.loc 1 389 5 is_stmt 1 view .LVU553
 389:smtc_ral/src/ral_sx1280.c ****     {
 1754              		.loc 1 389 7 is_stmt 0 view .LVU554
 1755 003e 0028     		cmp	r0, #0
 1756 0040 2DD1     		bne	.L153
 394:smtc_ral/src/ral_sx1280.c ****     if( status != RAL_STATUS_OK )
 1757              		.loc 1 394 5 is_stmt 1 view .LVU555
 394:smtc_ral/src/ral_sx1280.c ****     if( status != RAL_STATUS_OK )
 1758              		.loc 1 394 31 is_stmt 0 view .LVU556
 1759 0042 2968     		ldr	r1, [r5]
 1760 0044 2068     		ldr	r0, [r4]
 1761              	.LVL189:
 394:smtc_ral/src/ral_sx1280.c ****     if( status != RAL_STATUS_OK )
 1762              		.loc 1 394 31 view .LVU557
 1763 0046 FFF7FEFF 		bl	sx1280_set_rf_freq
 1764              	.LVL190:
 395:smtc_ral/src/ral_sx1280.c ****     {
 1765              		.loc 1 395 5 is_stmt 1 view .LVU558
 395:smtc_ral/src/ral_sx1280.c ****     {
 1766              		.loc 1 395 7 is_stmt 0 view .LVU559
 1767 004a 0028     		cmp	r0, #0
 1768 004c 27D1     		bne	.L153
 400:smtc_ral/src/ral_sx1280.c ****     if( status != RAL_STATUS_OK )
 1769              		.loc 1 400 5 is_stmt 1 view .LVU560
 400:smtc_ral/src/ral_sx1280.c ****     if( status != RAL_STATUS_OK )
 1770              		.loc 1 400 31 is_stmt 0 view .LVU561
 1771 004e 1F21     		movs	r1, #31
 1772 0050 6B1D     		adds	r3, r5, #5
 1773 0052 E022     		movs	r2, #224
 1774 0054 5956     		ldrsb	r1, [r3, r1]
 1775 0056 2068     		ldr	r0, [r4]
 1776              	.LVL191:
 400:smtc_ral/src/ral_sx1280.c ****     if( status != RAL_STATUS_OK )
 1777              		.loc 1 400 31 view .LVU562
 1778 0058 FFF7FEFF 		bl	sx1280_set_tx_params
 1779              	.LVL192:
 401:smtc_ral/src/ral_sx1280.c ****     {
 1780              		.loc 1 401 5 is_stmt 1 view .LVU563
 401:smtc_ral/src/ral_sx1280.c ****     {
 1781              		.loc 1 401 7 is_stmt 0 view .LVU564
 1782 005c 0028     		cmp	r0, #0
 1783 005e 1ED1     		bne	.L153
 406:smtc_ral/src/ral_sx1280.c ****     if( status != RAL_STATUS_OK )
 1784              		.loc 1 406 5 is_stmt 1 view .LVU565
ARM GAS  /var/folders/bq/yv49bw8j2kd6w3hsq868qv180000gn/T//ccyOvgmk.s 			page 63


 406:smtc_ral/src/ral_sx1280.c ****     if( status != RAL_STATUS_OK )
 1785              		.loc 1 406 31 is_stmt 0 view .LVU566
 1786 0060 0200     		movs	r2, r0
 1787 0062 0100     		movs	r1, r0
 1788 0064 2068     		ldr	r0, [r4]
 1789              	.LVL193:
 406:smtc_ral/src/ral_sx1280.c ****     if( status != RAL_STATUS_OK )
 1790              		.loc 1 406 31 view .LVU567
 1791 0066 FFF7FEFF 		bl	sx1280_set_buffer_base_addr
 1792              	.LVL194:
 407:smtc_ral/src/ral_sx1280.c ****     {
 1793              		.loc 1 407 5 is_stmt 1 view .LVU568
 407:smtc_ral/src/ral_sx1280.c ****     {
 1794              		.loc 1 407 7 is_stmt 0 view .LVU569
 1795 006a 0028     		cmp	r0, #0
 1796 006c 17D1     		bne	.L153
 412:smtc_ral/src/ral_sx1280.c ****     if( status != RAL_STATUS_OK )
 1797              		.loc 1 412 5 is_stmt 1 view .LVU570
 412:smtc_ral/src/ral_sx1280.c ****     if( status != RAL_STATUS_OK )
 1798              		.loc 1 412 31 is_stmt 0 view .LVU571
 1799 006e 2068     		ldr	r0, [r4]
 1800              	.LVL195:
 412:smtc_ral/src/ral_sx1280.c ****     if( status != RAL_STATUS_OK )
 1801              		.loc 1 412 31 view .LVU572
 1802 0070 01A9     		add	r1, sp, #4
 1803 0072 FFF7FEFF 		bl	sx1280_set_flrc_mod_params
 1804              	.LVL196:
 413:smtc_ral/src/ral_sx1280.c ****     {
 1805              		.loc 1 413 5 is_stmt 1 view .LVU573
 413:smtc_ral/src/ral_sx1280.c ****     {
 1806              		.loc 1 413 7 is_stmt 0 view .LVU574
 1807 0076 0028     		cmp	r0, #0
 1808 0078 11D1     		bne	.L153
 418:smtc_ral/src/ral_sx1280.c ****     if( status != RAL_STATUS_OK )
 1809              		.loc 1 418 5 is_stmt 1 view .LVU575
 418:smtc_ral/src/ral_sx1280.c ****     if( status != RAL_STATUS_OK )
 1810              		.loc 1 418 31 is_stmt 0 view .LVU576
 1811 007a 3100     		movs	r1, r6
 1812 007c 2068     		ldr	r0, [r4]
 1813              	.LVL197:
 418:smtc_ral/src/ral_sx1280.c ****     if( status != RAL_STATUS_OK )
 1814              		.loc 1 418 31 view .LVU577
 1815 007e FFF7FEFF 		bl	sx1280_set_flrc_pkt_params
 1816              	.LVL198:
 419:smtc_ral/src/ral_sx1280.c ****     {
 1817              		.loc 1 419 5 is_stmt 1 view .LVU578
 419:smtc_ral/src/ral_sx1280.c ****     {
 1818              		.loc 1 419 7 is_stmt 0 view .LVU579
 1819 0082 0028     		cmp	r0, #0
 1820 0084 0BD1     		bne	.L153
 424:smtc_ral/src/ral_sx1280.c ****     if( status != RAL_STATUS_OK )
 1821              		.loc 1 424 5 is_stmt 1 view .LVU580
 424:smtc_ral/src/ral_sx1280.c ****     if( status != RAL_STATUS_OK )
 1822              		.loc 1 424 31 is_stmt 0 view .LVU581
 1823 0086 A969     		ldr	r1, [r5, #24]
 1824 0088 2068     		ldr	r0, [r4]
 1825              	.LVL199:
ARM GAS  /var/folders/bq/yv49bw8j2kd6w3hsq868qv180000gn/T//ccyOvgmk.s 			page 64


 424:smtc_ral/src/ral_sx1280.c ****     if( status != RAL_STATUS_OK )
 1826              		.loc 1 424 31 view .LVU582
 1827 008a FFF7FEFF 		bl	sx1280_set_flrc_crc_seed
 1828              	.LVL200:
 425:smtc_ral/src/ral_sx1280.c ****     {
 1829              		.loc 1 425 5 is_stmt 1 view .LVU583
 425:smtc_ral/src/ral_sx1280.c ****     {
 1830              		.loc 1 425 7 is_stmt 0 view .LVU584
 1831 008e 0028     		cmp	r0, #0
 1832 0090 05D1     		bne	.L153
 430:smtc_ral/src/ral_sx1280.c **** 
 1833              		.loc 1 430 5 is_stmt 1 view .LVU585
 430:smtc_ral/src/ral_sx1280.c **** 
 1834              		.loc 1 430 31 is_stmt 0 view .LVU586
 1835 0092 0121     		movs	r1, #1
 1836 0094 7378     		ldrb	r3, [r6, #1]
 1837 0096 2A69     		ldr	r2, [r5, #16]
 1838 0098 2068     		ldr	r0, [r4]
 1839              	.LVL201:
 430:smtc_ral/src/ral_sx1280.c **** 
 1840              		.loc 1 430 31 view .LVU587
 1841 009a FFF7FEFF 		bl	sx1280_set_flrc_sync_word
 1842              	.LVL202:
 432:smtc_ral/src/ral_sx1280.c **** }
 1843              		.loc 1 432 5 is_stmt 1 view .LVU588
 1844              	.L153:
 433:smtc_ral/src/ral_sx1280.c **** 
 1845              		.loc 1 433 1 is_stmt 0 view .LVU589
 1846 009e 04B0     		add	sp, sp, #16
 1847              		@ sp needed
 1848              	.LVL203:
 1849              	.LVL204:
 433:smtc_ral/src/ral_sx1280.c **** 
 1850              		.loc 1 433 1 view .LVU590
 1851 00a0 70BD     		pop	{r4, r5, r6, pc}
 1852              		.cfi_endproc
 1853              	.LFE8:
 1855              		.section	.text.ral_sx1280_setup_rx_flrc,"ax",%progbits
 1856              		.align	1
 1857              		.global	ral_sx1280_setup_rx_flrc
 1858              		.syntax unified
 1859              		.code	16
 1860              		.thumb_func
 1861              		.fpu softvfp
 1863              	ral_sx1280_setup_rx_flrc:
 1864              	.LVL205:
 1865              	.LFB9:
 436:smtc_ral/src/ral_sx1280.c ****     ral_status_t status = RAL_STATUS_ERROR;
 1866              		.loc 1 436 1 is_stmt 1 view -0
 1867              		.cfi_startproc
 1868              		@ args = 0, pretend = 0, frame = 40
 1869              		@ frame_needed = 0, uses_anonymous_args = 0
 437:smtc_ral/src/ral_sx1280.c **** 
 1870              		.loc 1 437 5 view .LVU592
 440:smtc_ral/src/ral_sx1280.c ****     local_params.pwr_in_dbm        = 0;
 1871              		.loc 1 440 5 view .LVU593
 441:smtc_ral/src/ral_sx1280.c **** 
ARM GAS  /var/folders/bq/yv49bw8j2kd6w3hsq868qv180000gn/T//ccyOvgmk.s 			page 65


 1872              		.loc 1 441 5 view .LVU594
 436:smtc_ral/src/ral_sx1280.c ****     ral_status_t status = RAL_STATUS_ERROR;
 1873              		.loc 1 436 1 is_stmt 0 view .LVU595
 1874 0000 70B5     		push	{r4, r5, r6, lr}
 1875              		.cfi_def_cfa_offset 16
 1876              		.cfi_offset 4, -16
 1877              		.cfi_offset 5, -12
 1878              		.cfi_offset 6, -8
 1879              		.cfi_offset 14, -4
 1880 0002 8CB0     		sub	sp, sp, #48
 1881              		.cfi_def_cfa_offset 64
 436:smtc_ral/src/ral_sx1280.c ****     ral_status_t status = RAL_STATUS_ERROR;
 1882              		.loc 1 436 1 view .LVU596
 1883 0004 0B00     		movs	r3, r1
 440:smtc_ral/src/ral_sx1280.c ****     local_params.pwr_in_dbm        = 0;
 1884              		.loc 1 440 23 view .LVU597
 1885 0006 02A9     		add	r1, sp, #8
 1886              	.LVL206:
 440:smtc_ral/src/ral_sx1280.c ****     local_params.pwr_in_dbm        = 0;
 1887              		.loc 1 440 23 view .LVU598
 1888 0008 0A00     		movs	r2, r1
 436:smtc_ral/src/ral_sx1280.c ****     ral_status_t status = RAL_STATUS_ERROR;
 1889              		.loc 1 436 1 view .LVU599
 1890 000a 0400     		movs	r4, r0
 440:smtc_ral/src/ral_sx1280.c ****     local_params.pwr_in_dbm        = 0;
 1891              		.loc 1 440 23 view .LVU600
 1892 000c 61CB     		ldmia	r3!, {r0, r5, r6}
 1893 000e 61C2     		stmia	r2!, {r0, r5, r6}
 1894              	.LVL207:
 440:smtc_ral/src/ral_sx1280.c ****     local_params.pwr_in_dbm        = 0;
 1895              		.loc 1 440 23 view .LVU601
 1896 0010 61CB     		ldmia	r3!, {r0, r5, r6}
 1897 0012 61C2     		stmia	r2!, {r0, r5, r6}
 1898              	.LVL208:
 440:smtc_ral/src/ral_sx1280.c ****     local_params.pwr_in_dbm        = 0;
 1899              		.loc 1 440 23 view .LVU602
 1900 0014 61CB     		ldmia	r3!, {r0, r5, r6}
 1901 0016 61C2     		stmia	r2!, {r0, r5, r6}
 1902              	.LVL209:
 440:smtc_ral/src/ral_sx1280.c ****     local_params.pwr_in_dbm        = 0;
 1903              		.loc 1 440 23 view .LVU603
 1904 0018 1B68     		ldr	r3, [r3]
 1905              	.LVL210:
 443:smtc_ral/src/ral_sx1280.c ****     if( status == RAL_STATUS_OK )
 1906              		.loc 1 443 14 view .LVU604
 1907 001a 2000     		movs	r0, r4
 440:smtc_ral/src/ral_sx1280.c ****     local_params.pwr_in_dbm        = 0;
 1908              		.loc 1 440 23 view .LVU605
 1909 001c 1360     		str	r3, [r2]
 441:smtc_ral/src/ral_sx1280.c **** 
 1910              		.loc 1 441 36 view .LVU606
 1911 001e 0D23     		movs	r3, #13
 1912 0020 0022     		movs	r2, #0
 1913 0022 6B44     		add	r3, r3, sp
 1914 0024 DA77     		strb	r2, [r3, #31]
 443:smtc_ral/src/ral_sx1280.c ****     if( status == RAL_STATUS_OK )
 1915              		.loc 1 443 5 is_stmt 1 view .LVU607
ARM GAS  /var/folders/bq/yv49bw8j2kd6w3hsq868qv180000gn/T//ccyOvgmk.s 			page 66


 443:smtc_ral/src/ral_sx1280.c ****     if( status == RAL_STATUS_OK )
 1916              		.loc 1 443 14 is_stmt 0 view .LVU608
 1917 0026 FFF7FEFF 		bl	ral_sx1280_setup_flrc
 1918              	.LVL211:
 444:smtc_ral/src/ral_sx1280.c ****     {
 1919              		.loc 1 444 5 is_stmt 1 view .LVU609
 444:smtc_ral/src/ral_sx1280.c ****     {
 1920              		.loc 1 444 7 is_stmt 0 view .LVU610
 1921 002a 0028     		cmp	r0, #0
 1922 002c 06D1     		bne	.L155
 446:smtc_ral/src/ral_sx1280.c ****             ral->context, SX1280_IRQ_RX_DONE | SX1280_IRQ_SYNC_WORD_ERROR | SX1280_IRQ_CRC_ERROR | 
 1923              		.loc 1 446 9 is_stmt 1 view .LVU611
 446:smtc_ral/src/ral_sx1280.c ****             ral->context, SX1280_IRQ_RX_DONE | SX1280_IRQ_SYNC_WORD_ERROR | SX1280_IRQ_CRC_ERROR | 
 1924              		.loc 1 446 35 is_stmt 0 view .LVU612
 1925 002e 044A     		ldr	r2, .L156
 1926 0030 0300     		movs	r3, r0
 1927 0032 0090     		str	r0, [sp]
 1928 0034 1100     		movs	r1, r2
 1929 0036 2068     		ldr	r0, [r4]
 1930              	.LVL212:
 446:smtc_ral/src/ral_sx1280.c ****             ral->context, SX1280_IRQ_RX_DONE | SX1280_IRQ_SYNC_WORD_ERROR | SX1280_IRQ_CRC_ERROR | 
 1931              		.loc 1 446 35 view .LVU613
 1932 0038 FFF7FEFF 		bl	sx1280_set_dio_irq_params
 1933              	.LVL213:
 450:smtc_ral/src/ral_sx1280.c ****         {
 1934              		.loc 1 450 9 is_stmt 1 view .LVU614
 1935              	.L155:
 456:smtc_ral/src/ral_sx1280.c **** 
 1936              		.loc 1 456 1 is_stmt 0 view .LVU615
 1937 003c 0CB0     		add	sp, sp, #48
 1938              		@ sp needed
 1939              	.LVL214:
 456:smtc_ral/src/ral_sx1280.c **** 
 1940              		.loc 1 456 1 view .LVU616
 1941 003e 70BD     		pop	{r4, r5, r6, pc}
 1942              	.L157:
 1943              		.align	2
 1944              	.L156:
 1945 0040 4A400000 		.word	16458
 1946              		.cfi_endproc
 1947              	.LFE9:
 1949              		.section	.text.ral_sx1280_setup_tx_flrc,"ax",%progbits
 1950              		.align	1
 1951              		.global	ral_sx1280_setup_tx_flrc
 1952              		.syntax unified
 1953              		.code	16
 1954              		.thumb_func
 1955              		.fpu softvfp
 1957              	ral_sx1280_setup_tx_flrc:
 1958              	.LVL215:
 1959              	.LFB10:
 459:smtc_ral/src/ral_sx1280.c ****     ral_status_t status = RAL_STATUS_ERROR;
 1960              		.loc 1 459 1 is_stmt 1 view -0
 1961              		.cfi_startproc
 1962              		@ args = 0, pretend = 0, frame = 40
 1963              		@ frame_needed = 0, uses_anonymous_args = 0
 460:smtc_ral/src/ral_sx1280.c **** 
ARM GAS  /var/folders/bq/yv49bw8j2kd6w3hsq868qv180000gn/T//ccyOvgmk.s 			page 67


 1964              		.loc 1 460 5 view .LVU618
 463:smtc_ral/src/ral_sx1280.c ****     local_params.bw_ssb_in_hz      = 0;
 1965              		.loc 1 463 5 view .LVU619
 464:smtc_ral/src/ral_sx1280.c **** 
 1966              		.loc 1 464 5 view .LVU620
 459:smtc_ral/src/ral_sx1280.c ****     ral_status_t status = RAL_STATUS_ERROR;
 1967              		.loc 1 459 1 is_stmt 0 view .LVU621
 1968 0000 70B5     		push	{r4, r5, r6, lr}
 1969              		.cfi_def_cfa_offset 16
 1970              		.cfi_offset 4, -16
 1971              		.cfi_offset 5, -12
 1972              		.cfi_offset 6, -8
 1973              		.cfi_offset 14, -4
 1974 0002 8CB0     		sub	sp, sp, #48
 1975              		.cfi_def_cfa_offset 64
 459:smtc_ral/src/ral_sx1280.c ****     ral_status_t status = RAL_STATUS_ERROR;
 1976              		.loc 1 459 1 view .LVU622
 1977 0004 0B00     		movs	r3, r1
 463:smtc_ral/src/ral_sx1280.c ****     local_params.bw_ssb_in_hz      = 0;
 1978              		.loc 1 463 23 view .LVU623
 1979 0006 02A9     		add	r1, sp, #8
 1980              	.LVL216:
 463:smtc_ral/src/ral_sx1280.c ****     local_params.bw_ssb_in_hz      = 0;
 1981              		.loc 1 463 23 view .LVU624
 1982 0008 0A00     		movs	r2, r1
 459:smtc_ral/src/ral_sx1280.c ****     ral_status_t status = RAL_STATUS_ERROR;
 1983              		.loc 1 459 1 view .LVU625
 1984 000a 0400     		movs	r4, r0
 463:smtc_ral/src/ral_sx1280.c ****     local_params.bw_ssb_in_hz      = 0;
 1985              		.loc 1 463 23 view .LVU626
 1986 000c 61CB     		ldmia	r3!, {r0, r5, r6}
 1987 000e 61C2     		stmia	r2!, {r0, r5, r6}
 1988              	.LVL217:
 463:smtc_ral/src/ral_sx1280.c ****     local_params.bw_ssb_in_hz      = 0;
 1989              		.loc 1 463 23 view .LVU627
 1990 0010 61CB     		ldmia	r3!, {r0, r5, r6}
 1991 0012 61C2     		stmia	r2!, {r0, r5, r6}
 1992              	.LVL218:
 463:smtc_ral/src/ral_sx1280.c ****     local_params.bw_ssb_in_hz      = 0;
 1993              		.loc 1 463 23 view .LVU628
 1994 0014 61CB     		ldmia	r3!, {r0, r5, r6}
 1995 0016 61C2     		stmia	r2!, {r0, r5, r6}
 1996              	.LVL219:
 463:smtc_ral/src/ral_sx1280.c ****     local_params.bw_ssb_in_hz      = 0;
 1997              		.loc 1 463 23 view .LVU629
 1998 0018 1B68     		ldr	r3, [r3]
 1999              	.LVL220:
 466:smtc_ral/src/ral_sx1280.c ****     if( status == RAL_STATUS_OK )
 2000              		.loc 1 466 14 view .LVU630
 2001 001a 2000     		movs	r0, r4
 463:smtc_ral/src/ral_sx1280.c ****     local_params.bw_ssb_in_hz      = 0;
 2002              		.loc 1 463 23 view .LVU631
 2003 001c 1360     		str	r3, [r2]
 464:smtc_ral/src/ral_sx1280.c **** 
 2004              		.loc 1 464 36 view .LVU632
 2005 001e 0023     		movs	r3, #0
 2006 0020 0B62     		str	r3, [r1, #32]
ARM GAS  /var/folders/bq/yv49bw8j2kd6w3hsq868qv180000gn/T//ccyOvgmk.s 			page 68


 466:smtc_ral/src/ral_sx1280.c ****     if( status == RAL_STATUS_OK )
 2007              		.loc 1 466 5 is_stmt 1 view .LVU633
 466:smtc_ral/src/ral_sx1280.c ****     if( status == RAL_STATUS_OK )
 2008              		.loc 1 466 14 is_stmt 0 view .LVU634
 2009 0022 FFF7FEFF 		bl	ral_sx1280_setup_flrc
 2010              	.LVL221:
 467:smtc_ral/src/ral_sx1280.c ****     {
 2011              		.loc 1 467 5 is_stmt 1 view .LVU635
 467:smtc_ral/src/ral_sx1280.c ****     {
 2012              		.loc 1 467 7 is_stmt 0 view .LVU636
 2013 0026 0028     		cmp	r0, #0
 2014 0028 06D1     		bne	.L159
 469:smtc_ral/src/ral_sx1280.c ****                                                              SX1280_IRQ_NONE, SX1280_IRQ_NONE );
 2015              		.loc 1 469 9 is_stmt 1 view .LVU637
 469:smtc_ral/src/ral_sx1280.c ****                                                              SX1280_IRQ_NONE, SX1280_IRQ_NONE );
 2016              		.loc 1 469 35 is_stmt 0 view .LVU638
 2017 002a 0122     		movs	r2, #1
 2018 002c 0300     		movs	r3, r0
 2019 002e 0090     		str	r0, [sp]
 2020 0030 1100     		movs	r1, r2
 2021 0032 2068     		ldr	r0, [r4]
 2022              	.LVL222:
 469:smtc_ral/src/ral_sx1280.c ****                                                              SX1280_IRQ_NONE, SX1280_IRQ_NONE );
 2023              		.loc 1 469 35 view .LVU639
 2024 0034 FFF7FEFF 		bl	sx1280_set_dio_irq_params
 2025              	.LVL223:
 2026              	.L159:
 472:smtc_ral/src/ral_sx1280.c **** }
 2027              		.loc 1 472 5 is_stmt 1 view .LVU640
 473:smtc_ral/src/ral_sx1280.c **** 
 2028              		.loc 1 473 1 is_stmt 0 view .LVU641
 2029 0038 0CB0     		add	sp, sp, #48
 2030              		@ sp needed
 2031              	.LVL224:
 473:smtc_ral/src/ral_sx1280.c **** 
 2032              		.loc 1 473 1 view .LVU642
 2033 003a 70BD     		pop	{r4, r5, r6, pc}
 2034              		.cfi_endproc
 2035              	.LFE10:
 2037              		.section	.text.ral_sx1280_setup_tx_lora_e,"ax",%progbits
 2038              		.align	1
 2039              		.global	ral_sx1280_setup_tx_lora_e
 2040              		.syntax unified
 2041              		.code	16
 2042              		.thumb_func
 2043              		.fpu softvfp
 2045              	ral_sx1280_setup_tx_lora_e:
 2046              	.LVL225:
 2047              	.LFB11:
 476:smtc_ral/src/ral_sx1280.c ****     return RAL_STATUS_UNSUPPORTED_FEATURE;
 2048              		.loc 1 476 1 is_stmt 1 view -0
 2049              		.cfi_startproc
 2050              		@ args = 0, pretend = 0, frame = 0
 2051              		@ frame_needed = 0, uses_anonymous_args = 0
 2052              		@ link register save eliminated.
 477:smtc_ral/src/ral_sx1280.c **** }
 2053              		.loc 1 477 5 view .LVU644
ARM GAS  /var/folders/bq/yv49bw8j2kd6w3hsq868qv180000gn/T//ccyOvgmk.s 			page 69


 478:smtc_ral/src/ral_sx1280.c **** 
 2054              		.loc 1 478 1 is_stmt 0 view .LVU645
 2055 0000 0120     		movs	r0, #1
 2056              	.LVL226:
 478:smtc_ral/src/ral_sx1280.c **** 
 2057              		.loc 1 478 1 view .LVU646
 2058              		@ sp needed
 2059 0002 7047     		bx	lr
 2060              		.cfi_endproc
 2061              	.LFE11:
 2063              		.section	.text.ral_sx1280_tx_bpsk,"ax",%progbits
 2064              		.align	1
 2065              		.global	ral_sx1280_tx_bpsk
 2066              		.syntax unified
 2067              		.code	16
 2068              		.thumb_func
 2069              		.fpu softvfp
 2071              	ral_sx1280_tx_bpsk:
 2072              	.LFB48:
 2073              		.cfi_startproc
 2074              		@ args = 0, pretend = 0, frame = 0
 2075              		@ frame_needed = 0, uses_anonymous_args = 0
 2076              		@ link register save eliminated.
 2077 0000 0120     		movs	r0, #1
 2078              		@ sp needed
 2079 0002 7047     		bx	lr
 2080              		.cfi_endproc
 2081              	.LFE48:
 2083              		.section	.text.ral_sx1280_setup_cad,"ax",%progbits
 2084              		.align	1
 2085              		.global	ral_sx1280_setup_cad
 2086              		.syntax unified
 2087              		.code	16
 2088              		.thumb_func
 2089              		.fpu softvfp
 2091              	ral_sx1280_setup_cad:
 2092              	.LVL227:
 2093              	.LFB13:
 486:smtc_ral/src/ral_sx1280.c ****     ral_status_t             status = RAL_STATUS_ERROR;
 2094              		.loc 1 486 1 is_stmt 1 view -0
 2095              		.cfi_startproc
 2096              		@ args = 0, pretend = 0, frame = 8
 2097              		@ frame_needed = 0, uses_anonymous_args = 0
 487:smtc_ral/src/ral_sx1280.c ****     sx1280_lora_cad_params_t sx1280_lora_cad_params;
 2098              		.loc 1 487 5 view .LVU648
 488:smtc_ral/src/ral_sx1280.c **** 
 2099              		.loc 1 488 5 view .LVU649
 490:smtc_ral/src/ral_sx1280.c ****     {
 2100              		.loc 1 490 5 view .LVU650
 486:smtc_ral/src/ral_sx1280.c ****     ral_status_t             status = RAL_STATUS_ERROR;
 2101              		.loc 1 486 1 is_stmt 0 view .LVU651
 2102 0000 1FB5     		push	{r0, r1, r2, r3, r4, lr}
 2103              		.cfi_def_cfa_offset 24
 2104              		.cfi_offset 0, -24
 2105              		.cfi_offset 1, -20
 2106              		.cfi_offset 2, -16
 2107              		.cfi_offset 3, -12
ARM GAS  /var/folders/bq/yv49bw8j2kd6w3hsq868qv180000gn/T//ccyOvgmk.s 			page 70


 2108              		.cfi_offset 4, -8
 2109              		.cfi_offset 14, -4
 486:smtc_ral/src/ral_sx1280.c ****     ral_status_t             status = RAL_STATUS_ERROR;
 2110              		.loc 1 486 1 view .LVU652
 2111 0002 0400     		movs	r4, r0
 2112 0004 0878     		ldrb	r0, [r1]
 2113              	.LVL228:
 490:smtc_ral/src/ral_sx1280.c ****     {
 2114              		.loc 1 490 19 view .LVU653
 2115 0006 0223     		movs	r3, #2
 2116 0008 0428     		cmp	r0, #4
 2117 000a 14D8     		bhi	.L163
 2118 000c 03A9     		add	r1, sp, #12
 2119              	.LVL229:
 490:smtc_ral/src/ral_sx1280.c ****     {
 2120              		.loc 1 490 19 view .LVU654
 2121 000e FFF7FEFF 		bl	__gnu_thumb1_case_uqi
 2122              	.L165:
 2123 0012 03       		.byte	(.L169-.L165)/2
 2124 0013 15       		.byte	(.L168-.L165)/2
 2125 0014 17       		.byte	(.L167-.L165)/2
 2126 0015 19       		.byte	(.L166-.L165)/2
 2127 0016 1B       		.byte	(.L164-.L165)/2
 2128 0017 00       		.p2align 1
 2129              	.L169:
 493:smtc_ral/src/ral_sx1280.c ****         break;
 2130              		.loc 1 493 9 is_stmt 1 view .LVU655
 493:smtc_ral/src/ral_sx1280.c ****         break;
 2131              		.loc 1 493 44 is_stmt 0 view .LVU656
 2132 0018 0023     		movs	r3, #0
 2133              	.L172:
 511:smtc_ral/src/ral_sx1280.c **** 
 2134              		.loc 1 511 31 view .LVU657
 2135 001a 2068     		ldr	r0, [r4]
 505:smtc_ral/src/ral_sx1280.c ****         break;
 2136              		.loc 1 505 44 view .LVU658
 2137 001c 0B70     		strb	r3, [r1]
 506:smtc_ral/src/ral_sx1280.c ****     default:
 2138              		.loc 1 506 9 is_stmt 1 view .LVU659
 511:smtc_ral/src/ral_sx1280.c **** 
 2139              		.loc 1 511 5 view .LVU660
 511:smtc_ral/src/ral_sx1280.c **** 
 2140              		.loc 1 511 31 is_stmt 0 view .LVU661
 2141 001e FFF7FEFF 		bl	sx1280_set_cad_params
 2142              	.LVL230:
 2143 0022 031E     		subs	r3, r0, #0
 2144              	.LVL231:
 513:smtc_ral/src/ral_sx1280.c ****     {
 2145              		.loc 1 513 5 is_stmt 1 view .LVU662
 513:smtc_ral/src/ral_sx1280.c ****     {
 2146              		.loc 1 513 7 is_stmt 0 view .LVU663
 2147 0024 07D1     		bne	.L163
 515:smtc_ral/src/ral_sx1280.c ****                                                              SX1280_IRQ_CAD_DONE | SX1280_IRQ_CAD_D
 2148              		.loc 1 515 9 is_stmt 1 view .LVU664
 515:smtc_ral/src/ral_sx1280.c ****                                                              SX1280_IRQ_CAD_DONE | SX1280_IRQ_CAD_D
 2149              		.loc 1 515 35 is_stmt 0 view .LVU665
 2150 0026 C022     		movs	r2, #192
ARM GAS  /var/folders/bq/yv49bw8j2kd6w3hsq868qv180000gn/T//ccyOvgmk.s 			page 71


 2151 0028 9201     		lsls	r2, r2, #6
 2152 002a 0090     		str	r0, [sp]
 2153 002c 1100     		movs	r1, r2
 2154 002e 2068     		ldr	r0, [r4]
 2155              	.LVL232:
 515:smtc_ral/src/ral_sx1280.c ****                                                              SX1280_IRQ_CAD_DONE | SX1280_IRQ_CAD_D
 2156              		.loc 1 515 35 view .LVU666
 2157 0030 FFF7FEFF 		bl	sx1280_set_dio_irq_params
 2158              	.LVL233:
 2159 0034 0300     		movs	r3, r0
 2160              	.LVL234:
 2161              	.L163:
 521:smtc_ral/src/ral_sx1280.c **** 
 2162              		.loc 1 521 1 view .LVU667
 2163 0036 1800     		movs	r0, r3
 2164 0038 04B0     		add	sp, sp, #16
 2165              		@ sp needed
 2166              	.LVL235:
 521:smtc_ral/src/ral_sx1280.c **** 
 2167              		.loc 1 521 1 view .LVU668
 2168 003a 10BD     		pop	{r4, pc}
 2169              	.LVL236:
 2170              	.L168:
 496:smtc_ral/src/ral_sx1280.c ****         break;
 2171              		.loc 1 496 9 is_stmt 1 view .LVU669
 496:smtc_ral/src/ral_sx1280.c ****         break;
 2172              		.loc 1 496 44 is_stmt 0 view .LVU670
 2173 003c 2023     		movs	r3, #32
 2174 003e ECE7     		b	.L172
 2175              	.L167:
 499:smtc_ral/src/ral_sx1280.c ****         break;
 2176              		.loc 1 499 9 is_stmt 1 view .LVU671
 499:smtc_ral/src/ral_sx1280.c ****         break;
 2177              		.loc 1 499 44 is_stmt 0 view .LVU672
 2178 0040 4023     		movs	r3, #64
 2179 0042 EAE7     		b	.L172
 2180              	.L166:
 502:smtc_ral/src/ral_sx1280.c ****         break;
 2181              		.loc 1 502 9 is_stmt 1 view .LVU673
 502:smtc_ral/src/ral_sx1280.c ****         break;
 2182              		.loc 1 502 44 is_stmt 0 view .LVU674
 2183 0044 6023     		movs	r3, #96
 2184 0046 E8E7     		b	.L172
 2185              	.L164:
 505:smtc_ral/src/ral_sx1280.c ****         break;
 2186              		.loc 1 505 9 is_stmt 1 view .LVU675
 505:smtc_ral/src/ral_sx1280.c ****         break;
 2187              		.loc 1 505 44 is_stmt 0 view .LVU676
 2188 0048 8023     		movs	r3, #128
 2189 004a E6E7     		b	.L172
 2190              		.cfi_endproc
 2191              	.LFE13:
 2193              		.section	.text.ral_sx1280_set_pkt_payload,"ax",%progbits
 2194              		.align	1
 2195              		.global	ral_sx1280_set_pkt_payload
 2196              		.syntax unified
 2197              		.code	16
ARM GAS  /var/folders/bq/yv49bw8j2kd6w3hsq868qv180000gn/T//ccyOvgmk.s 			page 72


 2198              		.thumb_func
 2199              		.fpu softvfp
 2201              	ral_sx1280_set_pkt_payload:
 2202              	.LVL237:
 2203              	.LFB14:
 524:smtc_ral/src/ral_sx1280.c ****     return ( ral_status_t ) sx1280_write_buffer( ral->context, 0x00, buffer, size );
 2204              		.loc 1 524 1 is_stmt 1 view -0
 2205              		.cfi_startproc
 2206              		@ args = 0, pretend = 0, frame = 0
 2207              		@ frame_needed = 0, uses_anonymous_args = 0
 525:smtc_ral/src/ral_sx1280.c **** }
 2208              		.loc 1 525 5 view .LVU678
 524:smtc_ral/src/ral_sx1280.c ****     return ( ral_status_t ) sx1280_write_buffer( ral->context, 0x00, buffer, size );
 2209              		.loc 1 524 1 is_stmt 0 view .LVU679
 2210 0000 10B5     		push	{r4, lr}
 2211              		.cfi_def_cfa_offset 8
 2212              		.cfi_offset 4, -8
 2213              		.cfi_offset 14, -4
 525:smtc_ral/src/ral_sx1280.c **** }
 2214              		.loc 1 525 29 view .LVU680
 2215 0002 D3B2     		uxtb	r3, r2
 2216 0004 0068     		ldr	r0, [r0]
 2217              	.LVL238:
 525:smtc_ral/src/ral_sx1280.c **** }
 2218              		.loc 1 525 29 view .LVU681
 2219 0006 0A00     		movs	r2, r1
 2220              	.LVL239:
 525:smtc_ral/src/ral_sx1280.c **** }
 2221              		.loc 1 525 29 view .LVU682
 2222 0008 0021     		movs	r1, #0
 2223              	.LVL240:
 525:smtc_ral/src/ral_sx1280.c **** }
 2224              		.loc 1 525 29 view .LVU683
 2225 000a FFF7FEFF 		bl	sx1280_write_buffer
 2226              	.LVL241:
 526:smtc_ral/src/ral_sx1280.c **** 
 2227              		.loc 1 526 1 view .LVU684
 2228              		@ sp needed
 2229 000e 10BD     		pop	{r4, pc}
 2230              		.cfi_endproc
 2231              	.LFE14:
 2233              		.section	.text.ral_sx1280_get_pkt_payload,"ax",%progbits
 2234              		.align	1
 2235              		.global	ral_sx1280_get_pkt_payload
 2236              		.syntax unified
 2237              		.code	16
 2238              		.thumb_func
 2239              		.fpu softvfp
 2241              	ral_sx1280_get_pkt_payload:
 2242              	.LVL242:
 2243              	.LFB15:
 529:smtc_ral/src/ral_sx1280.c ****     ral_status_t              status        = RAL_STATUS_ERROR;
 2244              		.loc 1 529 1 is_stmt 1 view -0
 2245              		.cfi_startproc
 2246              		@ args = 0, pretend = 0, frame = 16
 2247              		@ frame_needed = 0, uses_anonymous_args = 0
 530:smtc_ral/src/ral_sx1280.c ****     sx1280_rx_buffer_status_t sx_buf_status = { 0 };
ARM GAS  /var/folders/bq/yv49bw8j2kd6w3hsq868qv180000gn/T//ccyOvgmk.s 			page 73


 2248              		.loc 1 530 5 view .LVU686
 531:smtc_ral/src/ral_sx1280.c **** 
 2249              		.loc 1 531 5 view .LVU687
 529:smtc_ral/src/ral_sx1280.c ****     ral_status_t              status        = RAL_STATUS_ERROR;
 2250              		.loc 1 529 1 is_stmt 0 view .LVU688
 2251 0000 F0B5     		push	{r4, r5, r6, r7, lr}
 2252              		.cfi_def_cfa_offset 20
 2253              		.cfi_offset 4, -20
 2254              		.cfi_offset 5, -16
 2255              		.cfi_offset 6, -12
 2256              		.cfi_offset 7, -8
 2257              		.cfi_offset 14, -4
 2258 0002 1D00     		movs	r5, r3
 531:smtc_ral/src/ral_sx1280.c **** 
 2259              		.loc 1 531 31 view .LVU689
 2260 0004 0023     		movs	r3, #0
 2261              	.LVL243:
 529:smtc_ral/src/ral_sx1280.c ****     ral_status_t              status        = RAL_STATUS_ERROR;
 2262              		.loc 1 529 1 view .LVU690
 2263 0006 85B0     		sub	sp, sp, #20
 2264              		.cfi_def_cfa_offset 40
 529:smtc_ral/src/ral_sx1280.c ****     ral_status_t              status        = RAL_STATUS_ERROR;
 2265              		.loc 1 529 1 view .LVU691
 2266 0008 0400     		movs	r4, r0
 2267 000a 0F00     		movs	r7, r1
 2268 000c 0192     		str	r2, [sp, #4]
 533:smtc_ral/src/ral_sx1280.c ****     if( status == RAL_STATUS_OK )
 2269              		.loc 1 533 31 view .LVU692
 2270 000e 0068     		ldr	r0, [r0]
 2271              	.LVL244:
 531:smtc_ral/src/ral_sx1280.c **** 
 2272              		.loc 1 531 31 view .LVU693
 2273 0010 02AA     		add	r2, sp, #8
 2274              	.LVL245:
 533:smtc_ral/src/ral_sx1280.c ****     if( status == RAL_STATUS_OK )
 2275              		.loc 1 533 31 view .LVU694
 2276 0012 03A9     		add	r1, sp, #12
 2277              	.LVL246:
 531:smtc_ral/src/ral_sx1280.c **** 
 2278              		.loc 1 531 31 view .LVU695
 2279 0014 9380     		strh	r3, [r2, #4]
 533:smtc_ral/src/ral_sx1280.c ****     if( status == RAL_STATUS_OK )
 2280              		.loc 1 533 5 is_stmt 1 view .LVU696
 533:smtc_ral/src/ral_sx1280.c ****     if( status == RAL_STATUS_OK )
 2281              		.loc 1 533 31 is_stmt 0 view .LVU697
 2282 0016 FFF7FEFF 		bl	sx1280_get_rx_buffer_status
 2283              	.LVL247:
 534:smtc_ral/src/ral_sx1280.c ****     {
 2284              		.loc 1 534 5 is_stmt 1 view .LVU698
 534:smtc_ral/src/ral_sx1280.c ****     {
 2285              		.loc 1 534 7 is_stmt 0 view .LVU699
 2286 001a 0028     		cmp	r0, #0
 2287 001c 33D1     		bne	.L175
 536:smtc_ral/src/ral_sx1280.c ****         {
 2288              		.loc 1 536 9 is_stmt 1 view .LVU700
 536:smtc_ral/src/ral_sx1280.c ****         {
 2289              		.loc 1 536 11 is_stmt 0 view .LVU701
ARM GAS  /var/folders/bq/yv49bw8j2kd6w3hsq868qv180000gn/T//ccyOvgmk.s 			page 74


 2290 001e 002D     		cmp	r5, #0
 2291 0020 31D0     		beq	.L175
 2292              	.LBB12:
 538:smtc_ral/src/ral_sx1280.c ****             sx1280_lora_pkt_len_modes_t pkt_len_mode = SX1280_LORA_RANGE_PKT_EXPLICIT;
 2293              		.loc 1 538 13 is_stmt 1 view .LVU702
 538:smtc_ral/src/ral_sx1280.c ****             sx1280_lora_pkt_len_modes_t pkt_len_mode = SX1280_LORA_RANGE_PKT_EXPLICIT;
 2294              		.loc 1 538 41 is_stmt 0 view .LVU703
 2295 0022 02AB     		add	r3, sp, #8
 2296 0024 5E1C     		adds	r6, r3, #1
 2297 0026 5870     		strb	r0, [r3, #1]
 539:smtc_ral/src/ral_sx1280.c **** 
 2298              		.loc 1 539 13 is_stmt 1 view .LVU704
 539:smtc_ral/src/ral_sx1280.c **** 
 2299              		.loc 1 539 41 is_stmt 0 view .LVU705
 2300 0028 9870     		strb	r0, [r3, #2]
 541:smtc_ral/src/ral_sx1280.c **** 
 2301              		.loc 1 541 13 is_stmt 1 view .LVU706
 541:smtc_ral/src/ral_sx1280.c **** 
 2302              		.loc 1 541 39 is_stmt 0 view .LVU707
 2303 002a 3100     		movs	r1, r6
 2304 002c 2068     		ldr	r0, [r4]
 2305              	.LVL248:
 541:smtc_ral/src/ral_sx1280.c **** 
 2306              		.loc 1 541 39 view .LVU708
 2307 002e FFF7FEFF 		bl	sx1280_get_pkt_type
 2308              	.LVL249:
 543:smtc_ral/src/ral_sx1280.c ****             {
 2309              		.loc 1 543 13 is_stmt 1 view .LVU709
 543:smtc_ral/src/ral_sx1280.c ****             {
 2310              		.loc 1 543 15 is_stmt 0 view .LVU710
 2311 0032 0028     		cmp	r0, #0
 2312 0034 27D1     		bne	.L175
 543:smtc_ral/src/ral_sx1280.c ****             {
 2313              		.loc 1 543 45 discriminator 1 view .LVU711
 2314 0036 3378     		ldrb	r3, [r6]
 2315 0038 012B     		cmp	r3, #1
 2316 003a 26D1     		bne	.L177
 545:smtc_ral/src/ral_sx1280.c ****             }
 2317              		.loc 1 545 17 is_stmt 1 view .LVU712
 545:smtc_ral/src/ral_sx1280.c ****             }
 2318              		.loc 1 545 43 is_stmt 0 view .LVU713
 2319 003c 02AB     		add	r3, sp, #8
 2320 003e 2068     		ldr	r0, [r4]
 2321              	.LVL250:
 545:smtc_ral/src/ral_sx1280.c ****             }
 2322              		.loc 1 545 43 view .LVU714
 2323 0040 991C     		adds	r1, r3, #2
 2324 0042 FFF7FEFF 		bl	sx1280_get_lora_pkt_len_mode
 2325              	.LVL251:
 548:smtc_ral/src/ral_sx1280.c ****             {
 2326              		.loc 1 548 13 is_stmt 1 view .LVU715
 548:smtc_ral/src/ral_sx1280.c ****             {
 2327              		.loc 1 548 15 is_stmt 0 view .LVU716
 2328 0046 0028     		cmp	r0, #0
 2329 0048 1DD1     		bne	.L175
 2330              	.LVL252:
 550:smtc_ral/src/ral_sx1280.c ****                 {
ARM GAS  /var/folders/bq/yv49bw8j2kd6w3hsq868qv180000gn/T//ccyOvgmk.s 			page 75


 2331              		.loc 1 550 17 is_stmt 1 view .LVU717
 550:smtc_ral/src/ral_sx1280.c ****                 {
 2332              		.loc 1 550 19 is_stmt 0 view .LVU718
 2333 004a 3378     		ldrb	r3, [r6]
 2334 004c 012B     		cmp	r3, #1
 2335 004e 1CD1     		bne	.L177
 550:smtc_ral/src/ral_sx1280.c ****                 {
 2336              		.loc 1 550 58 discriminator 1 view .LVU719
 2337 0050 02AB     		add	r3, sp, #8
 2338 0052 9B78     		ldrb	r3, [r3, #2]
 2339 0054 802B     		cmp	r3, #128
 2340 0056 18D1     		bne	.L177
 2341              	.LBB13:
 552:smtc_ral/src/ral_sx1280.c **** 
 2342              		.loc 1 552 21 is_stmt 1 view .LVU720
 552:smtc_ral/src/ral_sx1280.c **** 
 2343              		.loc 1 552 29 is_stmt 0 view .LVU721
 2344 0058 02AB     		add	r3, sp, #8
 2345 005a D870     		strb	r0, [r3, #3]
 554:smtc_ral/src/ral_sx1280.c ****                     *size  = ( uint16_t ) pkt_len;
 2346              		.loc 1 554 21 is_stmt 1 view .LVU722
 554:smtc_ral/src/ral_sx1280.c ****                     *size  = ( uint16_t ) pkt_len;
 2347              		.loc 1 554 47 is_stmt 0 view .LVU723
 2348 005c D91C     		adds	r1, r3, #3
 2349 005e 2068     		ldr	r0, [r4]
 2350 0060 FFF7FEFF 		bl	sx1280_get_lora_pkt_len
 2351              	.LVL253:
 555:smtc_ral/src/ral_sx1280.c ****                 }
 2352              		.loc 1 555 21 is_stmt 1 view .LVU724
 555:smtc_ral/src/ral_sx1280.c ****                 }
 2353              		.loc 1 555 30 is_stmt 0 view .LVU725
 2354 0064 02AB     		add	r3, sp, #8
 2355 0066 DB78     		ldrb	r3, [r3, #3]
 2356 0068 2B80     		strh	r3, [r5]
 555:smtc_ral/src/ral_sx1280.c ****                 }
 2357              		.loc 1 555 30 view .LVU726
 2358              	.LBE13:
 562:smtc_ral/src/ral_sx1280.c ****                 {
 2359              		.loc 1 562 17 is_stmt 1 view .LVU727
 562:smtc_ral/src/ral_sx1280.c ****                 {
 2360              		.loc 1 562 19 is_stmt 0 view .LVU728
 2361 006a 0028     		cmp	r0, #0
 2362 006c 0BD1     		bne	.L175
 2363              	.LVL254:
 2364              	.L178:
 564:smtc_ral/src/ral_sx1280.c ****                     {
 2365              		.loc 1 564 21 is_stmt 1 view .LVU729
 564:smtc_ral/src/ral_sx1280.c ****                     {
 2366              		.loc 1 564 25 is_stmt 0 view .LVU730
 2367 006e 2B88     		ldrh	r3, [r5]
 564:smtc_ral/src/ral_sx1280.c ****                     {
 2368              		.loc 1 564 23 view .LVU731
 2369 0070 019A     		ldr	r2, [sp, #4]
 571:smtc_ral/src/ral_sx1280.c ****                     }
 2370              		.loc 1 571 32 view .LVU732
 2371 0072 0320     		movs	r0, #3
 564:smtc_ral/src/ral_sx1280.c ****                     {
ARM GAS  /var/folders/bq/yv49bw8j2kd6w3hsq868qv180000gn/T//ccyOvgmk.s 			page 76


 2372              		.loc 1 564 23 view .LVU733
 2373 0074 9342     		cmp	r3, r2
 2374 0076 06D8     		bhi	.L175
 566:smtc_ral/src/ral_sx1280.c ****                                                                       buffer, *size );
 2375              		.loc 1 566 25 is_stmt 1 view .LVU734
 566:smtc_ral/src/ral_sx1280.c ****                                                                       buffer, *size );
 2376              		.loc 1 566 51 is_stmt 0 view .LVU735
 2377 0078 02AA     		add	r2, sp, #8
 2378 007a 5179     		ldrb	r1, [r2, #5]
 2379 007c 2068     		ldr	r0, [r4]
 2380 007e 3A00     		movs	r2, r7
 2381 0080 DBB2     		uxtb	r3, r3
 2382 0082 FFF7FEFF 		bl	sx1280_read_buffer
 2383              	.LVL255:
 2384              	.L175:
 566:smtc_ral/src/ral_sx1280.c ****                                                                       buffer, *size );
 2385              		.loc 1 566 51 view .LVU736
 2386              	.LBE12:
 577:smtc_ral/src/ral_sx1280.c **** }
 2387              		.loc 1 577 5 is_stmt 1 view .LVU737
 578:smtc_ral/src/ral_sx1280.c **** 
 2388              		.loc 1 578 1 is_stmt 0 view .LVU738
 2389 0086 05B0     		add	sp, sp, #20
 2390              		@ sp needed
 2391              	.LVL256:
 2392              	.LVL257:
 2393              	.LVL258:
 578:smtc_ral/src/ral_sx1280.c **** 
 2394              		.loc 1 578 1 view .LVU739
 2395 0088 F0BD     		pop	{r4, r5, r6, r7, pc}
 2396              	.LVL259:
 2397              	.L177:
 2398              	.LBB14:
 559:smtc_ral/src/ral_sx1280.c ****                 }
 2399              		.loc 1 559 21 is_stmt 1 view .LVU740
 559:smtc_ral/src/ral_sx1280.c ****                 }
 2400              		.loc 1 559 42 is_stmt 0 view .LVU741
 2401 008a 03AB     		add	r3, sp, #12
 2402 008c 1B78     		ldrb	r3, [r3]
 2403 008e 2B80     		strh	r3, [r5]
 2404              	.LVL260:
 562:smtc_ral/src/ral_sx1280.c ****                 {
 2405              		.loc 1 562 17 is_stmt 1 view .LVU742
 2406 0090 EDE7     		b	.L178
 2407              	.LBE14:
 2408              		.cfi_endproc
 2409              	.LFE15:
 2411              		.section	.text.ral_sx1280_get_gfsk_pkt_status,"ax",%progbits
 2412              		.align	1
 2413              		.global	ral_sx1280_get_gfsk_pkt_status
 2414              		.syntax unified
 2415              		.code	16
 2416              		.thumb_func
 2417              		.fpu softvfp
 2419              	ral_sx1280_get_gfsk_pkt_status:
 2420              	.LVL261:
 2421              	.LFB16:
ARM GAS  /var/folders/bq/yv49bw8j2kd6w3hsq868qv180000gn/T//ccyOvgmk.s 			page 77


 581:smtc_ral/src/ral_sx1280.c ****     ral_status_t             status        = RAL_STATUS_ERROR;
 2422              		.loc 1 581 1 view -0
 2423              		.cfi_startproc
 2424              		@ args = 0, pretend = 0, frame = 8
 2425              		@ frame_needed = 0, uses_anonymous_args = 0
 582:smtc_ral/src/ral_sx1280.c ****     sx1280_pkt_status_gfsk_t sx_pkt_status = { 0 };
 2426              		.loc 1 582 5 view .LVU744
 583:smtc_ral/src/ral_sx1280.c **** 
 2427              		.loc 1 583 5 view .LVU745
 583:smtc_ral/src/ral_sx1280.c **** 
 2428              		.loc 1 583 30 is_stmt 0 view .LVU746
 2429 0000 0023     		movs	r3, #0
 581:smtc_ral/src/ral_sx1280.c ****     ral_status_t             status        = RAL_STATUS_ERROR;
 2430              		.loc 1 581 1 view .LVU747
 2431 0002 37B5     		push	{r0, r1, r2, r4, r5, lr}
 2432              		.cfi_def_cfa_offset 24
 2433              		.cfi_offset 0, -24
 2434              		.cfi_offset 1, -20
 2435              		.cfi_offset 2, -16
 2436              		.cfi_offset 4, -12
 2437              		.cfi_offset 5, -8
 2438              		.cfi_offset 14, -4
 583:smtc_ral/src/ral_sx1280.c **** 
 2439              		.loc 1 583 30 view .LVU748
 2440 0004 01AD     		add	r5, sp, #4
 581:smtc_ral/src/ral_sx1280.c ****     ral_status_t             status        = RAL_STATUS_ERROR;
 2441              		.loc 1 581 1 view .LVU749
 2442 0006 0C00     		movs	r4, r1
 585:smtc_ral/src/ral_sx1280.c **** 
 2443              		.loc 1 585 31 view .LVU750
 2444 0008 0068     		ldr	r0, [r0]
 2445              	.LVL262:
 585:smtc_ral/src/ral_sx1280.c **** 
 2446              		.loc 1 585 31 view .LVU751
 2447 000a 2900     		movs	r1, r5
 2448              	.LVL263:
 583:smtc_ral/src/ral_sx1280.c **** 
 2449              		.loc 1 583 30 view .LVU752
 2450 000c 0193     		str	r3, [sp, #4]
 585:smtc_ral/src/ral_sx1280.c **** 
 2451              		.loc 1 585 5 is_stmt 1 view .LVU753
 585:smtc_ral/src/ral_sx1280.c **** 
 2452              		.loc 1 585 31 is_stmt 0 view .LVU754
 2453 000e FFF7FEFF 		bl	sx1280_get_gfsk_pkt_status
 2454              	.LVL264:
 587:smtc_ral/src/ral_sx1280.c ****     {
 2455              		.loc 1 587 5 is_stmt 1 view .LVU755
 587:smtc_ral/src/ral_sx1280.c ****     {
 2456              		.loc 1 587 7 is_stmt 0 view .LVU756
 2457 0012 0028     		cmp	r0, #0
 2458 0014 02D1     		bne	.L187
 589:smtc_ral/src/ral_sx1280.c ****     }
 2459              		.loc 1 589 9 is_stmt 1 view .LVU757
 589:smtc_ral/src/ral_sx1280.c ****     }
 2460              		.loc 1 589 52 is_stmt 0 view .LVU758
 2461 0016 0023     		movs	r3, #0
 2462 0018 EB56     		ldrsb	r3, [r5, r3]
ARM GAS  /var/folders/bq/yv49bw8j2kd6w3hsq868qv180000gn/T//ccyOvgmk.s 			page 78


 589:smtc_ral/src/ral_sx1280.c ****     }
 2463              		.loc 1 589 37 view .LVU759
 2464 001a A380     		strh	r3, [r4, #4]
 2465              	.L187:
 592:smtc_ral/src/ral_sx1280.c **** }
 2466              		.loc 1 592 5 is_stmt 1 view .LVU760
 593:smtc_ral/src/ral_sx1280.c **** 
 2467              		.loc 1 593 1 is_stmt 0 view .LVU761
 2468              		@ sp needed
 2469              	.LVL265:
 593:smtc_ral/src/ral_sx1280.c **** 
 2470              		.loc 1 593 1 view .LVU762
 2471 001c 3EBD     		pop	{r1, r2, r3, r4, r5, pc}
 2472              		.cfi_endproc
 2473              	.LFE16:
 2475              		.section	.text.ral_sx1280_get_lora_pkt_status,"ax",%progbits
 2476              		.align	1
 2477              		.global	ral_sx1280_get_lora_pkt_status
 2478              		.syntax unified
 2479              		.code	16
 2480              		.thumb_func
 2481              		.fpu softvfp
 2483              	ral_sx1280_get_lora_pkt_status:
 2484              	.LVL266:
 2485              	.LFB17:
 596:smtc_ral/src/ral_sx1280.c ****     ral_status_t             status        = RAL_STATUS_ERROR;
 2486              		.loc 1 596 1 is_stmt 1 view -0
 2487              		.cfi_startproc
 2488              		@ args = 0, pretend = 0, frame = 8
 2489              		@ frame_needed = 0, uses_anonymous_args = 0
 597:smtc_ral/src/ral_sx1280.c ****     sx1280_pkt_status_lora_t sx_pkt_status = { 0 };
 2490              		.loc 1 597 5 view .LVU764
 598:smtc_ral/src/ral_sx1280.c **** 
 2491              		.loc 1 598 5 view .LVU765
 598:smtc_ral/src/ral_sx1280.c **** 
 2492              		.loc 1 598 30 is_stmt 0 view .LVU766
 2493 0000 0023     		movs	r3, #0
 596:smtc_ral/src/ral_sx1280.c ****     ral_status_t             status        = RAL_STATUS_ERROR;
 2494              		.loc 1 596 1 view .LVU767
 2495 0002 37B5     		push	{r0, r1, r2, r4, r5, lr}
 2496              		.cfi_def_cfa_offset 24
 2497              		.cfi_offset 0, -24
 2498              		.cfi_offset 1, -20
 2499              		.cfi_offset 2, -16
 2500              		.cfi_offset 4, -12
 2501              		.cfi_offset 5, -8
 2502              		.cfi_offset 14, -4
 598:smtc_ral/src/ral_sx1280.c **** 
 2503              		.loc 1 598 30 view .LVU768
 2504 0004 01AD     		add	r5, sp, #4
 596:smtc_ral/src/ral_sx1280.c ****     ral_status_t             status        = RAL_STATUS_ERROR;
 2505              		.loc 1 596 1 view .LVU769
 2506 0006 0C00     		movs	r4, r1
 600:smtc_ral/src/ral_sx1280.c **** 
 2507              		.loc 1 600 31 view .LVU770
 2508 0008 0068     		ldr	r0, [r0]
 2509              	.LVL267:
ARM GAS  /var/folders/bq/yv49bw8j2kd6w3hsq868qv180000gn/T//ccyOvgmk.s 			page 79


 600:smtc_ral/src/ral_sx1280.c **** 
 2510              		.loc 1 600 31 view .LVU771
 2511 000a 2900     		movs	r1, r5
 2512              	.LVL268:
 598:smtc_ral/src/ral_sx1280.c **** 
 2513              		.loc 1 598 30 view .LVU772
 2514 000c 2B80     		strh	r3, [r5]
 600:smtc_ral/src/ral_sx1280.c **** 
 2515              		.loc 1 600 5 is_stmt 1 view .LVU773
 600:smtc_ral/src/ral_sx1280.c **** 
 2516              		.loc 1 600 31 is_stmt 0 view .LVU774
 2517 000e FFF7FEFF 		bl	sx1280_get_lora_pkt_status
 2518              	.LVL269:
 602:smtc_ral/src/ral_sx1280.c ****     {
 2519              		.loc 1 602 5 is_stmt 1 view .LVU775
 602:smtc_ral/src/ral_sx1280.c ****     {
 2520              		.loc 1 602 7 is_stmt 0 view .LVU776
 2521 0012 0028     		cmp	r0, #0
 2522 0014 06D1     		bne	.L189
 604:smtc_ral/src/ral_sx1280.c ****         pkt_status->snr_pkt_in_db         = sx_pkt_status.snr;
 2523              		.loc 1 604 9 is_stmt 1 view .LVU777
 604:smtc_ral/src/ral_sx1280.c ****         pkt_status->snr_pkt_in_db         = sx_pkt_status.snr;
 2524              		.loc 1 604 58 is_stmt 0 view .LVU778
 2525 0016 0023     		movs	r3, #0
 605:smtc_ral/src/ral_sx1280.c ****         pkt_status->signal_rssi_pkt_in_db = sx_pkt_status.rssi;
 2526              		.loc 1 605 58 view .LVU779
 2527 0018 0122     		movs	r2, #1
 604:smtc_ral/src/ral_sx1280.c ****         pkt_status->snr_pkt_in_db         = sx_pkt_status.snr;
 2528              		.loc 1 604 58 view .LVU780
 2529 001a EB56     		ldrsb	r3, [r5, r3]
 605:smtc_ral/src/ral_sx1280.c ****         pkt_status->signal_rssi_pkt_in_db = sx_pkt_status.rssi;
 2530              		.loc 1 605 58 view .LVU781
 2531 001c AA56     		ldrsb	r2, [r5, r2]
 604:smtc_ral/src/ral_sx1280.c ****         pkt_status->snr_pkt_in_db         = sx_pkt_status.snr;
 2532              		.loc 1 604 43 view .LVU782
 2533 001e 2380     		strh	r3, [r4]
 605:smtc_ral/src/ral_sx1280.c ****         pkt_status->signal_rssi_pkt_in_db = sx_pkt_status.rssi;
 2534              		.loc 1 605 9 is_stmt 1 view .LVU783
 605:smtc_ral/src/ral_sx1280.c ****         pkt_status->signal_rssi_pkt_in_db = sx_pkt_status.rssi;
 2535              		.loc 1 605 43 is_stmt 0 view .LVU784
 2536 0020 6280     		strh	r2, [r4, #2]
 606:smtc_ral/src/ral_sx1280.c ****     }
 2537              		.loc 1 606 9 is_stmt 1 view .LVU785
 606:smtc_ral/src/ral_sx1280.c ****     }
 2538              		.loc 1 606 43 is_stmt 0 view .LVU786
 2539 0022 A380     		strh	r3, [r4, #4]
 2540              	.L189:
 608:smtc_ral/src/ral_sx1280.c **** }
 2541              		.loc 1 608 5 is_stmt 1 view .LVU787
 609:smtc_ral/src/ral_sx1280.c **** 
 2542              		.loc 1 609 1 is_stmt 0 view .LVU788
 2543              		@ sp needed
 2544              	.LVL270:
 609:smtc_ral/src/ral_sx1280.c **** 
 2545              		.loc 1 609 1 view .LVU789
 2546 0024 3EBD     		pop	{r1, r2, r3, r4, r5, pc}
 2547              		.cfi_endproc
ARM GAS  /var/folders/bq/yv49bw8j2kd6w3hsq868qv180000gn/T//ccyOvgmk.s 			page 80


 2548              	.LFE17:
 2550              		.section	.text.ral_sx1280_get_lora_incoming_pkt_config,"ax",%progbits
 2551              		.align	1
 2552              		.global	ral_sx1280_get_lora_incoming_pkt_config
 2553              		.syntax unified
 2554              		.code	16
 2555              		.thumb_func
 2556              		.fpu softvfp
 2558              	ral_sx1280_get_lora_incoming_pkt_config:
 2559              	.LVL271:
 2560              	.LFB18:
 612:smtc_ral/src/ral_sx1280.c ****     ral_status_t           status = RAL_STATUS_ERROR;
 2561              		.loc 1 612 1 is_stmt 1 view -0
 2562              		.cfi_startproc
 2563              		@ args = 0, pretend = 0, frame = 8
 2564              		@ frame_needed = 0, uses_anonymous_args = 0
 613:smtc_ral/src/ral_sx1280.c ****     sx1280_lora_range_cr_t sx1280_lora_cr;
 2565              		.loc 1 613 5 view .LVU791
 614:smtc_ral/src/ral_sx1280.c **** 
 2566              		.loc 1 614 5 view .LVU792
 616:smtc_ral/src/ral_sx1280.c **** 
 2567              		.loc 1 616 5 view .LVU793
 612:smtc_ral/src/ral_sx1280.c ****     ral_status_t           status = RAL_STATUS_ERROR;
 2568              		.loc 1 612 1 is_stmt 0 view .LVU794
 2569 0000 F7B5     		push	{r0, r1, r2, r4, r5, r6, r7, lr}
 2570              		.cfi_def_cfa_offset 32
 2571              		.cfi_offset 0, -32
 2572              		.cfi_offset 1, -28
 2573              		.cfi_offset 2, -24
 2574              		.cfi_offset 4, -20
 2575              		.cfi_offset 5, -16
 2576              		.cfi_offset 6, -12
 2577              		.cfi_offset 7, -8
 2578              		.cfi_offset 14, -4
 616:smtc_ral/src/ral_sx1280.c **** 
 2579              		.loc 1 616 31 view .LVU795
 2580 0002 6B46     		mov	r3, sp
 2581 0004 DF1D     		adds	r7, r3, #7
 612:smtc_ral/src/ral_sx1280.c ****     ral_status_t           status = RAL_STATUS_ERROR;
 2582              		.loc 1 612 1 view .LVU796
 2583 0006 0500     		movs	r5, r0
 2584 0008 0C00     		movs	r4, r1
 616:smtc_ral/src/ral_sx1280.c **** 
 2585              		.loc 1 616 31 view .LVU797
 2586 000a 0068     		ldr	r0, [r0]
 2587              	.LVL272:
 616:smtc_ral/src/ral_sx1280.c **** 
 2588              		.loc 1 616 31 view .LVU798
 2589 000c 3900     		movs	r1, r7
 2590              	.LVL273:
 612:smtc_ral/src/ral_sx1280.c ****     ral_status_t           status = RAL_STATUS_ERROR;
 2591              		.loc 1 612 1 view .LVU799
 2592 000e 1600     		movs	r6, r2
 616:smtc_ral/src/ral_sx1280.c **** 
 2593              		.loc 1 616 31 view .LVU800
 2594 0010 FFF7FEFF 		bl	sx1280_get_lora_rx_packet_cr
 2595              	.LVL274:
ARM GAS  /var/folders/bq/yv49bw8j2kd6w3hsq868qv180000gn/T//ccyOvgmk.s 			page 81


 618:smtc_ral/src/ral_sx1280.c ****     {
 2596              		.loc 1 618 5 is_stmt 1 view .LVU801
 618:smtc_ral/src/ral_sx1280.c ****     {
 2597              		.loc 1 618 7 is_stmt 0 view .LVU802
 2598 0014 0028     		cmp	r0, #0
 2599 0016 11D1     		bne	.L191
 620:smtc_ral/src/ral_sx1280.c ****         {
 2600              		.loc 1 620 9 is_stmt 1 view .LVU803
 2601 0018 3B78     		ldrb	r3, [r7]
 2602 001a 0230     		adds	r0, r0, #2
 2603              	.LVL275:
 620:smtc_ral/src/ral_sx1280.c ****         {
 2604              		.loc 1 620 9 is_stmt 0 view .LVU804
 2605 001c 013B     		subs	r3, r3, #1
 2606 001e 062B     		cmp	r3, #6
 2607 0020 0CD8     		bhi	.L191
 2608 0022 1800     		movs	r0, r3
 2609 0024 FFF7FEFF 		bl	__gnu_thumb1_case_uqi
 2610              	.L193:
 2611 0028 04       		.byte	(.L199-.L193)/2
 2612 0029 0B       		.byte	(.L198-.L193)/2
 2613 002a 0D       		.byte	(.L197-.L193)/2
 2614 002b 0F       		.byte	(.L196-.L193)/2
 2615 002c 11       		.byte	(.L195-.L193)/2
 2616 002d 13       		.byte	(.L194-.L193)/2
 2617 002e 15       		.byte	(.L192-.L193)/2
 2618 002f 00       		.p2align 1
 2619              	.L199:
 623:smtc_ral/src/ral_sx1280.c ****             break;
 2620              		.loc 1 623 13 is_stmt 1 view .LVU805
 623:smtc_ral/src/ral_sx1280.c ****             break;
 2621              		.loc 1 623 20 is_stmt 0 view .LVU806
 2622 0030 0023     		movs	r3, #0
 2623              	.L202:
 641:smtc_ral/src/ral_sx1280.c ****             break;
 2624              		.loc 1 641 20 view .LVU807
 2625 0032 2370     		strb	r3, [r4]
 642:smtc_ral/src/ral_sx1280.c ****         default:
 2626              		.loc 1 642 13 is_stmt 1 view .LVU808
 647:smtc_ral/src/ral_sx1280.c ****     }
 2627              		.loc 1 647 9 view .LVU809
 647:smtc_ral/src/ral_sx1280.c ****     }
 2628              		.loc 1 647 35 is_stmt 0 view .LVU810
 2629 0034 3100     		movs	r1, r6
 2630 0036 2868     		ldr	r0, [r5]
 2631 0038 FFF7FEFF 		bl	sx1280_get_lora_rx_packet_crc_config
 2632              	.LVL276:
 2633              	.L191:
 651:smtc_ral/src/ral_sx1280.c **** 
 2634              		.loc 1 651 1 view .LVU811
 2635              		@ sp needed
 2636              	.LVL277:
 2637              	.LVL278:
 2638              	.LVL279:
 651:smtc_ral/src/ral_sx1280.c **** 
 2639              		.loc 1 651 1 view .LVU812
 2640 003c FEBD     		pop	{r1, r2, r3, r4, r5, r6, r7, pc}
ARM GAS  /var/folders/bq/yv49bw8j2kd6w3hsq868qv180000gn/T//ccyOvgmk.s 			page 82


 2641              	.LVL280:
 2642              	.L198:
 626:smtc_ral/src/ral_sx1280.c ****             break;
 2643              		.loc 1 626 13 is_stmt 1 view .LVU813
 626:smtc_ral/src/ral_sx1280.c ****             break;
 2644              		.loc 1 626 20 is_stmt 0 view .LVU814
 2645 003e 0123     		movs	r3, #1
 2646 0040 F7E7     		b	.L202
 2647              	.L197:
 629:smtc_ral/src/ral_sx1280.c ****             break;
 2648              		.loc 1 629 13 is_stmt 1 view .LVU815
 629:smtc_ral/src/ral_sx1280.c ****             break;
 2649              		.loc 1 629 20 is_stmt 0 view .LVU816
 2650 0042 0223     		movs	r3, #2
 2651 0044 F5E7     		b	.L202
 2652              	.L196:
 632:smtc_ral/src/ral_sx1280.c ****             break;
 2653              		.loc 1 632 13 is_stmt 1 view .LVU817
 632:smtc_ral/src/ral_sx1280.c ****             break;
 2654              		.loc 1 632 20 is_stmt 0 view .LVU818
 2655 0046 0323     		movs	r3, #3
 2656 0048 F3E7     		b	.L202
 2657              	.L195:
 635:smtc_ral/src/ral_sx1280.c ****             break;
 2658              		.loc 1 635 13 is_stmt 1 view .LVU819
 635:smtc_ral/src/ral_sx1280.c ****             break;
 2659              		.loc 1 635 20 is_stmt 0 view .LVU820
 2660 004a 0423     		movs	r3, #4
 2661 004c F1E7     		b	.L202
 2662              	.L194:
 638:smtc_ral/src/ral_sx1280.c ****             break;
 2663              		.loc 1 638 13 is_stmt 1 view .LVU821
 638:smtc_ral/src/ral_sx1280.c ****             break;
 2664              		.loc 1 638 20 is_stmt 0 view .LVU822
 2665 004e 0523     		movs	r3, #5
 2666 0050 EFE7     		b	.L202
 2667              	.L192:
 641:smtc_ral/src/ral_sx1280.c ****             break;
 2668              		.loc 1 641 13 is_stmt 1 view .LVU823
 641:smtc_ral/src/ral_sx1280.c ****             break;
 2669              		.loc 1 641 20 is_stmt 0 view .LVU824
 2670 0052 0623     		movs	r3, #6
 2671 0054 EDE7     		b	.L202
 2672              		.cfi_endproc
 2673              	.LFE18:
 2675              		.section	.text.ral_sx1280_get_flrc_pkt_status,"ax",%progbits
 2676              		.align	1
 2677              		.global	ral_sx1280_get_flrc_pkt_status
 2678              		.syntax unified
 2679              		.code	16
 2680              		.thumb_func
 2681              		.fpu softvfp
 2683              	ral_sx1280_get_flrc_pkt_status:
 2684              	.LVL281:
 2685              	.LFB19:
 654:smtc_ral/src/ral_sx1280.c ****     ral_status_t             status        = RAL_STATUS_ERROR;
 2686              		.loc 1 654 1 is_stmt 1 view -0
ARM GAS  /var/folders/bq/yv49bw8j2kd6w3hsq868qv180000gn/T//ccyOvgmk.s 			page 83


 2687              		.cfi_startproc
 2688              		@ args = 0, pretend = 0, frame = 8
 2689              		@ frame_needed = 0, uses_anonymous_args = 0
 655:smtc_ral/src/ral_sx1280.c ****     sx1280_pkt_status_flrc_t sx_pkt_status = { 0 };
 2690              		.loc 1 655 5 view .LVU826
 656:smtc_ral/src/ral_sx1280.c **** 
 2691              		.loc 1 656 5 view .LVU827
 656:smtc_ral/src/ral_sx1280.c **** 
 2692              		.loc 1 656 30 is_stmt 0 view .LVU828
 2693 0000 0023     		movs	r3, #0
 654:smtc_ral/src/ral_sx1280.c ****     ral_status_t             status        = RAL_STATUS_ERROR;
 2694              		.loc 1 654 1 view .LVU829
 2695 0002 37B5     		push	{r0, r1, r2, r4, r5, lr}
 2696              		.cfi_def_cfa_offset 24
 2697              		.cfi_offset 0, -24
 2698              		.cfi_offset 1, -20
 2699              		.cfi_offset 2, -16
 2700              		.cfi_offset 4, -12
 2701              		.cfi_offset 5, -8
 2702              		.cfi_offset 14, -4
 656:smtc_ral/src/ral_sx1280.c **** 
 2703              		.loc 1 656 30 view .LVU830
 2704 0004 01AD     		add	r5, sp, #4
 654:smtc_ral/src/ral_sx1280.c ****     ral_status_t             status        = RAL_STATUS_ERROR;
 2705              		.loc 1 654 1 view .LVU831
 2706 0006 0C00     		movs	r4, r1
 658:smtc_ral/src/ral_sx1280.c **** 
 2707              		.loc 1 658 31 view .LVU832
 2708 0008 0068     		ldr	r0, [r0]
 2709              	.LVL282:
 658:smtc_ral/src/ral_sx1280.c **** 
 2710              		.loc 1 658 31 view .LVU833
 2711 000a 2900     		movs	r1, r5
 2712              	.LVL283:
 656:smtc_ral/src/ral_sx1280.c **** 
 2713              		.loc 1 656 30 view .LVU834
 2714 000c 0193     		str	r3, [sp, #4]
 658:smtc_ral/src/ral_sx1280.c **** 
 2715              		.loc 1 658 5 is_stmt 1 view .LVU835
 658:smtc_ral/src/ral_sx1280.c **** 
 2716              		.loc 1 658 31 is_stmt 0 view .LVU836
 2717 000e FFF7FEFF 		bl	sx1280_get_flrc_pkt_status
 2718              	.LVL284:
 660:smtc_ral/src/ral_sx1280.c ****     {
 2719              		.loc 1 660 5 is_stmt 1 view .LVU837
 660:smtc_ral/src/ral_sx1280.c ****     {
 2720              		.loc 1 660 7 is_stmt 0 view .LVU838
 2721 0012 0028     		cmp	r0, #0
 2722 0014 02D1     		bne	.L204
 662:smtc_ral/src/ral_sx1280.c ****     }
 2723              		.loc 1 662 9 is_stmt 1 view .LVU839
 662:smtc_ral/src/ral_sx1280.c ****     }
 2724              		.loc 1 662 48 is_stmt 0 view .LVU840
 2725 0016 0023     		movs	r3, #0
 2726 0018 EB56     		ldrsb	r3, [r5, r3]
 662:smtc_ral/src/ral_sx1280.c ****     }
 2727              		.loc 1 662 33 view .LVU841
ARM GAS  /var/folders/bq/yv49bw8j2kd6w3hsq868qv180000gn/T//ccyOvgmk.s 			page 84


 2728 001a 2380     		strh	r3, [r4]
 2729              	.L204:
 664:smtc_ral/src/ral_sx1280.c **** }
 2730              		.loc 1 664 5 is_stmt 1 view .LVU842
 665:smtc_ral/src/ral_sx1280.c **** 
 2731              		.loc 1 665 1 is_stmt 0 view .LVU843
 2732              		@ sp needed
 2733              	.LVL285:
 665:smtc_ral/src/ral_sx1280.c **** 
 2734              		.loc 1 665 1 view .LVU844
 2735 001c 3EBD     		pop	{r1, r2, r3, r4, r5, pc}
 2736              		.cfi_endproc
 2737              	.LFE19:
 2739              		.section	.text.ral_sx1280_set_sleep,"ax",%progbits
 2740              		.align	1
 2741              		.global	ral_sx1280_set_sleep
 2742              		.syntax unified
 2743              		.code	16
 2744              		.thumb_func
 2745              		.fpu softvfp
 2747              	ral_sx1280_set_sleep:
 2748              	.LVL286:
 2749              	.LFB20:
 668:smtc_ral/src/ral_sx1280.c ****     return ( ral_status_t ) sx1280_set_sleep(
 2750              		.loc 1 668 1 is_stmt 1 view -0
 2751              		.cfi_startproc
 2752              		@ args = 0, pretend = 0, frame = 0
 2753              		@ frame_needed = 0, uses_anonymous_args = 0
 669:smtc_ral/src/ral_sx1280.c ****         ral->context, SX1280_SLEEP_CFG_DATA_RETENTION | SX1280_SLEEP_CFG_DATA_BUFFER_RETENTION );
 2754              		.loc 1 669 5 view .LVU846
 668:smtc_ral/src/ral_sx1280.c ****     return ( ral_status_t ) sx1280_set_sleep(
 2755              		.loc 1 668 1 is_stmt 0 view .LVU847
 2756 0000 10B5     		push	{r4, lr}
 2757              		.cfi_def_cfa_offset 8
 2758              		.cfi_offset 4, -8
 2759              		.cfi_offset 14, -4
 669:smtc_ral/src/ral_sx1280.c ****         ral->context, SX1280_SLEEP_CFG_DATA_RETENTION | SX1280_SLEEP_CFG_DATA_BUFFER_RETENTION );
 2760              		.loc 1 669 29 view .LVU848
 2761 0002 0321     		movs	r1, #3
 2762 0004 0068     		ldr	r0, [r0]
 2763              	.LVL287:
 669:smtc_ral/src/ral_sx1280.c ****         ral->context, SX1280_SLEEP_CFG_DATA_RETENTION | SX1280_SLEEP_CFG_DATA_BUFFER_RETENTION );
 2764              		.loc 1 669 29 view .LVU849
 2765 0006 FFF7FEFF 		bl	sx1280_set_sleep
 2766              	.LVL288:
 671:smtc_ral/src/ral_sx1280.c **** 
 2767              		.loc 1 671 1 view .LVU850
 2768              		@ sp needed
 2769 000a 10BD     		pop	{r4, pc}
 2770              		.cfi_endproc
 2771              	.LFE20:
 2773              		.section	.text.ral_sx1280_set_standby,"ax",%progbits
 2774              		.align	1
 2775              		.global	ral_sx1280_set_standby
 2776              		.syntax unified
 2777              		.code	16
 2778              		.thumb_func
ARM GAS  /var/folders/bq/yv49bw8j2kd6w3hsq868qv180000gn/T//ccyOvgmk.s 			page 85


 2779              		.fpu softvfp
 2781              	ral_sx1280_set_standby:
 2782              	.LVL289:
 2783              	.LFB21:
 674:smtc_ral/src/ral_sx1280.c ****     return ( ral_status_t ) sx1280_set_standby( ral->context, SX1280_STANDBY_CFG_RC );
 2784              		.loc 1 674 1 is_stmt 1 view -0
 2785              		.cfi_startproc
 2786              		@ args = 0, pretend = 0, frame = 0
 2787              		@ frame_needed = 0, uses_anonymous_args = 0
 675:smtc_ral/src/ral_sx1280.c **** }
 2788              		.loc 1 675 5 view .LVU852
 674:smtc_ral/src/ral_sx1280.c ****     return ( ral_status_t ) sx1280_set_standby( ral->context, SX1280_STANDBY_CFG_RC );
 2789              		.loc 1 674 1 is_stmt 0 view .LVU853
 2790 0000 10B5     		push	{r4, lr}
 2791              		.cfi_def_cfa_offset 8
 2792              		.cfi_offset 4, -8
 2793              		.cfi_offset 14, -4
 675:smtc_ral/src/ral_sx1280.c **** }
 2794              		.loc 1 675 29 view .LVU854
 2795 0002 0021     		movs	r1, #0
 2796 0004 0068     		ldr	r0, [r0]
 2797              	.LVL290:
 675:smtc_ral/src/ral_sx1280.c **** }
 2798              		.loc 1 675 29 view .LVU855
 2799 0006 FFF7FEFF 		bl	sx1280_set_standby
 2800              	.LVL291:
 676:smtc_ral/src/ral_sx1280.c **** 
 2801              		.loc 1 676 1 view .LVU856
 2802              		@ sp needed
 2803 000a 10BD     		pop	{r4, pc}
 2804              		.cfi_endproc
 2805              	.LFE21:
 2807              		.section	.text.ral_sx1280_set_tx,"ax",%progbits
 2808              		.align	1
 2809              		.global	ral_sx1280_set_tx
 2810              		.syntax unified
 2811              		.code	16
 2812              		.thumb_func
 2813              		.fpu softvfp
 2815              	ral_sx1280_set_tx:
 2816              	.LVL292:
 2817              	.LFB22:
 679:smtc_ral/src/ral_sx1280.c ****     // Set no timeout.
 2818              		.loc 1 679 1 is_stmt 1 view -0
 2819              		.cfi_startproc
 2820              		@ args = 0, pretend = 0, frame = 0
 2821              		@ frame_needed = 0, uses_anonymous_args = 0
 681:smtc_ral/src/ral_sx1280.c **** }
 2822              		.loc 1 681 5 view .LVU858
 679:smtc_ral/src/ral_sx1280.c ****     // Set no timeout.
 2823              		.loc 1 679 1 is_stmt 0 view .LVU859
 2824 0000 10B5     		push	{r4, lr}
 2825              		.cfi_def_cfa_offset 8
 2826              		.cfi_offset 4, -8
 2827              		.cfi_offset 14, -4
 681:smtc_ral/src/ral_sx1280.c **** }
 2828              		.loc 1 681 29 view .LVU860
ARM GAS  /var/folders/bq/yv49bw8j2kd6w3hsq868qv180000gn/T//ccyOvgmk.s 			page 86


 2829 0002 0022     		movs	r2, #0
 2830 0004 0221     		movs	r1, #2
 2831 0006 0068     		ldr	r0, [r0]
 2832              	.LVL293:
 681:smtc_ral/src/ral_sx1280.c **** }
 2833              		.loc 1 681 29 view .LVU861
 2834 0008 FFF7FEFF 		bl	sx1280_set_tx
 2835              	.LVL294:
 682:smtc_ral/src/ral_sx1280.c **** 
 2836              		.loc 1 682 1 view .LVU862
 2837              		@ sp needed
 2838 000c 10BD     		pop	{r4, pc}
 2839              		.cfi_endproc
 2840              	.LFE22:
 2842              		.section	.text.ral_sx1280_set_tx_cw,"ax",%progbits
 2843              		.align	1
 2844              		.global	ral_sx1280_set_tx_cw
 2845              		.syntax unified
 2846              		.code	16
 2847              		.thumb_func
 2848              		.fpu softvfp
 2850              	ral_sx1280_set_tx_cw:
 2851              	.LVL295:
 2852              	.LFB23:
 685:smtc_ral/src/ral_sx1280.c ****     return ( ral_status_t ) sx1280_set_tx_cw( ral->context );
 2853              		.loc 1 685 1 is_stmt 1 view -0
 2854              		.cfi_startproc
 2855              		@ args = 0, pretend = 0, frame = 0
 2856              		@ frame_needed = 0, uses_anonymous_args = 0
 686:smtc_ral/src/ral_sx1280.c **** }
 2857              		.loc 1 686 5 view .LVU864
 685:smtc_ral/src/ral_sx1280.c ****     return ( ral_status_t ) sx1280_set_tx_cw( ral->context );
 2858              		.loc 1 685 1 is_stmt 0 view .LVU865
 2859 0000 10B5     		push	{r4, lr}
 2860              		.cfi_def_cfa_offset 8
 2861              		.cfi_offset 4, -8
 2862              		.cfi_offset 14, -4
 686:smtc_ral/src/ral_sx1280.c **** }
 2863              		.loc 1 686 29 view .LVU866
 2864 0002 0068     		ldr	r0, [r0]
 2865              	.LVL296:
 686:smtc_ral/src/ral_sx1280.c **** }
 2866              		.loc 1 686 29 view .LVU867
 2867 0004 FFF7FEFF 		bl	sx1280_set_tx_cw
 2868              	.LVL297:
 687:smtc_ral/src/ral_sx1280.c **** 
 2869              		.loc 1 687 1 view .LVU868
 2870              		@ sp needed
 2871 0008 10BD     		pop	{r4, pc}
 2872              		.cfi_endproc
 2873              	.LFE23:
 2875              		.section	.text.ral_sx1280_set_rx,"ax",%progbits
 2876              		.align	1
 2877              		.global	ral_sx1280_set_rx
 2878              		.syntax unified
 2879              		.code	16
 2880              		.thumb_func
ARM GAS  /var/folders/bq/yv49bw8j2kd6w3hsq868qv180000gn/T//ccyOvgmk.s 			page 87


 2881              		.fpu softvfp
 2883              	ral_sx1280_set_rx:
 2884              	.LVL298:
 2885              	.LFB25:
 744:smtc_ral/src/ral_sx1280.c ****     // WORKAROUND #1 - LoRa modem not handling rx_single nb_symb_timeout
 2886              		.loc 1 744 1 is_stmt 1 view -0
 2887              		.cfi_startproc
 2888              		@ args = 0, pretend = 0, frame = 72
 2889              		@ frame_needed = 0, uses_anonymous_args = 0
 746:smtc_ral/src/ral_sx1280.c ****     sx1280_pkt_type_t pkt_type         = SX1280_PKT_TYPE_GFSK;
 2890              		.loc 1 746 5 view .LVU870
 747:smtc_ral/src/ral_sx1280.c **** 
 2891              		.loc 1 747 5 view .LVU871
 744:smtc_ral/src/ral_sx1280.c ****     // WORKAROUND #1 - LoRa modem not handling rx_single nb_symb_timeout
 2892              		.loc 1 744 1 is_stmt 0 view .LVU872
 2893 0000 F0B5     		push	{r4, r5, r6, r7, lr}
 2894              		.cfi_def_cfa_offset 20
 2895              		.cfi_offset 4, -20
 2896              		.cfi_offset 5, -16
 2897              		.cfi_offset 6, -12
 2898              		.cfi_offset 7, -8
 2899              		.cfi_offset 14, -4
 2900 0002 93B0     		sub	sp, sp, #76
 2901              		.cfi_def_cfa_offset 96
 747:smtc_ral/src/ral_sx1280.c **** 
 2902              		.loc 1 747 23 view .LVU873
 2903 0004 6B46     		mov	r3, sp
 2904 0006 0026     		movs	r6, #0
 744:smtc_ral/src/ral_sx1280.c ****     // WORKAROUND #1 - LoRa modem not handling rx_single nb_symb_timeout
 2905              		.loc 1 744 1 view .LVU874
 2906 0008 0500     		movs	r5, r0
 2907 000a 0C00     		movs	r4, r1
 749:smtc_ral/src/ral_sx1280.c ****     switch( pkt_type )
 2908              		.loc 1 749 5 view .LVU875
 2909 000c 0068     		ldr	r0, [r0]
 2910              	.LVL299:
 749:smtc_ral/src/ral_sx1280.c ****     switch( pkt_type )
 2911              		.loc 1 749 5 view .LVU876
 2912 000e 991D     		adds	r1, r3, #6
 2913              	.LVL300:
 747:smtc_ral/src/ral_sx1280.c **** 
 2914              		.loc 1 747 23 view .LVU877
 2915 0010 9E71     		strb	r6, [r3, #6]
 749:smtc_ral/src/ral_sx1280.c ****     switch( pkt_type )
 2916              		.loc 1 749 5 is_stmt 1 view .LVU878
 2917 0012 FFF7FEFF 		bl	sx1280_get_pkt_type
 2918              	.LVL301:
 750:smtc_ral/src/ral_sx1280.c ****     {
 2919              		.loc 1 750 5 view .LVU879
 2920 0016 6B46     		mov	r3, sp
 2921 0018 9B79     		ldrb	r3, [r3, #6]
 2922 001a 022B     		cmp	r3, #2
 2923 001c 0AD8     		bhi	.L210
 2924 001e B342     		cmp	r3, r6
 2925 0020 0ED1     		bne	.L211
 2926              	.L219:
 2927 0022 2200     		movs	r2, r4
ARM GAS  /var/folders/bq/yv49bw8j2kd6w3hsq868qv180000gn/T//ccyOvgmk.s 			page 88


 2928              	.LVL302:
 2929              	.L212:
 776:smtc_ral/src/ral_sx1280.c ****     {  // Continuous mode
 2930              		.loc 1 776 5 view .LVU880
 2931 0024 2868     		ldr	r0, [r5]
 776:smtc_ral/src/ral_sx1280.c ****     {  // Continuous mode
 2932              		.loc 1 776 7 is_stmt 0 view .LVU881
 2933 0026 631C     		adds	r3, r4, #1
 2934 0028 2CD1     		bne	.L215
 778:smtc_ral/src/ral_sx1280.c ****     }
 2935              		.loc 1 778 9 is_stmt 1 view .LVU882
 778:smtc_ral/src/ral_sx1280.c ****     }
 2936              		.loc 1 778 33 is_stmt 0 view .LVU883
 2937 002a 1B4A     		ldr	r2, .L222
 2938              	.LVL303:
 2939              	.L221:
 784:smtc_ral/src/ral_sx1280.c ****         }
 2940              		.loc 1 784 37 view .LVU884
 2941 002c 0221     		movs	r1, #2
 2942              	.L220:
 788:smtc_ral/src/ral_sx1280.c ****         }
 2943              		.loc 1 788 37 view .LVU885
 2944 002e FFF7FEFF 		bl	sx1280_set_rx
 2945              	.LVL304:
 788:smtc_ral/src/ral_sx1280.c ****         }
 2946              		.loc 1 788 20 view .LVU886
 2947 0032 03E0     		b	.L213
 2948              	.LVL305:
 2949              	.L210:
 750:smtc_ral/src/ral_sx1280.c ****     {
 2950              		.loc 1 750 5 view .LVU887
 2951 0034 033B     		subs	r3, r3, #3
 2952 0036 0220     		movs	r0, #2
 2953 0038 012B     		cmp	r3, #1
 2954 003a F2D9     		bls	.L219
 2955              	.LVL306:
 2956              	.L213:
 791:smtc_ral/src/ral_sx1280.c **** 
 2957              		.loc 1 791 1 view .LVU888
 2958 003c 13B0     		add	sp, sp, #76
 2959              		@ sp needed
 2960              	.LVL307:
 2961              	.LVL308:
 791:smtc_ral/src/ral_sx1280.c **** 
 2962              		.loc 1 791 1 view .LVU889
 2963 003e F0BD     		pop	{r4, r5, r6, r7, pc}
 2964              	.LVL309:
 2965              	.L211:
 2966              	.LBB18:
 756:smtc_ral/src/ral_sx1280.c **** 
 2967              		.loc 1 756 9 is_stmt 1 view .LVU890
 756:smtc_ral/src/ral_sx1280.c **** 
 2968              		.loc 1 756 17 is_stmt 0 view .LVU891
 2969 0040 6B46     		mov	r3, sp
 759:smtc_ral/src/ral_sx1280.c **** 
 2970              		.loc 1 759 9 view .LVU892
 2971 0042 6A46     		mov	r2, sp
ARM GAS  /var/folders/bq/yv49bw8j2kd6w3hsq868qv180000gn/T//ccyOvgmk.s 			page 89


 756:smtc_ral/src/ral_sx1280.c **** 
 2972              		.loc 1 756 17 view .LVU893
 2973 0044 DE71     		strb	r6, [r3, #7]
 759:smtc_ral/src/ral_sx1280.c **** 
 2974              		.loc 1 759 9 is_stmt 1 view .LVU894
 2975 0046 1549     		ldr	r1, .L222+4
 2976 0048 0123     		movs	r3, #1
 2977 004a 0732     		adds	r2, r2, #7
 2978 004c 2868     		ldr	r0, [r5]
 2979 004e FFF7FEFF 		bl	sx1280_read_register
 2980              	.LVL310:
 761:smtc_ral/src/ral_sx1280.c ****         break;
 2981              		.loc 1 761 9 view .LVU895
 761:smtc_ral/src/ral_sx1280.c ****         break;
 2982              		.loc 1 761 41 is_stmt 0 view .LVU896
 2983 0052 6B46     		mov	r3, sp
 2984              	.LBB19:
 2985              	.LBB20:
 707:smtc_ral/src/ral_sx1280.c ****         // clang-format off
 2986              		.loc 1 707 20 view .LVU897
 2987 0054 02AF     		add	r7, sp, #8
 2988 0056 4022     		movs	r2, #64
 2989 0058 3800     		movs	r0, r7
 2990 005a 1149     		ldr	r1, .L222+8
 2991              	.LBE20:
 2992              	.LBE19:
 761:smtc_ral/src/ral_sx1280.c ****         break;
 2993              		.loc 1 761 41 view .LVU898
 2994 005c DE79     		ldrb	r6, [r3, #7]
 2995              	.LVL311:
 2996              	.LBB23:
 2997              	.LBI19:
 700:smtc_ral/src/ral_sx1280.c **** {
 2998              		.loc 1 700 17 is_stmt 1 view .LVU899
 2999              	.LBB21:
 707:smtc_ral/src/ral_sx1280.c ****         // clang-format off
 3000              		.loc 1 707 5 view .LVU900
 707:smtc_ral/src/ral_sx1280.c ****         // clang-format off
 3001              		.loc 1 707 20 is_stmt 0 view .LVU901
 3002 005e FFF7FEFF 		bl	memcpy
 3003              	.LVL312:
 719:smtc_ral/src/ral_sx1280.c ****     switch( bw_reg )
 3004              		.loc 1 719 5 is_stmt 1 view .LVU902
 720:smtc_ral/src/ral_sx1280.c ****     {
 3005              		.loc 1 720 5 view .LVU903
 3006              	.LBE21:
 3007              	.LBE23:
 761:smtc_ral/src/ral_sx1280.c ****         break;
 3008              		.loc 1 761 41 is_stmt 0 view .LVU904
 3009 0062 0E23     		movs	r3, #14
 3010 0064 3340     		ands	r3, r6
 3011 0066 043B     		subs	r3, r3, #4
 3012 0068 DBB2     		uxtb	r3, r3
 3013              	.LBB24:
 3014              	.LBB22:
 707:smtc_ral/src/ral_sx1280.c ****         // clang-format off
 3015              		.loc 1 707 20 view .LVU905
ARM GAS  /var/folders/bq/yv49bw8j2kd6w3hsq868qv180000gn/T//ccyOvgmk.s 			page 90


 3016 006a 0322     		movs	r2, #3
 3017 006c 042B     		cmp	r3, #4
 3018 006e 01D8     		bhi	.L214
 3019 0070 0C4A     		ldr	r2, .L222+12
 3020 0072 D25C     		ldrb	r2, [r2, r3]
 3021              	.L214:
 3022              	.LVL313:
 738:smtc_ral/src/ral_sx1280.c **** }
 3023              		.loc 1 738 5 is_stmt 1 view .LVU906
 738:smtc_ral/src/ral_sx1280.c **** }
 3024              		.loc 1 738 37 is_stmt 0 view .LVU907
 3025 0074 3609     		lsrs	r6, r6, #4
 3026              	.LVL314:
 738:smtc_ral/src/ral_sx1280.c **** }
 3027              		.loc 1 738 48 view .LVU908
 3028 0076 053E     		subs	r6, r6, #5
 3029 0078 B600     		lsls	r6, r6, #2
 3030 007a B618     		adds	r6, r6, r2
 3031 007c 7600     		lsls	r6, r6, #1
 3032 007e BA5B     		ldrh	r2, [r7, r6]
 3033              	.LVL315:
 738:smtc_ral/src/ral_sx1280.c **** }
 3034              		.loc 1 738 48 view .LVU909
 3035              	.LBE22:
 3036              	.LBE24:
 761:smtc_ral/src/ral_sx1280.c ****         break;
 3037              		.loc 1 761 26 view .LVU910
 3038 0080 1219     		adds	r2, r2, r4
 3039              	.LVL316:
 762:smtc_ral/src/ral_sx1280.c ****     }
 3040              		.loc 1 762 9 is_stmt 1 view .LVU911
 3041 0082 CFE7     		b	.L212
 3042              	.L215:
 762:smtc_ral/src/ral_sx1280.c ****     }
 3043              		.loc 1 762 9 is_stmt 0 view .LVU912
 3044              	.LBE18:
 782:smtc_ral/src/ral_sx1280.c ****         {
 3045              		.loc 1 782 9 is_stmt 1 view .LVU913
 782:smtc_ral/src/ral_sx1280.c ****         {
 3046              		.loc 1 782 11 is_stmt 0 view .LVU914
 3047 0084 8023     		movs	r3, #128
 3048 0086 5B02     		lsls	r3, r3, #9
 3049 0088 9A42     		cmp	r2, r3
 3050 008a 01D2     		bcs	.L216
 784:smtc_ral/src/ral_sx1280.c ****         }
 3051              		.loc 1 784 13 is_stmt 1 view .LVU915
 784:smtc_ral/src/ral_sx1280.c ****         }
 3052              		.loc 1 784 37 is_stmt 0 view .LVU916
 3053 008c 92B2     		uxth	r2, r2
 3054              	.LVL317:
 784:smtc_ral/src/ral_sx1280.c ****         }
 3055              		.loc 1 784 37 view .LVU917
 3056 008e CDE7     		b	.L221
 3057              	.LVL318:
 3058              	.L216:
 788:smtc_ral/src/ral_sx1280.c ****         }
 3059              		.loc 1 788 13 is_stmt 1 view .LVU918
ARM GAS  /var/folders/bq/yv49bw8j2kd6w3hsq868qv180000gn/T//ccyOvgmk.s 			page 91


 788:smtc_ral/src/ral_sx1280.c ****         }
 3060              		.loc 1 788 109 is_stmt 0 view .LVU919
 3061 0090 9208     		lsrs	r2, r2, #2
 3062              	.LVL319:
 788:smtc_ral/src/ral_sx1280.c ****         }
 3063              		.loc 1 788 37 view .LVU920
 3064 0092 0321     		movs	r1, #3
 3065 0094 92B2     		uxth	r2, r2
 3066 0096 CAE7     		b	.L220
 3067              	.L223:
 3068              		.align	2
 3069              	.L222:
 3070 0098 FFFF0000 		.word	65535
 3071 009c 02090000 		.word	2306
 3072 00a0 00000000 		.word	.LANCHOR1
 3073 00a4 00000000 		.word	.LANCHOR2
 3074              		.cfi_endproc
 3075              	.LFE25:
 3077              		.section	.text.ral_sx1280_set_cad,"ax",%progbits
 3078              		.align	1
 3079              		.global	ral_sx1280_set_cad
 3080              		.syntax unified
 3081              		.code	16
 3082              		.thumb_func
 3083              		.fpu softvfp
 3085              	ral_sx1280_set_cad:
 3086              	.LVL320:
 3087              	.LFB26:
 794:smtc_ral/src/ral_sx1280.c ****     return ( ral_status_t ) sx1280_set_cad( ral->context );
 3088              		.loc 1 794 1 is_stmt 1 view -0
 3089              		.cfi_startproc
 3090              		@ args = 0, pretend = 0, frame = 0
 3091              		@ frame_needed = 0, uses_anonymous_args = 0
 795:smtc_ral/src/ral_sx1280.c **** }
 3092              		.loc 1 795 5 view .LVU922
 794:smtc_ral/src/ral_sx1280.c ****     return ( ral_status_t ) sx1280_set_cad( ral->context );
 3093              		.loc 1 794 1 is_stmt 0 view .LVU923
 3094 0000 10B5     		push	{r4, lr}
 3095              		.cfi_def_cfa_offset 8
 3096              		.cfi_offset 4, -8
 3097              		.cfi_offset 14, -4
 795:smtc_ral/src/ral_sx1280.c **** }
 3098              		.loc 1 795 29 view .LVU924
 3099 0002 0068     		ldr	r0, [r0]
 3100              	.LVL321:
 795:smtc_ral/src/ral_sx1280.c **** }
 3101              		.loc 1 795 29 view .LVU925
 3102 0004 FFF7FEFF 		bl	sx1280_set_cad
 3103              	.LVL322:
 796:smtc_ral/src/ral_sx1280.c **** 
 3104              		.loc 1 796 1 view .LVU926
 3105              		@ sp needed
 3106 0008 10BD     		pop	{r4, pc}
 3107              		.cfi_endproc
 3108              	.LFE26:
 3110              		.section	.text.ral_sx1280_get_irq_status,"ax",%progbits
 3111              		.align	1
ARM GAS  /var/folders/bq/yv49bw8j2kd6w3hsq868qv180000gn/T//ccyOvgmk.s 			page 92


 3112              		.global	ral_sx1280_get_irq_status
 3113              		.syntax unified
 3114              		.code	16
 3115              		.thumb_func
 3116              		.fpu softvfp
 3118              	ral_sx1280_get_irq_status:
 3119              	.LVL323:
 3120              	.LFB27:
 799:smtc_ral/src/ral_sx1280.c ****     ral_status_t      status          = RAL_STATUS_ERROR;
 3121              		.loc 1 799 1 is_stmt 1 view -0
 3122              		.cfi_startproc
 3123              		@ args = 0, pretend = 0, frame = 8
 3124              		@ frame_needed = 0, uses_anonymous_args = 0
 800:smtc_ral/src/ral_sx1280.c ****     sx1280_irq_mask_t sx1280_irq_mask = SX1280_IRQ_NONE;
 3125              		.loc 1 800 5 view .LVU928
 801:smtc_ral/src/ral_sx1280.c **** 
 3126              		.loc 1 801 5 view .LVU929
 799:smtc_ral/src/ral_sx1280.c ****     ral_status_t      status          = RAL_STATUS_ERROR;
 3127              		.loc 1 799 1 is_stmt 0 view .LVU930
 3128 0000 37B5     		push	{r0, r1, r2, r4, r5, lr}
 3129              		.cfi_def_cfa_offset 24
 3130              		.cfi_offset 0, -24
 3131              		.cfi_offset 1, -20
 3132              		.cfi_offset 2, -16
 3133              		.cfi_offset 4, -12
 3134              		.cfi_offset 5, -8
 3135              		.cfi_offset 14, -4
 801:smtc_ral/src/ral_sx1280.c **** 
 3136              		.loc 1 801 23 view .LVU931
 3137 0002 6A46     		mov	r2, sp
 3138 0004 0023     		movs	r3, #0
 799:smtc_ral/src/ral_sx1280.c ****     ral_status_t      status          = RAL_STATUS_ERROR;
 3139              		.loc 1 799 1 view .LVU932
 3140 0006 0D00     		movs	r5, r1
 803:smtc_ral/src/ral_sx1280.c ****     if( status == RAL_STATUS_OK )
 3141              		.loc 1 803 31 view .LVU933
 3142 0008 0068     		ldr	r0, [r0]
 3143              	.LVL324:
 803:smtc_ral/src/ral_sx1280.c ****     if( status == RAL_STATUS_OK )
 3144              		.loc 1 803 31 view .LVU934
 3145 000a 911D     		adds	r1, r2, #6
 3146              	.LVL325:
 801:smtc_ral/src/ral_sx1280.c **** 
 3147              		.loc 1 801 23 view .LVU935
 3148 000c D380     		strh	r3, [r2, #6]
 803:smtc_ral/src/ral_sx1280.c ****     if( status == RAL_STATUS_OK )
 3149              		.loc 1 803 5 is_stmt 1 view .LVU936
 803:smtc_ral/src/ral_sx1280.c ****     if( status == RAL_STATUS_OK )
 3150              		.loc 1 803 31 is_stmt 0 view .LVU937
 3151 000e FFF7FEFF 		bl	sx1280_get_irq_status
 3152              	.LVL326:
 3153 0012 041E     		subs	r4, r0, #0
 3154              	.LVL327:
 804:smtc_ral/src/ral_sx1280.c ****     {
 3155              		.loc 1 804 5 is_stmt 1 view .LVU938
 804:smtc_ral/src/ral_sx1280.c ****     {
 3156              		.loc 1 804 7 is_stmt 0 view .LVU939
ARM GAS  /var/folders/bq/yv49bw8j2kd6w3hsq868qv180000gn/T//ccyOvgmk.s 			page 93


 3157 0014 04D1     		bne	.L226
 806:smtc_ral/src/ral_sx1280.c ****     }
 3158              		.loc 1 806 9 is_stmt 1 view .LVU940
 806:smtc_ral/src/ral_sx1280.c ****     }
 3159              		.loc 1 806 20 is_stmt 0 view .LVU941
 3160 0016 6B46     		mov	r3, sp
 3161 0018 D888     		ldrh	r0, [r3, #6]
 3162              	.LVL328:
 806:smtc_ral/src/ral_sx1280.c ****     }
 3163              		.loc 1 806 20 view .LVU942
 3164 001a FFF7FEFF 		bl	ral_sx1280_convert_irq_flags_to_radio
 3165              	.LVL329:
 806:smtc_ral/src/ral_sx1280.c ****     }
 3166              		.loc 1 806 18 view .LVU943
 3167 001e 2880     		strh	r0, [r5]
 3168              	.L226:
 808:smtc_ral/src/ral_sx1280.c **** }
 3169              		.loc 1 808 5 is_stmt 1 view .LVU944
 809:smtc_ral/src/ral_sx1280.c **** 
 3170              		.loc 1 809 1 is_stmt 0 view .LVU945
 3171 0020 2000     		movs	r0, r4
 3172              		@ sp needed
 3173              	.LVL330:
 809:smtc_ral/src/ral_sx1280.c **** 
 3174              		.loc 1 809 1 view .LVU946
 3175 0022 3EBD     		pop	{r1, r2, r3, r4, r5, pc}
 3176              		.cfi_endproc
 3177              	.LFE27:
 3179              		.section	.text.ral_sx1280_clear_irq_status,"ax",%progbits
 3180              		.align	1
 3181              		.global	ral_sx1280_clear_irq_status
 3182              		.syntax unified
 3183              		.code	16
 3184              		.thumb_func
 3185              		.fpu softvfp
 3187              	ral_sx1280_clear_irq_status:
 3188              	.LVL331:
 3189              	.LFB28:
 812:smtc_ral/src/ral_sx1280.c ****     sx1280_irq_mask_t sx1280_irq_mask = ral_sx1280_convert_irq_flags_from_radio( ral_irq );
 3190              		.loc 1 812 1 is_stmt 1 view -0
 3191              		.cfi_startproc
 3192              		@ args = 0, pretend = 0, frame = 0
 3193              		@ frame_needed = 0, uses_anonymous_args = 0
 813:smtc_ral/src/ral_sx1280.c **** 
 3194              		.loc 1 813 5 view .LVU948
 812:smtc_ral/src/ral_sx1280.c ****     sx1280_irq_mask_t sx1280_irq_mask = ral_sx1280_convert_irq_flags_from_radio( ral_irq );
 3195              		.loc 1 812 1 is_stmt 0 view .LVU949
 3196 0000 10B5     		push	{r4, lr}
 3197              		.cfi_def_cfa_offset 8
 3198              		.cfi_offset 4, -8
 3199              		.cfi_offset 14, -4
 812:smtc_ral/src/ral_sx1280.c ****     sx1280_irq_mask_t sx1280_irq_mask = ral_sx1280_convert_irq_flags_from_radio( ral_irq );
 3200              		.loc 1 812 1 view .LVU950
 3201 0002 0400     		movs	r4, r0
 3202 0004 0800     		movs	r0, r1
 3203              	.LVL332:
 813:smtc_ral/src/ral_sx1280.c **** 
ARM GAS  /var/folders/bq/yv49bw8j2kd6w3hsq868qv180000gn/T//ccyOvgmk.s 			page 94


 3204              		.loc 1 813 41 view .LVU951
 3205 0006 FFF7FEFF 		bl	ral_sx1280_convert_irq_flags_from_radio
 3206              	.LVL333:
 813:smtc_ral/src/ral_sx1280.c **** 
 3207              		.loc 1 813 41 view .LVU952
 3208 000a 0100     		movs	r1, r0
 3209              	.LVL334:
 815:smtc_ral/src/ral_sx1280.c ****     {
 3210              		.loc 1 815 5 is_stmt 1 view .LVU953
 821:smtc_ral/src/ral_sx1280.c ****     }
 3211              		.loc 1 821 16 is_stmt 0 view .LVU954
 3212 000c 0020     		movs	r0, #0
 815:smtc_ral/src/ral_sx1280.c ****     {
 3213              		.loc 1 815 7 view .LVU955
 3214 000e 8142     		cmp	r1, r0
 3215 0010 02D0     		beq	.L228
 817:smtc_ral/src/ral_sx1280.c ****     }
 3216              		.loc 1 817 9 is_stmt 1 view .LVU956
 817:smtc_ral/src/ral_sx1280.c ****     }
 3217              		.loc 1 817 33 is_stmt 0 view .LVU957
 3218 0012 2068     		ldr	r0, [r4]
 3219 0014 FFF7FEFF 		bl	sx1280_clear_irq_status
 3220              	.LVL335:
 3221              	.L228:
 823:smtc_ral/src/ral_sx1280.c **** 
 3222              		.loc 1 823 1 view .LVU958
 3223              		@ sp needed
 3224              	.LVL336:
 823:smtc_ral/src/ral_sx1280.c **** 
 3225              		.loc 1 823 1 view .LVU959
 3226 0018 10BD     		pop	{r4, pc}
 3227              		.cfi_endproc
 3228              	.LFE28:
 3230              		.section	.text.ral_sx1280_get_and_clear_irq_status,"ax",%progbits
 3231              		.align	1
 3232              		.global	ral_sx1280_get_and_clear_irq_status
 3233              		.syntax unified
 3234              		.code	16
 3235              		.thumb_func
 3236              		.fpu softvfp
 3238              	ral_sx1280_get_and_clear_irq_status:
 3239              	.LVL337:
 3240              	.LFB29:
 826:smtc_ral/src/ral_sx1280.c ****     ral_irq_t         ral_irq_mask;
 3241              		.loc 1 826 1 is_stmt 1 view -0
 3242              		.cfi_startproc
 3243              		@ args = 0, pretend = 0, frame = 8
 3244              		@ frame_needed = 0, uses_anonymous_args = 0
 827:smtc_ral/src/ral_sx1280.c ****     ral_status_t      status          = RAL_STATUS_ERROR;
 3245              		.loc 1 827 5 view .LVU961
 828:smtc_ral/src/ral_sx1280.c ****     sx1280_irq_mask_t sx1280_irq_mask = SX1280_IRQ_NONE;
 3246              		.loc 1 828 5 view .LVU962
 829:smtc_ral/src/ral_sx1280.c **** 
 3247              		.loc 1 829 5 view .LVU963
 826:smtc_ral/src/ral_sx1280.c ****     ral_irq_t         ral_irq_mask;
 3248              		.loc 1 826 1 is_stmt 0 view .LVU964
 3249 0000 37B5     		push	{r0, r1, r2, r4, r5, lr}
ARM GAS  /var/folders/bq/yv49bw8j2kd6w3hsq868qv180000gn/T//ccyOvgmk.s 			page 95


 3250              		.cfi_def_cfa_offset 24
 3251              		.cfi_offset 0, -24
 3252              		.cfi_offset 1, -20
 3253              		.cfi_offset 2, -16
 3254              		.cfi_offset 4, -12
 3255              		.cfi_offset 5, -8
 3256              		.cfi_offset 14, -4
 829:smtc_ral/src/ral_sx1280.c **** 
 3257              		.loc 1 829 23 view .LVU965
 3258 0002 6A46     		mov	r2, sp
 3259 0004 0023     		movs	r3, #0
 826:smtc_ral/src/ral_sx1280.c ****     ral_irq_t         ral_irq_mask;
 3260              		.loc 1 826 1 view .LVU966
 3261 0006 0D00     		movs	r5, r1
 831:smtc_ral/src/ral_sx1280.c **** 
 3262              		.loc 1 831 31 view .LVU967
 3263 0008 0068     		ldr	r0, [r0]
 3264              	.LVL338:
 831:smtc_ral/src/ral_sx1280.c **** 
 3265              		.loc 1 831 31 view .LVU968
 3266 000a 911D     		adds	r1, r2, #6
 3267              	.LVL339:
 829:smtc_ral/src/ral_sx1280.c **** 
 3268              		.loc 1 829 23 view .LVU969
 3269 000c D380     		strh	r3, [r2, #6]
 831:smtc_ral/src/ral_sx1280.c **** 
 3270              		.loc 1 831 5 is_stmt 1 view .LVU970
 831:smtc_ral/src/ral_sx1280.c **** 
 3271              		.loc 1 831 31 is_stmt 0 view .LVU971
 3272 000e FFF7FEFF 		bl	sx1280_get_and_clear_irq_status
 3273              	.LVL340:
 3274 0012 041E     		subs	r4, r0, #0
 3275              	.LVL341:
 833:smtc_ral/src/ral_sx1280.c ****     {
 3276              		.loc 1 833 5 is_stmt 1 view .LVU972
 833:smtc_ral/src/ral_sx1280.c ****     {
 3277              		.loc 1 833 7 is_stmt 0 view .LVU973
 3278 0014 06D1     		bne	.L232
 835:smtc_ral/src/ral_sx1280.c ****         if( ral_irq != NULL )
 3279              		.loc 1 835 9 is_stmt 1 view .LVU974
 836:smtc_ral/src/ral_sx1280.c ****         {
 3280              		.loc 1 836 9 view .LVU975
 836:smtc_ral/src/ral_sx1280.c ****         {
 3281              		.loc 1 836 11 is_stmt 0 view .LVU976
 3282 0016 002D     		cmp	r5, #0
 3283 0018 04D0     		beq	.L232
 838:smtc_ral/src/ral_sx1280.c ****         }
 3284              		.loc 1 838 13 is_stmt 1 view .LVU977
 835:smtc_ral/src/ral_sx1280.c ****         if( ral_irq != NULL )
 3285              		.loc 1 835 24 is_stmt 0 view .LVU978
 3286 001a 6B46     		mov	r3, sp
 3287 001c D888     		ldrh	r0, [r3, #6]
 3288              	.LVL342:
 835:smtc_ral/src/ral_sx1280.c ****         if( ral_irq != NULL )
 3289              		.loc 1 835 24 view .LVU979
 3290 001e FFF7FEFF 		bl	ral_sx1280_convert_irq_flags_to_radio
 3291              	.LVL343:
ARM GAS  /var/folders/bq/yv49bw8j2kd6w3hsq868qv180000gn/T//ccyOvgmk.s 			page 96


 838:smtc_ral/src/ral_sx1280.c ****         }
 3292              		.loc 1 838 22 view .LVU980
 3293 0022 2880     		strh	r0, [r5]
 3294              	.L232:
 841:smtc_ral/src/ral_sx1280.c **** }
 3295              		.loc 1 841 5 is_stmt 1 view .LVU981
 842:smtc_ral/src/ral_sx1280.c **** 
 3296              		.loc 1 842 1 is_stmt 0 view .LVU982
 3297 0024 2000     		movs	r0, r4
 3298              		@ sp needed
 3299              	.LVL344:
 842:smtc_ral/src/ral_sx1280.c **** 
 3300              		.loc 1 842 1 view .LVU983
 3301 0026 3EBD     		pop	{r1, r2, r3, r4, r5, pc}
 3302              		.cfi_endproc
 3303              	.LFE29:
 3305              		.section	.text.ral_sx1280_set_dio_irq_params,"ax",%progbits
 3306              		.align	1
 3307              		.global	ral_sx1280_set_dio_irq_params
 3308              		.syntax unified
 3309              		.code	16
 3310              		.thumb_func
 3311              		.fpu softvfp
 3313              	ral_sx1280_set_dio_irq_params:
 3314              	.LVL345:
 3315              	.LFB30:
 845:smtc_ral/src/ral_sx1280.c ****     uint16_t sx1280_irq = ral_sx1280_convert_irq_flags_from_radio( ral_irq );
 3316              		.loc 1 845 1 is_stmt 1 view -0
 3317              		.cfi_startproc
 3318              		@ args = 0, pretend = 0, frame = 0
 3319              		@ frame_needed = 0, uses_anonymous_args = 0
 846:smtc_ral/src/ral_sx1280.c **** 
 3320              		.loc 1 846 5 view .LVU985
 845:smtc_ral/src/ral_sx1280.c ****     uint16_t sx1280_irq = ral_sx1280_convert_irq_flags_from_radio( ral_irq );
 3321              		.loc 1 845 1 is_stmt 0 view .LVU986
 3322 0000 13B5     		push	{r0, r1, r4, lr}
 3323              		.cfi_def_cfa_offset 16
 3324              		.cfi_offset 0, -16
 3325              		.cfi_offset 1, -12
 3326              		.cfi_offset 4, -8
 3327              		.cfi_offset 14, -4
 845:smtc_ral/src/ral_sx1280.c ****     uint16_t sx1280_irq = ral_sx1280_convert_irq_flags_from_radio( ral_irq );
 3328              		.loc 1 845 1 view .LVU987
 3329 0002 0400     		movs	r4, r0
 3330 0004 0800     		movs	r0, r1
 3331              	.LVL346:
 846:smtc_ral/src/ral_sx1280.c **** 
 3332              		.loc 1 846 27 view .LVU988
 3333 0006 FFF7FEFF 		bl	ral_sx1280_convert_irq_flags_from_radio
 3334              	.LVL347:
 848:smtc_ral/src/ral_sx1280.c ****                                                        SX1280_IRQ_NONE );
 3335              		.loc 1 848 29 view .LVU989
 3336 000a 0023     		movs	r3, #0
 846:smtc_ral/src/ral_sx1280.c **** 
 3337              		.loc 1 846 27 view .LVU990
 3338 000c 0100     		movs	r1, r0
 3339              	.LVL348:
ARM GAS  /var/folders/bq/yv49bw8j2kd6w3hsq868qv180000gn/T//ccyOvgmk.s 			page 97


 848:smtc_ral/src/ral_sx1280.c ****                                                        SX1280_IRQ_NONE );
 3340              		.loc 1 848 5 is_stmt 1 view .LVU991
 848:smtc_ral/src/ral_sx1280.c ****                                                        SX1280_IRQ_NONE );
 3341              		.loc 1 848 29 is_stmt 0 view .LVU992
 3342 000e 0200     		movs	r2, r0
 3343 0010 0093     		str	r3, [sp]
 3344 0012 2068     		ldr	r0, [r4]
 3345              	.LVL349:
 848:smtc_ral/src/ral_sx1280.c ****                                                        SX1280_IRQ_NONE );
 3346              		.loc 1 848 29 view .LVU993
 3347 0014 FFF7FEFF 		bl	sx1280_set_dio_irq_params
 3348              	.LVL350:
 850:smtc_ral/src/ral_sx1280.c **** 
 3349              		.loc 1 850 1 view .LVU994
 3350              		@ sp needed
 3351              	.LVL351:
 850:smtc_ral/src/ral_sx1280.c **** 
 3352              		.loc 1 850 1 view .LVU995
 3353 0018 16BD     		pop	{r1, r2, r4, pc}
 3354              		.cfi_endproc
 3355              	.LFE30:
 3357              		.section	.text.ral_sx1280_process_irq,"ax",%progbits
 3358              		.align	1
 3359              		.global	ral_sx1280_process_irq
 3360              		.syntax unified
 3361              		.code	16
 3362              		.thumb_func
 3363              		.fpu softvfp
 3365              	ral_sx1280_process_irq:
 3366              	.LVL352:
 3367              	.LFB31:
 853:smtc_ral/src/ral_sx1280.c ****     ral_status_t      status          = RAL_STATUS_ERROR;
 3368              		.loc 1 853 1 is_stmt 1 view -0
 3369              		.cfi_startproc
 3370              		@ args = 0, pretend = 0, frame = 8
 3371              		@ frame_needed = 0, uses_anonymous_args = 0
 854:smtc_ral/src/ral_sx1280.c ****     sx1280_irq_mask_t sx1280_irq_mask = SX1280_IRQ_NONE;
 3372              		.loc 1 854 5 view .LVU997
 855:smtc_ral/src/ral_sx1280.c **** 
 3373              		.loc 1 855 5 view .LVU998
 853:smtc_ral/src/ral_sx1280.c ****     ral_status_t      status          = RAL_STATUS_ERROR;
 3374              		.loc 1 853 1 is_stmt 0 view .LVU999
 3375 0000 37B5     		push	{r0, r1, r2, r4, r5, lr}
 3376              		.cfi_def_cfa_offset 24
 3377              		.cfi_offset 0, -24
 3378              		.cfi_offset 1, -20
 3379              		.cfi_offset 2, -16
 3380              		.cfi_offset 4, -12
 3381              		.cfi_offset 5, -8
 3382              		.cfi_offset 14, -4
 855:smtc_ral/src/ral_sx1280.c **** 
 3383              		.loc 1 855 23 view .LVU1000
 3384 0002 6A46     		mov	r2, sp
 3385 0004 0023     		movs	r3, #0
 853:smtc_ral/src/ral_sx1280.c ****     ral_status_t      status          = RAL_STATUS_ERROR;
 3386              		.loc 1 853 1 view .LVU1001
 3387 0006 0D00     		movs	r5, r1
ARM GAS  /var/folders/bq/yv49bw8j2kd6w3hsq868qv180000gn/T//ccyOvgmk.s 			page 98


 857:smtc_ral/src/ral_sx1280.c ****     if( status == RAL_STATUS_OK )
 3388              		.loc 1 857 31 view .LVU1002
 3389 0008 0068     		ldr	r0, [r0]
 3390              	.LVL353:
 857:smtc_ral/src/ral_sx1280.c ****     if( status == RAL_STATUS_OK )
 3391              		.loc 1 857 31 view .LVU1003
 3392 000a 911D     		adds	r1, r2, #6
 3393              	.LVL354:
 855:smtc_ral/src/ral_sx1280.c **** 
 3394              		.loc 1 855 23 view .LVU1004
 3395 000c D380     		strh	r3, [r2, #6]
 857:smtc_ral/src/ral_sx1280.c ****     if( status == RAL_STATUS_OK )
 3396              		.loc 1 857 5 is_stmt 1 view .LVU1005
 857:smtc_ral/src/ral_sx1280.c ****     if( status == RAL_STATUS_OK )
 3397              		.loc 1 857 31 is_stmt 0 view .LVU1006
 3398 000e FFF7FEFF 		bl	sx1280_process_irq
 3399              	.LVL355:
 3400 0012 041E     		subs	r4, r0, #0
 3401              	.LVL356:
 858:smtc_ral/src/ral_sx1280.c ****     {
 3402              		.loc 1 858 5 is_stmt 1 view .LVU1007
 858:smtc_ral/src/ral_sx1280.c ****     {
 3403              		.loc 1 858 7 is_stmt 0 view .LVU1008
 3404 0014 04D1     		bne	.L238
 860:smtc_ral/src/ral_sx1280.c ****     }
 3405              		.loc 1 860 9 is_stmt 1 view .LVU1009
 860:smtc_ral/src/ral_sx1280.c ****     }
 3406              		.loc 1 860 20 is_stmt 0 view .LVU1010
 3407 0016 6B46     		mov	r3, sp
 3408 0018 D888     		ldrh	r0, [r3, #6]
 3409              	.LVL357:
 860:smtc_ral/src/ral_sx1280.c ****     }
 3410              		.loc 1 860 20 view .LVU1011
 3411 001a FFF7FEFF 		bl	ral_sx1280_convert_irq_flags_to_radio
 3412              	.LVL358:
 860:smtc_ral/src/ral_sx1280.c ****     }
 3413              		.loc 1 860 18 view .LVU1012
 3414 001e 2880     		strh	r0, [r5]
 3415              	.L238:
 862:smtc_ral/src/ral_sx1280.c **** }
 3416              		.loc 1 862 5 is_stmt 1 view .LVU1013
 863:smtc_ral/src/ral_sx1280.c **** 
 3417              		.loc 1 863 1 is_stmt 0 view .LVU1014
 3418 0020 2000     		movs	r0, r4
 3419              		@ sp needed
 3420              	.LVL359:
 863:smtc_ral/src/ral_sx1280.c **** 
 3421              		.loc 1 863 1 view .LVU1015
 3422 0022 3EBD     		pop	{r1, r2, r3, r4, r5, pc}
 3423              		.cfi_endproc
 3424              	.LFE31:
 3426              		.section	.text.ral_sx1280_get_rssi,"ax",%progbits
 3427              		.align	1
 3428              		.global	ral_sx1280_get_rssi
 3429              		.syntax unified
 3430              		.code	16
 3431              		.thumb_func
ARM GAS  /var/folders/bq/yv49bw8j2kd6w3hsq868qv180000gn/T//ccyOvgmk.s 			page 99


 3432              		.fpu softvfp
 3434              	ral_sx1280_get_rssi:
 3435              	.LVL360:
 3436              	.LFB32:
 866:smtc_ral/src/ral_sx1280.c ****     return ( ral_status_t ) sx1280_get_rssi_inst( ral->context, rssi );
 3437              		.loc 1 866 1 is_stmt 1 view -0
 3438              		.cfi_startproc
 3439              		@ args = 0, pretend = 0, frame = 0
 3440              		@ frame_needed = 0, uses_anonymous_args = 0
 867:smtc_ral/src/ral_sx1280.c **** }
 3441              		.loc 1 867 5 view .LVU1017
 866:smtc_ral/src/ral_sx1280.c ****     return ( ral_status_t ) sx1280_get_rssi_inst( ral->context, rssi );
 3442              		.loc 1 866 1 is_stmt 0 view .LVU1018
 3443 0000 10B5     		push	{r4, lr}
 3444              		.cfi_def_cfa_offset 8
 3445              		.cfi_offset 4, -8
 3446              		.cfi_offset 14, -4
 867:smtc_ral/src/ral_sx1280.c **** }
 3447              		.loc 1 867 29 view .LVU1019
 3448 0002 0068     		ldr	r0, [r0]
 3449              	.LVL361:
 867:smtc_ral/src/ral_sx1280.c **** }
 3450              		.loc 1 867 29 view .LVU1020
 3451 0004 FFF7FEFF 		bl	sx1280_get_rssi_inst
 3452              	.LVL362:
 868:smtc_ral/src/ral_sx1280.c **** 
 3453              		.loc 1 868 1 view .LVU1021
 3454              		@ sp needed
 3455 0008 10BD     		pop	{r4, pc}
 3456              		.cfi_endproc
 3457              	.LFE32:
 3459              		.section	.text.ral_sx1280_get_lora_time_on_air_in_ms,"ax",%progbits
 3460              		.align	1
 3461              		.global	ral_sx1280_get_lora_time_on_air_in_ms
 3462              		.syntax unified
 3463              		.code	16
 3464              		.thumb_func
 3465              		.fpu softvfp
 3467              	ral_sx1280_get_lora_time_on_air_in_ms:
 3468              	.LVL363:
 3469              	.LFB33:
 871:smtc_ral/src/ral_sx1280.c ****     ral_status_t             status     = RAL_STATUS_ERROR;
 3470              		.loc 1 871 1 is_stmt 1 view -0
 3471              		.cfi_startproc
 3472              		@ args = 0, pretend = 0, frame = 16
 3473              		@ frame_needed = 0, uses_anonymous_args = 0
 872:smtc_ral/src/ral_sx1280.c ****     sx1280_mod_params_lora_t mod_params = { 0 };
 3474              		.loc 1 872 5 view .LVU1023
 873:smtc_ral/src/ral_sx1280.c ****     sx1280_pkt_params_lora_t pkt_params = { 0 };
 3475              		.loc 1 873 5 view .LVU1024
 871:smtc_ral/src/ral_sx1280.c ****     ral_status_t             status     = RAL_STATUS_ERROR;
 3476              		.loc 1 871 1 is_stmt 0 view .LVU1025
 3477 0000 30B5     		push	{r4, r5, lr}
 3478              		.cfi_def_cfa_offset 12
 3479              		.cfi_offset 4, -12
 3480              		.cfi_offset 5, -8
 3481              		.cfi_offset 14, -4
ARM GAS  /var/folders/bq/yv49bw8j2kd6w3hsq868qv180000gn/T//ccyOvgmk.s 			page 100


 3482 0002 0400     		movs	r4, r0
 3483 0004 85B0     		sub	sp, sp, #20
 3484              		.cfi_def_cfa_offset 32
 873:smtc_ral/src/ral_sx1280.c ****     sx1280_pkt_params_lora_t pkt_params = { 0 };
 3485              		.loc 1 873 30 view .LVU1026
 3486 0006 0322     		movs	r2, #3
 871:smtc_ral/src/ral_sx1280.c ****     ral_status_t             status     = RAL_STATUS_ERROR;
 3487              		.loc 1 871 1 view .LVU1027
 3488 0008 0D00     		movs	r5, r1
 873:smtc_ral/src/ral_sx1280.c ****     sx1280_pkt_params_lora_t pkt_params = { 0 };
 3489              		.loc 1 873 30 view .LVU1028
 3490 000a 01A8     		add	r0, sp, #4
 3491              	.LVL364:
 873:smtc_ral/src/ral_sx1280.c ****     sx1280_pkt_params_lora_t pkt_params = { 0 };
 3492              		.loc 1 873 30 view .LVU1029
 3493 000c 0021     		movs	r1, #0
 3494              	.LVL365:
 873:smtc_ral/src/ral_sx1280.c ****     sx1280_pkt_params_lora_t pkt_params = { 0 };
 3495              		.loc 1 873 30 view .LVU1030
 3496 000e FFF7FEFF 		bl	memset
 3497              	.LVL366:
 874:smtc_ral/src/ral_sx1280.c **** 
 3498              		.loc 1 874 5 is_stmt 1 view .LVU1031
 874:smtc_ral/src/ral_sx1280.c **** 
 3499              		.loc 1 874 30 is_stmt 0 view .LVU1032
 3500 0012 0622     		movs	r2, #6
 3501 0014 0021     		movs	r1, #0
 3502 0016 02A8     		add	r0, sp, #8
 3503 0018 FFF7FEFF 		bl	memset
 3504              	.LVL367:
 876:smtc_ral/src/ral_sx1280.c ****     if( status != RAL_STATUS_OK )
 3505              		.loc 1 876 5 is_stmt 1 view .LVU1033
 876:smtc_ral/src/ral_sx1280.c ****     if( status != RAL_STATUS_OK )
 3506              		.loc 1 876 14 is_stmt 0 view .LVU1034
 3507 001c 2000     		movs	r0, r4
 3508 001e 02AA     		add	r2, sp, #8
 3509 0020 01A9     		add	r1, sp, #4
 3510 0022 FFF7FEFF 		bl	ral_sx1280_convert_lora_params_from_radio
 3511              	.LVL368:
 3512 0026 041E     		subs	r4, r0, #0
 3513              	.LVL369:
 877:smtc_ral/src/ral_sx1280.c ****     {
 3514              		.loc 1 877 5 is_stmt 1 view .LVU1035
 877:smtc_ral/src/ral_sx1280.c ****     {
 3515              		.loc 1 877 7 is_stmt 0 view .LVU1036
 3516 0028 04D1     		bne	.L241
 882:smtc_ral/src/ral_sx1280.c **** 
 3517              		.loc 1 882 5 is_stmt 1 view .LVU1037
 882:smtc_ral/src/ral_sx1280.c **** 
 3518              		.loc 1 882 12 is_stmt 0 view .LVU1038
 3519 002a 01A9     		add	r1, sp, #4
 3520 002c 02A8     		add	r0, sp, #8
 3521              	.LVL370:
 882:smtc_ral/src/ral_sx1280.c **** 
 3522              		.loc 1 882 12 view .LVU1039
 3523 002e FFF7FEFF 		bl	sx1280_get_lora_time_on_air_in_ms
 3524              	.LVL371:
ARM GAS  /var/folders/bq/yv49bw8j2kd6w3hsq868qv180000gn/T//ccyOvgmk.s 			page 101


 882:smtc_ral/src/ral_sx1280.c **** 
 3525              		.loc 1 882 10 view .LVU1040
 3526 0032 2860     		str	r0, [r5]
 884:smtc_ral/src/ral_sx1280.c **** }
 3527              		.loc 1 884 5 is_stmt 1 view .LVU1041
 3528              	.L241:
 885:smtc_ral/src/ral_sx1280.c **** 
 3529              		.loc 1 885 1 is_stmt 0 view .LVU1042
 3530 0034 2000     		movs	r0, r4
 3531 0036 05B0     		add	sp, sp, #20
 3532              		@ sp needed
 3533              	.LVL372:
 885:smtc_ral/src/ral_sx1280.c **** 
 3534              		.loc 1 885 1 view .LVU1043
 3535 0038 30BD     		pop	{r4, r5, pc}
 3536              		.cfi_endproc
 3537              	.LFE33:
 3539              		.section	.text.ral_sx1280_get_gfsk_time_on_air_in_ms,"ax",%progbits
 3540              		.align	1
 3541              		.global	ral_sx1280_get_gfsk_time_on_air_in_ms
 3542              		.syntax unified
 3543              		.code	16
 3544              		.thumb_func
 3545              		.fpu softvfp
 3547              	ral_sx1280_get_gfsk_time_on_air_in_ms:
 3548              	.LVL373:
 3549              	.LFB34:
 888:smtc_ral/src/ral_sx1280.c ****     ral_status_t             status     = RAL_STATUS_ERROR;
 3550              		.loc 1 888 1 is_stmt 1 view -0
 3551              		.cfi_startproc
 3552              		@ args = 0, pretend = 0, frame = 16
 3553              		@ frame_needed = 0, uses_anonymous_args = 0
 889:smtc_ral/src/ral_sx1280.c ****     sx1280_mod_params_gfsk_t mod_params = { 0 };
 3554              		.loc 1 889 5 view .LVU1045
 890:smtc_ral/src/ral_sx1280.c ****     sx1280_pkt_params_gfsk_t pkt_params = { 0 };
 3555              		.loc 1 890 5 view .LVU1046
 888:smtc_ral/src/ral_sx1280.c ****     ral_status_t             status     = RAL_STATUS_ERROR;
 3556              		.loc 1 888 1 is_stmt 0 view .LVU1047
 3557 0000 30B5     		push	{r4, r5, lr}
 3558              		.cfi_def_cfa_offset 12
 3559              		.cfi_offset 4, -12
 3560              		.cfi_offset 5, -8
 3561              		.cfi_offset 14, -4
 3562 0002 0400     		movs	r4, r0
 3563 0004 85B0     		sub	sp, sp, #20
 3564              		.cfi_def_cfa_offset 32
 890:smtc_ral/src/ral_sx1280.c ****     sx1280_pkt_params_gfsk_t pkt_params = { 0 };
 3565              		.loc 1 890 30 view .LVU1048
 3566 0006 0322     		movs	r2, #3
 888:smtc_ral/src/ral_sx1280.c ****     ral_status_t             status     = RAL_STATUS_ERROR;
 3567              		.loc 1 888 1 view .LVU1049
 3568 0008 0D00     		movs	r5, r1
 890:smtc_ral/src/ral_sx1280.c ****     sx1280_pkt_params_gfsk_t pkt_params = { 0 };
 3569              		.loc 1 890 30 view .LVU1050
 3570 000a 01A8     		add	r0, sp, #4
 3571              	.LVL374:
 890:smtc_ral/src/ral_sx1280.c ****     sx1280_pkt_params_gfsk_t pkt_params = { 0 };
ARM GAS  /var/folders/bq/yv49bw8j2kd6w3hsq868qv180000gn/T//ccyOvgmk.s 			page 102


 3572              		.loc 1 890 30 view .LVU1051
 3573 000c 0021     		movs	r1, #0
 3574              	.LVL375:
 890:smtc_ral/src/ral_sx1280.c ****     sx1280_pkt_params_gfsk_t pkt_params = { 0 };
 3575              		.loc 1 890 30 view .LVU1052
 3576 000e FFF7FEFF 		bl	memset
 3577              	.LVL376:
 891:smtc_ral/src/ral_sx1280.c **** 
 3578              		.loc 1 891 5 is_stmt 1 view .LVU1053
 891:smtc_ral/src/ral_sx1280.c **** 
 3579              		.loc 1 891 30 is_stmt 0 view .LVU1054
 3580 0012 0722     		movs	r2, #7
 3581 0014 0021     		movs	r1, #0
 3582 0016 02A8     		add	r0, sp, #8
 3583 0018 FFF7FEFF 		bl	memset
 3584              	.LVL377:
 893:smtc_ral/src/ral_sx1280.c ****     if( status != RAL_STATUS_OK )
 3585              		.loc 1 893 5 is_stmt 1 view .LVU1055
 893:smtc_ral/src/ral_sx1280.c ****     if( status != RAL_STATUS_OK )
 3586              		.loc 1 893 14 is_stmt 0 view .LVU1056
 3587 001c 2000     		movs	r0, r4
 3588 001e 02AA     		add	r2, sp, #8
 3589 0020 01A9     		add	r1, sp, #4
 3590 0022 FFF7FEFF 		bl	ral_sx1280_convert_gfsk_params_from_radio
 3591              	.LVL378:
 3592 0026 041E     		subs	r4, r0, #0
 3593              	.LVL379:
 894:smtc_ral/src/ral_sx1280.c ****     {
 3594              		.loc 1 894 5 is_stmt 1 view .LVU1057
 894:smtc_ral/src/ral_sx1280.c ****     {
 3595              		.loc 1 894 7 is_stmt 0 view .LVU1058
 3596 0028 04D1     		bne	.L243
 899:smtc_ral/src/ral_sx1280.c **** 
 3597              		.loc 1 899 5 is_stmt 1 view .LVU1059
 899:smtc_ral/src/ral_sx1280.c **** 
 3598              		.loc 1 899 12 is_stmt 0 view .LVU1060
 3599 002a 01A9     		add	r1, sp, #4
 3600 002c 02A8     		add	r0, sp, #8
 3601              	.LVL380:
 899:smtc_ral/src/ral_sx1280.c **** 
 3602              		.loc 1 899 12 view .LVU1061
 3603 002e FFF7FEFF 		bl	sx1280_get_gfsk_time_on_air_in_ms
 3604              	.LVL381:
 899:smtc_ral/src/ral_sx1280.c **** 
 3605              		.loc 1 899 10 view .LVU1062
 3606 0032 2860     		str	r0, [r5]
 901:smtc_ral/src/ral_sx1280.c **** }
 3607              		.loc 1 901 5 is_stmt 1 view .LVU1063
 3608              	.L243:
 902:smtc_ral/src/ral_sx1280.c **** 
 3609              		.loc 1 902 1 is_stmt 0 view .LVU1064
 3610 0034 2000     		movs	r0, r4
 3611 0036 05B0     		add	sp, sp, #20
 3612              		@ sp needed
 3613              	.LVL382:
 902:smtc_ral/src/ral_sx1280.c **** 
 3614              		.loc 1 902 1 view .LVU1065
ARM GAS  /var/folders/bq/yv49bw8j2kd6w3hsq868qv180000gn/T//ccyOvgmk.s 			page 103


 3615 0038 30BD     		pop	{r4, r5, pc}
 3616              		.cfi_endproc
 3617              	.LFE34:
 3619              		.section	.text.ral_sx1280_get_flrc_time_on_air_in_ms,"ax",%progbits
 3620              		.align	1
 3621              		.global	ral_sx1280_get_flrc_time_on_air_in_ms
 3622              		.syntax unified
 3623              		.code	16
 3624              		.thumb_func
 3625              		.fpu softvfp
 3627              	ral_sx1280_get_flrc_time_on_air_in_ms:
 3628              	.LVL383:
 3629              	.LFB35:
 905:smtc_ral/src/ral_sx1280.c ****     ral_status_t             status     = RAL_STATUS_ERROR;
 3630              		.loc 1 905 1 is_stmt 1 view -0
 3631              		.cfi_startproc
 3632              		@ args = 0, pretend = 0, frame = 16
 3633              		@ frame_needed = 0, uses_anonymous_args = 0
 906:smtc_ral/src/ral_sx1280.c ****     sx1280_mod_params_flrc_t mod_params = { 0 };
 3634              		.loc 1 906 5 view .LVU1067
 907:smtc_ral/src/ral_sx1280.c ****     sx1280_pkt_params_flrc_t pkt_params = { 0 };
 3635              		.loc 1 907 5 view .LVU1068
 905:smtc_ral/src/ral_sx1280.c ****     ral_status_t             status     = RAL_STATUS_ERROR;
 3636              		.loc 1 905 1 is_stmt 0 view .LVU1069
 3637 0000 30B5     		push	{r4, r5, lr}
 3638              		.cfi_def_cfa_offset 12
 3639              		.cfi_offset 4, -12
 3640              		.cfi_offset 5, -8
 3641              		.cfi_offset 14, -4
 3642 0002 0400     		movs	r4, r0
 3643 0004 85B0     		sub	sp, sp, #20
 3644              		.cfi_def_cfa_offset 32
 907:smtc_ral/src/ral_sx1280.c ****     sx1280_pkt_params_flrc_t pkt_params = { 0 };
 3645              		.loc 1 907 30 view .LVU1070
 3646 0006 0322     		movs	r2, #3
 905:smtc_ral/src/ral_sx1280.c ****     ral_status_t             status     = RAL_STATUS_ERROR;
 3647              		.loc 1 905 1 view .LVU1071
 3648 0008 0D00     		movs	r5, r1
 907:smtc_ral/src/ral_sx1280.c ****     sx1280_pkt_params_flrc_t pkt_params = { 0 };
 3649              		.loc 1 907 30 view .LVU1072
 3650 000a 01A8     		add	r0, sp, #4
 3651              	.LVL384:
 907:smtc_ral/src/ral_sx1280.c ****     sx1280_pkt_params_flrc_t pkt_params = { 0 };
 3652              		.loc 1 907 30 view .LVU1073
 3653 000c 0021     		movs	r1, #0
 3654              	.LVL385:
 907:smtc_ral/src/ral_sx1280.c ****     sx1280_pkt_params_flrc_t pkt_params = { 0 };
 3655              		.loc 1 907 30 view .LVU1074
 3656 000e FFF7FEFF 		bl	memset
 3657              	.LVL386:
 908:smtc_ral/src/ral_sx1280.c **** 
 3658              		.loc 1 908 5 is_stmt 1 view .LVU1075
 908:smtc_ral/src/ral_sx1280.c **** 
 3659              		.loc 1 908 30 is_stmt 0 view .LVU1076
 3660 0012 0622     		movs	r2, #6
 3661 0014 0021     		movs	r1, #0
 3662 0016 02A8     		add	r0, sp, #8
ARM GAS  /var/folders/bq/yv49bw8j2kd6w3hsq868qv180000gn/T//ccyOvgmk.s 			page 104


 3663 0018 FFF7FEFF 		bl	memset
 3664              	.LVL387:
 910:smtc_ral/src/ral_sx1280.c ****     if( status != RAL_STATUS_OK )
 3665              		.loc 1 910 5 is_stmt 1 view .LVU1077
 910:smtc_ral/src/ral_sx1280.c ****     if( status != RAL_STATUS_OK )
 3666              		.loc 1 910 14 is_stmt 0 view .LVU1078
 3667 001c 2000     		movs	r0, r4
 3668 001e 02AA     		add	r2, sp, #8
 3669 0020 01A9     		add	r1, sp, #4
 3670 0022 FFF7FEFF 		bl	ral_sx1280_convert_flrc_params_from_radio
 3671              	.LVL388:
 3672 0026 041E     		subs	r4, r0, #0
 3673              	.LVL389:
 911:smtc_ral/src/ral_sx1280.c ****     {
 3674              		.loc 1 911 5 is_stmt 1 view .LVU1079
 911:smtc_ral/src/ral_sx1280.c ****     {
 3675              		.loc 1 911 7 is_stmt 0 view .LVU1080
 3676 0028 04D1     		bne	.L245
 916:smtc_ral/src/ral_sx1280.c **** 
 3677              		.loc 1 916 5 is_stmt 1 view .LVU1081
 916:smtc_ral/src/ral_sx1280.c **** 
 3678              		.loc 1 916 12 is_stmt 0 view .LVU1082
 3679 002a 01A9     		add	r1, sp, #4
 3680 002c 02A8     		add	r0, sp, #8
 3681              	.LVL390:
 916:smtc_ral/src/ral_sx1280.c **** 
 3682              		.loc 1 916 12 view .LVU1083
 3683 002e FFF7FEFF 		bl	sx1280_get_flrc_time_on_air_in_ms
 3684              	.LVL391:
 916:smtc_ral/src/ral_sx1280.c **** 
 3685              		.loc 1 916 10 view .LVU1084
 3686 0032 2860     		str	r0, [r5]
 918:smtc_ral/src/ral_sx1280.c **** }
 3687              		.loc 1 918 5 is_stmt 1 view .LVU1085
 3688              	.L245:
 919:smtc_ral/src/ral_sx1280.c **** 
 3689              		.loc 1 919 1 is_stmt 0 view .LVU1086
 3690 0034 2000     		movs	r0, r4
 3691 0036 05B0     		add	sp, sp, #20
 3692              		@ sp needed
 3693              	.LVL392:
 919:smtc_ral/src/ral_sx1280.c **** 
 3694              		.loc 1 919 1 view .LVU1087
 3695 0038 30BD     		pop	{r4, r5, pc}
 3696              		.cfi_endproc
 3697              	.LFE35:
 3699              		.section	.text.ral_sx1280_convert_lora_rx_bw_to_ua,"ax",%progbits
 3700              		.align	1
 3701              		.global	ral_sx1280_convert_lora_rx_bw_to_ua
 3702              		.syntax unified
 3703              		.code	16
 3704              		.thumb_func
 3705              		.fpu softvfp
 3707              	ral_sx1280_convert_lora_rx_bw_to_ua:
 3708              	.LVL393:
 3709              	.LFB36:
 922:smtc_ral/src/ral_sx1280.c ****     switch( params->bw )
ARM GAS  /var/folders/bq/yv49bw8j2kd6w3hsq868qv180000gn/T//ccyOvgmk.s 			page 105


 3710              		.loc 1 922 1 is_stmt 1 view -0
 3711              		.cfi_startproc
 3712              		@ args = 0, pretend = 0, frame = 0
 3713              		@ frame_needed = 0, uses_anonymous_args = 0
 923:smtc_ral/src/ral_sx1280.c ****     {
 3714              		.loc 1 923 5 view .LVU1089
 922:smtc_ral/src/ral_sx1280.c ****     switch( params->bw )
 3715              		.loc 1 922 1 is_stmt 0 view .LVU1090
 3716 0000 00B5     		push	{lr}
 3717              		.cfi_def_cfa_offset 4
 3718              		.cfi_offset 14, -4
 3719 0002 4079     		ldrb	r0, [r0, #5]
 3720              	.LVL394:
 922:smtc_ral/src/ral_sx1280.c ****     switch( params->bw )
 3721              		.loc 1 922 1 view .LVU1091
 3722 0004 0838     		subs	r0, r0, #8
 3723 0006 0528     		cmp	r0, #5
 3724 0008 0ED8     		bhi	.L253
 3725 000a FFF7FEFF 		bl	__gnu_thumb1_case_uqi
 3726              	.L249:
 3727 000e 03       		.byte	(.L252-.L249)/2
 3728 000f 0D       		.byte	(.L253-.L249)/2
 3729 0010 07       		.byte	(.L251-.L249)/2
 3730 0011 0D       		.byte	(.L253-.L249)/2
 3731 0012 09       		.byte	(.L250-.L249)/2
 3732 0013 0B       		.byte	(.L248-.L249)/2
 3733              		.p2align 1
 3734              	.L252:
 927:smtc_ral/src/ral_sx1280.c ****         return RAL_STATUS_OK;
 3735              		.loc 1 927 9 is_stmt 1 view .LVU1092
 927:smtc_ral/src/ral_sx1280.c ****         return RAL_STATUS_OK;
 3736              		.loc 1 927 23 is_stmt 0 view .LVU1093
 3737 0014 054B     		ldr	r3, .L255
 3738              	.L254:
 943:smtc_ral/src/ral_sx1280.c ****     }
 3739              		.loc 1 943 16 view .LVU1094
 3740 0016 0020     		movs	r0, #0
 942:smtc_ral/src/ral_sx1280.c ****         return RAL_STATUS_OK;
 3741              		.loc 1 942 23 view .LVU1095
 3742 0018 0B60     		str	r3, [r1]
 943:smtc_ral/src/ral_sx1280.c ****     }
 3743              		.loc 1 943 9 is_stmt 1 view .LVU1096
 3744              	.L247:
 948:smtc_ral/src/ral_sx1280.c **** 
 3745              		.loc 1 948 1 is_stmt 0 view .LVU1097
 3746              		@ sp needed
 3747 001a 00BD     		pop	{pc}
 3748              	.L251:
 932:smtc_ral/src/ral_sx1280.c ****         return RAL_STATUS_OK;
 3749              		.loc 1 932 9 is_stmt 1 view .LVU1098
 932:smtc_ral/src/ral_sx1280.c ****         return RAL_STATUS_OK;
 3750              		.loc 1 932 23 is_stmt 0 view .LVU1099
 3751 001c 044B     		ldr	r3, .L255+4
 3752 001e FAE7     		b	.L254
 3753              	.L250:
 937:smtc_ral/src/ral_sx1280.c ****         return RAL_STATUS_OK;
 3754              		.loc 1 937 9 is_stmt 1 view .LVU1100
ARM GAS  /var/folders/bq/yv49bw8j2kd6w3hsq868qv180000gn/T//ccyOvgmk.s 			page 106


 937:smtc_ral/src/ral_sx1280.c ****         return RAL_STATUS_OK;
 3755              		.loc 1 937 23 is_stmt 0 view .LVU1101
 3756 0020 044B     		ldr	r3, .L255+8
 3757 0022 F8E7     		b	.L254
 3758              	.L248:
 942:smtc_ral/src/ral_sx1280.c ****         return RAL_STATUS_OK;
 3759              		.loc 1 942 9 is_stmt 1 view .LVU1102
 942:smtc_ral/src/ral_sx1280.c ****         return RAL_STATUS_OK;
 3760              		.loc 1 942 23 is_stmt 0 view .LVU1103
 3761 0024 044B     		ldr	r3, .L255+12
 3762 0026 F6E7     		b	.L254
 3763              	.L253:
 923:smtc_ral/src/ral_sx1280.c ****     {
 3764              		.loc 1 923 19 view .LVU1104
 3765 0028 0220     		movs	r0, #2
 3766 002a F6E7     		b	.L247
 3767              	.L256:
 3768              		.align	2
 3769              	.L255:
 3770 002c 38180000 		.word	6200
 3771 0030 2C1A0000 		.word	6700
 3772 0034 141E0000 		.word	7700
 3773 0038 08200000 		.word	8200
 3774              		.cfi_endproc
 3775              	.LFE36:
 3777              		.section	.text.ral_sx1280_convert_lora_tx_dbm_to_ua,"ax",%progbits
 3778              		.align	1
 3779              		.global	ral_sx1280_convert_lora_tx_dbm_to_ua
 3780              		.syntax unified
 3781              		.code	16
 3782              		.thumb_func
 3783              		.fpu softvfp
 3785              	ral_sx1280_convert_lora_tx_dbm_to_ua:
 3786              	.LVL395:
 3787              	.LFB37:
 951:smtc_ral/src/ral_sx1280.c ****     if( ( params->pwr_in_dbm < -18 ) || ( params->pwr_in_dbm > 13 ) )
 3788              		.loc 1 951 1 is_stmt 1 view -0
 3789              		.cfi_startproc
 3790              		@ args = 0, pretend = 0, frame = 0
 3791              		@ frame_needed = 0, uses_anonymous_args = 0
 3792              		@ link register save eliminated.
 952:smtc_ral/src/ral_sx1280.c ****     {
 3793              		.loc 1 952 5 view .LVU1106
 952:smtc_ral/src/ral_sx1280.c ****     {
 3794              		.loc 1 952 17 is_stmt 0 view .LVU1107
 3795 0000 1023     		movs	r3, #16
 3796 0002 C356     		ldrsb	r3, [r0, r3]
 954:smtc_ral/src/ral_sx1280.c ****     }
 3797              		.loc 1 954 16 view .LVU1108
 3798 0004 0220     		movs	r0, #2
 3799              	.LVL396:
 952:smtc_ral/src/ral_sx1280.c ****     {
 3800              		.loc 1 952 38 view .LVU1109
 3801 0006 1233     		adds	r3, r3, #18
 952:smtc_ral/src/ral_sx1280.c ****     {
 3802              		.loc 1 952 7 view .LVU1110
 3803 0008 DAB2     		uxtb	r2, r3
ARM GAS  /var/folders/bq/yv49bw8j2kd6w3hsq868qv180000gn/T//ccyOvgmk.s 			page 107


 3804 000a 1F2A     		cmp	r2, #31
 3805 000c 04D8     		bhi	.L258
 957:smtc_ral/src/ral_sx1280.c **** 
 3806              		.loc 1 957 5 is_stmt 1 view .LVU1111
 959:smtc_ral/src/ral_sx1280.c **** }
 3807              		.loc 1 959 5 view .LVU1112
 957:smtc_ral/src/ral_sx1280.c **** 
 3808              		.loc 1 957 52 is_stmt 0 view .LVU1113
 3809 000e 8340     		lsls	r3, r3, r0
 959:smtc_ral/src/ral_sx1280.c **** }
 3810              		.loc 1 959 12 view .LVU1114
 3811 0010 0020     		movs	r0, #0
 957:smtc_ral/src/ral_sx1280.c **** 
 3812              		.loc 1 957 19 view .LVU1115
 3813 0012 024A     		ldr	r2, .L260
 3814 0014 9B58     		ldr	r3, [r3, r2]
 3815 0016 0B60     		str	r3, [r1]
 3816              	.L258:
 960:smtc_ral/src/ral_sx1280.c **** 
 3817              		.loc 1 960 1 view .LVU1116
 3818              		@ sp needed
 3819 0018 7047     		bx	lr
 3820              	.L261:
 3821 001a C046     		.align	2
 3822              	.L260:
 3823 001c 00000000 		.word	ral_to_sx1280_lora_tx_dbm_to_ua
 3824              		.cfi_endproc
 3825              	.LFE37:
 3827              		.section	.text.ral_sx1280_read_register,"ax",%progbits
 3828              		.align	1
 3829              		.global	ral_sx1280_read_register
 3830              		.syntax unified
 3831              		.code	16
 3832              		.thumb_func
 3833              		.fpu softvfp
 3835              	ral_sx1280_read_register:
 3836              	.LVL397:
 3837              	.LFB38:
 963:smtc_ral/src/ral_sx1280.c ****     return ( ral_status_t ) sx1280_read_register( ral->context, address, buffer, size );
 3838              		.loc 1 963 1 is_stmt 1 view -0
 3839              		.cfi_startproc
 3840              		@ args = 0, pretend = 0, frame = 0
 3841              		@ frame_needed = 0, uses_anonymous_args = 0
 964:smtc_ral/src/ral_sx1280.c **** }
 3842              		.loc 1 964 5 view .LVU1118
 963:smtc_ral/src/ral_sx1280.c ****     return ( ral_status_t ) sx1280_read_register( ral->context, address, buffer, size );
 3843              		.loc 1 963 1 is_stmt 0 view .LVU1119
 3844 0000 10B5     		push	{r4, lr}
 3845              		.cfi_def_cfa_offset 8
 3846              		.cfi_offset 4, -8
 3847              		.cfi_offset 14, -4
 964:smtc_ral/src/ral_sx1280.c **** }
 3848              		.loc 1 964 29 view .LVU1120
 3849 0002 0068     		ldr	r0, [r0]
 3850              	.LVL398:
 964:smtc_ral/src/ral_sx1280.c **** }
 3851              		.loc 1 964 29 view .LVU1121
ARM GAS  /var/folders/bq/yv49bw8j2kd6w3hsq868qv180000gn/T//ccyOvgmk.s 			page 108


 3852 0004 DBB2     		uxtb	r3, r3
 3853              	.LVL399:
 964:smtc_ral/src/ral_sx1280.c **** }
 3854              		.loc 1 964 29 view .LVU1122
 3855 0006 FFF7FEFF 		bl	sx1280_read_register
 3856              	.LVL400:
 965:smtc_ral/src/ral_sx1280.c **** 
 3857              		.loc 1 965 1 view .LVU1123
 3858              		@ sp needed
 3859 000a 10BD     		pop	{r4, pc}
 3860              		.cfi_endproc
 3861              	.LFE38:
 3863              		.section	.text.ral_sx1280_write_register,"ax",%progbits
 3864              		.align	1
 3865              		.global	ral_sx1280_write_register
 3866              		.syntax unified
 3867              		.code	16
 3868              		.thumb_func
 3869              		.fpu softvfp
 3871              	ral_sx1280_write_register:
 3872              	.LVL401:
 3873              	.LFB39:
 968:smtc_ral/src/ral_sx1280.c ****     return ( ral_status_t ) sx1280_write_register( ral->context, address, buffer, size );
 3874              		.loc 1 968 1 is_stmt 1 view -0
 3875              		.cfi_startproc
 3876              		@ args = 0, pretend = 0, frame = 0
 3877              		@ frame_needed = 0, uses_anonymous_args = 0
 969:smtc_ral/src/ral_sx1280.c **** }
 3878              		.loc 1 969 5 view .LVU1125
 968:smtc_ral/src/ral_sx1280.c ****     return ( ral_status_t ) sx1280_write_register( ral->context, address, buffer, size );
 3879              		.loc 1 968 1 is_stmt 0 view .LVU1126
 3880 0000 10B5     		push	{r4, lr}
 3881              		.cfi_def_cfa_offset 8
 3882              		.cfi_offset 4, -8
 3883              		.cfi_offset 14, -4
 969:smtc_ral/src/ral_sx1280.c **** }
 3884              		.loc 1 969 29 view .LVU1127
 3885 0002 0068     		ldr	r0, [r0]
 3886              	.LVL402:
 969:smtc_ral/src/ral_sx1280.c **** }
 3887              		.loc 1 969 29 view .LVU1128
 3888 0004 DBB2     		uxtb	r3, r3
 3889              	.LVL403:
 969:smtc_ral/src/ral_sx1280.c **** }
 3890              		.loc 1 969 29 view .LVU1129
 3891 0006 FFF7FEFF 		bl	sx1280_write_register
 3892              	.LVL404:
 970:smtc_ral/src/ral_sx1280.c **** 
 3893              		.loc 1 970 1 view .LVU1130
 3894              		@ sp needed
 3895 000a 10BD     		pop	{r4, pc}
 3896              		.cfi_endproc
 3897              	.LFE39:
 3899              		.section	.rodata
 3900              		.align	1
 3901              		.set	.LANCHOR1,. + 0
 3902              	.LC0:
ARM GAS  /var/folders/bq/yv49bw8j2kd6w3hsq868qv180000gn/T//ccyOvgmk.s 			page 109


 3903 0000 0300     		.short	3
 3904 0002 0200     		.short	2
 3905 0004 0100     		.short	1
 3906 0006 0100     		.short	1
 3907 0008 0600     		.short	6
 3908 000a 0300     		.short	3
 3909 000c 0200     		.short	2
 3910 000e 0100     		.short	1
 3911 0010 0B00     		.short	11
 3912 0012 0600     		.short	6
 3913 0014 0300     		.short	3
 3914 0016 0200     		.short	2
 3915 0018 1500     		.short	21
 3916 001a 0B00     		.short	11
 3917 001c 0600     		.short	6
 3918 001e 0300     		.short	3
 3919 0020 2A00     		.short	42
 3920 0022 1500     		.short	21
 3921 0024 0B00     		.short	11
 3922 0026 0600     		.short	6
 3923 0028 5400     		.short	84
 3924 002a 2A00     		.short	42
 3925 002c 1500     		.short	21
 3926 002e 0B00     		.short	11
 3927 0030 A700     		.short	167
 3928 0032 5400     		.short	84
 3929 0034 2A00     		.short	42
 3930 0036 1500     		.short	21
 3931 0038 4D01     		.short	333
 3932 003a A700     		.short	167
 3933 003c 5400     		.short	84
 3934 003e 2A00     		.short	42
 3935              		.section	.rodata.CSWTCH.22,"a"
 3936              		.set	.LANCHOR2,. + 0
 3939              	CSWTCH.22:
 3940 0000 00       		.byte	0
 3941 0001 03       		.byte	3
 3942 0002 01       		.byte	1
 3943 0003 03       		.byte	3
 3944 0004 02       		.byte	2
 3945              		.section	.rodata.CSWTCH.30,"a"
 3946              		.set	.LANCHOR0,. + 0
 3949              	CSWTCH.30:
 3950 0000 00       		.byte	0
 3951 0001 20       		.byte	32
 3952 0002 10       		.byte	16
 3953              		.section	.rodata.ral_to_sx1280_lora_tx_dbm_to_ua,"a"
 3954              		.align	2
 3957              	ral_to_sx1280_lora_tx_dbm_to_ua:
 3958 0000 10270000 		.word	10000
 3959 0004 10270000 		.word	10000
 3960 0008 10270000 		.word	10000
 3961 000c 10270000 		.word	10000
 3962 0010 10270000 		.word	10000
 3963 0014 10270000 		.word	10000
 3964 0018 10270000 		.word	10000
 3965 001c 10270000 		.word	10000
ARM GAS  /var/folders/bq/yv49bw8j2kd6w3hsq868qv180000gn/T//ccyOvgmk.s 			page 110


 3966 0020 10270000 		.word	10000
 3967 0024 10270000 		.word	10000
 3968 0028 10270000 		.word	10000
 3969 002c 10270000 		.word	10000
 3970 0030 10270000 		.word	10000
 3971 0034 10270000 		.word	10000
 3972 0038 10270000 		.word	10000
 3973 003c 10270000 		.word	10000
 3974 0040 10270000 		.word	10000
 3975 0044 10270000 		.word	10000
 3976 0048 10270000 		.word	10000
 3977 004c 10270000 		.word	10000
 3978 0050 F82A0000 		.word	11000
 3979 0054 F82A0000 		.word	11000
 3980 0058 E02E0000 		.word	12000
 3981 005c E02E0000 		.word	12000
 3982 0060 B0360000 		.word	14000
 3983 0064 B0360000 		.word	14000
 3984 0068 803E0000 		.word	16000
 3985 006c 803E0000 		.word	16000
 3986 0070 50460000 		.word	18000
 3987 0074 50460000 		.word	18000
 3988 0078 C05D0000 		.word	24000
 3989 007c C05D0000 		.word	24000
 3990              		.text
 3991              	.Letext0:
 3992              		.file 2 "/Applications/STM32CubeIDE.app/Contents/Eclipse/plugins/com.st.stm32cube.ide.mcu.external
 3993              		.file 3 "/Applications/STM32CubeIDE.app/Contents/Eclipse/plugins/com.st.stm32cube.ide.mcu.external
 3994              		.file 4 "/Applications/STM32CubeIDE.app/Contents/Eclipse/plugins/com.st.stm32cube.ide.mcu.external
 3995              		.file 5 "/Applications/STM32CubeIDE.app/Contents/Eclipse/plugins/com.st.stm32cube.ide.mcu.external
 3996              		.file 6 "/Applications/STM32CubeIDE.app/Contents/Eclipse/plugins/com.st.stm32cube.ide.mcu.external
 3997              		.file 7 "/Applications/STM32CubeIDE.app/Contents/Eclipse/plugins/com.st.stm32cube.ide.mcu.external
 3998              		.file 8 "sx1280_driver/src/sx1280.h"
 3999              		.file 9 "smtc_ral/src/ral_defs.h"
 4000              		.file 10 "<built-in>"
ARM GAS  /var/folders/bq/yv49bw8j2kd6w3hsq868qv180000gn/T//ccyOvgmk.s 			page 111


DEFINED SYMBOLS
                            *ABS*:0000000000000000 ral_sx1280.c
/var/folders/bq/yv49bw8j2kd6w3hsq868qv180000gn/T//ccyOvgmk.s:14     .text.ral_sx1280_convert_irq_flags_to_radio:0000000000000000 $t
/var/folders/bq/yv49bw8j2kd6w3hsq868qv180000gn/T//ccyOvgmk.s:21     .text.ral_sx1280_convert_irq_flags_to_radio:0000000000000000 ral_sx1280_convert_irq_flags_to_radio
/var/folders/bq/yv49bw8j2kd6w3hsq868qv180000gn/T//ccyOvgmk.s:126    .text.ral_sx1280_convert_irq_flags_from_radio:0000000000000000 $t
/var/folders/bq/yv49bw8j2kd6w3hsq868qv180000gn/T//ccyOvgmk.s:132    .text.ral_sx1280_convert_irq_flags_from_radio:0000000000000000 ral_sx1280_convert_irq_flags_from_radio
/var/folders/bq/yv49bw8j2kd6w3hsq868qv180000gn/T//ccyOvgmk.s:245    .text.ral_sx1280_convert_irq_flags_from_radio:0000000000000054 $d
/var/folders/bq/yv49bw8j2kd6w3hsq868qv180000gn/T//ccyOvgmk.s:250    .text.ral_sx1280_convert_lora_params_from_radio:0000000000000000 $t
/var/folders/bq/yv49bw8j2kd6w3hsq868qv180000gn/T//ccyOvgmk.s:256    .text.ral_sx1280_convert_lora_params_from_radio:0000000000000000 ral_sx1280_convert_lora_params_from_radio
/var/folders/bq/yv49bw8j2kd6w3hsq868qv180000gn/T//ccyOvgmk.s:305    .text.ral_sx1280_convert_lora_params_from_radio:0000000000000028 $d
/var/folders/bq/yv49bw8j2kd6w3hsq868qv180000gn/T//ccyOvgmk.s:311    .text.ral_sx1280_convert_lora_params_from_radio:000000000000002e $t
/var/folders/bq/yv49bw8j2kd6w3hsq868qv180000gn/T//ccyOvgmk.s:335    .text.ral_sx1280_convert_lora_params_from_radio:0000000000000040 $d
/var/folders/bq/yv49bw8j2kd6w3hsq868qv180000gn/T//ccyOvgmk.s:538    .text.ral_sx1280_convert_gfsk_params_from_radio:0000000000000000 $t
/var/folders/bq/yv49bw8j2kd6w3hsq868qv180000gn/T//ccyOvgmk.s:544    .text.ral_sx1280_convert_gfsk_params_from_radio:0000000000000000 ral_sx1280_convert_gfsk_params_from_radio
/var/folders/bq/yv49bw8j2kd6w3hsq868qv180000gn/T//ccyOvgmk.s:699    .text.ral_sx1280_convert_flrc_params_from_radio:0000000000000000 $t
/var/folders/bq/yv49bw8j2kd6w3hsq868qv180000gn/T//ccyOvgmk.s:705    .text.ral_sx1280_convert_flrc_params_from_radio:0000000000000000 ral_sx1280_convert_flrc_params_from_radio
/var/folders/bq/yv49bw8j2kd6w3hsq868qv180000gn/T//ccyOvgmk.s:822    .text.ral_sx1280_convert_flrc_params_from_radio:0000000000000066 $d
/var/folders/bq/yv49bw8j2kd6w3hsq868qv180000gn/T//ccyOvgmk.s:826    .text.ral_sx1280_convert_flrc_params_from_radio:000000000000006a $t
/var/folders/bq/yv49bw8j2kd6w3hsq868qv180000gn/T//ccyOvgmk.s:865    .text.ral_sx1280_convert_flrc_params_from_radio:0000000000000084 $d
/var/folders/bq/yv49bw8j2kd6w3hsq868qv180000gn/T//ccyOvgmk.s:870    .text.ral_sx1280_init:0000000000000000 $t
/var/folders/bq/yv49bw8j2kd6w3hsq868qv180000gn/T//ccyOvgmk.s:877    .text.ral_sx1280_init:0000000000000000 ral_sx1280_init
/var/folders/bq/yv49bw8j2kd6w3hsq868qv180000gn/T//ccyOvgmk.s:915    .text.ral_sx1280_setup_gfsk:0000000000000000 $t
/var/folders/bq/yv49bw8j2kd6w3hsq868qv180000gn/T//ccyOvgmk.s:922    .text.ral_sx1280_setup_gfsk:0000000000000000 ral_sx1280_setup_gfsk
/var/folders/bq/yv49bw8j2kd6w3hsq868qv180000gn/T//ccyOvgmk.s:1133   .text.ral_sx1280_setup_rx_gfsk:0000000000000000 $t
/var/folders/bq/yv49bw8j2kd6w3hsq868qv180000gn/T//ccyOvgmk.s:1140   .text.ral_sx1280_setup_rx_gfsk:0000000000000000 ral_sx1280_setup_rx_gfsk
/var/folders/bq/yv49bw8j2kd6w3hsq868qv180000gn/T//ccyOvgmk.s:1225   .text.ral_sx1280_setup_rx_gfsk:0000000000000044 $d
/var/folders/bq/yv49bw8j2kd6w3hsq868qv180000gn/T//ccyOvgmk.s:1230   .text.ral_sx1280_setup_tx_gfsk:0000000000000000 $t
/var/folders/bq/yv49bw8j2kd6w3hsq868qv180000gn/T//ccyOvgmk.s:1237   .text.ral_sx1280_setup_tx_gfsk:0000000000000000 ral_sx1280_setup_tx_gfsk
/var/folders/bq/yv49bw8j2kd6w3hsq868qv180000gn/T//ccyOvgmk.s:1321   .text.ral_sx1280_setup_lora:0000000000000000 $t
/var/folders/bq/yv49bw8j2kd6w3hsq868qv180000gn/T//ccyOvgmk.s:1328   .text.ral_sx1280_setup_lora:0000000000000000 ral_sx1280_setup_lora
/var/folders/bq/yv49bw8j2kd6w3hsq868qv180000gn/T//ccyOvgmk.s:1501   .text.ral_sx1280_setup_lora:00000000000000a4 $d
/var/folders/bq/yv49bw8j2kd6w3hsq868qv180000gn/T//ccyOvgmk.s:1506   .text.ral_sx1280_setup_rx_lora:0000000000000000 $t
/var/folders/bq/yv49bw8j2kd6w3hsq868qv180000gn/T//ccyOvgmk.s:1513   .text.ral_sx1280_setup_rx_lora:0000000000000000 ral_sx1280_setup_rx_lora
/var/folders/bq/yv49bw8j2kd6w3hsq868qv180000gn/T//ccyOvgmk.s:1586   .text.ral_sx1280_setup_rx_lora:0000000000000034 $d
/var/folders/bq/yv49bw8j2kd6w3hsq868qv180000gn/T//ccyOvgmk.s:1591   .text.ral_sx1280_setup_tx_lora:0000000000000000 $t
/var/folders/bq/yv49bw8j2kd6w3hsq868qv180000gn/T//ccyOvgmk.s:1598   .text.ral_sx1280_setup_tx_lora:0000000000000000 ral_sx1280_setup_tx_lora
/var/folders/bq/yv49bw8j2kd6w3hsq868qv180000gn/T//ccyOvgmk.s:1672   .text.ral_sx1280_setup_flrc:0000000000000000 $t
/var/folders/bq/yv49bw8j2kd6w3hsq868qv180000gn/T//ccyOvgmk.s:1679   .text.ral_sx1280_setup_flrc:0000000000000000 ral_sx1280_setup_flrc
/var/folders/bq/yv49bw8j2kd6w3hsq868qv180000gn/T//ccyOvgmk.s:1856   .text.ral_sx1280_setup_rx_flrc:0000000000000000 $t
/var/folders/bq/yv49bw8j2kd6w3hsq868qv180000gn/T//ccyOvgmk.s:1863   .text.ral_sx1280_setup_rx_flrc:0000000000000000 ral_sx1280_setup_rx_flrc
/var/folders/bq/yv49bw8j2kd6w3hsq868qv180000gn/T//ccyOvgmk.s:1945   .text.ral_sx1280_setup_rx_flrc:0000000000000040 $d
/var/folders/bq/yv49bw8j2kd6w3hsq868qv180000gn/T//ccyOvgmk.s:1950   .text.ral_sx1280_setup_tx_flrc:0000000000000000 $t
/var/folders/bq/yv49bw8j2kd6w3hsq868qv180000gn/T//ccyOvgmk.s:1957   .text.ral_sx1280_setup_tx_flrc:0000000000000000 ral_sx1280_setup_tx_flrc
/var/folders/bq/yv49bw8j2kd6w3hsq868qv180000gn/T//ccyOvgmk.s:2038   .text.ral_sx1280_setup_tx_lora_e:0000000000000000 $t
/var/folders/bq/yv49bw8j2kd6w3hsq868qv180000gn/T//ccyOvgmk.s:2045   .text.ral_sx1280_setup_tx_lora_e:0000000000000000 ral_sx1280_setup_tx_lora_e
/var/folders/bq/yv49bw8j2kd6w3hsq868qv180000gn/T//ccyOvgmk.s:2064   .text.ral_sx1280_tx_bpsk:0000000000000000 $t
/var/folders/bq/yv49bw8j2kd6w3hsq868qv180000gn/T//ccyOvgmk.s:2071   .text.ral_sx1280_tx_bpsk:0000000000000000 ral_sx1280_tx_bpsk
/var/folders/bq/yv49bw8j2kd6w3hsq868qv180000gn/T//ccyOvgmk.s:2084   .text.ral_sx1280_setup_cad:0000000000000000 $t
/var/folders/bq/yv49bw8j2kd6w3hsq868qv180000gn/T//ccyOvgmk.s:2091   .text.ral_sx1280_setup_cad:0000000000000000 ral_sx1280_setup_cad
/var/folders/bq/yv49bw8j2kd6w3hsq868qv180000gn/T//ccyOvgmk.s:2123   .text.ral_sx1280_setup_cad:0000000000000012 $d
/var/folders/bq/yv49bw8j2kd6w3hsq868qv180000gn/T//ccyOvgmk.s:2194   .text.ral_sx1280_set_pkt_payload:0000000000000000 $t
/var/folders/bq/yv49bw8j2kd6w3hsq868qv180000gn/T//ccyOvgmk.s:2201   .text.ral_sx1280_set_pkt_payload:0000000000000000 ral_sx1280_set_pkt_payload
/var/folders/bq/yv49bw8j2kd6w3hsq868qv180000gn/T//ccyOvgmk.s:2234   .text.ral_sx1280_get_pkt_payload:0000000000000000 $t
/var/folders/bq/yv49bw8j2kd6w3hsq868qv180000gn/T//ccyOvgmk.s:2241   .text.ral_sx1280_get_pkt_payload:0000000000000000 ral_sx1280_get_pkt_payload
/var/folders/bq/yv49bw8j2kd6w3hsq868qv180000gn/T//ccyOvgmk.s:2412   .text.ral_sx1280_get_gfsk_pkt_status:0000000000000000 $t
/var/folders/bq/yv49bw8j2kd6w3hsq868qv180000gn/T//ccyOvgmk.s:2419   .text.ral_sx1280_get_gfsk_pkt_status:0000000000000000 ral_sx1280_get_gfsk_pkt_status
/var/folders/bq/yv49bw8j2kd6w3hsq868qv180000gn/T//ccyOvgmk.s:2476   .text.ral_sx1280_get_lora_pkt_status:0000000000000000 $t
ARM GAS  /var/folders/bq/yv49bw8j2kd6w3hsq868qv180000gn/T//ccyOvgmk.s 			page 112


/var/folders/bq/yv49bw8j2kd6w3hsq868qv180000gn/T//ccyOvgmk.s:2483   .text.ral_sx1280_get_lora_pkt_status:0000000000000000 ral_sx1280_get_lora_pkt_status
/var/folders/bq/yv49bw8j2kd6w3hsq868qv180000gn/T//ccyOvgmk.s:2551   .text.ral_sx1280_get_lora_incoming_pkt_config:0000000000000000 $t
/var/folders/bq/yv49bw8j2kd6w3hsq868qv180000gn/T//ccyOvgmk.s:2558   .text.ral_sx1280_get_lora_incoming_pkt_config:0000000000000000 ral_sx1280_get_lora_incoming_pkt_config
/var/folders/bq/yv49bw8j2kd6w3hsq868qv180000gn/T//ccyOvgmk.s:2611   .text.ral_sx1280_get_lora_incoming_pkt_config:0000000000000028 $d
/var/folders/bq/yv49bw8j2kd6w3hsq868qv180000gn/T//ccyOvgmk.s:2676   .text.ral_sx1280_get_flrc_pkt_status:0000000000000000 $t
/var/folders/bq/yv49bw8j2kd6w3hsq868qv180000gn/T//ccyOvgmk.s:2683   .text.ral_sx1280_get_flrc_pkt_status:0000000000000000 ral_sx1280_get_flrc_pkt_status
/var/folders/bq/yv49bw8j2kd6w3hsq868qv180000gn/T//ccyOvgmk.s:2740   .text.ral_sx1280_set_sleep:0000000000000000 $t
/var/folders/bq/yv49bw8j2kd6w3hsq868qv180000gn/T//ccyOvgmk.s:2747   .text.ral_sx1280_set_sleep:0000000000000000 ral_sx1280_set_sleep
/var/folders/bq/yv49bw8j2kd6w3hsq868qv180000gn/T//ccyOvgmk.s:2774   .text.ral_sx1280_set_standby:0000000000000000 $t
/var/folders/bq/yv49bw8j2kd6w3hsq868qv180000gn/T//ccyOvgmk.s:2781   .text.ral_sx1280_set_standby:0000000000000000 ral_sx1280_set_standby
/var/folders/bq/yv49bw8j2kd6w3hsq868qv180000gn/T//ccyOvgmk.s:2808   .text.ral_sx1280_set_tx:0000000000000000 $t
/var/folders/bq/yv49bw8j2kd6w3hsq868qv180000gn/T//ccyOvgmk.s:2815   .text.ral_sx1280_set_tx:0000000000000000 ral_sx1280_set_tx
/var/folders/bq/yv49bw8j2kd6w3hsq868qv180000gn/T//ccyOvgmk.s:2843   .text.ral_sx1280_set_tx_cw:0000000000000000 $t
/var/folders/bq/yv49bw8j2kd6w3hsq868qv180000gn/T//ccyOvgmk.s:2850   .text.ral_sx1280_set_tx_cw:0000000000000000 ral_sx1280_set_tx_cw
/var/folders/bq/yv49bw8j2kd6w3hsq868qv180000gn/T//ccyOvgmk.s:2876   .text.ral_sx1280_set_rx:0000000000000000 $t
/var/folders/bq/yv49bw8j2kd6w3hsq868qv180000gn/T//ccyOvgmk.s:2883   .text.ral_sx1280_set_rx:0000000000000000 ral_sx1280_set_rx
/var/folders/bq/yv49bw8j2kd6w3hsq868qv180000gn/T//ccyOvgmk.s:3070   .text.ral_sx1280_set_rx:0000000000000098 $d
/var/folders/bq/yv49bw8j2kd6w3hsq868qv180000gn/T//ccyOvgmk.s:3078   .text.ral_sx1280_set_cad:0000000000000000 $t
/var/folders/bq/yv49bw8j2kd6w3hsq868qv180000gn/T//ccyOvgmk.s:3085   .text.ral_sx1280_set_cad:0000000000000000 ral_sx1280_set_cad
/var/folders/bq/yv49bw8j2kd6w3hsq868qv180000gn/T//ccyOvgmk.s:3111   .text.ral_sx1280_get_irq_status:0000000000000000 $t
/var/folders/bq/yv49bw8j2kd6w3hsq868qv180000gn/T//ccyOvgmk.s:3118   .text.ral_sx1280_get_irq_status:0000000000000000 ral_sx1280_get_irq_status
/var/folders/bq/yv49bw8j2kd6w3hsq868qv180000gn/T//ccyOvgmk.s:3180   .text.ral_sx1280_clear_irq_status:0000000000000000 $t
/var/folders/bq/yv49bw8j2kd6w3hsq868qv180000gn/T//ccyOvgmk.s:3187   .text.ral_sx1280_clear_irq_status:0000000000000000 ral_sx1280_clear_irq_status
/var/folders/bq/yv49bw8j2kd6w3hsq868qv180000gn/T//ccyOvgmk.s:3231   .text.ral_sx1280_get_and_clear_irq_status:0000000000000000 $t
/var/folders/bq/yv49bw8j2kd6w3hsq868qv180000gn/T//ccyOvgmk.s:3238   .text.ral_sx1280_get_and_clear_irq_status:0000000000000000 ral_sx1280_get_and_clear_irq_status
/var/folders/bq/yv49bw8j2kd6w3hsq868qv180000gn/T//ccyOvgmk.s:3306   .text.ral_sx1280_set_dio_irq_params:0000000000000000 $t
/var/folders/bq/yv49bw8j2kd6w3hsq868qv180000gn/T//ccyOvgmk.s:3313   .text.ral_sx1280_set_dio_irq_params:0000000000000000 ral_sx1280_set_dio_irq_params
/var/folders/bq/yv49bw8j2kd6w3hsq868qv180000gn/T//ccyOvgmk.s:3358   .text.ral_sx1280_process_irq:0000000000000000 $t
/var/folders/bq/yv49bw8j2kd6w3hsq868qv180000gn/T//ccyOvgmk.s:3365   .text.ral_sx1280_process_irq:0000000000000000 ral_sx1280_process_irq
/var/folders/bq/yv49bw8j2kd6w3hsq868qv180000gn/T//ccyOvgmk.s:3427   .text.ral_sx1280_get_rssi:0000000000000000 $t
/var/folders/bq/yv49bw8j2kd6w3hsq868qv180000gn/T//ccyOvgmk.s:3434   .text.ral_sx1280_get_rssi:0000000000000000 ral_sx1280_get_rssi
/var/folders/bq/yv49bw8j2kd6w3hsq868qv180000gn/T//ccyOvgmk.s:3460   .text.ral_sx1280_get_lora_time_on_air_in_ms:0000000000000000 $t
/var/folders/bq/yv49bw8j2kd6w3hsq868qv180000gn/T//ccyOvgmk.s:3467   .text.ral_sx1280_get_lora_time_on_air_in_ms:0000000000000000 ral_sx1280_get_lora_time_on_air_in_ms
/var/folders/bq/yv49bw8j2kd6w3hsq868qv180000gn/T//ccyOvgmk.s:3540   .text.ral_sx1280_get_gfsk_time_on_air_in_ms:0000000000000000 $t
/var/folders/bq/yv49bw8j2kd6w3hsq868qv180000gn/T//ccyOvgmk.s:3547   .text.ral_sx1280_get_gfsk_time_on_air_in_ms:0000000000000000 ral_sx1280_get_gfsk_time_on_air_in_ms
/var/folders/bq/yv49bw8j2kd6w3hsq868qv180000gn/T//ccyOvgmk.s:3620   .text.ral_sx1280_get_flrc_time_on_air_in_ms:0000000000000000 $t
/var/folders/bq/yv49bw8j2kd6w3hsq868qv180000gn/T//ccyOvgmk.s:3627   .text.ral_sx1280_get_flrc_time_on_air_in_ms:0000000000000000 ral_sx1280_get_flrc_time_on_air_in_ms
/var/folders/bq/yv49bw8j2kd6w3hsq868qv180000gn/T//ccyOvgmk.s:3700   .text.ral_sx1280_convert_lora_rx_bw_to_ua:0000000000000000 $t
/var/folders/bq/yv49bw8j2kd6w3hsq868qv180000gn/T//ccyOvgmk.s:3707   .text.ral_sx1280_convert_lora_rx_bw_to_ua:0000000000000000 ral_sx1280_convert_lora_rx_bw_to_ua
/var/folders/bq/yv49bw8j2kd6w3hsq868qv180000gn/T//ccyOvgmk.s:3727   .text.ral_sx1280_convert_lora_rx_bw_to_ua:000000000000000e $d
/var/folders/bq/yv49bw8j2kd6w3hsq868qv180000gn/T//ccyOvgmk.s:3733   .text.ral_sx1280_convert_lora_rx_bw_to_ua:0000000000000014 $t
/var/folders/bq/yv49bw8j2kd6w3hsq868qv180000gn/T//ccyOvgmk.s:3770   .text.ral_sx1280_convert_lora_rx_bw_to_ua:000000000000002c $d
/var/folders/bq/yv49bw8j2kd6w3hsq868qv180000gn/T//ccyOvgmk.s:3778   .text.ral_sx1280_convert_lora_tx_dbm_to_ua:0000000000000000 $t
/var/folders/bq/yv49bw8j2kd6w3hsq868qv180000gn/T//ccyOvgmk.s:3785   .text.ral_sx1280_convert_lora_tx_dbm_to_ua:0000000000000000 ral_sx1280_convert_lora_tx_dbm_to_ua
/var/folders/bq/yv49bw8j2kd6w3hsq868qv180000gn/T//ccyOvgmk.s:3823   .text.ral_sx1280_convert_lora_tx_dbm_to_ua:000000000000001c $d
/var/folders/bq/yv49bw8j2kd6w3hsq868qv180000gn/T//ccyOvgmk.s:3957   .rodata.ral_to_sx1280_lora_tx_dbm_to_ua:0000000000000000 ral_to_sx1280_lora_tx_dbm_to_ua
/var/folders/bq/yv49bw8j2kd6w3hsq868qv180000gn/T//ccyOvgmk.s:3828   .text.ral_sx1280_read_register:0000000000000000 $t
/var/folders/bq/yv49bw8j2kd6w3hsq868qv180000gn/T//ccyOvgmk.s:3835   .text.ral_sx1280_read_register:0000000000000000 ral_sx1280_read_register
/var/folders/bq/yv49bw8j2kd6w3hsq868qv180000gn/T//ccyOvgmk.s:3864   .text.ral_sx1280_write_register:0000000000000000 $t
/var/folders/bq/yv49bw8j2kd6w3hsq868qv180000gn/T//ccyOvgmk.s:3871   .text.ral_sx1280_write_register:0000000000000000 ral_sx1280_write_register
/var/folders/bq/yv49bw8j2kd6w3hsq868qv180000gn/T//ccyOvgmk.s:3900   .rodata:0000000000000000 $d
/var/folders/bq/yv49bw8j2kd6w3hsq868qv180000gn/T//ccyOvgmk.s:3939   .rodata.CSWTCH.22:0000000000000000 CSWTCH.22
/var/folders/bq/yv49bw8j2kd6w3hsq868qv180000gn/T//ccyOvgmk.s:3949   .rodata.CSWTCH.30:0000000000000000 CSWTCH.30
/var/folders/bq/yv49bw8j2kd6w3hsq868qv180000gn/T//ccyOvgmk.s:3954   .rodata.ral_to_sx1280_lora_tx_dbm_to_ua:0000000000000000 $d
/var/folders/bq/yv49bw8j2kd6w3hsq868qv180000gn/T//ccyOvgmk.s:342    .text.ral_sx1280_convert_lora_params_from_radio:0000000000000047 $d
/var/folders/bq/yv49bw8j2kd6w3hsq868qv180000gn/T//ccyOvgmk.s:342    .text.ral_sx1280_convert_lora_params_from_radio:0000000000000048 $t
/var/folders/bq/yv49bw8j2kd6w3hsq868qv180000gn/T//ccyOvgmk.s:2128   .text.ral_sx1280_setup_cad:0000000000000017 $d
ARM GAS  /var/folders/bq/yv49bw8j2kd6w3hsq868qv180000gn/T//ccyOvgmk.s 			page 113


/var/folders/bq/yv49bw8j2kd6w3hsq868qv180000gn/T//ccyOvgmk.s:2128   .text.ral_sx1280_setup_cad:0000000000000018 $t
/var/folders/bq/yv49bw8j2kd6w3hsq868qv180000gn/T//ccyOvgmk.s:2618   .text.ral_sx1280_get_lora_incoming_pkt_config:000000000000002f $d
/var/folders/bq/yv49bw8j2kd6w3hsq868qv180000gn/T//ccyOvgmk.s:2618   .text.ral_sx1280_get_lora_incoming_pkt_config:0000000000000030 $t

UNDEFINED SYMBOLS
__gnu_thumb1_case_uqi
sx1280_get_gfsk_br_bw_param
sx1280_get_flrc_br_bw_param
sx1280_reset
sx1280_set_reg_mode
memset
sx1280_set_standby
sx1280_set_pkt_type
sx1280_set_rf_freq
sx1280_set_tx_params
sx1280_set_buffer_base_addr
sx1280_set_gfsk_mod_params
sx1280_set_gfsk_pkt_params
sx1280_set_gfsk_sync_word
sx1280_set_gfsk_crc_seed
sx1280_set_gfsk_crc_polynomial
sx1280_set_gfsk_whitening_seed
sx1280_set_dio_irq_params
sx1280_set_lora_mod_params
sx1280_set_lora_pkt_params
sx1280_set_lora_sync_word
sx1280_set_flrc_mod_params
sx1280_set_flrc_pkt_params
sx1280_set_flrc_crc_seed
sx1280_set_flrc_sync_word
sx1280_set_cad_params
sx1280_write_buffer
sx1280_get_rx_buffer_status
sx1280_get_pkt_type
sx1280_get_lora_pkt_len_mode
sx1280_get_lora_pkt_len
sx1280_read_buffer
sx1280_get_gfsk_pkt_status
sx1280_get_lora_pkt_status
sx1280_get_lora_rx_packet_cr
sx1280_get_lora_rx_packet_crc_config
sx1280_get_flrc_pkt_status
sx1280_set_sleep
sx1280_set_tx
sx1280_set_tx_cw
sx1280_set_rx
sx1280_read_register
memcpy
sx1280_set_cad
sx1280_get_irq_status
sx1280_clear_irq_status
sx1280_get_and_clear_irq_status
sx1280_process_irq
sx1280_get_rssi_inst
sx1280_get_lora_time_on_air_in_ms
sx1280_get_gfsk_time_on_air_in_ms
sx1280_get_flrc_time_on_air_in_ms
ARM GAS  /var/folders/bq/yv49bw8j2kd6w3hsq868qv180000gn/T//ccyOvgmk.s 			page 114


sx1280_write_register
