ARM GAS  /var/folders/bq/yv49bw8j2kd6w3hsq868qv180000gn/T//ccRnzw9B.s 			page 1


   1              		.cpu cortex-m0plus
   2              		.eabi_attribute 23, 1
   3              		.eabi_attribute 24, 1
   4              		.eabi_attribute 25, 1
   5              		.eabi_attribute 26, 1
   6              		.eabi_attribute 30, 4
   7              		.eabi_attribute 34, 0
   8              		.eabi_attribute 18, 4
   9              		.file	"smtc_real.c"
  10              		.text
  11              	.Ltext0:
  12              		.cfi_sections	.debug_frame
  13              		.section	.rodata.smtc_real_init.str1.1,"aMS",%progbits,1
  14              	.LC0:
  15 0000 1B5B303B 		.ascii	"\033[0;31m\000"
  15      33316D00 
  16              	.LC2:
  17 0008 4552524F 		.ascii	"ERROR: \000"
  17      523A2000 
  18              	.LC5:
  19 0010 25732075 		.ascii	"%s unsupported\012\000"
  19      6E737570 
  19      706F7274 
  19      65640A00 
  20              	.LC7:
  21 0020 1B5B306D 		.ascii	"\033[0m\000"
  21      00
  22              		.section	.text.smtc_real_init,"ax",%progbits
  23              		.align	1
  24              		.global	smtc_real_init
  25              		.arch armv6s-m
  26              		.syntax unified
  27              		.code	16
  28              		.thumb_func
  29              		.fpu softvfp
  31              	smtc_real_init:
  32              	.LVL0:
  33              	.LFB9:
  34              		.file 1 "lr1mac/src/smtc_real/src/smtc_real.c"
   1:lr1mac/src/smtc_real/src/smtc_real.c **** /*!
   2:lr1mac/src/smtc_real/src/smtc_real.c ****  * \file      smtc_real.c
   3:lr1mac/src/smtc_real/src/smtc_real.c ****  *
   4:lr1mac/src/smtc_real/src/smtc_real.c ****  * \brief     Region Abstraction Layer (REAL) API implementation
   5:lr1mac/src/smtc_real/src/smtc_real.c ****  *
   6:lr1mac/src/smtc_real/src/smtc_real.c ****  * Revised BSD License
   7:lr1mac/src/smtc_real/src/smtc_real.c ****  * Copyright Semtech Corporation 2020. All rights reserved.
   8:lr1mac/src/smtc_real/src/smtc_real.c ****  *
   9:lr1mac/src/smtc_real/src/smtc_real.c ****  * Redistribution and use in source and binary forms, with or without
  10:lr1mac/src/smtc_real/src/smtc_real.c ****  * modification, are permitted provided that the following conditions are met:
  11:lr1mac/src/smtc_real/src/smtc_real.c ****  *     * Redistributions of source code must retain the above copyright
  12:lr1mac/src/smtc_real/src/smtc_real.c ****  *       notice, this list of conditions and the following disclaimer.
  13:lr1mac/src/smtc_real/src/smtc_real.c ****  *     * Redistributions in binary form must reproduce the above copyright
  14:lr1mac/src/smtc_real/src/smtc_real.c ****  *       notice, this list of conditions and the following disclaimer in the
  15:lr1mac/src/smtc_real/src/smtc_real.c ****  *       documentation and/or other materials provided with the distribution.
  16:lr1mac/src/smtc_real/src/smtc_real.c ****  *     * Neither the name of the Semtech corporation nor the
  17:lr1mac/src/smtc_real/src/smtc_real.c ****  *       names of its contributors may be used to endorse or promote products
  18:lr1mac/src/smtc_real/src/smtc_real.c ****  *       derived from this software without specific prior written permission.
ARM GAS  /var/folders/bq/yv49bw8j2kd6w3hsq868qv180000gn/T//ccRnzw9B.s 			page 2


  19:lr1mac/src/smtc_real/src/smtc_real.c ****  *
  20:lr1mac/src/smtc_real/src/smtc_real.c ****  * THIS SOFTWARE IS PROVIDED BY THE COPYRIGHT HOLDERS AND CONTRIBUTORS "AS IS"
  21:lr1mac/src/smtc_real/src/smtc_real.c ****  * AND ANY EXPRESS OR IMPLIED WARRANTIES, INCLUDING, BUT NOT LIMITED TO, THE
  22:lr1mac/src/smtc_real/src/smtc_real.c ****  * IMPLIED WARRANTIES OF MERCHANTABILITY AND FITNESS FOR A PARTICULAR PURPOSE
  23:lr1mac/src/smtc_real/src/smtc_real.c ****  * ARE DISCLAIMED. IN NO EVENT SHALL SEMTECH CORPORATION BE LIABLE FOR ANY DIRECT,
  24:lr1mac/src/smtc_real/src/smtc_real.c ****  * INDIRECT, INCIDENTAL, SPECIAL, EXEMPLARY, OR CONSEQUENTIAL DAMAGES
  25:lr1mac/src/smtc_real/src/smtc_real.c ****  * (INCLUDING, BUT NOT LIMITED TO, PROCUREMENT OF SUBSTITUTE GOODS OR SERVICES;
  26:lr1mac/src/smtc_real/src/smtc_real.c ****  * LOSS OF USE, DATA, OR PROFITS; OR BUSINESS INTERRUPTION) HOWEVER CAUSED AND
  27:lr1mac/src/smtc_real/src/smtc_real.c ****  * ON ANY THEORY OF LIABILITY, WHETHER IN CONTRACT, STRICT LIABILITY, OR TORT
  28:lr1mac/src/smtc_real/src/smtc_real.c ****  * (INCLUDING NEGLIGENCE OR OTHERWISE) ARISING IN ANY WAY OUT OF THE USE OF THIS
  29:lr1mac/src/smtc_real/src/smtc_real.c ****  * SOFTWARE, EVEN IF ADVISED OF THE POSSIBILITY OF SUCH DAMAGE.
  30:lr1mac/src/smtc_real/src/smtc_real.c ****  */
  31:lr1mac/src/smtc_real/src/smtc_real.c **** 
  32:lr1mac/src/smtc_real/src/smtc_real.c **** #include "smtc_real.h"
  33:lr1mac/src/smtc_real/src/smtc_real.c **** 
  34:lr1mac/src/smtc_real/src/smtc_real.c **** #if defined( REGION_WW2G4 )
  35:lr1mac/src/smtc_real/src/smtc_real.c **** #include "region_ww2g4.h"
  36:lr1mac/src/smtc_real/src/smtc_real.c **** #endif
  37:lr1mac/src/smtc_real/src/smtc_real.c **** #if defined( REGION_EU_868 )
  38:lr1mac/src/smtc_real/src/smtc_real.c **** #include "region_eu_868.h"
  39:lr1mac/src/smtc_real/src/smtc_real.c **** #endif
  40:lr1mac/src/smtc_real/src/smtc_real.c **** #if defined( REGION_US_915 )
  41:lr1mac/src/smtc_real/src/smtc_real.c **** #include "region_us_915.h"
  42:lr1mac/src/smtc_real/src/smtc_real.c **** #endif
  43:lr1mac/src/smtc_real/src/smtc_real.c **** #if !defined( REGION_WW2G4 ) && !defined( REGION_EU_868 ) && !defined( REGION_US_915 )
  44:lr1mac/src/smtc_real/src/smtc_real.c **** #error "Unknown region selected..."
  45:lr1mac/src/smtc_real/src/smtc_real.c **** #endif
  46:lr1mac/src/smtc_real/src/smtc_real.c **** 
  47:lr1mac/src/smtc_real/src/smtc_real.c **** void smtc_real_init( lr1_stack_mac_t* lr1_mac )
  48:lr1mac/src/smtc_real/src/smtc_real.c **** {
  35              		.loc 1 48 1 view -0
  36              		.cfi_startproc
  37              		@ args = 0, pretend = 0, frame = 0
  38              		@ frame_needed = 0, uses_anonymous_args = 0
  49:lr1mac/src/smtc_real/src/smtc_real.c ****     switch( lr1_mac->real->region_type )
  39              		.loc 1 49 5 view .LVU1
  48:lr1mac/src/smtc_real/src/smtc_real.c ****     switch( lr1_mac->real->region_type )
  40              		.loc 1 48 1 is_stmt 0 view .LVU2
  41 0000 10B5     		push	{r4, lr}
  42              		.cfi_def_cfa_offset 8
  43              		.cfi_offset 4, -8
  44              		.cfi_offset 14, -4
  45              		.loc 1 49 5 view .LVU3
  46 0002 0368     		ldr	r3, [r0]
  47 0004 1B79     		ldrb	r3, [r3, #4]
  48 0006 062B     		cmp	r3, #6
  49 0008 02D1     		bne	.L2
  50:lr1mac/src/smtc_real/src/smtc_real.c ****     {
  51:lr1mac/src/smtc_real/src/smtc_real.c **** #if defined( REGION_WW2G4 )
  52:lr1mac/src/smtc_real/src/smtc_real.c ****     case SMTC_REAL_REGION_WW2G4: {
  53:lr1mac/src/smtc_real/src/smtc_real.c ****         region_ww2g4_init( lr1_mac );
  50              		.loc 1 53 9 is_stmt 1 view .LVU4
  51 000a FFF7FEFF 		bl	region_ww2g4_init
  52              	.LVL1:
  54:lr1mac/src/smtc_real/src/smtc_real.c ****         break;
  53              		.loc 1 54 9 view .LVU5
  54              	.L1:
ARM GAS  /var/folders/bq/yv49bw8j2kd6w3hsq868qv180000gn/T//ccRnzw9B.s 			page 3


  55:lr1mac/src/smtc_real/src/smtc_real.c ****     }
  56:lr1mac/src/smtc_real/src/smtc_real.c **** #endif
  57:lr1mac/src/smtc_real/src/smtc_real.c **** #if defined( REGION_EU_868 )
  58:lr1mac/src/smtc_real/src/smtc_real.c ****     case SMTC_REAL_REGION_EU_868: {
  59:lr1mac/src/smtc_real/src/smtc_real.c ****         region_eu_868_init( lr1_mac );
  60:lr1mac/src/smtc_real/src/smtc_real.c ****         break;
  61:lr1mac/src/smtc_real/src/smtc_real.c ****     }
  62:lr1mac/src/smtc_real/src/smtc_real.c **** #endif
  63:lr1mac/src/smtc_real/src/smtc_real.c **** #if defined( REGION_US_915 )
  64:lr1mac/src/smtc_real/src/smtc_real.c ****     case SMTC_REAL_REGION_US_915: {
  65:lr1mac/src/smtc_real/src/smtc_real.c ****         region_us_915_init( lr1_mac );
  66:lr1mac/src/smtc_real/src/smtc_real.c ****         break;
  67:lr1mac/src/smtc_real/src/smtc_real.c ****     }
  68:lr1mac/src/smtc_real/src/smtc_real.c **** #endif
  69:lr1mac/src/smtc_real/src/smtc_real.c ****     default:
  70:lr1mac/src/smtc_real/src/smtc_real.c ****         BSP_DBG_TRACE_ERROR( "%s unsupported\n", __func__ );
  71:lr1mac/src/smtc_real/src/smtc_real.c ****         bsp_mcu_handle_lr1mac_issue( );
  72:lr1mac/src/smtc_real/src/smtc_real.c ****         break;
  73:lr1mac/src/smtc_real/src/smtc_real.c ****     }
  74:lr1mac/src/smtc_real/src/smtc_real.c **** }
  55              		.loc 1 74 1 is_stmt 0 view .LVU6
  56              		@ sp needed
  57 000e 10BD     		pop	{r4, pc}
  58              	.LVL2:
  59              	.L2:
  70:lr1mac/src/smtc_real/src/smtc_real.c ****         bsp_mcu_handle_lr1mac_issue( );
  60              		.loc 1 70 9 is_stmt 1 view .LVU7
  70:lr1mac/src/smtc_real/src/smtc_real.c ****         bsp_mcu_handle_lr1mac_issue( );
  61              		.loc 1 70 9 view .LVU8
  62 0010 0748     		ldr	r0, .L4
  63              	.LVL3:
  70:lr1mac/src/smtc_real/src/smtc_real.c ****         bsp_mcu_handle_lr1mac_issue( );
  64              		.loc 1 70 9 is_stmt 0 view .LVU9
  65 0012 FFF7FEFF 		bl	bsp_trace_print
  66              	.LVL4:
  70:lr1mac/src/smtc_real/src/smtc_real.c ****         bsp_mcu_handle_lr1mac_issue( );
  67              		.loc 1 70 9 is_stmt 1 view .LVU10
  68 0016 0748     		ldr	r0, .L4+4
  69 0018 FFF7FEFF 		bl	bsp_trace_print
  70              	.LVL5:
  70:lr1mac/src/smtc_real/src/smtc_real.c ****         bsp_mcu_handle_lr1mac_issue( );
  71              		.loc 1 70 9 view .LVU11
  72 001c 0649     		ldr	r1, .L4+8
  73 001e 0748     		ldr	r0, .L4+12
  74 0020 FFF7FEFF 		bl	bsp_trace_print
  75              	.LVL6:
  70:lr1mac/src/smtc_real/src/smtc_real.c ****         bsp_mcu_handle_lr1mac_issue( );
  76              		.loc 1 70 9 view .LVU12
  77 0024 0648     		ldr	r0, .L4+16
  78 0026 FFF7FEFF 		bl	bsp_trace_print
  79              	.LVL7:
  70:lr1mac/src/smtc_real/src/smtc_real.c ****         bsp_mcu_handle_lr1mac_issue( );
  80              		.loc 1 70 9 view .LVU13
  70:lr1mac/src/smtc_real/src/smtc_real.c ****         bsp_mcu_handle_lr1mac_issue( );
  81              		.loc 1 70 60 view .LVU14
  71:lr1mac/src/smtc_real/src/smtc_real.c ****         break;
  82              		.loc 1 71 9 view .LVU15
ARM GAS  /var/folders/bq/yv49bw8j2kd6w3hsq868qv180000gn/T//ccRnzw9B.s 			page 4


  83 002a FFF7FEFF 		bl	bsp_mcu_handle_lr1mac_issue
  84              	.LVL8:
  72:lr1mac/src/smtc_real/src/smtc_real.c ****     }
  85              		.loc 1 72 9 view .LVU16
  86              		.loc 1 74 1 is_stmt 0 view .LVU17
  87 002e EEE7     		b	.L1
  88              	.L5:
  89              		.align	2
  90              	.L4:
  91 0030 00000000 		.word	.LC0
  92 0034 08000000 		.word	.LC2
  93 0038 00000000 		.word	.LANCHOR0
  94 003c 10000000 		.word	.LC5
  95 0040 20000000 		.word	.LC7
  96              		.cfi_endproc
  97              	.LFE9:
  99              		.section	.text.smtc_real_dr_distribution_set,"ax",%progbits
 100              		.align	1
 101              		.global	smtc_real_dr_distribution_set
 102              		.syntax unified
 103              		.code	16
 104              		.thumb_func
 105              		.fpu softvfp
 107              	smtc_real_dr_distribution_set:
 108              	.LVL9:
 109              	.LFB10:
  75:lr1mac/src/smtc_real/src/smtc_real.c **** 
  76:lr1mac/src/smtc_real/src/smtc_real.c **** void smtc_real_dr_distribution_set( lr1_stack_mac_t* lr1_mac, uint8_t adrMode )
  77:lr1mac/src/smtc_real/src/smtc_real.c **** {
 110              		.loc 1 77 1 is_stmt 1 view -0
 111              		.cfi_startproc
 112              		@ args = 0, pretend = 0, frame = 0
 113              		@ frame_needed = 0, uses_anonymous_args = 0
  78:lr1mac/src/smtc_real/src/smtc_real.c ****     switch( lr1_mac->real->region_type )
 114              		.loc 1 78 5 view .LVU19
  77:lr1mac/src/smtc_real/src/smtc_real.c ****     switch( lr1_mac->real->region_type )
 115              		.loc 1 77 1 is_stmt 0 view .LVU20
 116 0000 10B5     		push	{r4, lr}
 117              		.cfi_def_cfa_offset 8
 118              		.cfi_offset 4, -8
 119              		.cfi_offset 14, -4
 120              		.loc 1 78 5 view .LVU21
 121 0002 0368     		ldr	r3, [r0]
 122 0004 1B79     		ldrb	r3, [r3, #4]
 123 0006 062B     		cmp	r3, #6
 124 0008 02D1     		bne	.L7
  79:lr1mac/src/smtc_real/src/smtc_real.c ****     {
  80:lr1mac/src/smtc_real/src/smtc_real.c **** #if defined( REGION_WW2G4 )
  81:lr1mac/src/smtc_real/src/smtc_real.c ****     case SMTC_REAL_REGION_WW2G4: {
  82:lr1mac/src/smtc_real/src/smtc_real.c ****         region_ww2g4_dr_distribution_set( lr1_mac, adrMode );
 125              		.loc 1 82 9 is_stmt 1 view .LVU22
 126 000a FFF7FEFF 		bl	region_ww2g4_dr_distribution_set
 127              	.LVL10:
  83:lr1mac/src/smtc_real/src/smtc_real.c ****         break;
 128              		.loc 1 83 9 view .LVU23
 129              	.L6:
  84:lr1mac/src/smtc_real/src/smtc_real.c ****     }
ARM GAS  /var/folders/bq/yv49bw8j2kd6w3hsq868qv180000gn/T//ccRnzw9B.s 			page 5


  85:lr1mac/src/smtc_real/src/smtc_real.c **** #endif
  86:lr1mac/src/smtc_real/src/smtc_real.c **** #if defined( REGION_EU_868 )
  87:lr1mac/src/smtc_real/src/smtc_real.c ****     case SMTC_REAL_REGION_EU_868: {
  88:lr1mac/src/smtc_real/src/smtc_real.c ****         region_eu_868_dr_distribution_set( lr1_mac, adrMode );
  89:lr1mac/src/smtc_real/src/smtc_real.c ****         break;
  90:lr1mac/src/smtc_real/src/smtc_real.c ****     }
  91:lr1mac/src/smtc_real/src/smtc_real.c **** #endif
  92:lr1mac/src/smtc_real/src/smtc_real.c **** #if defined( REGION_US_915 )
  93:lr1mac/src/smtc_real/src/smtc_real.c ****     case SMTC_REAL_REGION_US_915: {
  94:lr1mac/src/smtc_real/src/smtc_real.c ****         region_us_915_dr_distribution_set( lr1_mac, adrMode );
  95:lr1mac/src/smtc_real/src/smtc_real.c ****         break;
  96:lr1mac/src/smtc_real/src/smtc_real.c ****     }
  97:lr1mac/src/smtc_real/src/smtc_real.c **** #endif
  98:lr1mac/src/smtc_real/src/smtc_real.c ****     default:
  99:lr1mac/src/smtc_real/src/smtc_real.c ****         BSP_DBG_TRACE_ERROR( "%s unsupported\n", __func__ );
 100:lr1mac/src/smtc_real/src/smtc_real.c ****         bsp_mcu_handle_lr1mac_issue( );
 101:lr1mac/src/smtc_real/src/smtc_real.c ****         break;
 102:lr1mac/src/smtc_real/src/smtc_real.c ****     }
 103:lr1mac/src/smtc_real/src/smtc_real.c **** }
 130              		.loc 1 103 1 is_stmt 0 view .LVU24
 131              		@ sp needed
 132 000e 10BD     		pop	{r4, pc}
 133              	.LVL11:
 134              	.L7:
  99:lr1mac/src/smtc_real/src/smtc_real.c ****         bsp_mcu_handle_lr1mac_issue( );
 135              		.loc 1 99 9 is_stmt 1 view .LVU25
  99:lr1mac/src/smtc_real/src/smtc_real.c ****         bsp_mcu_handle_lr1mac_issue( );
 136              		.loc 1 99 9 view .LVU26
 137 0010 0748     		ldr	r0, .L9
 138              	.LVL12:
  99:lr1mac/src/smtc_real/src/smtc_real.c ****         bsp_mcu_handle_lr1mac_issue( );
 139              		.loc 1 99 9 is_stmt 0 view .LVU27
 140 0012 FFF7FEFF 		bl	bsp_trace_print
 141              	.LVL13:
  99:lr1mac/src/smtc_real/src/smtc_real.c ****         bsp_mcu_handle_lr1mac_issue( );
 142              		.loc 1 99 9 is_stmt 1 view .LVU28
 143 0016 0748     		ldr	r0, .L9+4
 144 0018 FFF7FEFF 		bl	bsp_trace_print
 145              	.LVL14:
  99:lr1mac/src/smtc_real/src/smtc_real.c ****         bsp_mcu_handle_lr1mac_issue( );
 146              		.loc 1 99 9 view .LVU29
 147 001c 0649     		ldr	r1, .L9+8
 148 001e 0748     		ldr	r0, .L9+12
 149 0020 FFF7FEFF 		bl	bsp_trace_print
 150              	.LVL15:
  99:lr1mac/src/smtc_real/src/smtc_real.c ****         bsp_mcu_handle_lr1mac_issue( );
 151              		.loc 1 99 9 view .LVU30
 152 0024 0648     		ldr	r0, .L9+16
 153 0026 FFF7FEFF 		bl	bsp_trace_print
 154              	.LVL16:
  99:lr1mac/src/smtc_real/src/smtc_real.c ****         bsp_mcu_handle_lr1mac_issue( );
 155              		.loc 1 99 9 view .LVU31
  99:lr1mac/src/smtc_real/src/smtc_real.c ****         bsp_mcu_handle_lr1mac_issue( );
 156              		.loc 1 99 60 view .LVU32
 100:lr1mac/src/smtc_real/src/smtc_real.c ****         break;
 157              		.loc 1 100 9 view .LVU33
 158 002a FFF7FEFF 		bl	bsp_mcu_handle_lr1mac_issue
ARM GAS  /var/folders/bq/yv49bw8j2kd6w3hsq868qv180000gn/T//ccRnzw9B.s 			page 6


 159              	.LVL17:
 101:lr1mac/src/smtc_real/src/smtc_real.c ****     }
 160              		.loc 1 101 9 view .LVU34
 161              		.loc 1 103 1 is_stmt 0 view .LVU35
 162 002e EEE7     		b	.L6
 163              	.L10:
 164              		.align	2
 165              	.L9:
 166 0030 00000000 		.word	.LC0
 167 0034 08000000 		.word	.LC2
 168 0038 00000000 		.word	.LANCHOR1
 169 003c 10000000 		.word	.LC5
 170 0040 20000000 		.word	.LC7
 171              		.cfi_endproc
 172              	.LFE10:
 174              		.section	.text.smtc_real_memory_load,"ax",%progbits
 175              		.align	1
 176              		.global	smtc_real_memory_load
 177              		.syntax unified
 178              		.code	16
 179              		.thumb_func
 180              		.fpu softvfp
 182              	smtc_real_memory_load:
 183              	.LVL18:
 184              	.LFB11:
 104:lr1mac/src/smtc_real/src/smtc_real.c **** 
 105:lr1mac/src/smtc_real/src/smtc_real.c **** status_lorawan_t smtc_real_memory_load( lr1_stack_mac_t* lr1_mac )
 106:lr1mac/src/smtc_real/src/smtc_real.c **** {
 185              		.loc 1 106 1 is_stmt 1 view -0
 186              		.cfi_startproc
 187              		@ args = 0, pretend = 0, frame = 0
 188              		@ frame_needed = 0, uses_anonymous_args = 0
 107:lr1mac/src/smtc_real/src/smtc_real.c ****     switch( lr1_mac->real->region_type )
 189              		.loc 1 107 5 view .LVU37
 106:lr1mac/src/smtc_real/src/smtc_real.c ****     switch( lr1_mac->real->region_type )
 190              		.loc 1 106 1 is_stmt 0 view .LVU38
 191 0000 10B5     		push	{r4, lr}
 192              		.cfi_def_cfa_offset 8
 193              		.cfi_offset 4, -8
 194              		.cfi_offset 14, -4
 195              		.loc 1 107 5 view .LVU39
 196 0002 0368     		ldr	r3, [r0]
 197 0004 1B79     		ldrb	r3, [r3, #4]
 198 0006 062B     		cmp	r3, #6
 199 0008 02D1     		bne	.L12
 108:lr1mac/src/smtc_real/src/smtc_real.c ****     {
 109:lr1mac/src/smtc_real/src/smtc_real.c **** #if defined( REGION_WW2G4 )
 110:lr1mac/src/smtc_real/src/smtc_real.c ****     case SMTC_REAL_REGION_WW2G4: {
 111:lr1mac/src/smtc_real/src/smtc_real.c ****         return region_ww2g4_memory_load( lr1_mac );
 200              		.loc 1 111 9 is_stmt 1 view .LVU40
 201              		.loc 1 111 16 is_stmt 0 view .LVU41
 202 000a FFF7FEFF 		bl	region_ww2g4_memory_load
 203              	.LVL19:
 204              	.L13:
 112:lr1mac/src/smtc_real/src/smtc_real.c ****         break;
 113:lr1mac/src/smtc_real/src/smtc_real.c ****     }
 114:lr1mac/src/smtc_real/src/smtc_real.c **** #endif
ARM GAS  /var/folders/bq/yv49bw8j2kd6w3hsq868qv180000gn/T//ccRnzw9B.s 			page 7


 115:lr1mac/src/smtc_real/src/smtc_real.c **** #if defined( REGION_EU_868 )
 116:lr1mac/src/smtc_real/src/smtc_real.c ****     case SMTC_REAL_REGION_EU_868: {
 117:lr1mac/src/smtc_real/src/smtc_real.c ****         return region_eu_868_memory_load( lr1_mac );
 118:lr1mac/src/smtc_real/src/smtc_real.c ****         break;
 119:lr1mac/src/smtc_real/src/smtc_real.c ****     }
 120:lr1mac/src/smtc_real/src/smtc_real.c **** #endif
 121:lr1mac/src/smtc_real/src/smtc_real.c **** #if defined( REGION_US_915 )
 122:lr1mac/src/smtc_real/src/smtc_real.c ****     case SMTC_REAL_REGION_US_915: {
 123:lr1mac/src/smtc_real/src/smtc_real.c ****         return region_us_915_memory_load( lr1_mac );
 124:lr1mac/src/smtc_real/src/smtc_real.c ****         break;
 125:lr1mac/src/smtc_real/src/smtc_real.c ****     }
 126:lr1mac/src/smtc_real/src/smtc_real.c **** #endif
 127:lr1mac/src/smtc_real/src/smtc_real.c ****     default:
 128:lr1mac/src/smtc_real/src/smtc_real.c ****         BSP_DBG_TRACE_ERROR( "%s unsupported\n", __func__ );
 129:lr1mac/src/smtc_real/src/smtc_real.c ****         bsp_mcu_handle_lr1mac_issue( );
 130:lr1mac/src/smtc_real/src/smtc_real.c ****         return ( ERRORLORAWAN );  // never reach just for warning
 131:lr1mac/src/smtc_real/src/smtc_real.c ****         break;
 205              		.loc 1 131 9 is_stmt 1 view .LVU42
 132:lr1mac/src/smtc_real/src/smtc_real.c ****     }
 133:lr1mac/src/smtc_real/src/smtc_real.c **** }
 206              		.loc 1 133 1 is_stmt 0 view .LVU43
 207              		@ sp needed
 208 000e 10BD     		pop	{r4, pc}
 209              	.LVL20:
 210              	.L12:
 112:lr1mac/src/smtc_real/src/smtc_real.c ****         break;
 211              		.loc 1 112 9 is_stmt 1 view .LVU44
 128:lr1mac/src/smtc_real/src/smtc_real.c ****         bsp_mcu_handle_lr1mac_issue( );
 212              		.loc 1 128 9 view .LVU45
 128:lr1mac/src/smtc_real/src/smtc_real.c ****         bsp_mcu_handle_lr1mac_issue( );
 213              		.loc 1 128 9 view .LVU46
 214 0010 0848     		ldr	r0, .L14
 215              	.LVL21:
 128:lr1mac/src/smtc_real/src/smtc_real.c ****         bsp_mcu_handle_lr1mac_issue( );
 216              		.loc 1 128 9 is_stmt 0 view .LVU47
 217 0012 FFF7FEFF 		bl	bsp_trace_print
 218              	.LVL22:
 128:lr1mac/src/smtc_real/src/smtc_real.c ****         bsp_mcu_handle_lr1mac_issue( );
 219              		.loc 1 128 9 is_stmt 1 view .LVU48
 220 0016 0848     		ldr	r0, .L14+4
 221 0018 FFF7FEFF 		bl	bsp_trace_print
 222              	.LVL23:
 128:lr1mac/src/smtc_real/src/smtc_real.c ****         bsp_mcu_handle_lr1mac_issue( );
 223              		.loc 1 128 9 view .LVU49
 224 001c 0749     		ldr	r1, .L14+8
 225 001e 0848     		ldr	r0, .L14+12
 226 0020 FFF7FEFF 		bl	bsp_trace_print
 227              	.LVL24:
 128:lr1mac/src/smtc_real/src/smtc_real.c ****         bsp_mcu_handle_lr1mac_issue( );
 228              		.loc 1 128 9 view .LVU50
 229 0024 0748     		ldr	r0, .L14+16
 230 0026 FFF7FEFF 		bl	bsp_trace_print
 231              	.LVL25:
 128:lr1mac/src/smtc_real/src/smtc_real.c ****         bsp_mcu_handle_lr1mac_issue( );
 232              		.loc 1 128 9 view .LVU51
 128:lr1mac/src/smtc_real/src/smtc_real.c ****         bsp_mcu_handle_lr1mac_issue( );
 233              		.loc 1 128 60 view .LVU52
ARM GAS  /var/folders/bq/yv49bw8j2kd6w3hsq868qv180000gn/T//ccRnzw9B.s 			page 8


 129:lr1mac/src/smtc_real/src/smtc_real.c ****         return ( ERRORLORAWAN );  // never reach just for warning
 234              		.loc 1 129 9 view .LVU53
 235 002a FFF7FEFF 		bl	bsp_mcu_handle_lr1mac_issue
 236              	.LVL26:
 130:lr1mac/src/smtc_real/src/smtc_real.c ****         break;
 237              		.loc 1 130 9 view .LVU54
 130:lr1mac/src/smtc_real/src/smtc_real.c ****         break;
 238              		.loc 1 130 16 is_stmt 0 view .LVU55
 239 002e 0120     		movs	r0, #1
 240 0030 4042     		rsbs	r0, r0, #0
 241 0032 ECE7     		b	.L13
 242              	.L15:
 243              		.align	2
 244              	.L14:
 245 0034 00000000 		.word	.LC0
 246 0038 08000000 		.word	.LC2
 247 003c 00000000 		.word	.LANCHOR2
 248 0040 10000000 		.word	.LC5
 249 0044 20000000 		.word	.LC7
 250              		.cfi_endproc
 251              	.LFE11:
 253              		.section	.text.smtc_real_bad_crc_memory_set,"ax",%progbits
 254              		.align	1
 255              		.global	smtc_real_bad_crc_memory_set
 256              		.syntax unified
 257              		.code	16
 258              		.thumb_func
 259              		.fpu softvfp
 261              	smtc_real_bad_crc_memory_set:
 262              	.LVL27:
 263              	.LFB12:
 134:lr1mac/src/smtc_real/src/smtc_real.c **** 
 135:lr1mac/src/smtc_real/src/smtc_real.c **** void smtc_real_bad_crc_memory_set( lr1_stack_mac_t* lr1_mac )
 136:lr1mac/src/smtc_real/src/smtc_real.c **** {
 264              		.loc 1 136 1 is_stmt 1 view -0
 265              		.cfi_startproc
 266              		@ args = 0, pretend = 0, frame = 0
 267              		@ frame_needed = 0, uses_anonymous_args = 0
 137:lr1mac/src/smtc_real/src/smtc_real.c ****     switch( lr1_mac->real->region_type )
 268              		.loc 1 137 5 view .LVU57
 136:lr1mac/src/smtc_real/src/smtc_real.c ****     switch( lr1_mac->real->region_type )
 269              		.loc 1 136 1 is_stmt 0 view .LVU58
 270 0000 10B5     		push	{r4, lr}
 271              		.cfi_def_cfa_offset 8
 272              		.cfi_offset 4, -8
 273              		.cfi_offset 14, -4
 274              		.loc 1 137 5 view .LVU59
 275 0002 0368     		ldr	r3, [r0]
 276 0004 1B79     		ldrb	r3, [r3, #4]
 277 0006 062B     		cmp	r3, #6
 278 0008 02D1     		bne	.L17
 138:lr1mac/src/smtc_real/src/smtc_real.c ****     {
 139:lr1mac/src/smtc_real/src/smtc_real.c **** #if defined( REGION_WW2G4 )
 140:lr1mac/src/smtc_real/src/smtc_real.c ****     case SMTC_REAL_REGION_WW2G4: {
 141:lr1mac/src/smtc_real/src/smtc_real.c ****         region_ww2g4_bad_crc_memory_set( lr1_mac );
 279              		.loc 1 141 9 is_stmt 1 view .LVU60
 280 000a FFF7FEFF 		bl	region_ww2g4_bad_crc_memory_set
ARM GAS  /var/folders/bq/yv49bw8j2kd6w3hsq868qv180000gn/T//ccRnzw9B.s 			page 9


 281              	.LVL28:
 142:lr1mac/src/smtc_real/src/smtc_real.c ****         break;
 282              		.loc 1 142 9 view .LVU61
 283              	.L16:
 143:lr1mac/src/smtc_real/src/smtc_real.c ****     }
 144:lr1mac/src/smtc_real/src/smtc_real.c **** #endif
 145:lr1mac/src/smtc_real/src/smtc_real.c **** #if defined( REGION_EU_868 )
 146:lr1mac/src/smtc_real/src/smtc_real.c ****     case SMTC_REAL_REGION_EU_868: {
 147:lr1mac/src/smtc_real/src/smtc_real.c ****         region_eu_868_bad_crc_memory_set( lr1_mac );
 148:lr1mac/src/smtc_real/src/smtc_real.c ****         break;
 149:lr1mac/src/smtc_real/src/smtc_real.c ****     }
 150:lr1mac/src/smtc_real/src/smtc_real.c **** #endif
 151:lr1mac/src/smtc_real/src/smtc_real.c **** #if defined( REGION_US_915 )
 152:lr1mac/src/smtc_real/src/smtc_real.c ****     case SMTC_REAL_REGION_US_915: {
 153:lr1mac/src/smtc_real/src/smtc_real.c ****         region_us_915_bad_crc_memory_set( lr1_mac );
 154:lr1mac/src/smtc_real/src/smtc_real.c ****         break;
 155:lr1mac/src/smtc_real/src/smtc_real.c ****     }
 156:lr1mac/src/smtc_real/src/smtc_real.c **** #endif
 157:lr1mac/src/smtc_real/src/smtc_real.c ****     default:
 158:lr1mac/src/smtc_real/src/smtc_real.c ****         BSP_DBG_TRACE_ERROR( "%s unsupported\n", __func__ );
 159:lr1mac/src/smtc_real/src/smtc_real.c ****         bsp_mcu_handle_lr1mac_issue( );
 160:lr1mac/src/smtc_real/src/smtc_real.c ****         break;
 161:lr1mac/src/smtc_real/src/smtc_real.c ****     }
 162:lr1mac/src/smtc_real/src/smtc_real.c **** }
 284              		.loc 1 162 1 is_stmt 0 view .LVU62
 285              		@ sp needed
 286 000e 10BD     		pop	{r4, pc}
 287              	.LVL29:
 288              	.L17:
 158:lr1mac/src/smtc_real/src/smtc_real.c ****         bsp_mcu_handle_lr1mac_issue( );
 289              		.loc 1 158 9 is_stmt 1 view .LVU63
 158:lr1mac/src/smtc_real/src/smtc_real.c ****         bsp_mcu_handle_lr1mac_issue( );
 290              		.loc 1 158 9 view .LVU64
 291 0010 0748     		ldr	r0, .L19
 292              	.LVL30:
 158:lr1mac/src/smtc_real/src/smtc_real.c ****         bsp_mcu_handle_lr1mac_issue( );
 293              		.loc 1 158 9 is_stmt 0 view .LVU65
 294 0012 FFF7FEFF 		bl	bsp_trace_print
 295              	.LVL31:
 158:lr1mac/src/smtc_real/src/smtc_real.c ****         bsp_mcu_handle_lr1mac_issue( );
 296              		.loc 1 158 9 is_stmt 1 view .LVU66
 297 0016 0748     		ldr	r0, .L19+4
 298 0018 FFF7FEFF 		bl	bsp_trace_print
 299              	.LVL32:
 158:lr1mac/src/smtc_real/src/smtc_real.c ****         bsp_mcu_handle_lr1mac_issue( );
 300              		.loc 1 158 9 view .LVU67
 301 001c 0649     		ldr	r1, .L19+8
 302 001e 0748     		ldr	r0, .L19+12
 303 0020 FFF7FEFF 		bl	bsp_trace_print
 304              	.LVL33:
 158:lr1mac/src/smtc_real/src/smtc_real.c ****         bsp_mcu_handle_lr1mac_issue( );
 305              		.loc 1 158 9 view .LVU68
 306 0024 0648     		ldr	r0, .L19+16
 307 0026 FFF7FEFF 		bl	bsp_trace_print
 308              	.LVL34:
 158:lr1mac/src/smtc_real/src/smtc_real.c ****         bsp_mcu_handle_lr1mac_issue( );
 309              		.loc 1 158 9 view .LVU69
ARM GAS  /var/folders/bq/yv49bw8j2kd6w3hsq868qv180000gn/T//ccRnzw9B.s 			page 10


 158:lr1mac/src/smtc_real/src/smtc_real.c ****         bsp_mcu_handle_lr1mac_issue( );
 310              		.loc 1 158 60 view .LVU70
 159:lr1mac/src/smtc_real/src/smtc_real.c ****         break;
 311              		.loc 1 159 9 view .LVU71
 312 002a FFF7FEFF 		bl	bsp_mcu_handle_lr1mac_issue
 313              	.LVL35:
 160:lr1mac/src/smtc_real/src/smtc_real.c ****     }
 314              		.loc 1 160 9 view .LVU72
 315              		.loc 1 162 1 is_stmt 0 view .LVU73
 316 002e EEE7     		b	.L16
 317              	.L20:
 318              		.align	2
 319              	.L19:
 320 0030 00000000 		.word	.LC0
 321 0034 08000000 		.word	.LC2
 322 0038 00000000 		.word	.LANCHOR3
 323 003c 10000000 		.word	.LC5
 324 0040 20000000 		.word	.LC7
 325              		.cfi_endproc
 326              	.LFE12:
 328              		.section	.text.smtc_real_next_dr_get,"ax",%progbits
 329              		.align	1
 330              		.global	smtc_real_next_dr_get
 331              		.syntax unified
 332              		.code	16
 333              		.thumb_func
 334              		.fpu softvfp
 336              	smtc_real_next_dr_get:
 337              	.LVL36:
 338              	.LFB13:
 163:lr1mac/src/smtc_real/src/smtc_real.c **** 
 164:lr1mac/src/smtc_real/src/smtc_real.c **** void smtc_real_next_dr_get( lr1_stack_mac_t* lr1_mac )
 165:lr1mac/src/smtc_real/src/smtc_real.c **** {
 339              		.loc 1 165 1 is_stmt 1 view -0
 340              		.cfi_startproc
 341              		@ args = 0, pretend = 0, frame = 0
 342              		@ frame_needed = 0, uses_anonymous_args = 0
 166:lr1mac/src/smtc_real/src/smtc_real.c ****     switch( lr1_mac->real->region_type )
 343              		.loc 1 166 5 view .LVU75
 165:lr1mac/src/smtc_real/src/smtc_real.c ****     switch( lr1_mac->real->region_type )
 344              		.loc 1 165 1 is_stmt 0 view .LVU76
 345 0000 10B5     		push	{r4, lr}
 346              		.cfi_def_cfa_offset 8
 347              		.cfi_offset 4, -8
 348              		.cfi_offset 14, -4
 349              		.loc 1 166 5 view .LVU77
 350 0002 0368     		ldr	r3, [r0]
 351 0004 1B79     		ldrb	r3, [r3, #4]
 352 0006 062B     		cmp	r3, #6
 353 0008 02D1     		bne	.L22
 167:lr1mac/src/smtc_real/src/smtc_real.c ****     {
 168:lr1mac/src/smtc_real/src/smtc_real.c **** #if defined( REGION_WW2G4 )
 169:lr1mac/src/smtc_real/src/smtc_real.c ****     case SMTC_REAL_REGION_WW2G4: {
 170:lr1mac/src/smtc_real/src/smtc_real.c ****         region_ww2g4_next_dr_get( lr1_mac );
 354              		.loc 1 170 9 is_stmt 1 view .LVU78
 355 000a FFF7FEFF 		bl	region_ww2g4_next_dr_get
 356              	.LVL37:
ARM GAS  /var/folders/bq/yv49bw8j2kd6w3hsq868qv180000gn/T//ccRnzw9B.s 			page 11


 171:lr1mac/src/smtc_real/src/smtc_real.c ****         break;
 357              		.loc 1 171 9 view .LVU79
 358              	.L21:
 172:lr1mac/src/smtc_real/src/smtc_real.c ****     }
 173:lr1mac/src/smtc_real/src/smtc_real.c **** #endif
 174:lr1mac/src/smtc_real/src/smtc_real.c **** #if defined( REGION_EU_868 )
 175:lr1mac/src/smtc_real/src/smtc_real.c ****     case SMTC_REAL_REGION_EU_868: {
 176:lr1mac/src/smtc_real/src/smtc_real.c ****         region_eu_868_next_dr_get( lr1_mac );
 177:lr1mac/src/smtc_real/src/smtc_real.c ****         break;
 178:lr1mac/src/smtc_real/src/smtc_real.c ****     }
 179:lr1mac/src/smtc_real/src/smtc_real.c **** #endif
 180:lr1mac/src/smtc_real/src/smtc_real.c **** #if defined( REGION_US_915 )
 181:lr1mac/src/smtc_real/src/smtc_real.c ****     case SMTC_REAL_REGION_US_915: {
 182:lr1mac/src/smtc_real/src/smtc_real.c ****         region_us_915_next_dr_get( lr1_mac );
 183:lr1mac/src/smtc_real/src/smtc_real.c ****         break;
 184:lr1mac/src/smtc_real/src/smtc_real.c ****     }
 185:lr1mac/src/smtc_real/src/smtc_real.c **** #endif
 186:lr1mac/src/smtc_real/src/smtc_real.c ****     default:
 187:lr1mac/src/smtc_real/src/smtc_real.c ****         BSP_DBG_TRACE_ERROR( "%s unsupported\n", __func__ );
 188:lr1mac/src/smtc_real/src/smtc_real.c ****         bsp_mcu_handle_lr1mac_issue( );
 189:lr1mac/src/smtc_real/src/smtc_real.c ****         break;
 190:lr1mac/src/smtc_real/src/smtc_real.c ****     }
 191:lr1mac/src/smtc_real/src/smtc_real.c **** }
 359              		.loc 1 191 1 is_stmt 0 view .LVU80
 360              		@ sp needed
 361 000e 10BD     		pop	{r4, pc}
 362              	.LVL38:
 363              	.L22:
 187:lr1mac/src/smtc_real/src/smtc_real.c ****         bsp_mcu_handle_lr1mac_issue( );
 364              		.loc 1 187 9 is_stmt 1 view .LVU81
 187:lr1mac/src/smtc_real/src/smtc_real.c ****         bsp_mcu_handle_lr1mac_issue( );
 365              		.loc 1 187 9 view .LVU82
 366 0010 0748     		ldr	r0, .L24
 367              	.LVL39:
 187:lr1mac/src/smtc_real/src/smtc_real.c ****         bsp_mcu_handle_lr1mac_issue( );
 368              		.loc 1 187 9 is_stmt 0 view .LVU83
 369 0012 FFF7FEFF 		bl	bsp_trace_print
 370              	.LVL40:
 187:lr1mac/src/smtc_real/src/smtc_real.c ****         bsp_mcu_handle_lr1mac_issue( );
 371              		.loc 1 187 9 is_stmt 1 view .LVU84
 372 0016 0748     		ldr	r0, .L24+4
 373 0018 FFF7FEFF 		bl	bsp_trace_print
 374              	.LVL41:
 187:lr1mac/src/smtc_real/src/smtc_real.c ****         bsp_mcu_handle_lr1mac_issue( );
 375              		.loc 1 187 9 view .LVU85
 376 001c 0649     		ldr	r1, .L24+8
 377 001e 0748     		ldr	r0, .L24+12
 378 0020 FFF7FEFF 		bl	bsp_trace_print
 379              	.LVL42:
 187:lr1mac/src/smtc_real/src/smtc_real.c ****         bsp_mcu_handle_lr1mac_issue( );
 380              		.loc 1 187 9 view .LVU86
 381 0024 0648     		ldr	r0, .L24+16
 382 0026 FFF7FEFF 		bl	bsp_trace_print
 383              	.LVL43:
 187:lr1mac/src/smtc_real/src/smtc_real.c ****         bsp_mcu_handle_lr1mac_issue( );
 384              		.loc 1 187 9 view .LVU87
 187:lr1mac/src/smtc_real/src/smtc_real.c ****         bsp_mcu_handle_lr1mac_issue( );
ARM GAS  /var/folders/bq/yv49bw8j2kd6w3hsq868qv180000gn/T//ccRnzw9B.s 			page 12


 385              		.loc 1 187 60 view .LVU88
 188:lr1mac/src/smtc_real/src/smtc_real.c ****         break;
 386              		.loc 1 188 9 view .LVU89
 387 002a FFF7FEFF 		bl	bsp_mcu_handle_lr1mac_issue
 388              	.LVL44:
 189:lr1mac/src/smtc_real/src/smtc_real.c ****     }
 389              		.loc 1 189 9 view .LVU90
 390              		.loc 1 191 1 is_stmt 0 view .LVU91
 391 002e EEE7     		b	.L21
 392              	.L25:
 393              		.align	2
 394              	.L24:
 395 0030 00000000 		.word	.LC0
 396 0034 08000000 		.word	.LC2
 397 0038 00000000 		.word	.LANCHOR4
 398 003c 10000000 		.word	.LC5
 399 0040 20000000 		.word	.LC7
 400              		.cfi_endproc
 401              	.LFE13:
 403              		.section	.text.smtc_real_memory_save,"ax",%progbits
 404              		.align	1
 405              		.global	smtc_real_memory_save
 406              		.syntax unified
 407              		.code	16
 408              		.thumb_func
 409              		.fpu softvfp
 411              	smtc_real_memory_save:
 412              	.LVL45:
 413              	.LFB14:
 192:lr1mac/src/smtc_real/src/smtc_real.c **** 
 193:lr1mac/src/smtc_real/src/smtc_real.c **** void smtc_real_memory_save( lr1_stack_mac_t* lr1_mac )
 194:lr1mac/src/smtc_real/src/smtc_real.c **** {
 414              		.loc 1 194 1 is_stmt 1 view -0
 415              		.cfi_startproc
 416              		@ args = 0, pretend = 0, frame = 0
 417              		@ frame_needed = 0, uses_anonymous_args = 0
 195:lr1mac/src/smtc_real/src/smtc_real.c ****     switch( lr1_mac->real->region_type )
 418              		.loc 1 195 5 view .LVU93
 194:lr1mac/src/smtc_real/src/smtc_real.c ****     switch( lr1_mac->real->region_type )
 419              		.loc 1 194 1 is_stmt 0 view .LVU94
 420 0000 10B5     		push	{r4, lr}
 421              		.cfi_def_cfa_offset 8
 422              		.cfi_offset 4, -8
 423              		.cfi_offset 14, -4
 424              		.loc 1 195 5 view .LVU95
 425 0002 0368     		ldr	r3, [r0]
 426 0004 1B79     		ldrb	r3, [r3, #4]
 427 0006 062B     		cmp	r3, #6
 428 0008 02D1     		bne	.L27
 196:lr1mac/src/smtc_real/src/smtc_real.c ****     {
 197:lr1mac/src/smtc_real/src/smtc_real.c **** #if defined( REGION_WW2G4 )
 198:lr1mac/src/smtc_real/src/smtc_real.c ****     case SMTC_REAL_REGION_WW2G4: {
 199:lr1mac/src/smtc_real/src/smtc_real.c ****         region_ww2g4_memory_save( lr1_mac );
 429              		.loc 1 199 9 is_stmt 1 view .LVU96
 430 000a FFF7FEFF 		bl	region_ww2g4_memory_save
 431              	.LVL46:
 200:lr1mac/src/smtc_real/src/smtc_real.c ****         break;
ARM GAS  /var/folders/bq/yv49bw8j2kd6w3hsq868qv180000gn/T//ccRnzw9B.s 			page 13


 432              		.loc 1 200 9 view .LVU97
 433              	.L26:
 201:lr1mac/src/smtc_real/src/smtc_real.c ****     }
 202:lr1mac/src/smtc_real/src/smtc_real.c **** #endif
 203:lr1mac/src/smtc_real/src/smtc_real.c **** #if defined( REGION_EU_868 )
 204:lr1mac/src/smtc_real/src/smtc_real.c ****     case SMTC_REAL_REGION_EU_868: {
 205:lr1mac/src/smtc_real/src/smtc_real.c ****         region_eu_868_memory_save( lr1_mac );
 206:lr1mac/src/smtc_real/src/smtc_real.c ****         break;
 207:lr1mac/src/smtc_real/src/smtc_real.c ****     }
 208:lr1mac/src/smtc_real/src/smtc_real.c **** #endif
 209:lr1mac/src/smtc_real/src/smtc_real.c **** #if defined( REGION_US_915 )
 210:lr1mac/src/smtc_real/src/smtc_real.c ****     case SMTC_REAL_REGION_US_915: {
 211:lr1mac/src/smtc_real/src/smtc_real.c ****         region_us_915_memory_save( lr1_mac );
 212:lr1mac/src/smtc_real/src/smtc_real.c ****         break;
 213:lr1mac/src/smtc_real/src/smtc_real.c ****     }
 214:lr1mac/src/smtc_real/src/smtc_real.c **** #endif
 215:lr1mac/src/smtc_real/src/smtc_real.c ****     default:
 216:lr1mac/src/smtc_real/src/smtc_real.c ****         BSP_DBG_TRACE_ERROR( "%s unsupported\n", __func__ );
 217:lr1mac/src/smtc_real/src/smtc_real.c ****         bsp_mcu_handle_lr1mac_issue( );
 218:lr1mac/src/smtc_real/src/smtc_real.c ****         break;
 219:lr1mac/src/smtc_real/src/smtc_real.c ****     }
 220:lr1mac/src/smtc_real/src/smtc_real.c **** }
 434              		.loc 1 220 1 is_stmt 0 view .LVU98
 435              		@ sp needed
 436 000e 10BD     		pop	{r4, pc}
 437              	.LVL47:
 438              	.L27:
 216:lr1mac/src/smtc_real/src/smtc_real.c ****         bsp_mcu_handle_lr1mac_issue( );
 439              		.loc 1 216 9 is_stmt 1 view .LVU99
 216:lr1mac/src/smtc_real/src/smtc_real.c ****         bsp_mcu_handle_lr1mac_issue( );
 440              		.loc 1 216 9 view .LVU100
 441 0010 0748     		ldr	r0, .L29
 442              	.LVL48:
 216:lr1mac/src/smtc_real/src/smtc_real.c ****         bsp_mcu_handle_lr1mac_issue( );
 443              		.loc 1 216 9 is_stmt 0 view .LVU101
 444 0012 FFF7FEFF 		bl	bsp_trace_print
 445              	.LVL49:
 216:lr1mac/src/smtc_real/src/smtc_real.c ****         bsp_mcu_handle_lr1mac_issue( );
 446              		.loc 1 216 9 is_stmt 1 view .LVU102
 447 0016 0748     		ldr	r0, .L29+4
 448 0018 FFF7FEFF 		bl	bsp_trace_print
 449              	.LVL50:
 216:lr1mac/src/smtc_real/src/smtc_real.c ****         bsp_mcu_handle_lr1mac_issue( );
 450              		.loc 1 216 9 view .LVU103
 451 001c 0649     		ldr	r1, .L29+8
 452 001e 0748     		ldr	r0, .L29+12
 453 0020 FFF7FEFF 		bl	bsp_trace_print
 454              	.LVL51:
 216:lr1mac/src/smtc_real/src/smtc_real.c ****         bsp_mcu_handle_lr1mac_issue( );
 455              		.loc 1 216 9 view .LVU104
 456 0024 0648     		ldr	r0, .L29+16
 457 0026 FFF7FEFF 		bl	bsp_trace_print
 458              	.LVL52:
 216:lr1mac/src/smtc_real/src/smtc_real.c ****         bsp_mcu_handle_lr1mac_issue( );
 459              		.loc 1 216 9 view .LVU105
 216:lr1mac/src/smtc_real/src/smtc_real.c ****         bsp_mcu_handle_lr1mac_issue( );
 460              		.loc 1 216 60 view .LVU106
ARM GAS  /var/folders/bq/yv49bw8j2kd6w3hsq868qv180000gn/T//ccRnzw9B.s 			page 14


 217:lr1mac/src/smtc_real/src/smtc_real.c ****         break;
 461              		.loc 1 217 9 view .LVU107
 462 002a FFF7FEFF 		bl	bsp_mcu_handle_lr1mac_issue
 463              	.LVL53:
 218:lr1mac/src/smtc_real/src/smtc_real.c ****     }
 464              		.loc 1 218 9 view .LVU108
 465              		.loc 1 220 1 is_stmt 0 view .LVU109
 466 002e EEE7     		b	.L26
 467              	.L30:
 468              		.align	2
 469              	.L29:
 470 0030 00000000 		.word	.LC0
 471 0034 08000000 		.word	.LC2
 472 0038 00000000 		.word	.LANCHOR5
 473 003c 10000000 		.word	.LC5
 474 0040 20000000 		.word	.LC7
 475              		.cfi_endproc
 476              	.LFE14:
 478              		.section	.text.smtc_real_max_payload_size_get,"ax",%progbits
 479              		.align	1
 480              		.global	smtc_real_max_payload_size_get
 481              		.syntax unified
 482              		.code	16
 483              		.thumb_func
 484              		.fpu softvfp
 486              	smtc_real_max_payload_size_get:
 487              	.LVL54:
 488              	.LFB15:
 221:lr1mac/src/smtc_real/src/smtc_real.c **** 
 222:lr1mac/src/smtc_real/src/smtc_real.c **** uint8_t smtc_real_max_payload_size_get( lr1_stack_mac_t* lr1_mac, uint8_t dr )
 223:lr1mac/src/smtc_real/src/smtc_real.c **** {
 489              		.loc 1 223 1 is_stmt 1 view -0
 490              		.cfi_startproc
 491              		@ args = 0, pretend = 0, frame = 0
 492              		@ frame_needed = 0, uses_anonymous_args = 0
 224:lr1mac/src/smtc_real/src/smtc_real.c ****     switch( lr1_mac->real->region_type )
 493              		.loc 1 224 5 view .LVU111
 223:lr1mac/src/smtc_real/src/smtc_real.c ****     switch( lr1_mac->real->region_type )
 494              		.loc 1 223 1 is_stmt 0 view .LVU112
 495 0000 10B5     		push	{r4, lr}
 496              		.cfi_def_cfa_offset 8
 497              		.cfi_offset 4, -8
 498              		.cfi_offset 14, -4
 499              		.loc 1 224 26 view .LVU113
 500 0002 0368     		ldr	r3, [r0]
 501              		.loc 1 224 5 view .LVU114
 502 0004 1B79     		ldrb	r3, [r3, #4]
 503 0006 062B     		cmp	r3, #6
 504 0008 03D1     		bne	.L32
 225:lr1mac/src/smtc_real/src/smtc_real.c ****     {
 226:lr1mac/src/smtc_real/src/smtc_real.c **** #if defined( REGION_WW2G4 )
 227:lr1mac/src/smtc_real/src/smtc_real.c ****     case SMTC_REAL_REGION_WW2G4: {
 228:lr1mac/src/smtc_real/src/smtc_real.c ****         return region_ww2g4_max_payload_size_get( dr );
 505              		.loc 1 228 9 is_stmt 1 view .LVU115
 506              		.loc 1 228 16 is_stmt 0 view .LVU116
 507 000a 0800     		movs	r0, r1
 508              	.LVL55:
ARM GAS  /var/folders/bq/yv49bw8j2kd6w3hsq868qv180000gn/T//ccRnzw9B.s 			page 15


 509              		.loc 1 228 16 view .LVU117
 510 000c FFF7FEFF 		bl	region_ww2g4_max_payload_size_get
 511              	.LVL56:
 512              	.L33:
 229:lr1mac/src/smtc_real/src/smtc_real.c ****     }
 230:lr1mac/src/smtc_real/src/smtc_real.c **** #endif
 231:lr1mac/src/smtc_real/src/smtc_real.c **** #if defined( REGION_EU_868 )
 232:lr1mac/src/smtc_real/src/smtc_real.c ****     case SMTC_REAL_REGION_EU_868: {
 233:lr1mac/src/smtc_real/src/smtc_real.c ****         return region_eu_868_max_payload_size_get( dr );
 234:lr1mac/src/smtc_real/src/smtc_real.c ****     }
 235:lr1mac/src/smtc_real/src/smtc_real.c **** #endif
 236:lr1mac/src/smtc_real/src/smtc_real.c **** #if defined( REGION_US_915 )
 237:lr1mac/src/smtc_real/src/smtc_real.c ****     case SMTC_REAL_REGION_US_915: {
 238:lr1mac/src/smtc_real/src/smtc_real.c ****         return region_us_915_max_payload_size_get( dr );
 239:lr1mac/src/smtc_real/src/smtc_real.c ****     }
 240:lr1mac/src/smtc_real/src/smtc_real.c **** #endif
 241:lr1mac/src/smtc_real/src/smtc_real.c ****     default:
 242:lr1mac/src/smtc_real/src/smtc_real.c ****         BSP_DBG_TRACE_ERROR( "%s unsupported\n", __func__ );
 243:lr1mac/src/smtc_real/src/smtc_real.c ****         bsp_mcu_handle_lr1mac_issue( );
 244:lr1mac/src/smtc_real/src/smtc_real.c ****         break;
 245:lr1mac/src/smtc_real/src/smtc_real.c ****     }
 246:lr1mac/src/smtc_real/src/smtc_real.c ****     return 0;  // never reach => avoid warning
 247:lr1mac/src/smtc_real/src/smtc_real.c **** }
 513              		.loc 1 247 1 view .LVU118
 514              		@ sp needed
 515 0010 10BD     		pop	{r4, pc}
 516              	.LVL57:
 517              	.L32:
 242:lr1mac/src/smtc_real/src/smtc_real.c ****         bsp_mcu_handle_lr1mac_issue( );
 518              		.loc 1 242 9 is_stmt 1 view .LVU119
 242:lr1mac/src/smtc_real/src/smtc_real.c ****         bsp_mcu_handle_lr1mac_issue( );
 519              		.loc 1 242 9 view .LVU120
 520 0012 0848     		ldr	r0, .L34
 521              	.LVL58:
 242:lr1mac/src/smtc_real/src/smtc_real.c ****         bsp_mcu_handle_lr1mac_issue( );
 522              		.loc 1 242 9 is_stmt 0 view .LVU121
 523 0014 FFF7FEFF 		bl	bsp_trace_print
 524              	.LVL59:
 242:lr1mac/src/smtc_real/src/smtc_real.c ****         bsp_mcu_handle_lr1mac_issue( );
 525              		.loc 1 242 9 is_stmt 1 view .LVU122
 526 0018 0748     		ldr	r0, .L34+4
 527 001a FFF7FEFF 		bl	bsp_trace_print
 528              	.LVL60:
 242:lr1mac/src/smtc_real/src/smtc_real.c ****         bsp_mcu_handle_lr1mac_issue( );
 529              		.loc 1 242 9 view .LVU123
 530 001e 0749     		ldr	r1, .L34+8
 531 0020 0748     		ldr	r0, .L34+12
 532 0022 FFF7FEFF 		bl	bsp_trace_print
 533              	.LVL61:
 242:lr1mac/src/smtc_real/src/smtc_real.c ****         bsp_mcu_handle_lr1mac_issue( );
 534              		.loc 1 242 9 view .LVU124
 535 0026 0748     		ldr	r0, .L34+16
 536 0028 FFF7FEFF 		bl	bsp_trace_print
 537              	.LVL62:
 242:lr1mac/src/smtc_real/src/smtc_real.c ****         bsp_mcu_handle_lr1mac_issue( );
 538              		.loc 1 242 9 view .LVU125
 242:lr1mac/src/smtc_real/src/smtc_real.c ****         bsp_mcu_handle_lr1mac_issue( );
ARM GAS  /var/folders/bq/yv49bw8j2kd6w3hsq868qv180000gn/T//ccRnzw9B.s 			page 16


 539              		.loc 1 242 60 view .LVU126
 243:lr1mac/src/smtc_real/src/smtc_real.c ****         break;
 540              		.loc 1 243 9 view .LVU127
 541 002c FFF7FEFF 		bl	bsp_mcu_handle_lr1mac_issue
 542              	.LVL63:
 244:lr1mac/src/smtc_real/src/smtc_real.c ****     }
 543              		.loc 1 244 9 view .LVU128
 246:lr1mac/src/smtc_real/src/smtc_real.c **** }
 544              		.loc 1 246 5 view .LVU129
 246:lr1mac/src/smtc_real/src/smtc_real.c **** }
 545              		.loc 1 246 12 is_stmt 0 view .LVU130
 546 0030 0020     		movs	r0, #0
 547 0032 EDE7     		b	.L33
 548              	.L35:
 549              		.align	2
 550              	.L34:
 551 0034 00000000 		.word	.LC0
 552 0038 08000000 		.word	.LC2
 553 003c 00000000 		.word	.LANCHOR6
 554 0040 10000000 		.word	.LC5
 555 0044 20000000 		.word	.LC7
 556              		.cfi_endproc
 557              	.LFE15:
 559              		.section	.text.smtc_real_decode_freq_from_buf,"ax",%progbits
 560              		.align	1
 561              		.global	smtc_real_decode_freq_from_buf
 562              		.syntax unified
 563              		.code	16
 564              		.thumb_func
 565              		.fpu softvfp
 567              	smtc_real_decode_freq_from_buf:
 568              	.LVL64:
 569              	.LFB16:
 248:lr1mac/src/smtc_real/src/smtc_real.c **** 
 249:lr1mac/src/smtc_real/src/smtc_real.c **** uint32_t smtc_real_decode_freq_from_buf( lr1_stack_mac_t* lr1_mac, uint8_t freq_buf[3] )
 250:lr1mac/src/smtc_real/src/smtc_real.c **** {
 570              		.loc 1 250 1 is_stmt 1 view -0
 571              		.cfi_startproc
 572              		@ args = 0, pretend = 0, frame = 0
 573              		@ frame_needed = 0, uses_anonymous_args = 0
 251:lr1mac/src/smtc_real/src/smtc_real.c ****     switch( lr1_mac->real->region_type )
 574              		.loc 1 251 5 view .LVU132
 250:lr1mac/src/smtc_real/src/smtc_real.c ****     switch( lr1_mac->real->region_type )
 575              		.loc 1 250 1 is_stmt 0 view .LVU133
 576 0000 10B5     		push	{r4, lr}
 577              		.cfi_def_cfa_offset 8
 578              		.cfi_offset 4, -8
 579              		.cfi_offset 14, -4
 580              		.loc 1 251 26 view .LVU134
 581 0002 0368     		ldr	r3, [r0]
 582              		.loc 1 251 5 view .LVU135
 583 0004 1B79     		ldrb	r3, [r3, #4]
 584 0006 062B     		cmp	r3, #6
 585 0008 03D1     		bne	.L37
 252:lr1mac/src/smtc_real/src/smtc_real.c ****     {
 253:lr1mac/src/smtc_real/src/smtc_real.c **** #if defined( REGION_WW2G4 )
 254:lr1mac/src/smtc_real/src/smtc_real.c ****     case SMTC_REAL_REGION_WW2G4: {
ARM GAS  /var/folders/bq/yv49bw8j2kd6w3hsq868qv180000gn/T//ccRnzw9B.s 			page 17


 255:lr1mac/src/smtc_real/src/smtc_real.c ****         return region_ww2g4_decode_freq_from_buf( freq_buf );
 586              		.loc 1 255 9 is_stmt 1 view .LVU136
 587              		.loc 1 255 16 is_stmt 0 view .LVU137
 588 000a 0800     		movs	r0, r1
 589              	.LVL65:
 590              		.loc 1 255 16 view .LVU138
 591 000c FFF7FEFF 		bl	region_ww2g4_decode_freq_from_buf
 592              	.LVL66:
 593              	.L36:
 256:lr1mac/src/smtc_real/src/smtc_real.c ****     }
 257:lr1mac/src/smtc_real/src/smtc_real.c **** #endif
 258:lr1mac/src/smtc_real/src/smtc_real.c **** #if defined( REGION_EU_868 )
 259:lr1mac/src/smtc_real/src/smtc_real.c ****     case SMTC_REAL_REGION_EU_868: {
 260:lr1mac/src/smtc_real/src/smtc_real.c ****         return region_eu_868_decode_freq_from_buf( freq_buf );
 261:lr1mac/src/smtc_real/src/smtc_real.c ****     }
 262:lr1mac/src/smtc_real/src/smtc_real.c **** #endif
 263:lr1mac/src/smtc_real/src/smtc_real.c **** #if defined( REGION_US_915 )
 264:lr1mac/src/smtc_real/src/smtc_real.c ****     case SMTC_REAL_REGION_US_915: {
 265:lr1mac/src/smtc_real/src/smtc_real.c ****         return region_us_915_decode_freq_from_buf( freq_buf );
 266:lr1mac/src/smtc_real/src/smtc_real.c ****     }
 267:lr1mac/src/smtc_real/src/smtc_real.c **** #endif
 268:lr1mac/src/smtc_real/src/smtc_real.c ****     default:
 269:lr1mac/src/smtc_real/src/smtc_real.c ****         BSP_DBG_TRACE_ERROR( "%s unsupported\n", __func__ );
 270:lr1mac/src/smtc_real/src/smtc_real.c ****         bsp_mcu_handle_lr1mac_issue( );
 271:lr1mac/src/smtc_real/src/smtc_real.c ****         break;
 272:lr1mac/src/smtc_real/src/smtc_real.c ****     }
 273:lr1mac/src/smtc_real/src/smtc_real.c ****     return 0;  // never reach => avoid warning
 274:lr1mac/src/smtc_real/src/smtc_real.c **** }
 594              		.loc 1 274 1 view .LVU139
 595              		@ sp needed
 596 0010 10BD     		pop	{r4, pc}
 597              	.LVL67:
 598              	.L37:
 269:lr1mac/src/smtc_real/src/smtc_real.c ****         bsp_mcu_handle_lr1mac_issue( );
 599              		.loc 1 269 9 is_stmt 1 view .LVU140
 269:lr1mac/src/smtc_real/src/smtc_real.c ****         bsp_mcu_handle_lr1mac_issue( );
 600              		.loc 1 269 9 view .LVU141
 601 0012 0848     		ldr	r0, .L39
 602              	.LVL68:
 269:lr1mac/src/smtc_real/src/smtc_real.c ****         bsp_mcu_handle_lr1mac_issue( );
 603              		.loc 1 269 9 is_stmt 0 view .LVU142
 604 0014 FFF7FEFF 		bl	bsp_trace_print
 605              	.LVL69:
 269:lr1mac/src/smtc_real/src/smtc_real.c ****         bsp_mcu_handle_lr1mac_issue( );
 606              		.loc 1 269 9 is_stmt 1 view .LVU143
 607 0018 0748     		ldr	r0, .L39+4
 608 001a FFF7FEFF 		bl	bsp_trace_print
 609              	.LVL70:
 269:lr1mac/src/smtc_real/src/smtc_real.c ****         bsp_mcu_handle_lr1mac_issue( );
 610              		.loc 1 269 9 view .LVU144
 611 001e 0749     		ldr	r1, .L39+8
 612 0020 0748     		ldr	r0, .L39+12
 613 0022 FFF7FEFF 		bl	bsp_trace_print
 614              	.LVL71:
 269:lr1mac/src/smtc_real/src/smtc_real.c ****         bsp_mcu_handle_lr1mac_issue( );
 615              		.loc 1 269 9 view .LVU145
 616 0026 0748     		ldr	r0, .L39+16
ARM GAS  /var/folders/bq/yv49bw8j2kd6w3hsq868qv180000gn/T//ccRnzw9B.s 			page 18


 617 0028 FFF7FEFF 		bl	bsp_trace_print
 618              	.LVL72:
 269:lr1mac/src/smtc_real/src/smtc_real.c ****         bsp_mcu_handle_lr1mac_issue( );
 619              		.loc 1 269 9 view .LVU146
 269:lr1mac/src/smtc_real/src/smtc_real.c ****         bsp_mcu_handle_lr1mac_issue( );
 620              		.loc 1 269 60 view .LVU147
 270:lr1mac/src/smtc_real/src/smtc_real.c ****         break;
 621              		.loc 1 270 9 view .LVU148
 622 002c FFF7FEFF 		bl	bsp_mcu_handle_lr1mac_issue
 623              	.LVL73:
 271:lr1mac/src/smtc_real/src/smtc_real.c ****     }
 624              		.loc 1 271 9 view .LVU149
 273:lr1mac/src/smtc_real/src/smtc_real.c **** }
 625              		.loc 1 273 5 view .LVU150
 273:lr1mac/src/smtc_real/src/smtc_real.c **** }
 626              		.loc 1 273 12 is_stmt 0 view .LVU151
 627 0030 0020     		movs	r0, #0
 628 0032 EDE7     		b	.L36
 629              	.L40:
 630              		.align	2
 631              	.L39:
 632 0034 00000000 		.word	.LC0
 633 0038 08000000 		.word	.LC2
 634 003c 00000000 		.word	.LANCHOR7
 635 0040 10000000 		.word	.LC5
 636 0044 20000000 		.word	.LC7
 637              		.cfi_endproc
 638              	.LFE16:
 640              		.section	.text.smtc_real_cflist_get,"ax",%progbits
 641              		.align	1
 642              		.global	smtc_real_cflist_get
 643              		.syntax unified
 644              		.code	16
 645              		.thumb_func
 646              		.fpu softvfp
 648              	smtc_real_cflist_get:
 649              	.LVL74:
 650              	.LFB17:
 275:lr1mac/src/smtc_real/src/smtc_real.c **** 
 276:lr1mac/src/smtc_real/src/smtc_real.c **** void smtc_real_cflist_get( lr1_stack_mac_t* lr1_mac )
 277:lr1mac/src/smtc_real/src/smtc_real.c **** {
 651              		.loc 1 277 1 is_stmt 1 view -0
 652              		.cfi_startproc
 653              		@ args = 0, pretend = 0, frame = 0
 654              		@ frame_needed = 0, uses_anonymous_args = 0
 278:lr1mac/src/smtc_real/src/smtc_real.c ****     switch( lr1_mac->real->region_type )
 655              		.loc 1 278 5 view .LVU153
 277:lr1mac/src/smtc_real/src/smtc_real.c ****     switch( lr1_mac->real->region_type )
 656              		.loc 1 277 1 is_stmt 0 view .LVU154
 657 0000 10B5     		push	{r4, lr}
 658              		.cfi_def_cfa_offset 8
 659              		.cfi_offset 4, -8
 660              		.cfi_offset 14, -4
 661              		.loc 1 278 5 view .LVU155
 662 0002 0368     		ldr	r3, [r0]
 663 0004 1B79     		ldrb	r3, [r3, #4]
 664 0006 062B     		cmp	r3, #6
ARM GAS  /var/folders/bq/yv49bw8j2kd6w3hsq868qv180000gn/T//ccRnzw9B.s 			page 19


 665 0008 02D1     		bne	.L42
 279:lr1mac/src/smtc_real/src/smtc_real.c ****     {
 280:lr1mac/src/smtc_real/src/smtc_real.c **** #if defined( REGION_WW2G4 )
 281:lr1mac/src/smtc_real/src/smtc_real.c ****     case SMTC_REAL_REGION_WW2G4: {
 282:lr1mac/src/smtc_real/src/smtc_real.c ****         region_ww2g4_cflist_get( lr1_mac );
 666              		.loc 1 282 9 is_stmt 1 view .LVU156
 667 000a FFF7FEFF 		bl	region_ww2g4_cflist_get
 668              	.LVL75:
 283:lr1mac/src/smtc_real/src/smtc_real.c ****         break;
 669              		.loc 1 283 9 view .LVU157
 670              	.L41:
 284:lr1mac/src/smtc_real/src/smtc_real.c ****     }
 285:lr1mac/src/smtc_real/src/smtc_real.c **** #endif
 286:lr1mac/src/smtc_real/src/smtc_real.c **** #if defined( REGION_EU_868 )
 287:lr1mac/src/smtc_real/src/smtc_real.c ****     case SMTC_REAL_REGION_EU_868: {
 288:lr1mac/src/smtc_real/src/smtc_real.c ****         region_eu_868_cflist_get( lr1_mac );
 289:lr1mac/src/smtc_real/src/smtc_real.c ****         break;
 290:lr1mac/src/smtc_real/src/smtc_real.c ****     }
 291:lr1mac/src/smtc_real/src/smtc_real.c **** #endif
 292:lr1mac/src/smtc_real/src/smtc_real.c **** #if defined( REGION_US_915 )
 293:lr1mac/src/smtc_real/src/smtc_real.c ****     case SMTC_REAL_REGION_US_915: {
 294:lr1mac/src/smtc_real/src/smtc_real.c ****         region_us_915_cflist_get( lr1_mac );
 295:lr1mac/src/smtc_real/src/smtc_real.c ****         break;
 296:lr1mac/src/smtc_real/src/smtc_real.c ****     }
 297:lr1mac/src/smtc_real/src/smtc_real.c **** #endif
 298:lr1mac/src/smtc_real/src/smtc_real.c ****     default:
 299:lr1mac/src/smtc_real/src/smtc_real.c ****         BSP_DBG_TRACE_ERROR( "%s unsupported\n", __func__ );
 300:lr1mac/src/smtc_real/src/smtc_real.c ****         bsp_mcu_handle_lr1mac_issue( );
 301:lr1mac/src/smtc_real/src/smtc_real.c ****         break;
 302:lr1mac/src/smtc_real/src/smtc_real.c ****     }
 303:lr1mac/src/smtc_real/src/smtc_real.c **** }
 671              		.loc 1 303 1 is_stmt 0 view .LVU158
 672              		@ sp needed
 673 000e 10BD     		pop	{r4, pc}
 674              	.LVL76:
 675              	.L42:
 299:lr1mac/src/smtc_real/src/smtc_real.c ****         bsp_mcu_handle_lr1mac_issue( );
 676              		.loc 1 299 9 is_stmt 1 view .LVU159
 299:lr1mac/src/smtc_real/src/smtc_real.c ****         bsp_mcu_handle_lr1mac_issue( );
 677              		.loc 1 299 9 view .LVU160
 678 0010 0748     		ldr	r0, .L44
 679              	.LVL77:
 299:lr1mac/src/smtc_real/src/smtc_real.c ****         bsp_mcu_handle_lr1mac_issue( );
 680              		.loc 1 299 9 is_stmt 0 view .LVU161
 681 0012 FFF7FEFF 		bl	bsp_trace_print
 682              	.LVL78:
 299:lr1mac/src/smtc_real/src/smtc_real.c ****         bsp_mcu_handle_lr1mac_issue( );
 683              		.loc 1 299 9 is_stmt 1 view .LVU162
 684 0016 0748     		ldr	r0, .L44+4
 685 0018 FFF7FEFF 		bl	bsp_trace_print
 686              	.LVL79:
 299:lr1mac/src/smtc_real/src/smtc_real.c ****         bsp_mcu_handle_lr1mac_issue( );
 687              		.loc 1 299 9 view .LVU163
 688 001c 0649     		ldr	r1, .L44+8
 689 001e 0748     		ldr	r0, .L44+12
 690 0020 FFF7FEFF 		bl	bsp_trace_print
 691              	.LVL80:
ARM GAS  /var/folders/bq/yv49bw8j2kd6w3hsq868qv180000gn/T//ccRnzw9B.s 			page 20


 299:lr1mac/src/smtc_real/src/smtc_real.c ****         bsp_mcu_handle_lr1mac_issue( );
 692              		.loc 1 299 9 view .LVU164
 693 0024 0648     		ldr	r0, .L44+16
 694 0026 FFF7FEFF 		bl	bsp_trace_print
 695              	.LVL81:
 299:lr1mac/src/smtc_real/src/smtc_real.c ****         bsp_mcu_handle_lr1mac_issue( );
 696              		.loc 1 299 9 view .LVU165
 299:lr1mac/src/smtc_real/src/smtc_real.c ****         bsp_mcu_handle_lr1mac_issue( );
 697              		.loc 1 299 60 view .LVU166
 300:lr1mac/src/smtc_real/src/smtc_real.c ****         break;
 698              		.loc 1 300 9 view .LVU167
 699 002a FFF7FEFF 		bl	bsp_mcu_handle_lr1mac_issue
 700              	.LVL82:
 301:lr1mac/src/smtc_real/src/smtc_real.c ****     }
 701              		.loc 1 301 9 view .LVU168
 702              		.loc 1 303 1 is_stmt 0 view .LVU169
 703 002e EEE7     		b	.L41
 704              	.L45:
 705              		.align	2
 706              	.L44:
 707 0030 00000000 		.word	.LC0
 708 0034 08000000 		.word	.LC2
 709 0038 00000000 		.word	.LANCHOR8
 710 003c 10000000 		.word	.LC5
 711 0040 20000000 		.word	.LC7
 712              		.cfi_endproc
 713              	.LFE17:
 715              		.section	.text.smtc_real_next_channel_get,"ax",%progbits
 716              		.align	1
 717              		.global	smtc_real_next_channel_get
 718              		.syntax unified
 719              		.code	16
 720              		.thumb_func
 721              		.fpu softvfp
 723              	smtc_real_next_channel_get:
 724              	.LVL83:
 725              	.LFB18:
 304:lr1mac/src/smtc_real/src/smtc_real.c **** 
 305:lr1mac/src/smtc_real/src/smtc_real.c **** status_lorawan_t smtc_real_next_channel_get( lr1_stack_mac_t* lr1_mac )
 306:lr1mac/src/smtc_real/src/smtc_real.c **** {
 726              		.loc 1 306 1 is_stmt 1 view -0
 727              		.cfi_startproc
 728              		@ args = 0, pretend = 0, frame = 0
 729              		@ frame_needed = 0, uses_anonymous_args = 0
 307:lr1mac/src/smtc_real/src/smtc_real.c ****     switch( lr1_mac->real->region_type )
 730              		.loc 1 307 5 view .LVU171
 306:lr1mac/src/smtc_real/src/smtc_real.c ****     switch( lr1_mac->real->region_type )
 731              		.loc 1 306 1 is_stmt 0 view .LVU172
 732 0000 10B5     		push	{r4, lr}
 733              		.cfi_def_cfa_offset 8
 734              		.cfi_offset 4, -8
 735              		.cfi_offset 14, -4
 736              		.loc 1 307 5 view .LVU173
 737 0002 0368     		ldr	r3, [r0]
 738 0004 1B79     		ldrb	r3, [r3, #4]
 739 0006 062B     		cmp	r3, #6
 740 0008 02D1     		bne	.L47
ARM GAS  /var/folders/bq/yv49bw8j2kd6w3hsq868qv180000gn/T//ccRnzw9B.s 			page 21


 308:lr1mac/src/smtc_real/src/smtc_real.c ****     {
 309:lr1mac/src/smtc_real/src/smtc_real.c **** #if defined( REGION_WW2G4 )
 310:lr1mac/src/smtc_real/src/smtc_real.c ****     case SMTC_REAL_REGION_WW2G4: {
 311:lr1mac/src/smtc_real/src/smtc_real.c ****         return region_ww2g4_next_channel_get( lr1_mac );
 741              		.loc 1 311 9 is_stmt 1 view .LVU174
 742              		.loc 1 311 16 is_stmt 0 view .LVU175
 743 000a FFF7FEFF 		bl	region_ww2g4_next_channel_get
 744              	.LVL84:
 745              	.L48:
 312:lr1mac/src/smtc_real/src/smtc_real.c ****     }
 313:lr1mac/src/smtc_real/src/smtc_real.c **** #endif
 314:lr1mac/src/smtc_real/src/smtc_real.c **** #if defined( REGION_EU_868 )
 315:lr1mac/src/smtc_real/src/smtc_real.c ****     case SMTC_REAL_REGION_EU_868: {
 316:lr1mac/src/smtc_real/src/smtc_real.c ****         return region_eu_868_next_channel_get( lr1_mac );
 317:lr1mac/src/smtc_real/src/smtc_real.c ****     }
 318:lr1mac/src/smtc_real/src/smtc_real.c **** #endif
 319:lr1mac/src/smtc_real/src/smtc_real.c **** #if defined( REGION_US_915 )
 320:lr1mac/src/smtc_real/src/smtc_real.c ****     case SMTC_REAL_REGION_US_915: {
 321:lr1mac/src/smtc_real/src/smtc_real.c ****         return region_us_915_next_channel_get( lr1_mac );
 322:lr1mac/src/smtc_real/src/smtc_real.c ****     }
 323:lr1mac/src/smtc_real/src/smtc_real.c **** #endif
 324:lr1mac/src/smtc_real/src/smtc_real.c ****     default:
 325:lr1mac/src/smtc_real/src/smtc_real.c ****         BSP_DBG_TRACE_ERROR( "%s unsupported\n", __func__ );
 326:lr1mac/src/smtc_real/src/smtc_real.c ****         bsp_mcu_handle_lr1mac_issue( );
 327:lr1mac/src/smtc_real/src/smtc_real.c ****         break;
 328:lr1mac/src/smtc_real/src/smtc_real.c ****     }
 329:lr1mac/src/smtc_real/src/smtc_real.c ****     return ERRORLORAWAN;  // never reach => avoid warning
 330:lr1mac/src/smtc_real/src/smtc_real.c **** }
 746              		.loc 1 330 1 view .LVU176
 747              		@ sp needed
 748 000e 10BD     		pop	{r4, pc}
 749              	.LVL85:
 750              	.L47:
 325:lr1mac/src/smtc_real/src/smtc_real.c ****         bsp_mcu_handle_lr1mac_issue( );
 751              		.loc 1 325 9 is_stmt 1 view .LVU177
 325:lr1mac/src/smtc_real/src/smtc_real.c ****         bsp_mcu_handle_lr1mac_issue( );
 752              		.loc 1 325 9 view .LVU178
 753 0010 0848     		ldr	r0, .L49
 754              	.LVL86:
 325:lr1mac/src/smtc_real/src/smtc_real.c ****         bsp_mcu_handle_lr1mac_issue( );
 755              		.loc 1 325 9 is_stmt 0 view .LVU179
 756 0012 FFF7FEFF 		bl	bsp_trace_print
 757              	.LVL87:
 325:lr1mac/src/smtc_real/src/smtc_real.c ****         bsp_mcu_handle_lr1mac_issue( );
 758              		.loc 1 325 9 is_stmt 1 view .LVU180
 759 0016 0848     		ldr	r0, .L49+4
 760 0018 FFF7FEFF 		bl	bsp_trace_print
 761              	.LVL88:
 325:lr1mac/src/smtc_real/src/smtc_real.c ****         bsp_mcu_handle_lr1mac_issue( );
 762              		.loc 1 325 9 view .LVU181
 763 001c 0749     		ldr	r1, .L49+8
 764 001e 0848     		ldr	r0, .L49+12
 765 0020 FFF7FEFF 		bl	bsp_trace_print
 766              	.LVL89:
 325:lr1mac/src/smtc_real/src/smtc_real.c ****         bsp_mcu_handle_lr1mac_issue( );
 767              		.loc 1 325 9 view .LVU182
 768 0024 0748     		ldr	r0, .L49+16
ARM GAS  /var/folders/bq/yv49bw8j2kd6w3hsq868qv180000gn/T//ccRnzw9B.s 			page 22


 769 0026 FFF7FEFF 		bl	bsp_trace_print
 770              	.LVL90:
 325:lr1mac/src/smtc_real/src/smtc_real.c ****         bsp_mcu_handle_lr1mac_issue( );
 771              		.loc 1 325 9 view .LVU183
 325:lr1mac/src/smtc_real/src/smtc_real.c ****         bsp_mcu_handle_lr1mac_issue( );
 772              		.loc 1 325 60 view .LVU184
 326:lr1mac/src/smtc_real/src/smtc_real.c ****         break;
 773              		.loc 1 326 9 view .LVU185
 774 002a FFF7FEFF 		bl	bsp_mcu_handle_lr1mac_issue
 775              	.LVL91:
 327:lr1mac/src/smtc_real/src/smtc_real.c ****     }
 776              		.loc 1 327 9 view .LVU186
 329:lr1mac/src/smtc_real/src/smtc_real.c **** }
 777              		.loc 1 329 5 view .LVU187
 329:lr1mac/src/smtc_real/src/smtc_real.c **** }
 778              		.loc 1 329 12 is_stmt 0 view .LVU188
 779 002e 0120     		movs	r0, #1
 780 0030 4042     		rsbs	r0, r0, #0
 781 0032 ECE7     		b	.L48
 782              	.L50:
 783              		.align	2
 784              	.L49:
 785 0034 00000000 		.word	.LC0
 786 0038 08000000 		.word	.LC2
 787 003c 00000000 		.word	.LANCHOR9
 788 0040 10000000 		.word	.LC5
 789 0044 20000000 		.word	.LC7
 790              		.cfi_endproc
 791              	.LFE18:
 793              		.section	.text.smtc_real_join_next_channel_get,"ax",%progbits
 794              		.align	1
 795              		.global	smtc_real_join_next_channel_get
 796              		.syntax unified
 797              		.code	16
 798              		.thumb_func
 799              		.fpu softvfp
 801              	smtc_real_join_next_channel_get:
 802              	.LVL92:
 803              	.LFB19:
 331:lr1mac/src/smtc_real/src/smtc_real.c **** 
 332:lr1mac/src/smtc_real/src/smtc_real.c **** status_lorawan_t smtc_real_join_next_channel_get( lr1_stack_mac_t* lr1_mac )
 333:lr1mac/src/smtc_real/src/smtc_real.c **** {
 804              		.loc 1 333 1 is_stmt 1 view -0
 805              		.cfi_startproc
 806              		@ args = 0, pretend = 0, frame = 0
 807              		@ frame_needed = 0, uses_anonymous_args = 0
 334:lr1mac/src/smtc_real/src/smtc_real.c ****     switch( lr1_mac->real->region_type )
 808              		.loc 1 334 5 view .LVU190
 333:lr1mac/src/smtc_real/src/smtc_real.c ****     switch( lr1_mac->real->region_type )
 809              		.loc 1 333 1 is_stmt 0 view .LVU191
 810 0000 10B5     		push	{r4, lr}
 811              		.cfi_def_cfa_offset 8
 812              		.cfi_offset 4, -8
 813              		.cfi_offset 14, -4
 814              		.loc 1 334 5 view .LVU192
 815 0002 0368     		ldr	r3, [r0]
 816 0004 1B79     		ldrb	r3, [r3, #4]
ARM GAS  /var/folders/bq/yv49bw8j2kd6w3hsq868qv180000gn/T//ccRnzw9B.s 			page 23


 817 0006 062B     		cmp	r3, #6
 818 0008 02D1     		bne	.L52
 335:lr1mac/src/smtc_real/src/smtc_real.c ****     {
 336:lr1mac/src/smtc_real/src/smtc_real.c **** #if defined( REGION_WW2G4 )
 337:lr1mac/src/smtc_real/src/smtc_real.c ****     case SMTC_REAL_REGION_WW2G4: {
 338:lr1mac/src/smtc_real/src/smtc_real.c ****         return region_ww2g4_join_next_channel_get( lr1_mac );
 819              		.loc 1 338 9 is_stmt 1 view .LVU193
 820              		.loc 1 338 16 is_stmt 0 view .LVU194
 821 000a FFF7FEFF 		bl	region_ww2g4_join_next_channel_get
 822              	.LVL93:
 823              	.L53:
 339:lr1mac/src/smtc_real/src/smtc_real.c ****     }
 340:lr1mac/src/smtc_real/src/smtc_real.c **** #endif
 341:lr1mac/src/smtc_real/src/smtc_real.c **** #if defined( REGION_EU_868 )
 342:lr1mac/src/smtc_real/src/smtc_real.c ****     case SMTC_REAL_REGION_EU_868: {
 343:lr1mac/src/smtc_real/src/smtc_real.c ****         return region_eu_868_join_next_channel_get( lr1_mac );
 344:lr1mac/src/smtc_real/src/smtc_real.c ****     }
 345:lr1mac/src/smtc_real/src/smtc_real.c **** #endif
 346:lr1mac/src/smtc_real/src/smtc_real.c **** #if defined( REGION_US_915 )
 347:lr1mac/src/smtc_real/src/smtc_real.c ****     case SMTC_REAL_REGION_US_915: {
 348:lr1mac/src/smtc_real/src/smtc_real.c ****         return region_us_915_join_next_channel_get( lr1_mac );
 349:lr1mac/src/smtc_real/src/smtc_real.c ****     }
 350:lr1mac/src/smtc_real/src/smtc_real.c **** #endif
 351:lr1mac/src/smtc_real/src/smtc_real.c ****     default:
 352:lr1mac/src/smtc_real/src/smtc_real.c ****         BSP_DBG_TRACE_ERROR( "%s unsupported\n", __func__ );
 353:lr1mac/src/smtc_real/src/smtc_real.c ****         bsp_mcu_handle_lr1mac_issue( );
 354:lr1mac/src/smtc_real/src/smtc_real.c ****         break;
 355:lr1mac/src/smtc_real/src/smtc_real.c ****     }
 356:lr1mac/src/smtc_real/src/smtc_real.c ****     return ERRORLORAWAN;  // never reach => avoid warning
 357:lr1mac/src/smtc_real/src/smtc_real.c **** }
 824              		.loc 1 357 1 view .LVU195
 825              		@ sp needed
 826 000e 10BD     		pop	{r4, pc}
 827              	.LVL94:
 828              	.L52:
 352:lr1mac/src/smtc_real/src/smtc_real.c ****         bsp_mcu_handle_lr1mac_issue( );
 829              		.loc 1 352 9 is_stmt 1 view .LVU196
 352:lr1mac/src/smtc_real/src/smtc_real.c ****         bsp_mcu_handle_lr1mac_issue( );
 830              		.loc 1 352 9 view .LVU197
 831 0010 0848     		ldr	r0, .L54
 832              	.LVL95:
 352:lr1mac/src/smtc_real/src/smtc_real.c ****         bsp_mcu_handle_lr1mac_issue( );
 833              		.loc 1 352 9 is_stmt 0 view .LVU198
 834 0012 FFF7FEFF 		bl	bsp_trace_print
 835              	.LVL96:
 352:lr1mac/src/smtc_real/src/smtc_real.c ****         bsp_mcu_handle_lr1mac_issue( );
 836              		.loc 1 352 9 is_stmt 1 view .LVU199
 837 0016 0848     		ldr	r0, .L54+4
 838 0018 FFF7FEFF 		bl	bsp_trace_print
 839              	.LVL97:
 352:lr1mac/src/smtc_real/src/smtc_real.c ****         bsp_mcu_handle_lr1mac_issue( );
 840              		.loc 1 352 9 view .LVU200
 841 001c 0749     		ldr	r1, .L54+8
 842 001e 0848     		ldr	r0, .L54+12
 843 0020 FFF7FEFF 		bl	bsp_trace_print
 844              	.LVL98:
 352:lr1mac/src/smtc_real/src/smtc_real.c ****         bsp_mcu_handle_lr1mac_issue( );
ARM GAS  /var/folders/bq/yv49bw8j2kd6w3hsq868qv180000gn/T//ccRnzw9B.s 			page 24


 845              		.loc 1 352 9 view .LVU201
 846 0024 0748     		ldr	r0, .L54+16
 847 0026 FFF7FEFF 		bl	bsp_trace_print
 848              	.LVL99:
 352:lr1mac/src/smtc_real/src/smtc_real.c ****         bsp_mcu_handle_lr1mac_issue( );
 849              		.loc 1 352 9 view .LVU202
 352:lr1mac/src/smtc_real/src/smtc_real.c ****         bsp_mcu_handle_lr1mac_issue( );
 850              		.loc 1 352 60 view .LVU203
 353:lr1mac/src/smtc_real/src/smtc_real.c ****         break;
 851              		.loc 1 353 9 view .LVU204
 852 002a FFF7FEFF 		bl	bsp_mcu_handle_lr1mac_issue
 853              	.LVL100:
 354:lr1mac/src/smtc_real/src/smtc_real.c ****     }
 854              		.loc 1 354 9 view .LVU205
 356:lr1mac/src/smtc_real/src/smtc_real.c **** }
 855              		.loc 1 356 5 view .LVU206
 356:lr1mac/src/smtc_real/src/smtc_real.c **** }
 856              		.loc 1 356 12 is_stmt 0 view .LVU207
 857 002e 0120     		movs	r0, #1
 858 0030 4042     		rsbs	r0, r0, #0
 859 0032 ECE7     		b	.L53
 860              	.L55:
 861              		.align	2
 862              	.L54:
 863 0034 00000000 		.word	.LC0
 864 0038 08000000 		.word	.LC2
 865 003c 00000000 		.word	.LANCHOR10
 866 0040 10000000 		.word	.LC5
 867 0044 20000000 		.word	.LC7
 868              		.cfi_endproc
 869              	.LFE19:
 871              		.section	.text.smtc_real_rx_config_set,"ax",%progbits
 872              		.align	1
 873              		.global	smtc_real_rx_config_set
 874              		.syntax unified
 875              		.code	16
 876              		.thumb_func
 877              		.fpu softvfp
 879              	smtc_real_rx_config_set:
 880              	.LVL101:
 881              	.LFB20:
 358:lr1mac/src/smtc_real/src/smtc_real.c **** 
 359:lr1mac/src/smtc_real/src/smtc_real.c **** void smtc_real_rx_config_set( lr1_stack_mac_t* lr1_mac, rx_win_type_t type )
 360:lr1mac/src/smtc_real/src/smtc_real.c **** {
 882              		.loc 1 360 1 is_stmt 1 view -0
 883              		.cfi_startproc
 884              		@ args = 0, pretend = 0, frame = 0
 885              		@ frame_needed = 0, uses_anonymous_args = 0
 361:lr1mac/src/smtc_real/src/smtc_real.c ****     switch( lr1_mac->real->region_type )
 886              		.loc 1 361 5 view .LVU209
 360:lr1mac/src/smtc_real/src/smtc_real.c ****     switch( lr1_mac->real->region_type )
 887              		.loc 1 360 1 is_stmt 0 view .LVU210
 888 0000 10B5     		push	{r4, lr}
 889              		.cfi_def_cfa_offset 8
 890              		.cfi_offset 4, -8
 891              		.cfi_offset 14, -4
 892              		.loc 1 361 5 view .LVU211
ARM GAS  /var/folders/bq/yv49bw8j2kd6w3hsq868qv180000gn/T//ccRnzw9B.s 			page 25


 893 0002 0368     		ldr	r3, [r0]
 894 0004 1B79     		ldrb	r3, [r3, #4]
 895 0006 062B     		cmp	r3, #6
 896 0008 02D1     		bne	.L57
 362:lr1mac/src/smtc_real/src/smtc_real.c ****     {
 363:lr1mac/src/smtc_real/src/smtc_real.c **** #if defined( REGION_WW2G4 )
 364:lr1mac/src/smtc_real/src/smtc_real.c ****     case SMTC_REAL_REGION_WW2G4: {
 365:lr1mac/src/smtc_real/src/smtc_real.c ****         region_ww2g4_rx_config_set( lr1_mac, type );
 897              		.loc 1 365 9 is_stmt 1 view .LVU212
 898 000a FFF7FEFF 		bl	region_ww2g4_rx_config_set
 899              	.LVL102:
 366:lr1mac/src/smtc_real/src/smtc_real.c ****         break;
 900              		.loc 1 366 9 view .LVU213
 901              	.L56:
 367:lr1mac/src/smtc_real/src/smtc_real.c ****     }
 368:lr1mac/src/smtc_real/src/smtc_real.c **** #endif
 369:lr1mac/src/smtc_real/src/smtc_real.c **** #if defined( REGION_EU_868 )
 370:lr1mac/src/smtc_real/src/smtc_real.c ****     case SMTC_REAL_REGION_EU_868: {
 371:lr1mac/src/smtc_real/src/smtc_real.c ****         region_eu_868_rx_config_set( lr1_mac, type );
 372:lr1mac/src/smtc_real/src/smtc_real.c ****         break;
 373:lr1mac/src/smtc_real/src/smtc_real.c ****     }
 374:lr1mac/src/smtc_real/src/smtc_real.c **** #endif
 375:lr1mac/src/smtc_real/src/smtc_real.c **** #if defined( REGION_US_915 )
 376:lr1mac/src/smtc_real/src/smtc_real.c ****     case SMTC_REAL_REGION_US_915: {
 377:lr1mac/src/smtc_real/src/smtc_real.c ****         region_us_915_rx_config_set( lr1_mac, type );
 378:lr1mac/src/smtc_real/src/smtc_real.c ****         break;
 379:lr1mac/src/smtc_real/src/smtc_real.c ****     }
 380:lr1mac/src/smtc_real/src/smtc_real.c **** #endif
 381:lr1mac/src/smtc_real/src/smtc_real.c ****     default:
 382:lr1mac/src/smtc_real/src/smtc_real.c ****         BSP_DBG_TRACE_ERROR( "%s unsupported\n", __func__ );
 383:lr1mac/src/smtc_real/src/smtc_real.c ****         bsp_mcu_handle_lr1mac_issue( );
 384:lr1mac/src/smtc_real/src/smtc_real.c ****         break;
 385:lr1mac/src/smtc_real/src/smtc_real.c ****     }
 386:lr1mac/src/smtc_real/src/smtc_real.c **** }
 902              		.loc 1 386 1 is_stmt 0 view .LVU214
 903              		@ sp needed
 904 000e 10BD     		pop	{r4, pc}
 905              	.LVL103:
 906              	.L57:
 382:lr1mac/src/smtc_real/src/smtc_real.c ****         bsp_mcu_handle_lr1mac_issue( );
 907              		.loc 1 382 9 is_stmt 1 view .LVU215
 382:lr1mac/src/smtc_real/src/smtc_real.c ****         bsp_mcu_handle_lr1mac_issue( );
 908              		.loc 1 382 9 view .LVU216
 909 0010 0748     		ldr	r0, .L59
 910              	.LVL104:
 382:lr1mac/src/smtc_real/src/smtc_real.c ****         bsp_mcu_handle_lr1mac_issue( );
 911              		.loc 1 382 9 is_stmt 0 view .LVU217
 912 0012 FFF7FEFF 		bl	bsp_trace_print
 913              	.LVL105:
 382:lr1mac/src/smtc_real/src/smtc_real.c ****         bsp_mcu_handle_lr1mac_issue( );
 914              		.loc 1 382 9 is_stmt 1 view .LVU218
 915 0016 0748     		ldr	r0, .L59+4
 916 0018 FFF7FEFF 		bl	bsp_trace_print
 917              	.LVL106:
 382:lr1mac/src/smtc_real/src/smtc_real.c ****         bsp_mcu_handle_lr1mac_issue( );
 918              		.loc 1 382 9 view .LVU219
 919 001c 0649     		ldr	r1, .L59+8
ARM GAS  /var/folders/bq/yv49bw8j2kd6w3hsq868qv180000gn/T//ccRnzw9B.s 			page 26


 920 001e 0748     		ldr	r0, .L59+12
 921 0020 FFF7FEFF 		bl	bsp_trace_print
 922              	.LVL107:
 382:lr1mac/src/smtc_real/src/smtc_real.c ****         bsp_mcu_handle_lr1mac_issue( );
 923              		.loc 1 382 9 view .LVU220
 924 0024 0648     		ldr	r0, .L59+16
 925 0026 FFF7FEFF 		bl	bsp_trace_print
 926              	.LVL108:
 382:lr1mac/src/smtc_real/src/smtc_real.c ****         bsp_mcu_handle_lr1mac_issue( );
 927              		.loc 1 382 9 view .LVU221
 382:lr1mac/src/smtc_real/src/smtc_real.c ****         bsp_mcu_handle_lr1mac_issue( );
 928              		.loc 1 382 60 view .LVU222
 383:lr1mac/src/smtc_real/src/smtc_real.c ****         break;
 929              		.loc 1 383 9 view .LVU223
 930 002a FFF7FEFF 		bl	bsp_mcu_handle_lr1mac_issue
 931              	.LVL109:
 384:lr1mac/src/smtc_real/src/smtc_real.c ****     }
 932              		.loc 1 384 9 view .LVU224
 933              		.loc 1 386 1 is_stmt 0 view .LVU225
 934 002e EEE7     		b	.L56
 935              	.L60:
 936              		.align	2
 937              	.L59:
 938 0030 00000000 		.word	.LC0
 939 0034 08000000 		.word	.LC2
 940 0038 00000000 		.word	.LANCHOR11
 941 003c 10000000 		.word	.LC5
 942 0040 20000000 		.word	.LC7
 943              		.cfi_endproc
 944              	.LFE20:
 946              		.section	.text.smtc_real_power_set,"ax",%progbits
 947              		.align	1
 948              		.global	smtc_real_power_set
 949              		.syntax unified
 950              		.code	16
 951              		.thumb_func
 952              		.fpu softvfp
 954              	smtc_real_power_set:
 955              	.LVL110:
 956              	.LFB21:
 387:lr1mac/src/smtc_real/src/smtc_real.c **** 
 388:lr1mac/src/smtc_real/src/smtc_real.c **** void smtc_real_power_set( lr1_stack_mac_t* lr1_mac, uint8_t power_cmd )
 389:lr1mac/src/smtc_real/src/smtc_real.c **** {
 957              		.loc 1 389 1 is_stmt 1 view -0
 958              		.cfi_startproc
 959              		@ args = 0, pretend = 0, frame = 0
 960              		@ frame_needed = 0, uses_anonymous_args = 0
 390:lr1mac/src/smtc_real/src/smtc_real.c ****     switch( lr1_mac->real->region_type )
 961              		.loc 1 390 5 view .LVU227
 389:lr1mac/src/smtc_real/src/smtc_real.c ****     switch( lr1_mac->real->region_type )
 962              		.loc 1 389 1 is_stmt 0 view .LVU228
 963 0000 10B5     		push	{r4, lr}
 964              		.cfi_def_cfa_offset 8
 965              		.cfi_offset 4, -8
 966              		.cfi_offset 14, -4
 967              		.loc 1 390 5 view .LVU229
 968 0002 0368     		ldr	r3, [r0]
ARM GAS  /var/folders/bq/yv49bw8j2kd6w3hsq868qv180000gn/T//ccRnzw9B.s 			page 27


 969 0004 1B79     		ldrb	r3, [r3, #4]
 970 0006 062B     		cmp	r3, #6
 971 0008 02D1     		bne	.L62
 391:lr1mac/src/smtc_real/src/smtc_real.c ****     {
 392:lr1mac/src/smtc_real/src/smtc_real.c **** #if defined( REGION_WW2G4 )
 393:lr1mac/src/smtc_real/src/smtc_real.c ****     case SMTC_REAL_REGION_WW2G4: {
 394:lr1mac/src/smtc_real/src/smtc_real.c ****         region_ww2g4_power_set( lr1_mac, power_cmd );
 972              		.loc 1 394 9 is_stmt 1 view .LVU230
 973 000a FFF7FEFF 		bl	region_ww2g4_power_set
 974              	.LVL111:
 395:lr1mac/src/smtc_real/src/smtc_real.c ****         break;
 975              		.loc 1 395 9 view .LVU231
 976              	.L61:
 396:lr1mac/src/smtc_real/src/smtc_real.c ****     }
 397:lr1mac/src/smtc_real/src/smtc_real.c **** #endif
 398:lr1mac/src/smtc_real/src/smtc_real.c **** #if defined( REGION_EU_868 )
 399:lr1mac/src/smtc_real/src/smtc_real.c ****     case SMTC_REAL_REGION_EU_868: {
 400:lr1mac/src/smtc_real/src/smtc_real.c ****         region_eu_868_power_set( lr1_mac, power_cmd );
 401:lr1mac/src/smtc_real/src/smtc_real.c ****         break;
 402:lr1mac/src/smtc_real/src/smtc_real.c ****     }
 403:lr1mac/src/smtc_real/src/smtc_real.c **** #endif
 404:lr1mac/src/smtc_real/src/smtc_real.c **** #if defined( REGION_US_915 )
 405:lr1mac/src/smtc_real/src/smtc_real.c ****     case SMTC_REAL_REGION_US_915: {
 406:lr1mac/src/smtc_real/src/smtc_real.c ****         region_us_915_power_set( lr1_mac, power_cmd );
 407:lr1mac/src/smtc_real/src/smtc_real.c ****         break;
 408:lr1mac/src/smtc_real/src/smtc_real.c ****     }
 409:lr1mac/src/smtc_real/src/smtc_real.c **** #endif
 410:lr1mac/src/smtc_real/src/smtc_real.c ****     default:
 411:lr1mac/src/smtc_real/src/smtc_real.c ****         BSP_DBG_TRACE_ERROR( "%s unsupported\n", __func__ );
 412:lr1mac/src/smtc_real/src/smtc_real.c ****         bsp_mcu_handle_lr1mac_issue( );
 413:lr1mac/src/smtc_real/src/smtc_real.c ****         break;
 414:lr1mac/src/smtc_real/src/smtc_real.c ****     }
 415:lr1mac/src/smtc_real/src/smtc_real.c **** }
 977              		.loc 1 415 1 is_stmt 0 view .LVU232
 978              		@ sp needed
 979 000e 10BD     		pop	{r4, pc}
 980              	.LVL112:
 981              	.L62:
 411:lr1mac/src/smtc_real/src/smtc_real.c ****         bsp_mcu_handle_lr1mac_issue( );
 982              		.loc 1 411 9 is_stmt 1 view .LVU233
 411:lr1mac/src/smtc_real/src/smtc_real.c ****         bsp_mcu_handle_lr1mac_issue( );
 983              		.loc 1 411 9 view .LVU234
 984 0010 0748     		ldr	r0, .L64
 985              	.LVL113:
 411:lr1mac/src/smtc_real/src/smtc_real.c ****         bsp_mcu_handle_lr1mac_issue( );
 986              		.loc 1 411 9 is_stmt 0 view .LVU235
 987 0012 FFF7FEFF 		bl	bsp_trace_print
 988              	.LVL114:
 411:lr1mac/src/smtc_real/src/smtc_real.c ****         bsp_mcu_handle_lr1mac_issue( );
 989              		.loc 1 411 9 is_stmt 1 view .LVU236
 990 0016 0748     		ldr	r0, .L64+4
 991 0018 FFF7FEFF 		bl	bsp_trace_print
 992              	.LVL115:
 411:lr1mac/src/smtc_real/src/smtc_real.c ****         bsp_mcu_handle_lr1mac_issue( );
 993              		.loc 1 411 9 view .LVU237
 994 001c 0649     		ldr	r1, .L64+8
 995 001e 0748     		ldr	r0, .L64+12
ARM GAS  /var/folders/bq/yv49bw8j2kd6w3hsq868qv180000gn/T//ccRnzw9B.s 			page 28


 996 0020 FFF7FEFF 		bl	bsp_trace_print
 997              	.LVL116:
 411:lr1mac/src/smtc_real/src/smtc_real.c ****         bsp_mcu_handle_lr1mac_issue( );
 998              		.loc 1 411 9 view .LVU238
 999 0024 0648     		ldr	r0, .L64+16
 1000 0026 FFF7FEFF 		bl	bsp_trace_print
 1001              	.LVL117:
 411:lr1mac/src/smtc_real/src/smtc_real.c ****         bsp_mcu_handle_lr1mac_issue( );
 1002              		.loc 1 411 9 view .LVU239
 411:lr1mac/src/smtc_real/src/smtc_real.c ****         bsp_mcu_handle_lr1mac_issue( );
 1003              		.loc 1 411 60 view .LVU240
 412:lr1mac/src/smtc_real/src/smtc_real.c ****         break;
 1004              		.loc 1 412 9 view .LVU241
 1005 002a FFF7FEFF 		bl	bsp_mcu_handle_lr1mac_issue
 1006              	.LVL118:
 413:lr1mac/src/smtc_real/src/smtc_real.c ****     }
 1007              		.loc 1 413 9 view .LVU242
 1008              		.loc 1 415 1 is_stmt 0 view .LVU243
 1009 002e EEE7     		b	.L61
 1010              	.L65:
 1011              		.align	2
 1012              	.L64:
 1013 0030 00000000 		.word	.LC0
 1014 0034 08000000 		.word	.LC2
 1015 0038 00000000 		.word	.LANCHOR12
 1016 003c 10000000 		.word	.LC5
 1017 0040 20000000 		.word	.LC7
 1018              		.cfi_endproc
 1019              	.LFE21:
 1021              		.section	.text.smtc_real_default_max_eirp_get,"ax",%progbits
 1022              		.align	1
 1023              		.global	smtc_real_default_max_eirp_get
 1024              		.syntax unified
 1025              		.code	16
 1026              		.thumb_func
 1027              		.fpu softvfp
 1029              	smtc_real_default_max_eirp_get:
 1030              	.LVL119:
 1031              	.LFB22:
 416:lr1mac/src/smtc_real/src/smtc_real.c **** uint8_t smtc_real_default_max_eirp_get( lr1_stack_mac_t* lr1_mac )
 417:lr1mac/src/smtc_real/src/smtc_real.c **** {
 1032              		.loc 1 417 1 is_stmt 1 view -0
 1033              		.cfi_startproc
 1034              		@ args = 0, pretend = 0, frame = 0
 1035              		@ frame_needed = 0, uses_anonymous_args = 0
 418:lr1mac/src/smtc_real/src/smtc_real.c ****     switch( lr1_mac->real->region_type )
 1036              		.loc 1 418 5 view .LVU245
 417:lr1mac/src/smtc_real/src/smtc_real.c ****     switch( lr1_mac->real->region_type )
 1037              		.loc 1 417 1 is_stmt 0 view .LVU246
 1038 0000 10B5     		push	{r4, lr}
 1039              		.cfi_def_cfa_offset 8
 1040              		.cfi_offset 4, -8
 1041              		.cfi_offset 14, -4
 1042              		.loc 1 418 26 view .LVU247
 1043 0002 0368     		ldr	r3, [r0]
 419:lr1mac/src/smtc_real/src/smtc_real.c ****     {
 420:lr1mac/src/smtc_real/src/smtc_real.c **** #if defined( REGION_WW2G4 )
ARM GAS  /var/folders/bq/yv49bw8j2kd6w3hsq868qv180000gn/T//ccRnzw9B.s 			page 29


 421:lr1mac/src/smtc_real/src/smtc_real.c ****     case SMTC_REAL_REGION_WW2G4: {
 422:lr1mac/src/smtc_real/src/smtc_real.c ****         return TX_POWER_WW2G4;
 1044              		.loc 1 422 16 view .LVU248
 1045 0004 0A20     		movs	r0, #10
 1046              	.LVL120:
 418:lr1mac/src/smtc_real/src/smtc_real.c ****     {
 1047              		.loc 1 418 5 view .LVU249
 1048 0006 1B79     		ldrb	r3, [r3, #4]
 1049 0008 062B     		cmp	r3, #6
 1050 000a 0FD0     		beq	.L67
 423:lr1mac/src/smtc_real/src/smtc_real.c ****     }
 424:lr1mac/src/smtc_real/src/smtc_real.c **** #endif
 425:lr1mac/src/smtc_real/src/smtc_real.c **** #if defined( REGION_EU_868 )
 426:lr1mac/src/smtc_real/src/smtc_real.c ****     case SMTC_REAL_REGION_EU_868: {
 427:lr1mac/src/smtc_real/src/smtc_real.c ****         return TX_POWER_EU_868;
 428:lr1mac/src/smtc_real/src/smtc_real.c ****     }
 429:lr1mac/src/smtc_real/src/smtc_real.c **** #endif
 430:lr1mac/src/smtc_real/src/smtc_real.c **** #if defined( REGION_US_915 )
 431:lr1mac/src/smtc_real/src/smtc_real.c ****     case SMTC_REAL_REGION_US_915: {
 432:lr1mac/src/smtc_real/src/smtc_real.c ****         return TX_POWER_US_915;
 433:lr1mac/src/smtc_real/src/smtc_real.c ****     }
 434:lr1mac/src/smtc_real/src/smtc_real.c **** #endif
 435:lr1mac/src/smtc_real/src/smtc_real.c ****     default:
 436:lr1mac/src/smtc_real/src/smtc_real.c ****         BSP_DBG_TRACE_ERROR( "%s unsupported\n", __func__ );
 1051              		.loc 1 436 9 is_stmt 1 view .LVU250
 1052              		.loc 1 436 9 view .LVU251
 1053 000c 0848     		ldr	r0, .L70
 1054 000e FFF7FEFF 		bl	bsp_trace_print
 1055              	.LVL121:
 1056              		.loc 1 436 9 view .LVU252
 1057 0012 0848     		ldr	r0, .L70+4
 1058 0014 FFF7FEFF 		bl	bsp_trace_print
 1059              	.LVL122:
 1060              		.loc 1 436 9 view .LVU253
 1061 0018 0749     		ldr	r1, .L70+8
 1062 001a 0848     		ldr	r0, .L70+12
 1063 001c FFF7FEFF 		bl	bsp_trace_print
 1064              	.LVL123:
 1065              		.loc 1 436 9 view .LVU254
 1066 0020 0748     		ldr	r0, .L70+16
 1067 0022 FFF7FEFF 		bl	bsp_trace_print
 1068              	.LVL124:
 1069              		.loc 1 436 9 view .LVU255
 1070              		.loc 1 436 60 view .LVU256
 437:lr1mac/src/smtc_real/src/smtc_real.c ****         bsp_mcu_handle_lr1mac_issue( );
 1071              		.loc 1 437 9 view .LVU257
 1072 0026 FFF7FEFF 		bl	bsp_mcu_handle_lr1mac_issue
 1073              	.LVL125:
 438:lr1mac/src/smtc_real/src/smtc_real.c ****         break;
 1074              		.loc 1 438 9 view .LVU258
 439:lr1mac/src/smtc_real/src/smtc_real.c ****     }
 440:lr1mac/src/smtc_real/src/smtc_real.c ****     return ERRORLORAWAN;  // never reach => avoid warning
 1075              		.loc 1 440 5 view .LVU259
 1076              		.loc 1 440 12 is_stmt 0 view .LVU260
 1077 002a FF20     		movs	r0, #255
 1078              	.L67:
 441:lr1mac/src/smtc_real/src/smtc_real.c **** }
ARM GAS  /var/folders/bq/yv49bw8j2kd6w3hsq868qv180000gn/T//ccRnzw9B.s 			page 30


 1079              		.loc 1 441 1 view .LVU261
 1080              		@ sp needed
 1081 002c 10BD     		pop	{r4, pc}
 1082              	.L71:
 1083 002e C046     		.align	2
 1084              	.L70:
 1085 0030 00000000 		.word	.LC0
 1086 0034 08000000 		.word	.LC2
 1087 0038 00000000 		.word	.LANCHOR13
 1088 003c 10000000 		.word	.LC5
 1089 0040 20000000 		.word	.LC7
 1090              		.cfi_endproc
 1091              	.LFE22:
 1093              		.section	.text.smtc_real_channel_mask_set,"ax",%progbits
 1094              		.align	1
 1095              		.global	smtc_real_channel_mask_set
 1096              		.syntax unified
 1097              		.code	16
 1098              		.thumb_func
 1099              		.fpu softvfp
 1101              	smtc_real_channel_mask_set:
 1102              	.LVL126:
 1103              	.LFB23:
 442:lr1mac/src/smtc_real/src/smtc_real.c **** 
 443:lr1mac/src/smtc_real/src/smtc_real.c **** void smtc_real_channel_mask_set( lr1_stack_mac_t* lr1_mac )
 444:lr1mac/src/smtc_real/src/smtc_real.c **** {
 1104              		.loc 1 444 1 is_stmt 1 view -0
 1105              		.cfi_startproc
 1106              		@ args = 0, pretend = 0, frame = 0
 1107              		@ frame_needed = 0, uses_anonymous_args = 0
 445:lr1mac/src/smtc_real/src/smtc_real.c ****     switch( lr1_mac->real->region_type )
 1108              		.loc 1 445 5 view .LVU263
 444:lr1mac/src/smtc_real/src/smtc_real.c ****     switch( lr1_mac->real->region_type )
 1109              		.loc 1 444 1 is_stmt 0 view .LVU264
 1110 0000 10B5     		push	{r4, lr}
 1111              		.cfi_def_cfa_offset 8
 1112              		.cfi_offset 4, -8
 1113              		.cfi_offset 14, -4
 1114              		.loc 1 445 5 view .LVU265
 1115 0002 0368     		ldr	r3, [r0]
 1116 0004 1B79     		ldrb	r3, [r3, #4]
 1117 0006 062B     		cmp	r3, #6
 1118 0008 02D1     		bne	.L73
 446:lr1mac/src/smtc_real/src/smtc_real.c ****     {
 447:lr1mac/src/smtc_real/src/smtc_real.c **** #if defined( REGION_WW2G4 )
 448:lr1mac/src/smtc_real/src/smtc_real.c ****     case SMTC_REAL_REGION_WW2G4: {
 449:lr1mac/src/smtc_real/src/smtc_real.c ****         region_ww2g4_channel_mask_set( lr1_mac );
 1119              		.loc 1 449 9 is_stmt 1 view .LVU266
 1120 000a FFF7FEFF 		bl	region_ww2g4_channel_mask_set
 1121              	.LVL127:
 450:lr1mac/src/smtc_real/src/smtc_real.c ****         break;
 1122              		.loc 1 450 9 view .LVU267
 1123              	.L72:
 451:lr1mac/src/smtc_real/src/smtc_real.c ****     }
 452:lr1mac/src/smtc_real/src/smtc_real.c **** #endif
 453:lr1mac/src/smtc_real/src/smtc_real.c **** #if defined( REGION_EU_868 )
 454:lr1mac/src/smtc_real/src/smtc_real.c ****     case SMTC_REAL_REGION_EU_868: {
ARM GAS  /var/folders/bq/yv49bw8j2kd6w3hsq868qv180000gn/T//ccRnzw9B.s 			page 31


 455:lr1mac/src/smtc_real/src/smtc_real.c ****         region_eu_868_channel_mask_set( lr1_mac );
 456:lr1mac/src/smtc_real/src/smtc_real.c ****         break;
 457:lr1mac/src/smtc_real/src/smtc_real.c ****     }
 458:lr1mac/src/smtc_real/src/smtc_real.c **** #endif
 459:lr1mac/src/smtc_real/src/smtc_real.c **** #if defined( REGION_US_915 )
 460:lr1mac/src/smtc_real/src/smtc_real.c ****     case SMTC_REAL_REGION_US_915: {
 461:lr1mac/src/smtc_real/src/smtc_real.c ****         region_us915_channel_mask_set( lr1_mac );
 462:lr1mac/src/smtc_real/src/smtc_real.c ****         break;
 463:lr1mac/src/smtc_real/src/smtc_real.c ****     }
 464:lr1mac/src/smtc_real/src/smtc_real.c **** #endif
 465:lr1mac/src/smtc_real/src/smtc_real.c ****     default:
 466:lr1mac/src/smtc_real/src/smtc_real.c ****         BSP_DBG_TRACE_ERROR( "%s unsupported\n", __func__ );
 467:lr1mac/src/smtc_real/src/smtc_real.c ****         bsp_mcu_handle_lr1mac_issue( );
 468:lr1mac/src/smtc_real/src/smtc_real.c ****         break;
 469:lr1mac/src/smtc_real/src/smtc_real.c ****     }
 470:lr1mac/src/smtc_real/src/smtc_real.c **** }
 1124              		.loc 1 470 1 is_stmt 0 view .LVU268
 1125              		@ sp needed
 1126 000e 10BD     		pop	{r4, pc}
 1127              	.LVL128:
 1128              	.L73:
 466:lr1mac/src/smtc_real/src/smtc_real.c ****         bsp_mcu_handle_lr1mac_issue( );
 1129              		.loc 1 466 9 is_stmt 1 view .LVU269
 466:lr1mac/src/smtc_real/src/smtc_real.c ****         bsp_mcu_handle_lr1mac_issue( );
 1130              		.loc 1 466 9 view .LVU270
 1131 0010 0748     		ldr	r0, .L75
 1132              	.LVL129:
 466:lr1mac/src/smtc_real/src/smtc_real.c ****         bsp_mcu_handle_lr1mac_issue( );
 1133              		.loc 1 466 9 is_stmt 0 view .LVU271
 1134 0012 FFF7FEFF 		bl	bsp_trace_print
 1135              	.LVL130:
 466:lr1mac/src/smtc_real/src/smtc_real.c ****         bsp_mcu_handle_lr1mac_issue( );
 1136              		.loc 1 466 9 is_stmt 1 view .LVU272
 1137 0016 0748     		ldr	r0, .L75+4
 1138 0018 FFF7FEFF 		bl	bsp_trace_print
 1139              	.LVL131:
 466:lr1mac/src/smtc_real/src/smtc_real.c ****         bsp_mcu_handle_lr1mac_issue( );
 1140              		.loc 1 466 9 view .LVU273
 1141 001c 0649     		ldr	r1, .L75+8
 1142 001e 0748     		ldr	r0, .L75+12
 1143 0020 FFF7FEFF 		bl	bsp_trace_print
 1144              	.LVL132:
 466:lr1mac/src/smtc_real/src/smtc_real.c ****         bsp_mcu_handle_lr1mac_issue( );
 1145              		.loc 1 466 9 view .LVU274
 1146 0024 0648     		ldr	r0, .L75+16
 1147 0026 FFF7FEFF 		bl	bsp_trace_print
 1148              	.LVL133:
 466:lr1mac/src/smtc_real/src/smtc_real.c ****         bsp_mcu_handle_lr1mac_issue( );
 1149              		.loc 1 466 9 view .LVU275
 466:lr1mac/src/smtc_real/src/smtc_real.c ****         bsp_mcu_handle_lr1mac_issue( );
 1150              		.loc 1 466 60 view .LVU276
 467:lr1mac/src/smtc_real/src/smtc_real.c ****         break;
 1151              		.loc 1 467 9 view .LVU277
 1152 002a FFF7FEFF 		bl	bsp_mcu_handle_lr1mac_issue
 1153              	.LVL134:
 468:lr1mac/src/smtc_real/src/smtc_real.c ****     }
 1154              		.loc 1 468 9 view .LVU278
ARM GAS  /var/folders/bq/yv49bw8j2kd6w3hsq868qv180000gn/T//ccRnzw9B.s 			page 32


 1155              		.loc 1 470 1 is_stmt 0 view .LVU279
 1156 002e EEE7     		b	.L72
 1157              	.L76:
 1158              		.align	2
 1159              	.L75:
 1160 0030 00000000 		.word	.LC0
 1161 0034 08000000 		.word	.LC2
 1162 0038 00000000 		.word	.LANCHOR14
 1163 003c 10000000 		.word	.LC5
 1164 0040 20000000 		.word	.LC7
 1165              		.cfi_endproc
 1166              	.LFE23:
 1168              		.section	.text.smtc_real_channel_mask_init,"ax",%progbits
 1169              		.align	1
 1170              		.global	smtc_real_channel_mask_init
 1171              		.syntax unified
 1172              		.code	16
 1173              		.thumb_func
 1174              		.fpu softvfp
 1176              	smtc_real_channel_mask_init:
 1177              	.LVL135:
 1178              	.LFB24:
 471:lr1mac/src/smtc_real/src/smtc_real.c **** 
 472:lr1mac/src/smtc_real/src/smtc_real.c **** void smtc_real_channel_mask_init( lr1_stack_mac_t* lr1_mac )
 473:lr1mac/src/smtc_real/src/smtc_real.c **** {
 1179              		.loc 1 473 1 is_stmt 1 view -0
 1180              		.cfi_startproc
 1181              		@ args = 0, pretend = 0, frame = 0
 1182              		@ frame_needed = 0, uses_anonymous_args = 0
 474:lr1mac/src/smtc_real/src/smtc_real.c ****     switch( lr1_mac->real->region_type )
 1183              		.loc 1 474 5 view .LVU281
 473:lr1mac/src/smtc_real/src/smtc_real.c ****     switch( lr1_mac->real->region_type )
 1184              		.loc 1 473 1 is_stmt 0 view .LVU282
 1185 0000 10B5     		push	{r4, lr}
 1186              		.cfi_def_cfa_offset 8
 1187              		.cfi_offset 4, -8
 1188              		.cfi_offset 14, -4
 1189              		.loc 1 474 26 view .LVU283
 1190 0002 0368     		ldr	r3, [r0]
 1191              		.loc 1 474 5 view .LVU284
 1192 0004 1B79     		ldrb	r3, [r3, #4]
 1193 0006 062B     		cmp	r3, #6
 1194 0008 02D1     		bne	.L78
 475:lr1mac/src/smtc_real/src/smtc_real.c ****     {
 476:lr1mac/src/smtc_real/src/smtc_real.c **** #if defined( REGION_WW2G4 )
 477:lr1mac/src/smtc_real/src/smtc_real.c ****     case SMTC_REAL_REGION_WW2G4: {
 478:lr1mac/src/smtc_real/src/smtc_real.c ****         region_ww2g4_channel_mask_init( );
 1195              		.loc 1 478 9 is_stmt 1 view .LVU285
 1196 000a FFF7FEFF 		bl	region_ww2g4_channel_mask_init
 1197              	.LVL136:
 479:lr1mac/src/smtc_real/src/smtc_real.c ****         break;
 1198              		.loc 1 479 9 view .LVU286
 1199              	.L77:
 480:lr1mac/src/smtc_real/src/smtc_real.c ****     }
 481:lr1mac/src/smtc_real/src/smtc_real.c **** #endif
 482:lr1mac/src/smtc_real/src/smtc_real.c **** #if defined( REGION_EU_868 )
 483:lr1mac/src/smtc_real/src/smtc_real.c ****     case SMTC_REAL_REGION_EU_868: {
ARM GAS  /var/folders/bq/yv49bw8j2kd6w3hsq868qv180000gn/T//ccRnzw9B.s 			page 33


 484:lr1mac/src/smtc_real/src/smtc_real.c ****         region_eu_868_channel_mask_init( );
 485:lr1mac/src/smtc_real/src/smtc_real.c ****         break;
 486:lr1mac/src/smtc_real/src/smtc_real.c ****     }
 487:lr1mac/src/smtc_real/src/smtc_real.c **** #endif
 488:lr1mac/src/smtc_real/src/smtc_real.c **** #if defined( REGION_US_915 )
 489:lr1mac/src/smtc_real/src/smtc_real.c ****     case SMTC_REAL_REGION_US_915: {
 490:lr1mac/src/smtc_real/src/smtc_real.c ****         region_us_915_channel_mask_init( );
 491:lr1mac/src/smtc_real/src/smtc_real.c ****         break;
 492:lr1mac/src/smtc_real/src/smtc_real.c ****     }
 493:lr1mac/src/smtc_real/src/smtc_real.c **** #endif
 494:lr1mac/src/smtc_real/src/smtc_real.c ****     default:
 495:lr1mac/src/smtc_real/src/smtc_real.c ****         BSP_DBG_TRACE_ERROR( "%s unsupported\n", __func__ );
 496:lr1mac/src/smtc_real/src/smtc_real.c ****         bsp_mcu_handle_lr1mac_issue( );
 497:lr1mac/src/smtc_real/src/smtc_real.c ****         break;
 498:lr1mac/src/smtc_real/src/smtc_real.c ****     }
 499:lr1mac/src/smtc_real/src/smtc_real.c **** }
 1200              		.loc 1 499 1 is_stmt 0 view .LVU287
 1201              		@ sp needed
 1202 000e 10BD     		pop	{r4, pc}
 1203              	.LVL137:
 1204              	.L78:
 495:lr1mac/src/smtc_real/src/smtc_real.c ****         bsp_mcu_handle_lr1mac_issue( );
 1205              		.loc 1 495 9 is_stmt 1 view .LVU288
 495:lr1mac/src/smtc_real/src/smtc_real.c ****         bsp_mcu_handle_lr1mac_issue( );
 1206              		.loc 1 495 9 view .LVU289
 1207 0010 0748     		ldr	r0, .L80
 1208              	.LVL138:
 495:lr1mac/src/smtc_real/src/smtc_real.c ****         bsp_mcu_handle_lr1mac_issue( );
 1209              		.loc 1 495 9 is_stmt 0 view .LVU290
 1210 0012 FFF7FEFF 		bl	bsp_trace_print
 1211              	.LVL139:
 495:lr1mac/src/smtc_real/src/smtc_real.c ****         bsp_mcu_handle_lr1mac_issue( );
 1212              		.loc 1 495 9 is_stmt 1 view .LVU291
 1213 0016 0748     		ldr	r0, .L80+4
 1214 0018 FFF7FEFF 		bl	bsp_trace_print
 1215              	.LVL140:
 495:lr1mac/src/smtc_real/src/smtc_real.c ****         bsp_mcu_handle_lr1mac_issue( );
 1216              		.loc 1 495 9 view .LVU292
 1217 001c 0649     		ldr	r1, .L80+8
 1218 001e 0748     		ldr	r0, .L80+12
 1219 0020 FFF7FEFF 		bl	bsp_trace_print
 1220              	.LVL141:
 495:lr1mac/src/smtc_real/src/smtc_real.c ****         bsp_mcu_handle_lr1mac_issue( );
 1221              		.loc 1 495 9 view .LVU293
 1222 0024 0648     		ldr	r0, .L80+16
 1223 0026 FFF7FEFF 		bl	bsp_trace_print
 1224              	.LVL142:
 495:lr1mac/src/smtc_real/src/smtc_real.c ****         bsp_mcu_handle_lr1mac_issue( );
 1225              		.loc 1 495 9 view .LVU294
 495:lr1mac/src/smtc_real/src/smtc_real.c ****         bsp_mcu_handle_lr1mac_issue( );
 1226              		.loc 1 495 60 view .LVU295
 496:lr1mac/src/smtc_real/src/smtc_real.c ****         break;
 1227              		.loc 1 496 9 view .LVU296
 1228 002a FFF7FEFF 		bl	bsp_mcu_handle_lr1mac_issue
 1229              	.LVL143:
 497:lr1mac/src/smtc_real/src/smtc_real.c ****     }
 1230              		.loc 1 497 9 view .LVU297
ARM GAS  /var/folders/bq/yv49bw8j2kd6w3hsq868qv180000gn/T//ccRnzw9B.s 			page 34


 1231              		.loc 1 499 1 is_stmt 0 view .LVU298
 1232 002e EEE7     		b	.L77
 1233              	.L81:
 1234              		.align	2
 1235              	.L80:
 1236 0030 00000000 		.word	.LC0
 1237 0034 08000000 		.word	.LC2
 1238 0038 00000000 		.word	.LANCHOR15
 1239 003c 10000000 		.word	.LC5
 1240 0040 20000000 		.word	.LC7
 1241              		.cfi_endproc
 1242              	.LFE24:
 1244              		.section	.text.smtc_real_join_snapshot_channel_mask_init,"ax",%progbits
 1245              		.align	1
 1246              		.global	smtc_real_join_snapshot_channel_mask_init
 1247              		.syntax unified
 1248              		.code	16
 1249              		.thumb_func
 1250              		.fpu softvfp
 1252              	smtc_real_join_snapshot_channel_mask_init:
 1253              	.LVL144:
 1254              	.LFB25:
 500:lr1mac/src/smtc_real/src/smtc_real.c **** 
 501:lr1mac/src/smtc_real/src/smtc_real.c **** void smtc_real_join_snapshot_channel_mask_init( lr1_stack_mac_t* lr1_mac )
 502:lr1mac/src/smtc_real/src/smtc_real.c **** {
 1255              		.loc 1 502 1 is_stmt 1 view -0
 1256              		.cfi_startproc
 1257              		@ args = 0, pretend = 0, frame = 0
 1258              		@ frame_needed = 0, uses_anonymous_args = 0
 503:lr1mac/src/smtc_real/src/smtc_real.c ****     switch( lr1_mac->real->region_type )
 1259              		.loc 1 503 5 view .LVU300
 502:lr1mac/src/smtc_real/src/smtc_real.c ****     switch( lr1_mac->real->region_type )
 1260              		.loc 1 502 1 is_stmt 0 view .LVU301
 1261 0000 10B5     		push	{r4, lr}
 1262              		.cfi_def_cfa_offset 8
 1263              		.cfi_offset 4, -8
 1264              		.cfi_offset 14, -4
 1265              		.loc 1 503 26 view .LVU302
 1266 0002 0368     		ldr	r3, [r0]
 1267              		.loc 1 503 5 view .LVU303
 1268 0004 1B79     		ldrb	r3, [r3, #4]
 1269 0006 062B     		cmp	r3, #6
 1270 0008 02D1     		bne	.L83
 504:lr1mac/src/smtc_real/src/smtc_real.c ****     {
 505:lr1mac/src/smtc_real/src/smtc_real.c **** #if defined( REGION_WW2G4 )
 506:lr1mac/src/smtc_real/src/smtc_real.c ****     case SMTC_REAL_REGION_WW2G4: {
 507:lr1mac/src/smtc_real/src/smtc_real.c ****         region_ww2g4_join_snapshot_channel_mask_init( );
 1271              		.loc 1 507 9 is_stmt 1 view .LVU304
 1272 000a FFF7FEFF 		bl	region_ww2g4_join_snapshot_channel_mask_init
 1273              	.LVL145:
 508:lr1mac/src/smtc_real/src/smtc_real.c ****         break;
 1274              		.loc 1 508 9 view .LVU305
 1275              	.L82:
 509:lr1mac/src/smtc_real/src/smtc_real.c ****     }
 510:lr1mac/src/smtc_real/src/smtc_real.c **** #endif
 511:lr1mac/src/smtc_real/src/smtc_real.c **** #if defined( REGION_EU_868 )
 512:lr1mac/src/smtc_real/src/smtc_real.c ****     case SMTC_REAL_REGION_EU_868: {
ARM GAS  /var/folders/bq/yv49bw8j2kd6w3hsq868qv180000gn/T//ccRnzw9B.s 			page 35


 513:lr1mac/src/smtc_real/src/smtc_real.c ****         region_eu_868_join_snapshot_channel_mask_init( );
 514:lr1mac/src/smtc_real/src/smtc_real.c ****         break;
 515:lr1mac/src/smtc_real/src/smtc_real.c ****     }
 516:lr1mac/src/smtc_real/src/smtc_real.c **** #endif
 517:lr1mac/src/smtc_real/src/smtc_real.c **** #if defined( REGION_US_915 )
 518:lr1mac/src/smtc_real/src/smtc_real.c ****     case SMTC_REAL_REGION_US_915: {
 519:lr1mac/src/smtc_real/src/smtc_real.c ****         region_us_915_join_snapshot_channel_mask_init( );
 520:lr1mac/src/smtc_real/src/smtc_real.c ****         break;
 521:lr1mac/src/smtc_real/src/smtc_real.c ****     }
 522:lr1mac/src/smtc_real/src/smtc_real.c **** #endif
 523:lr1mac/src/smtc_real/src/smtc_real.c ****     default:
 524:lr1mac/src/smtc_real/src/smtc_real.c ****         BSP_DBG_TRACE_ERROR( "%s unsupported\n", __func__ );
 525:lr1mac/src/smtc_real/src/smtc_real.c ****         bsp_mcu_handle_lr1mac_issue( );
 526:lr1mac/src/smtc_real/src/smtc_real.c ****         break;
 527:lr1mac/src/smtc_real/src/smtc_real.c ****     }
 528:lr1mac/src/smtc_real/src/smtc_real.c **** }
 1276              		.loc 1 528 1 is_stmt 0 view .LVU306
 1277              		@ sp needed
 1278 000e 10BD     		pop	{r4, pc}
 1279              	.LVL146:
 1280              	.L83:
 524:lr1mac/src/smtc_real/src/smtc_real.c ****         bsp_mcu_handle_lr1mac_issue( );
 1281              		.loc 1 524 9 is_stmt 1 view .LVU307
 524:lr1mac/src/smtc_real/src/smtc_real.c ****         bsp_mcu_handle_lr1mac_issue( );
 1282              		.loc 1 524 9 view .LVU308
 1283 0010 0748     		ldr	r0, .L85
 1284              	.LVL147:
 524:lr1mac/src/smtc_real/src/smtc_real.c ****         bsp_mcu_handle_lr1mac_issue( );
 1285              		.loc 1 524 9 is_stmt 0 view .LVU309
 1286 0012 FFF7FEFF 		bl	bsp_trace_print
 1287              	.LVL148:
 524:lr1mac/src/smtc_real/src/smtc_real.c ****         bsp_mcu_handle_lr1mac_issue( );
 1288              		.loc 1 524 9 is_stmt 1 view .LVU310
 1289 0016 0748     		ldr	r0, .L85+4
 1290 0018 FFF7FEFF 		bl	bsp_trace_print
 1291              	.LVL149:
 524:lr1mac/src/smtc_real/src/smtc_real.c ****         bsp_mcu_handle_lr1mac_issue( );
 1292              		.loc 1 524 9 view .LVU311
 1293 001c 0649     		ldr	r1, .L85+8
 1294 001e 0748     		ldr	r0, .L85+12
 1295 0020 FFF7FEFF 		bl	bsp_trace_print
 1296              	.LVL150:
 524:lr1mac/src/smtc_real/src/smtc_real.c ****         bsp_mcu_handle_lr1mac_issue( );
 1297              		.loc 1 524 9 view .LVU312
 1298 0024 0648     		ldr	r0, .L85+16
 1299 0026 FFF7FEFF 		bl	bsp_trace_print
 1300              	.LVL151:
 524:lr1mac/src/smtc_real/src/smtc_real.c ****         bsp_mcu_handle_lr1mac_issue( );
 1301              		.loc 1 524 9 view .LVU313
 524:lr1mac/src/smtc_real/src/smtc_real.c ****         bsp_mcu_handle_lr1mac_issue( );
 1302              		.loc 1 524 60 view .LVU314
 525:lr1mac/src/smtc_real/src/smtc_real.c ****         break;
 1303              		.loc 1 525 9 view .LVU315
 1304 002a FFF7FEFF 		bl	bsp_mcu_handle_lr1mac_issue
 1305              	.LVL152:
 526:lr1mac/src/smtc_real/src/smtc_real.c ****     }
 1306              		.loc 1 526 9 view .LVU316
ARM GAS  /var/folders/bq/yv49bw8j2kd6w3hsq868qv180000gn/T//ccRnzw9B.s 			page 36


 1307              		.loc 1 528 1 is_stmt 0 view .LVU317
 1308 002e EEE7     		b	.L82
 1309              	.L86:
 1310              		.align	2
 1311              	.L85:
 1312 0030 00000000 		.word	.LC0
 1313 0034 08000000 		.word	.LC2
 1314 0038 00000000 		.word	.LANCHOR16
 1315 003c 10000000 		.word	.LC5
 1316 0040 20000000 		.word	.LC7
 1317              		.cfi_endproc
 1318              	.LFE25:
 1320              		.section	.text.smtc_real_channel_mask_build,"ax",%progbits
 1321              		.align	1
 1322              		.global	smtc_real_channel_mask_build
 1323              		.syntax unified
 1324              		.code	16
 1325              		.thumb_func
 1326              		.fpu softvfp
 1328              	smtc_real_channel_mask_build:
 1329              	.LVL153:
 1330              	.LFB26:
 529:lr1mac/src/smtc_real/src/smtc_real.c **** 
 530:lr1mac/src/smtc_real/src/smtc_real.c **** status_channel_t smtc_real_channel_mask_build( lr1_stack_mac_t* lr1_mac, uint8_t ChMaskCntl, uint16
 531:lr1mac/src/smtc_real/src/smtc_real.c **** {
 1331              		.loc 1 531 1 is_stmt 1 view -0
 1332              		.cfi_startproc
 1333              		@ args = 0, pretend = 0, frame = 0
 1334              		@ frame_needed = 0, uses_anonymous_args = 0
 532:lr1mac/src/smtc_real/src/smtc_real.c ****     switch( lr1_mac->real->region_type )
 1335              		.loc 1 532 5 view .LVU319
 531:lr1mac/src/smtc_real/src/smtc_real.c ****     switch( lr1_mac->real->region_type )
 1336              		.loc 1 531 1 is_stmt 0 view .LVU320
 1337 0000 0300     		movs	r3, r0
 1338 0002 10B5     		push	{r4, lr}
 1339              		.cfi_def_cfa_offset 8
 1340              		.cfi_offset 4, -8
 1341              		.cfi_offset 14, -4
 1342              		.loc 1 532 26 view .LVU321
 1343 0004 1B68     		ldr	r3, [r3]
 531:lr1mac/src/smtc_real/src/smtc_real.c ****     switch( lr1_mac->real->region_type )
 1344              		.loc 1 531 1 view .LVU322
 1345 0006 0800     		movs	r0, r1
 1346              	.LVL154:
 1347              		.loc 1 532 5 view .LVU323
 1348 0008 1B79     		ldrb	r3, [r3, #4]
 531:lr1mac/src/smtc_real/src/smtc_real.c ****     switch( lr1_mac->real->region_type )
 1349              		.loc 1 531 1 view .LVU324
 1350 000a 1100     		movs	r1, r2
 1351              	.LVL155:
 1352              		.loc 1 532 5 view .LVU325
 1353 000c 062B     		cmp	r3, #6
 1354 000e 02D1     		bne	.L88
 533:lr1mac/src/smtc_real/src/smtc_real.c ****     {
 534:lr1mac/src/smtc_real/src/smtc_real.c **** #if defined( REGION_WW2G4 )
 535:lr1mac/src/smtc_real/src/smtc_real.c ****     case SMTC_REAL_REGION_WW2G4: {
 536:lr1mac/src/smtc_real/src/smtc_real.c ****         return region_ww2g4_channel_mask_build( ChMaskCntl, ChMask );
ARM GAS  /var/folders/bq/yv49bw8j2kd6w3hsq868qv180000gn/T//ccRnzw9B.s 			page 37


 1355              		.loc 1 536 9 is_stmt 1 view .LVU326
 1356              		.loc 1 536 16 is_stmt 0 view .LVU327
 1357 0010 FFF7FEFF 		bl	region_ww2g4_channel_mask_build
 1358              	.LVL156:
 1359              	.L89:
 537:lr1mac/src/smtc_real/src/smtc_real.c ****     }
 538:lr1mac/src/smtc_real/src/smtc_real.c **** #endif
 539:lr1mac/src/smtc_real/src/smtc_real.c **** #if defined( REGION_EU_868 )
 540:lr1mac/src/smtc_real/src/smtc_real.c ****     case SMTC_REAL_REGION_EU_868: {
 541:lr1mac/src/smtc_real/src/smtc_real.c ****         return region_eu_868_channel_mask_build( ChMaskCntl, ChMask );
 542:lr1mac/src/smtc_real/src/smtc_real.c ****     }
 543:lr1mac/src/smtc_real/src/smtc_real.c **** #endif
 544:lr1mac/src/smtc_real/src/smtc_real.c **** #if defined( REGION_US_915 )
 545:lr1mac/src/smtc_real/src/smtc_real.c ****     case SMTC_REAL_REGION_US_915: {
 546:lr1mac/src/smtc_real/src/smtc_real.c ****         return region_us_915_channel_mask_build( ChMaskCntl, ChMask );
 547:lr1mac/src/smtc_real/src/smtc_real.c ****     }
 548:lr1mac/src/smtc_real/src/smtc_real.c **** #endif
 549:lr1mac/src/smtc_real/src/smtc_real.c ****     default:
 550:lr1mac/src/smtc_real/src/smtc_real.c ****         BSP_DBG_TRACE_ERROR( "%s unsupported\n", __func__ );
 551:lr1mac/src/smtc_real/src/smtc_real.c ****         bsp_mcu_handle_lr1mac_issue( );
 552:lr1mac/src/smtc_real/src/smtc_real.c ****         break;
 553:lr1mac/src/smtc_real/src/smtc_real.c ****     }
 554:lr1mac/src/smtc_real/src/smtc_real.c ****     return ERRORLORAWAN;  // never reach => avoid warning
 555:lr1mac/src/smtc_real/src/smtc_real.c **** }
 1360              		.loc 1 555 1 view .LVU328
 1361              		@ sp needed
 1362 0014 10BD     		pop	{r4, pc}
 1363              	.LVL157:
 1364              	.L88:
 550:lr1mac/src/smtc_real/src/smtc_real.c ****         bsp_mcu_handle_lr1mac_issue( );
 1365              		.loc 1 550 9 is_stmt 1 view .LVU329
 550:lr1mac/src/smtc_real/src/smtc_real.c ****         bsp_mcu_handle_lr1mac_issue( );
 1366              		.loc 1 550 9 view .LVU330
 1367 0016 0948     		ldr	r0, .L90
 1368 0018 FFF7FEFF 		bl	bsp_trace_print
 1369              	.LVL158:
 550:lr1mac/src/smtc_real/src/smtc_real.c ****         bsp_mcu_handle_lr1mac_issue( );
 1370              		.loc 1 550 9 view .LVU331
 1371 001c 0848     		ldr	r0, .L90+4
 1372 001e FFF7FEFF 		bl	bsp_trace_print
 1373              	.LVL159:
 550:lr1mac/src/smtc_real/src/smtc_real.c ****         bsp_mcu_handle_lr1mac_issue( );
 1374              		.loc 1 550 9 view .LVU332
 1375 0022 0849     		ldr	r1, .L90+8
 1376 0024 0848     		ldr	r0, .L90+12
 1377 0026 FFF7FEFF 		bl	bsp_trace_print
 1378              	.LVL160:
 550:lr1mac/src/smtc_real/src/smtc_real.c ****         bsp_mcu_handle_lr1mac_issue( );
 1379              		.loc 1 550 9 view .LVU333
 1380 002a 0848     		ldr	r0, .L90+16
 1381 002c FFF7FEFF 		bl	bsp_trace_print
 1382              	.LVL161:
 550:lr1mac/src/smtc_real/src/smtc_real.c ****         bsp_mcu_handle_lr1mac_issue( );
 1383              		.loc 1 550 9 view .LVU334
 550:lr1mac/src/smtc_real/src/smtc_real.c ****         bsp_mcu_handle_lr1mac_issue( );
 1384              		.loc 1 550 60 view .LVU335
 551:lr1mac/src/smtc_real/src/smtc_real.c ****         break;
ARM GAS  /var/folders/bq/yv49bw8j2kd6w3hsq868qv180000gn/T//ccRnzw9B.s 			page 38


 1385              		.loc 1 551 9 view .LVU336
 1386 0030 FFF7FEFF 		bl	bsp_mcu_handle_lr1mac_issue
 1387              	.LVL162:
 552:lr1mac/src/smtc_real/src/smtc_real.c ****     }
 1388              		.loc 1 552 9 view .LVU337
 554:lr1mac/src/smtc_real/src/smtc_real.c **** }
 1389              		.loc 1 554 5 view .LVU338
 554:lr1mac/src/smtc_real/src/smtc_real.c **** }
 1390              		.loc 1 554 12 is_stmt 0 view .LVU339
 1391 0034 0120     		movs	r0, #1
 1392 0036 4042     		rsbs	r0, r0, #0
 1393 0038 ECE7     		b	.L89
 1394              	.L91:
 1395 003a C046     		.align	2
 1396              	.L90:
 1397 003c 00000000 		.word	.LC0
 1398 0040 08000000 		.word	.LC2
 1399 0044 00000000 		.word	.LANCHOR17
 1400 0048 10000000 		.word	.LC5
 1401 004c 20000000 		.word	.LC7
 1402              		.cfi_endproc
 1403              	.LFE26:
 1405              		.section	.text.smtc_real_dr_decrement,"ax",%progbits
 1406              		.align	1
 1407              		.global	smtc_real_dr_decrement
 1408              		.syntax unified
 1409              		.code	16
 1410              		.thumb_func
 1411              		.fpu softvfp
 1413              	smtc_real_dr_decrement:
 1414              	.LVL163:
 1415              	.LFB27:
 556:lr1mac/src/smtc_real/src/smtc_real.c **** 
 557:lr1mac/src/smtc_real/src/smtc_real.c **** void smtc_real_dr_decrement( lr1_stack_mac_t* lr1_mac )
 558:lr1mac/src/smtc_real/src/smtc_real.c **** {
 1416              		.loc 1 558 1 is_stmt 1 view -0
 1417              		.cfi_startproc
 1418              		@ args = 0, pretend = 0, frame = 0
 1419              		@ frame_needed = 0, uses_anonymous_args = 0
 559:lr1mac/src/smtc_real/src/smtc_real.c ****     switch( lr1_mac->real->region_type )
 1420              		.loc 1 559 5 view .LVU341
 558:lr1mac/src/smtc_real/src/smtc_real.c ****     switch( lr1_mac->real->region_type )
 1421              		.loc 1 558 1 is_stmt 0 view .LVU342
 1422 0000 10B5     		push	{r4, lr}
 1423              		.cfi_def_cfa_offset 8
 1424              		.cfi_offset 4, -8
 1425              		.cfi_offset 14, -4
 1426              		.loc 1 559 5 view .LVU343
 1427 0002 0368     		ldr	r3, [r0]
 1428 0004 1B79     		ldrb	r3, [r3, #4]
 1429 0006 062B     		cmp	r3, #6
 1430 0008 02D1     		bne	.L93
 560:lr1mac/src/smtc_real/src/smtc_real.c ****     {
 561:lr1mac/src/smtc_real/src/smtc_real.c **** #if defined( REGION_WW2G4 )
 562:lr1mac/src/smtc_real/src/smtc_real.c ****     case SMTC_REAL_REGION_WW2G4: {
 563:lr1mac/src/smtc_real/src/smtc_real.c ****         region_ww2g4_dr_decrement( lr1_mac );
 1431              		.loc 1 563 9 is_stmt 1 view .LVU344
ARM GAS  /var/folders/bq/yv49bw8j2kd6w3hsq868qv180000gn/T//ccRnzw9B.s 			page 39


 1432 000a FFF7FEFF 		bl	region_ww2g4_dr_decrement
 1433              	.LVL164:
 564:lr1mac/src/smtc_real/src/smtc_real.c ****         break;
 1434              		.loc 1 564 9 view .LVU345
 1435              	.L92:
 565:lr1mac/src/smtc_real/src/smtc_real.c ****     }
 566:lr1mac/src/smtc_real/src/smtc_real.c **** #endif
 567:lr1mac/src/smtc_real/src/smtc_real.c **** #if defined( REGION_EU_868 )
 568:lr1mac/src/smtc_real/src/smtc_real.c ****     case SMTC_REAL_REGION_EU_868: {
 569:lr1mac/src/smtc_real/src/smtc_real.c ****         region_eu_868_dr_decrement( lr1_mac );
 570:lr1mac/src/smtc_real/src/smtc_real.c ****         break;
 571:lr1mac/src/smtc_real/src/smtc_real.c ****     }
 572:lr1mac/src/smtc_real/src/smtc_real.c **** #endif
 573:lr1mac/src/smtc_real/src/smtc_real.c **** #if defined( REGION_US_915 )
 574:lr1mac/src/smtc_real/src/smtc_real.c ****     case SMTC_REAL_REGION_US_915: {
 575:lr1mac/src/smtc_real/src/smtc_real.c ****         region_us_915_dr_decrement( lr1_mac );
 576:lr1mac/src/smtc_real/src/smtc_real.c ****         break;
 577:lr1mac/src/smtc_real/src/smtc_real.c ****     }
 578:lr1mac/src/smtc_real/src/smtc_real.c **** #endif
 579:lr1mac/src/smtc_real/src/smtc_real.c ****     default:
 580:lr1mac/src/smtc_real/src/smtc_real.c ****         BSP_DBG_TRACE_ERROR( "%s unsupported\n", __func__ );
 581:lr1mac/src/smtc_real/src/smtc_real.c ****         bsp_mcu_handle_lr1mac_issue( );
 582:lr1mac/src/smtc_real/src/smtc_real.c ****         break;
 583:lr1mac/src/smtc_real/src/smtc_real.c ****     }
 584:lr1mac/src/smtc_real/src/smtc_real.c **** }
 1436              		.loc 1 584 1 is_stmt 0 view .LVU346
 1437              		@ sp needed
 1438 000e 10BD     		pop	{r4, pc}
 1439              	.LVL165:
 1440              	.L93:
 580:lr1mac/src/smtc_real/src/smtc_real.c ****         bsp_mcu_handle_lr1mac_issue( );
 1441              		.loc 1 580 9 is_stmt 1 view .LVU347
 580:lr1mac/src/smtc_real/src/smtc_real.c ****         bsp_mcu_handle_lr1mac_issue( );
 1442              		.loc 1 580 9 view .LVU348
 1443 0010 0748     		ldr	r0, .L95
 1444              	.LVL166:
 580:lr1mac/src/smtc_real/src/smtc_real.c ****         bsp_mcu_handle_lr1mac_issue( );
 1445              		.loc 1 580 9 is_stmt 0 view .LVU349
 1446 0012 FFF7FEFF 		bl	bsp_trace_print
 1447              	.LVL167:
 580:lr1mac/src/smtc_real/src/smtc_real.c ****         bsp_mcu_handle_lr1mac_issue( );
 1448              		.loc 1 580 9 is_stmt 1 view .LVU350
 1449 0016 0748     		ldr	r0, .L95+4
 1450 0018 FFF7FEFF 		bl	bsp_trace_print
 1451              	.LVL168:
 580:lr1mac/src/smtc_real/src/smtc_real.c ****         bsp_mcu_handle_lr1mac_issue( );
 1452              		.loc 1 580 9 view .LVU351
 1453 001c 0649     		ldr	r1, .L95+8
 1454 001e 0748     		ldr	r0, .L95+12
 1455 0020 FFF7FEFF 		bl	bsp_trace_print
 1456              	.LVL169:
 580:lr1mac/src/smtc_real/src/smtc_real.c ****         bsp_mcu_handle_lr1mac_issue( );
 1457              		.loc 1 580 9 view .LVU352
 1458 0024 0648     		ldr	r0, .L95+16
 1459 0026 FFF7FEFF 		bl	bsp_trace_print
 1460              	.LVL170:
 580:lr1mac/src/smtc_real/src/smtc_real.c ****         bsp_mcu_handle_lr1mac_issue( );
ARM GAS  /var/folders/bq/yv49bw8j2kd6w3hsq868qv180000gn/T//ccRnzw9B.s 			page 40


 1461              		.loc 1 580 9 view .LVU353
 580:lr1mac/src/smtc_real/src/smtc_real.c ****         bsp_mcu_handle_lr1mac_issue( );
 1462              		.loc 1 580 60 view .LVU354
 581:lr1mac/src/smtc_real/src/smtc_real.c ****         break;
 1463              		.loc 1 581 9 view .LVU355
 1464 002a FFF7FEFF 		bl	bsp_mcu_handle_lr1mac_issue
 1465              	.LVL171:
 582:lr1mac/src/smtc_real/src/smtc_real.c ****     }
 1466              		.loc 1 582 9 view .LVU356
 1467              		.loc 1 584 1 is_stmt 0 view .LVU357
 1468 002e EEE7     		b	.L92
 1469              	.L96:
 1470              		.align	2
 1471              	.L95:
 1472 0030 00000000 		.word	.LC0
 1473 0034 08000000 		.word	.LC2
 1474 0038 00000000 		.word	.LANCHOR18
 1475 003c 10000000 		.word	.LC5
 1476 0040 20000000 		.word	.LC7
 1477              		.cfi_endproc
 1478              	.LFE27:
 1480              		.section	.text.smtc_real_adr_ack_delay_get,"ax",%progbits
 1481              		.align	1
 1482              		.global	smtc_real_adr_ack_delay_get
 1483              		.syntax unified
 1484              		.code	16
 1485              		.thumb_func
 1486              		.fpu softvfp
 1488              	smtc_real_adr_ack_delay_get:
 1489              	.LVL172:
 1490              	.LFB28:
 585:lr1mac/src/smtc_real/src/smtc_real.c **** 
 586:lr1mac/src/smtc_real/src/smtc_real.c **** uint8_t smtc_real_adr_ack_delay_get( lr1_stack_mac_t* lr1_mac )
 587:lr1mac/src/smtc_real/src/smtc_real.c **** {
 1491              		.loc 1 587 1 is_stmt 1 view -0
 1492              		.cfi_startproc
 1493              		@ args = 0, pretend = 0, frame = 0
 1494              		@ frame_needed = 0, uses_anonymous_args = 0
 588:lr1mac/src/smtc_real/src/smtc_real.c ****     switch( lr1_mac->real->region_type )
 1495              		.loc 1 588 5 view .LVU359
 587:lr1mac/src/smtc_real/src/smtc_real.c ****     switch( lr1_mac->real->region_type )
 1496              		.loc 1 587 1 is_stmt 0 view .LVU360
 1497 0000 10B5     		push	{r4, lr}
 1498              		.cfi_def_cfa_offset 8
 1499              		.cfi_offset 4, -8
 1500              		.cfi_offset 14, -4
 1501              		.loc 1 588 26 view .LVU361
 1502 0002 0368     		ldr	r3, [r0]
 1503              		.loc 1 588 5 view .LVU362
 1504 0004 1B79     		ldrb	r3, [r3, #4]
 1505 0006 062B     		cmp	r3, #6
 1506 0008 02D1     		bne	.L98
 589:lr1mac/src/smtc_real/src/smtc_real.c ****     {
 590:lr1mac/src/smtc_real/src/smtc_real.c **** #if defined( REGION_WW2G4 )
 591:lr1mac/src/smtc_real/src/smtc_real.c ****     case SMTC_REAL_REGION_WW2G4: {
 592:lr1mac/src/smtc_real/src/smtc_real.c ****         return region_ww2g4_adr_ack_delay_get( );
 1507              		.loc 1 592 9 is_stmt 1 view .LVU363
ARM GAS  /var/folders/bq/yv49bw8j2kd6w3hsq868qv180000gn/T//ccRnzw9B.s 			page 41


 1508              		.loc 1 592 16 is_stmt 0 view .LVU364
 1509 000a FFF7FEFF 		bl	region_ww2g4_adr_ack_delay_get
 1510              	.LVL173:
 1511              	.L99:
 593:lr1mac/src/smtc_real/src/smtc_real.c ****     }
 594:lr1mac/src/smtc_real/src/smtc_real.c **** #endif
 595:lr1mac/src/smtc_real/src/smtc_real.c **** #if defined( REGION_EU_868 )
 596:lr1mac/src/smtc_real/src/smtc_real.c ****     case SMTC_REAL_REGION_EU_868: {
 597:lr1mac/src/smtc_real/src/smtc_real.c ****         return region_eu_868_adr_ack_delay_get( );
 598:lr1mac/src/smtc_real/src/smtc_real.c ****     }
 599:lr1mac/src/smtc_real/src/smtc_real.c **** #endif
 600:lr1mac/src/smtc_real/src/smtc_real.c **** #if defined( REGION_US_915 )
 601:lr1mac/src/smtc_real/src/smtc_real.c ****     case SMTC_REAL_REGION_US_915: {
 602:lr1mac/src/smtc_real/src/smtc_real.c ****         return region_us_915_adr_ack_delay_get( );
 603:lr1mac/src/smtc_real/src/smtc_real.c ****     }
 604:lr1mac/src/smtc_real/src/smtc_real.c **** #endif
 605:lr1mac/src/smtc_real/src/smtc_real.c ****     default:
 606:lr1mac/src/smtc_real/src/smtc_real.c ****         BSP_DBG_TRACE_ERROR( "%s unsupported\n", __func__ );
 607:lr1mac/src/smtc_real/src/smtc_real.c ****         bsp_mcu_handle_lr1mac_issue( );
 608:lr1mac/src/smtc_real/src/smtc_real.c ****         break;
 609:lr1mac/src/smtc_real/src/smtc_real.c ****     }
 610:lr1mac/src/smtc_real/src/smtc_real.c ****     return ERRORLORAWAN;  // never reach => avoid warning
 611:lr1mac/src/smtc_real/src/smtc_real.c **** }
 1512              		.loc 1 611 1 view .LVU365
 1513              		@ sp needed
 1514 000e 10BD     		pop	{r4, pc}
 1515              	.LVL174:
 1516              	.L98:
 606:lr1mac/src/smtc_real/src/smtc_real.c ****         bsp_mcu_handle_lr1mac_issue( );
 1517              		.loc 1 606 9 is_stmt 1 view .LVU366
 606:lr1mac/src/smtc_real/src/smtc_real.c ****         bsp_mcu_handle_lr1mac_issue( );
 1518              		.loc 1 606 9 view .LVU367
 1519 0010 0848     		ldr	r0, .L100
 1520              	.LVL175:
 606:lr1mac/src/smtc_real/src/smtc_real.c ****         bsp_mcu_handle_lr1mac_issue( );
 1521              		.loc 1 606 9 is_stmt 0 view .LVU368
 1522 0012 FFF7FEFF 		bl	bsp_trace_print
 1523              	.LVL176:
 606:lr1mac/src/smtc_real/src/smtc_real.c ****         bsp_mcu_handle_lr1mac_issue( );
 1524              		.loc 1 606 9 is_stmt 1 view .LVU369
 1525 0016 0848     		ldr	r0, .L100+4
 1526 0018 FFF7FEFF 		bl	bsp_trace_print
 1527              	.LVL177:
 606:lr1mac/src/smtc_real/src/smtc_real.c ****         bsp_mcu_handle_lr1mac_issue( );
 1528              		.loc 1 606 9 view .LVU370
 1529 001c 0749     		ldr	r1, .L100+8
 1530 001e 0848     		ldr	r0, .L100+12
 1531 0020 FFF7FEFF 		bl	bsp_trace_print
 1532              	.LVL178:
 606:lr1mac/src/smtc_real/src/smtc_real.c ****         bsp_mcu_handle_lr1mac_issue( );
 1533              		.loc 1 606 9 view .LVU371
 1534 0024 0748     		ldr	r0, .L100+16
 1535 0026 FFF7FEFF 		bl	bsp_trace_print
 1536              	.LVL179:
 606:lr1mac/src/smtc_real/src/smtc_real.c ****         bsp_mcu_handle_lr1mac_issue( );
 1537              		.loc 1 606 9 view .LVU372
 606:lr1mac/src/smtc_real/src/smtc_real.c ****         bsp_mcu_handle_lr1mac_issue( );
ARM GAS  /var/folders/bq/yv49bw8j2kd6w3hsq868qv180000gn/T//ccRnzw9B.s 			page 42


 1538              		.loc 1 606 60 view .LVU373
 607:lr1mac/src/smtc_real/src/smtc_real.c ****         break;
 1539              		.loc 1 607 9 view .LVU374
 1540 002a FFF7FEFF 		bl	bsp_mcu_handle_lr1mac_issue
 1541              	.LVL180:
 608:lr1mac/src/smtc_real/src/smtc_real.c ****     }
 1542              		.loc 1 608 9 view .LVU375
 610:lr1mac/src/smtc_real/src/smtc_real.c **** }
 1543              		.loc 1 610 5 view .LVU376
 610:lr1mac/src/smtc_real/src/smtc_real.c **** }
 1544              		.loc 1 610 12 is_stmt 0 view .LVU377
 1545 002e FF20     		movs	r0, #255
 1546 0030 EDE7     		b	.L99
 1547              	.L101:
 1548 0032 C046     		.align	2
 1549              	.L100:
 1550 0034 00000000 		.word	.LC0
 1551 0038 08000000 		.word	.LC2
 1552 003c 00000000 		.word	.LANCHOR19
 1553 0040 10000000 		.word	.LC5
 1554 0044 20000000 		.word	.LC7
 1555              		.cfi_endproc
 1556              	.LFE28:
 1558              		.section	.text.smtc_real_adr_ack_limit_get,"ax",%progbits
 1559              		.align	1
 1560              		.global	smtc_real_adr_ack_limit_get
 1561              		.syntax unified
 1562              		.code	16
 1563              		.thumb_func
 1564              		.fpu softvfp
 1566              	smtc_real_adr_ack_limit_get:
 1567              	.LVL181:
 1568              	.LFB29:
 612:lr1mac/src/smtc_real/src/smtc_real.c **** 
 613:lr1mac/src/smtc_real/src/smtc_real.c **** uint8_t smtc_real_adr_ack_limit_get( lr1_stack_mac_t* lr1_mac )
 614:lr1mac/src/smtc_real/src/smtc_real.c **** {
 1569              		.loc 1 614 1 is_stmt 1 view -0
 1570              		.cfi_startproc
 1571              		@ args = 0, pretend = 0, frame = 0
 1572              		@ frame_needed = 0, uses_anonymous_args = 0
 615:lr1mac/src/smtc_real/src/smtc_real.c ****     switch( lr1_mac->real->region_type )
 1573              		.loc 1 615 5 view .LVU379
 614:lr1mac/src/smtc_real/src/smtc_real.c ****     switch( lr1_mac->real->region_type )
 1574              		.loc 1 614 1 is_stmt 0 view .LVU380
 1575 0000 10B5     		push	{r4, lr}
 1576              		.cfi_def_cfa_offset 8
 1577              		.cfi_offset 4, -8
 1578              		.cfi_offset 14, -4
 1579              		.loc 1 615 26 view .LVU381
 1580 0002 0368     		ldr	r3, [r0]
 1581              		.loc 1 615 5 view .LVU382
 1582 0004 1B79     		ldrb	r3, [r3, #4]
 1583 0006 062B     		cmp	r3, #6
 1584 0008 02D1     		bne	.L103
 616:lr1mac/src/smtc_real/src/smtc_real.c ****     {
 617:lr1mac/src/smtc_real/src/smtc_real.c **** #if defined( REGION_WW2G4 )
 618:lr1mac/src/smtc_real/src/smtc_real.c ****     case SMTC_REAL_REGION_WW2G4: {
ARM GAS  /var/folders/bq/yv49bw8j2kd6w3hsq868qv180000gn/T//ccRnzw9B.s 			page 43


 619:lr1mac/src/smtc_real/src/smtc_real.c ****         return region_ww2g4_adr_ack_limit_get( );
 1585              		.loc 1 619 9 is_stmt 1 view .LVU383
 1586              		.loc 1 619 16 is_stmt 0 view .LVU384
 1587 000a FFF7FEFF 		bl	region_ww2g4_adr_ack_limit_get
 1588              	.LVL182:
 1589              	.L104:
 620:lr1mac/src/smtc_real/src/smtc_real.c ****     }
 621:lr1mac/src/smtc_real/src/smtc_real.c **** #endif
 622:lr1mac/src/smtc_real/src/smtc_real.c **** #if defined( REGION_EU_868 )
 623:lr1mac/src/smtc_real/src/smtc_real.c ****     case SMTC_REAL_REGION_EU_868: {
 624:lr1mac/src/smtc_real/src/smtc_real.c ****         return region_eu_868_adr_ack_limit_get( );
 625:lr1mac/src/smtc_real/src/smtc_real.c ****     }
 626:lr1mac/src/smtc_real/src/smtc_real.c **** #endif
 627:lr1mac/src/smtc_real/src/smtc_real.c **** #if defined( REGION_US_915 )
 628:lr1mac/src/smtc_real/src/smtc_real.c ****     case SMTC_REAL_REGION_US_915: {
 629:lr1mac/src/smtc_real/src/smtc_real.c ****         return region_us_915_adr_ack_limit_get( );
 630:lr1mac/src/smtc_real/src/smtc_real.c ****     }
 631:lr1mac/src/smtc_real/src/smtc_real.c **** #endif
 632:lr1mac/src/smtc_real/src/smtc_real.c ****     default:
 633:lr1mac/src/smtc_real/src/smtc_real.c ****         BSP_DBG_TRACE_ERROR( "%s unsupported\n", __func__ );
 634:lr1mac/src/smtc_real/src/smtc_real.c ****         bsp_mcu_handle_lr1mac_issue( );
 635:lr1mac/src/smtc_real/src/smtc_real.c ****         break;
 636:lr1mac/src/smtc_real/src/smtc_real.c ****     }
 637:lr1mac/src/smtc_real/src/smtc_real.c ****     return ERRORLORAWAN;  // never reach => avoid warning
 638:lr1mac/src/smtc_real/src/smtc_real.c **** }
 1590              		.loc 1 638 1 view .LVU385
 1591              		@ sp needed
 1592 000e 10BD     		pop	{r4, pc}
 1593              	.LVL183:
 1594              	.L103:
 633:lr1mac/src/smtc_real/src/smtc_real.c ****         bsp_mcu_handle_lr1mac_issue( );
 1595              		.loc 1 633 9 is_stmt 1 view .LVU386
 633:lr1mac/src/smtc_real/src/smtc_real.c ****         bsp_mcu_handle_lr1mac_issue( );
 1596              		.loc 1 633 9 view .LVU387
 1597 0010 0848     		ldr	r0, .L105
 1598              	.LVL184:
 633:lr1mac/src/smtc_real/src/smtc_real.c ****         bsp_mcu_handle_lr1mac_issue( );
 1599              		.loc 1 633 9 is_stmt 0 view .LVU388
 1600 0012 FFF7FEFF 		bl	bsp_trace_print
 1601              	.LVL185:
 633:lr1mac/src/smtc_real/src/smtc_real.c ****         bsp_mcu_handle_lr1mac_issue( );
 1602              		.loc 1 633 9 is_stmt 1 view .LVU389
 1603 0016 0848     		ldr	r0, .L105+4
 1604 0018 FFF7FEFF 		bl	bsp_trace_print
 1605              	.LVL186:
 633:lr1mac/src/smtc_real/src/smtc_real.c ****         bsp_mcu_handle_lr1mac_issue( );
 1606              		.loc 1 633 9 view .LVU390
 1607 001c 0749     		ldr	r1, .L105+8
 1608 001e 0848     		ldr	r0, .L105+12
 1609 0020 FFF7FEFF 		bl	bsp_trace_print
 1610              	.LVL187:
 633:lr1mac/src/smtc_real/src/smtc_real.c ****         bsp_mcu_handle_lr1mac_issue( );
 1611              		.loc 1 633 9 view .LVU391
 1612 0024 0748     		ldr	r0, .L105+16
 1613 0026 FFF7FEFF 		bl	bsp_trace_print
 1614              	.LVL188:
 633:lr1mac/src/smtc_real/src/smtc_real.c ****         bsp_mcu_handle_lr1mac_issue( );
ARM GAS  /var/folders/bq/yv49bw8j2kd6w3hsq868qv180000gn/T//ccRnzw9B.s 			page 44


 1615              		.loc 1 633 9 view .LVU392
 633:lr1mac/src/smtc_real/src/smtc_real.c ****         bsp_mcu_handle_lr1mac_issue( );
 1616              		.loc 1 633 60 view .LVU393
 634:lr1mac/src/smtc_real/src/smtc_real.c ****         break;
 1617              		.loc 1 634 9 view .LVU394
 1618 002a FFF7FEFF 		bl	bsp_mcu_handle_lr1mac_issue
 1619              	.LVL189:
 635:lr1mac/src/smtc_real/src/smtc_real.c ****     }
 1620              		.loc 1 635 9 view .LVU395
 637:lr1mac/src/smtc_real/src/smtc_real.c **** }
 1621              		.loc 1 637 5 view .LVU396
 637:lr1mac/src/smtc_real/src/smtc_real.c **** }
 1622              		.loc 1 637 12 is_stmt 0 view .LVU397
 1623 002e FF20     		movs	r0, #255
 1624 0030 EDE7     		b	.L104
 1625              	.L106:
 1626 0032 C046     		.align	2
 1627              	.L105:
 1628 0034 00000000 		.word	.LC0
 1629 0038 08000000 		.word	.LC2
 1630 003c 00000000 		.word	.LANCHOR20
 1631 0040 10000000 		.word	.LC5
 1632 0044 20000000 		.word	.LC7
 1633              		.cfi_endproc
 1634              	.LFE29:
 1636              		.section	.text.smtc_real_sync_word_get,"ax",%progbits
 1637              		.align	1
 1638              		.global	smtc_real_sync_word_get
 1639              		.syntax unified
 1640              		.code	16
 1641              		.thumb_func
 1642              		.fpu softvfp
 1644              	smtc_real_sync_word_get:
 1645              	.LVL190:
 1646              	.LFB30:
 639:lr1mac/src/smtc_real/src/smtc_real.c **** 
 640:lr1mac/src/smtc_real/src/smtc_real.c **** uint8_t smtc_real_sync_word_get( lr1_stack_mac_t* lr1_mac )
 641:lr1mac/src/smtc_real/src/smtc_real.c **** {
 1647              		.loc 1 641 1 is_stmt 1 view -0
 1648              		.cfi_startproc
 1649              		@ args = 0, pretend = 0, frame = 0
 1650              		@ frame_needed = 0, uses_anonymous_args = 0
 642:lr1mac/src/smtc_real/src/smtc_real.c ****     switch( lr1_mac->real->region_type )
 1651              		.loc 1 642 5 view .LVU399
 641:lr1mac/src/smtc_real/src/smtc_real.c ****     switch( lr1_mac->real->region_type )
 1652              		.loc 1 641 1 is_stmt 0 view .LVU400
 1653 0000 10B5     		push	{r4, lr}
 1654              		.cfi_def_cfa_offset 8
 1655              		.cfi_offset 4, -8
 1656              		.cfi_offset 14, -4
 1657              		.loc 1 642 26 view .LVU401
 1658 0002 0368     		ldr	r3, [r0]
 1659              		.loc 1 642 5 view .LVU402
 1660 0004 1B79     		ldrb	r3, [r3, #4]
 1661 0006 062B     		cmp	r3, #6
 1662 0008 02D1     		bne	.L108
 643:lr1mac/src/smtc_real/src/smtc_real.c ****     {
ARM GAS  /var/folders/bq/yv49bw8j2kd6w3hsq868qv180000gn/T//ccRnzw9B.s 			page 45


 644:lr1mac/src/smtc_real/src/smtc_real.c **** #if defined( REGION_WW2G4 )
 645:lr1mac/src/smtc_real/src/smtc_real.c ****     case SMTC_REAL_REGION_WW2G4: {
 646:lr1mac/src/smtc_real/src/smtc_real.c ****         return region_ww2g4_sync_word_get( );
 1663              		.loc 1 646 9 is_stmt 1 view .LVU403
 1664              		.loc 1 646 16 is_stmt 0 view .LVU404
 1665 000a FFF7FEFF 		bl	region_ww2g4_sync_word_get
 1666              	.LVL191:
 1667              	.L109:
 647:lr1mac/src/smtc_real/src/smtc_real.c ****     }
 648:lr1mac/src/smtc_real/src/smtc_real.c **** #endif
 649:lr1mac/src/smtc_real/src/smtc_real.c **** #if defined( REGION_EU_868 )
 650:lr1mac/src/smtc_real/src/smtc_real.c ****     case SMTC_REAL_REGION_EU_868: {
 651:lr1mac/src/smtc_real/src/smtc_real.c ****         return region_eu_868_sync_word_get( );
 652:lr1mac/src/smtc_real/src/smtc_real.c ****     }
 653:lr1mac/src/smtc_real/src/smtc_real.c **** #endif
 654:lr1mac/src/smtc_real/src/smtc_real.c **** #if defined( REGION_US_915 )
 655:lr1mac/src/smtc_real/src/smtc_real.c ****     case SMTC_REAL_REGION_US_915: {
 656:lr1mac/src/smtc_real/src/smtc_real.c ****         return region_us_915_sync_word_get( );
 657:lr1mac/src/smtc_real/src/smtc_real.c ****     }
 658:lr1mac/src/smtc_real/src/smtc_real.c **** #endif
 659:lr1mac/src/smtc_real/src/smtc_real.c ****     default:
 660:lr1mac/src/smtc_real/src/smtc_real.c ****         BSP_DBG_TRACE_ERROR( "%s unsupported\n", __func__ );
 661:lr1mac/src/smtc_real/src/smtc_real.c ****         bsp_mcu_handle_lr1mac_issue( );
 662:lr1mac/src/smtc_real/src/smtc_real.c ****         break;
 663:lr1mac/src/smtc_real/src/smtc_real.c ****     }
 664:lr1mac/src/smtc_real/src/smtc_real.c ****     return ERRORLORAWAN;  // never reach => avoid warning
 665:lr1mac/src/smtc_real/src/smtc_real.c **** }
 1668              		.loc 1 665 1 view .LVU405
 1669              		@ sp needed
 1670 000e 10BD     		pop	{r4, pc}
 1671              	.LVL192:
 1672              	.L108:
 660:lr1mac/src/smtc_real/src/smtc_real.c ****         bsp_mcu_handle_lr1mac_issue( );
 1673              		.loc 1 660 9 is_stmt 1 view .LVU406
 660:lr1mac/src/smtc_real/src/smtc_real.c ****         bsp_mcu_handle_lr1mac_issue( );
 1674              		.loc 1 660 9 view .LVU407
 1675 0010 0848     		ldr	r0, .L110
 1676              	.LVL193:
 660:lr1mac/src/smtc_real/src/smtc_real.c ****         bsp_mcu_handle_lr1mac_issue( );
 1677              		.loc 1 660 9 is_stmt 0 view .LVU408
 1678 0012 FFF7FEFF 		bl	bsp_trace_print
 1679              	.LVL194:
 660:lr1mac/src/smtc_real/src/smtc_real.c ****         bsp_mcu_handle_lr1mac_issue( );
 1680              		.loc 1 660 9 is_stmt 1 view .LVU409
 1681 0016 0848     		ldr	r0, .L110+4
 1682 0018 FFF7FEFF 		bl	bsp_trace_print
 1683              	.LVL195:
 660:lr1mac/src/smtc_real/src/smtc_real.c ****         bsp_mcu_handle_lr1mac_issue( );
 1684              		.loc 1 660 9 view .LVU410
 1685 001c 0749     		ldr	r1, .L110+8
 1686 001e 0848     		ldr	r0, .L110+12
 1687 0020 FFF7FEFF 		bl	bsp_trace_print
 1688              	.LVL196:
 660:lr1mac/src/smtc_real/src/smtc_real.c ****         bsp_mcu_handle_lr1mac_issue( );
 1689              		.loc 1 660 9 view .LVU411
 1690 0024 0748     		ldr	r0, .L110+16
 1691 0026 FFF7FEFF 		bl	bsp_trace_print
ARM GAS  /var/folders/bq/yv49bw8j2kd6w3hsq868qv180000gn/T//ccRnzw9B.s 			page 46


 1692              	.LVL197:
 660:lr1mac/src/smtc_real/src/smtc_real.c ****         bsp_mcu_handle_lr1mac_issue( );
 1693              		.loc 1 660 9 view .LVU412
 660:lr1mac/src/smtc_real/src/smtc_real.c ****         bsp_mcu_handle_lr1mac_issue( );
 1694              		.loc 1 660 60 view .LVU413
 661:lr1mac/src/smtc_real/src/smtc_real.c ****         break;
 1695              		.loc 1 661 9 view .LVU414
 1696 002a FFF7FEFF 		bl	bsp_mcu_handle_lr1mac_issue
 1697              	.LVL198:
 662:lr1mac/src/smtc_real/src/smtc_real.c ****     }
 1698              		.loc 1 662 9 view .LVU415
 664:lr1mac/src/smtc_real/src/smtc_real.c **** }
 1699              		.loc 1 664 5 view .LVU416
 664:lr1mac/src/smtc_real/src/smtc_real.c **** }
 1700              		.loc 1 664 12 is_stmt 0 view .LVU417
 1701 002e FF20     		movs	r0, #255
 1702 0030 EDE7     		b	.L109
 1703              	.L111:
 1704 0032 C046     		.align	2
 1705              	.L110:
 1706 0034 00000000 		.word	.LC0
 1707 0038 08000000 		.word	.LC2
 1708 003c 00000000 		.word	.LANCHOR21
 1709 0040 10000000 		.word	.LC5
 1710 0044 20000000 		.word	.LC7
 1711              		.cfi_endproc
 1712              	.LFE30:
 1714              		.section	.text.smtc_real_gfsk_sync_word_get,"ax",%progbits
 1715              		.align	1
 1716              		.global	smtc_real_gfsk_sync_word_get
 1717              		.syntax unified
 1718              		.code	16
 1719              		.thumb_func
 1720              		.fpu softvfp
 1722              	smtc_real_gfsk_sync_word_get:
 1723              	.LVL199:
 1724              	.LFB31:
 666:lr1mac/src/smtc_real/src/smtc_real.c **** 
 667:lr1mac/src/smtc_real/src/smtc_real.c **** uint8_t* smtc_real_gfsk_sync_word_get( lr1_stack_mac_t* lr1_mac )
 668:lr1mac/src/smtc_real/src/smtc_real.c **** {
 1725              		.loc 1 668 1 is_stmt 1 view -0
 1726              		.cfi_startproc
 1727              		@ args = 0, pretend = 0, frame = 0
 1728              		@ frame_needed = 0, uses_anonymous_args = 0
 669:lr1mac/src/smtc_real/src/smtc_real.c ****     switch( lr1_mac->real->region_type )
 1729              		.loc 1 669 5 view .LVU419
 670:lr1mac/src/smtc_real/src/smtc_real.c ****     {
 671:lr1mac/src/smtc_real/src/smtc_real.c **** #if defined( REGION_EU_868 )
 672:lr1mac/src/smtc_real/src/smtc_real.c ****     case SMTC_REAL_REGION_EU_868: {
 673:lr1mac/src/smtc_real/src/smtc_real.c ****         return region_eu_868_gfsk_sync_word_get( );
 674:lr1mac/src/smtc_real/src/smtc_real.c ****     }
 675:lr1mac/src/smtc_real/src/smtc_real.c **** #endif
 676:lr1mac/src/smtc_real/src/smtc_real.c ****     default:
 677:lr1mac/src/smtc_real/src/smtc_real.c ****         BSP_DBG_TRACE_ERROR( "%s unsupported\n", __func__ );
 1730              		.loc 1 677 9 view .LVU420
 1731              		.loc 1 677 9 view .LVU421
 668:lr1mac/src/smtc_real/src/smtc_real.c ****     switch( lr1_mac->real->region_type )
ARM GAS  /var/folders/bq/yv49bw8j2kd6w3hsq868qv180000gn/T//ccRnzw9B.s 			page 47


 1732              		.loc 1 668 1 is_stmt 0 view .LVU422
 1733 0000 10B5     		push	{r4, lr}
 1734              		.cfi_def_cfa_offset 8
 1735              		.cfi_offset 4, -8
 1736              		.cfi_offset 14, -4
 1737              		.loc 1 677 9 view .LVU423
 1738 0002 0848     		ldr	r0, .L113
 1739              	.LVL200:
 1740              		.loc 1 677 9 view .LVU424
 1741 0004 FFF7FEFF 		bl	bsp_trace_print
 1742              	.LVL201:
 1743              		.loc 1 677 9 is_stmt 1 view .LVU425
 1744 0008 0748     		ldr	r0, .L113+4
 1745 000a FFF7FEFF 		bl	bsp_trace_print
 1746              	.LVL202:
 1747              		.loc 1 677 9 view .LVU426
 1748 000e 0749     		ldr	r1, .L113+8
 1749 0010 0748     		ldr	r0, .L113+12
 1750 0012 FFF7FEFF 		bl	bsp_trace_print
 1751              	.LVL203:
 1752              		.loc 1 677 9 view .LVU427
 1753 0016 0748     		ldr	r0, .L113+16
 1754 0018 FFF7FEFF 		bl	bsp_trace_print
 1755              	.LVL204:
 1756              		.loc 1 677 9 view .LVU428
 1757              		.loc 1 677 60 view .LVU429
 678:lr1mac/src/smtc_real/src/smtc_real.c ****         bsp_mcu_handle_lr1mac_issue( );
 1758              		.loc 1 678 9 view .LVU430
 679:lr1mac/src/smtc_real/src/smtc_real.c ****         break;
 680:lr1mac/src/smtc_real/src/smtc_real.c ****     }
 681:lr1mac/src/smtc_real/src/smtc_real.c ****     return 0;  // never reach => avoid warning
 682:lr1mac/src/smtc_real/src/smtc_real.c **** }
 1759              		.loc 1 682 1 is_stmt 0 view .LVU431
 1760              		@ sp needed
 678:lr1mac/src/smtc_real/src/smtc_real.c ****         bsp_mcu_handle_lr1mac_issue( );
 1761              		.loc 1 678 9 view .LVU432
 1762 001c FFF7FEFF 		bl	bsp_mcu_handle_lr1mac_issue
 1763              	.LVL205:
 679:lr1mac/src/smtc_real/src/smtc_real.c ****         break;
 1764              		.loc 1 679 9 is_stmt 1 view .LVU433
 681:lr1mac/src/smtc_real/src/smtc_real.c **** }
 1765              		.loc 1 681 5 view .LVU434
 1766              		.loc 1 682 1 is_stmt 0 view .LVU435
 1767 0020 0020     		movs	r0, #0
 1768 0022 10BD     		pop	{r4, pc}
 1769              	.L114:
 1770              		.align	2
 1771              	.L113:
 1772 0024 00000000 		.word	.LC0
 1773 0028 08000000 		.word	.LC2
 1774 002c 00000000 		.word	.LANCHOR22
 1775 0030 10000000 		.word	.LC5
 1776 0034 20000000 		.word	.LC7
 1777              		.cfi_endproc
 1778              	.LFE31:
 1780              		.section	.text.smtc_real_is_valid_rx1_dr_offset,"ax",%progbits
 1781              		.align	1
ARM GAS  /var/folders/bq/yv49bw8j2kd6w3hsq868qv180000gn/T//ccRnzw9B.s 			page 48


 1782              		.global	smtc_real_is_valid_rx1_dr_offset
 1783              		.syntax unified
 1784              		.code	16
 1785              		.thumb_func
 1786              		.fpu softvfp
 1788              	smtc_real_is_valid_rx1_dr_offset:
 1789              	.LVL206:
 1790              	.LFB32:
 683:lr1mac/src/smtc_real/src/smtc_real.c **** 
 684:lr1mac/src/smtc_real/src/smtc_real.c **** status_lorawan_t smtc_real_is_valid_rx1_dr_offset( lr1_stack_mac_t* lr1_mac, uint8_t rx1_dr_offset 
 685:lr1mac/src/smtc_real/src/smtc_real.c **** {
 1791              		.loc 1 685 1 is_stmt 1 view -0
 1792              		.cfi_startproc
 1793              		@ args = 0, pretend = 0, frame = 0
 1794              		@ frame_needed = 0, uses_anonymous_args = 0
 686:lr1mac/src/smtc_real/src/smtc_real.c ****     switch( lr1_mac->real->region_type )
 1795              		.loc 1 686 5 view .LVU437
 685:lr1mac/src/smtc_real/src/smtc_real.c ****     switch( lr1_mac->real->region_type )
 1796              		.loc 1 685 1 is_stmt 0 view .LVU438
 1797 0000 10B5     		push	{r4, lr}
 1798              		.cfi_def_cfa_offset 8
 1799              		.cfi_offset 4, -8
 1800              		.cfi_offset 14, -4
 1801              		.loc 1 686 26 view .LVU439
 1802 0002 0368     		ldr	r3, [r0]
 1803              		.loc 1 686 5 view .LVU440
 1804 0004 1B79     		ldrb	r3, [r3, #4]
 1805 0006 062B     		cmp	r3, #6
 1806 0008 03D1     		bne	.L116
 687:lr1mac/src/smtc_real/src/smtc_real.c ****     {
 688:lr1mac/src/smtc_real/src/smtc_real.c **** #if defined( REGION_WW2G4 )
 689:lr1mac/src/smtc_real/src/smtc_real.c ****     case SMTC_REAL_REGION_WW2G4: {
 690:lr1mac/src/smtc_real/src/smtc_real.c ****         return region_ww2g4_is_valid_rx1_dr_offset( rx1_dr_offset );
 1807              		.loc 1 690 9 is_stmt 1 view .LVU441
 1808              		.loc 1 690 16 is_stmt 0 view .LVU442
 1809 000a 0800     		movs	r0, r1
 1810              	.LVL207:
 1811              		.loc 1 690 16 view .LVU443
 1812 000c FFF7FEFF 		bl	region_ww2g4_is_valid_rx1_dr_offset
 1813              	.LVL208:
 1814              	.L117:
 691:lr1mac/src/smtc_real/src/smtc_real.c ****     }
 692:lr1mac/src/smtc_real/src/smtc_real.c **** #endif
 693:lr1mac/src/smtc_real/src/smtc_real.c **** #if defined( REGION_EU_868 )
 694:lr1mac/src/smtc_real/src/smtc_real.c ****     case SMTC_REAL_REGION_EU_868: {
 695:lr1mac/src/smtc_real/src/smtc_real.c ****         return region_eu_868_is_valid_rx1_dr_offset( rx1_dr_offset );
 696:lr1mac/src/smtc_real/src/smtc_real.c ****     }
 697:lr1mac/src/smtc_real/src/smtc_real.c **** #endif
 698:lr1mac/src/smtc_real/src/smtc_real.c **** #if defined( REGION_US_915 )
 699:lr1mac/src/smtc_real/src/smtc_real.c ****     case SMTC_REAL_REGION_US_915: {
 700:lr1mac/src/smtc_real/src/smtc_real.c ****         return region_us_915_is_valid_rx1_dr_offset( rx1_dr_offset );
 701:lr1mac/src/smtc_real/src/smtc_real.c ****     }
 702:lr1mac/src/smtc_real/src/smtc_real.c **** #endif
 703:lr1mac/src/smtc_real/src/smtc_real.c ****     default:
 704:lr1mac/src/smtc_real/src/smtc_real.c ****         BSP_DBG_TRACE_ERROR( "%s unsupported\n", __func__ );
 705:lr1mac/src/smtc_real/src/smtc_real.c ****         bsp_mcu_handle_lr1mac_issue( );
 706:lr1mac/src/smtc_real/src/smtc_real.c ****         break;
ARM GAS  /var/folders/bq/yv49bw8j2kd6w3hsq868qv180000gn/T//ccRnzw9B.s 			page 49


 707:lr1mac/src/smtc_real/src/smtc_real.c ****     }
 708:lr1mac/src/smtc_real/src/smtc_real.c ****     return ERRORLORAWAN;  // never reach => avoid warning
 709:lr1mac/src/smtc_real/src/smtc_real.c **** }
 1815              		.loc 1 709 1 view .LVU444
 1816              		@ sp needed
 1817 0010 10BD     		pop	{r4, pc}
 1818              	.LVL209:
 1819              	.L116:
 704:lr1mac/src/smtc_real/src/smtc_real.c ****         bsp_mcu_handle_lr1mac_issue( );
 1820              		.loc 1 704 9 is_stmt 1 view .LVU445
 704:lr1mac/src/smtc_real/src/smtc_real.c ****         bsp_mcu_handle_lr1mac_issue( );
 1821              		.loc 1 704 9 view .LVU446
 1822 0012 0948     		ldr	r0, .L118
 1823              	.LVL210:
 704:lr1mac/src/smtc_real/src/smtc_real.c ****         bsp_mcu_handle_lr1mac_issue( );
 1824              		.loc 1 704 9 is_stmt 0 view .LVU447
 1825 0014 FFF7FEFF 		bl	bsp_trace_print
 1826              	.LVL211:
 704:lr1mac/src/smtc_real/src/smtc_real.c ****         bsp_mcu_handle_lr1mac_issue( );
 1827              		.loc 1 704 9 is_stmt 1 view .LVU448
 1828 0018 0848     		ldr	r0, .L118+4
 1829 001a FFF7FEFF 		bl	bsp_trace_print
 1830              	.LVL212:
 704:lr1mac/src/smtc_real/src/smtc_real.c ****         bsp_mcu_handle_lr1mac_issue( );
 1831              		.loc 1 704 9 view .LVU449
 1832 001e 0849     		ldr	r1, .L118+8
 1833 0020 0848     		ldr	r0, .L118+12
 1834 0022 FFF7FEFF 		bl	bsp_trace_print
 1835              	.LVL213:
 704:lr1mac/src/smtc_real/src/smtc_real.c ****         bsp_mcu_handle_lr1mac_issue( );
 1836              		.loc 1 704 9 view .LVU450
 1837 0026 0848     		ldr	r0, .L118+16
 1838 0028 FFF7FEFF 		bl	bsp_trace_print
 1839              	.LVL214:
 704:lr1mac/src/smtc_real/src/smtc_real.c ****         bsp_mcu_handle_lr1mac_issue( );
 1840              		.loc 1 704 9 view .LVU451
 704:lr1mac/src/smtc_real/src/smtc_real.c ****         bsp_mcu_handle_lr1mac_issue( );
 1841              		.loc 1 704 60 view .LVU452
 705:lr1mac/src/smtc_real/src/smtc_real.c ****         break;
 1842              		.loc 1 705 9 view .LVU453
 1843 002c FFF7FEFF 		bl	bsp_mcu_handle_lr1mac_issue
 1844              	.LVL215:
 706:lr1mac/src/smtc_real/src/smtc_real.c ****     }
 1845              		.loc 1 706 9 view .LVU454
 708:lr1mac/src/smtc_real/src/smtc_real.c **** }
 1846              		.loc 1 708 5 view .LVU455
 708:lr1mac/src/smtc_real/src/smtc_real.c **** }
 1847              		.loc 1 708 12 is_stmt 0 view .LVU456
 1848 0030 0120     		movs	r0, #1
 1849 0032 4042     		rsbs	r0, r0, #0
 1850 0034 ECE7     		b	.L117
 1851              	.L119:
 1852 0036 C046     		.align	2
 1853              	.L118:
 1854 0038 00000000 		.word	.LC0
 1855 003c 08000000 		.word	.LC2
 1856 0040 00000000 		.word	.LANCHOR23
ARM GAS  /var/folders/bq/yv49bw8j2kd6w3hsq868qv180000gn/T//ccRnzw9B.s 			page 50


 1857 0044 10000000 		.word	.LC5
 1858 0048 20000000 		.word	.LC7
 1859              		.cfi_endproc
 1860              	.LFE32:
 1862              		.section	.text.smtc_real_is_valid_dr,"ax",%progbits
 1863              		.align	1
 1864              		.global	smtc_real_is_valid_dr
 1865              		.syntax unified
 1866              		.code	16
 1867              		.thumb_func
 1868              		.fpu softvfp
 1870              	smtc_real_is_valid_dr:
 1871              	.LVL216:
 1872              	.LFB33:
 710:lr1mac/src/smtc_real/src/smtc_real.c **** 
 711:lr1mac/src/smtc_real/src/smtc_real.c **** status_lorawan_t smtc_real_is_valid_dr( lr1_stack_mac_t* lr1_mac, uint8_t dr )
 712:lr1mac/src/smtc_real/src/smtc_real.c **** {
 1873              		.loc 1 712 1 is_stmt 1 view -0
 1874              		.cfi_startproc
 1875              		@ args = 0, pretend = 0, frame = 0
 1876              		@ frame_needed = 0, uses_anonymous_args = 0
 713:lr1mac/src/smtc_real/src/smtc_real.c ****     switch( lr1_mac->real->region_type )
 1877              		.loc 1 713 5 view .LVU458
 712:lr1mac/src/smtc_real/src/smtc_real.c ****     switch( lr1_mac->real->region_type )
 1878              		.loc 1 712 1 is_stmt 0 view .LVU459
 1879 0000 10B5     		push	{r4, lr}
 1880              		.cfi_def_cfa_offset 8
 1881              		.cfi_offset 4, -8
 1882              		.cfi_offset 14, -4
 1883              		.loc 1 713 26 view .LVU460
 1884 0002 0368     		ldr	r3, [r0]
 1885              		.loc 1 713 5 view .LVU461
 1886 0004 1B79     		ldrb	r3, [r3, #4]
 1887 0006 062B     		cmp	r3, #6
 1888 0008 03D1     		bne	.L121
 714:lr1mac/src/smtc_real/src/smtc_real.c ****     {
 715:lr1mac/src/smtc_real/src/smtc_real.c **** #if defined( REGION_WW2G4 )
 716:lr1mac/src/smtc_real/src/smtc_real.c ****     case SMTC_REAL_REGION_WW2G4: {
 717:lr1mac/src/smtc_real/src/smtc_real.c ****         return region_ww2g4_is_valid_dr( dr );
 1889              		.loc 1 717 9 is_stmt 1 view .LVU462
 1890              		.loc 1 717 16 is_stmt 0 view .LVU463
 1891 000a 0800     		movs	r0, r1
 1892              	.LVL217:
 1893              		.loc 1 717 16 view .LVU464
 1894 000c FFF7FEFF 		bl	region_ww2g4_is_valid_dr
 1895              	.LVL218:
 1896              	.L122:
 718:lr1mac/src/smtc_real/src/smtc_real.c ****     }
 719:lr1mac/src/smtc_real/src/smtc_real.c **** #endif
 720:lr1mac/src/smtc_real/src/smtc_real.c **** #if defined( REGION_EU_868 )
 721:lr1mac/src/smtc_real/src/smtc_real.c ****     case SMTC_REAL_REGION_EU_868: {
 722:lr1mac/src/smtc_real/src/smtc_real.c ****         return region_eu_868_is_valid_dr( dr );
 723:lr1mac/src/smtc_real/src/smtc_real.c ****     }
 724:lr1mac/src/smtc_real/src/smtc_real.c **** #endif
 725:lr1mac/src/smtc_real/src/smtc_real.c **** #if defined( REGION_US_915 )
 726:lr1mac/src/smtc_real/src/smtc_real.c ****     case SMTC_REAL_REGION_US_915: {
 727:lr1mac/src/smtc_real/src/smtc_real.c ****         return region_us_915_is_valid_dr( dr );
ARM GAS  /var/folders/bq/yv49bw8j2kd6w3hsq868qv180000gn/T//ccRnzw9B.s 			page 51


 728:lr1mac/src/smtc_real/src/smtc_real.c ****     }
 729:lr1mac/src/smtc_real/src/smtc_real.c **** #endif
 730:lr1mac/src/smtc_real/src/smtc_real.c ****     default:
 731:lr1mac/src/smtc_real/src/smtc_real.c ****         BSP_DBG_TRACE_ERROR( "%s unsupported\n", __func__ );
 732:lr1mac/src/smtc_real/src/smtc_real.c ****         bsp_mcu_handle_lr1mac_issue( );
 733:lr1mac/src/smtc_real/src/smtc_real.c ****         break;
 734:lr1mac/src/smtc_real/src/smtc_real.c ****     }
 735:lr1mac/src/smtc_real/src/smtc_real.c ****     return ERRORLORAWAN;  // never reach => avoid warning
 736:lr1mac/src/smtc_real/src/smtc_real.c **** }
 1897              		.loc 1 736 1 view .LVU465
 1898              		@ sp needed
 1899 0010 10BD     		pop	{r4, pc}
 1900              	.LVL219:
 1901              	.L121:
 731:lr1mac/src/smtc_real/src/smtc_real.c ****         bsp_mcu_handle_lr1mac_issue( );
 1902              		.loc 1 731 9 is_stmt 1 view .LVU466
 731:lr1mac/src/smtc_real/src/smtc_real.c ****         bsp_mcu_handle_lr1mac_issue( );
 1903              		.loc 1 731 9 view .LVU467
 1904 0012 0948     		ldr	r0, .L123
 1905              	.LVL220:
 731:lr1mac/src/smtc_real/src/smtc_real.c ****         bsp_mcu_handle_lr1mac_issue( );
 1906              		.loc 1 731 9 is_stmt 0 view .LVU468
 1907 0014 FFF7FEFF 		bl	bsp_trace_print
 1908              	.LVL221:
 731:lr1mac/src/smtc_real/src/smtc_real.c ****         bsp_mcu_handle_lr1mac_issue( );
 1909              		.loc 1 731 9 is_stmt 1 view .LVU469
 1910 0018 0848     		ldr	r0, .L123+4
 1911 001a FFF7FEFF 		bl	bsp_trace_print
 1912              	.LVL222:
 731:lr1mac/src/smtc_real/src/smtc_real.c ****         bsp_mcu_handle_lr1mac_issue( );
 1913              		.loc 1 731 9 view .LVU470
 1914 001e 0849     		ldr	r1, .L123+8
 1915 0020 0848     		ldr	r0, .L123+12
 1916 0022 FFF7FEFF 		bl	bsp_trace_print
 1917              	.LVL223:
 731:lr1mac/src/smtc_real/src/smtc_real.c ****         bsp_mcu_handle_lr1mac_issue( );
 1918              		.loc 1 731 9 view .LVU471
 1919 0026 0848     		ldr	r0, .L123+16
 1920 0028 FFF7FEFF 		bl	bsp_trace_print
 1921              	.LVL224:
 731:lr1mac/src/smtc_real/src/smtc_real.c ****         bsp_mcu_handle_lr1mac_issue( );
 1922              		.loc 1 731 9 view .LVU472
 731:lr1mac/src/smtc_real/src/smtc_real.c ****         bsp_mcu_handle_lr1mac_issue( );
 1923              		.loc 1 731 60 view .LVU473
 732:lr1mac/src/smtc_real/src/smtc_real.c ****         break;
 1924              		.loc 1 732 9 view .LVU474
 1925 002c FFF7FEFF 		bl	bsp_mcu_handle_lr1mac_issue
 1926              	.LVL225:
 733:lr1mac/src/smtc_real/src/smtc_real.c ****     }
 1927              		.loc 1 733 9 view .LVU475
 735:lr1mac/src/smtc_real/src/smtc_real.c **** }
 1928              		.loc 1 735 5 view .LVU476
 735:lr1mac/src/smtc_real/src/smtc_real.c **** }
 1929              		.loc 1 735 12 is_stmt 0 view .LVU477
 1930 0030 0120     		movs	r0, #1
 1931 0032 4042     		rsbs	r0, r0, #0
 1932 0034 ECE7     		b	.L122
ARM GAS  /var/folders/bq/yv49bw8j2kd6w3hsq868qv180000gn/T//ccRnzw9B.s 			page 52


 1933              	.L124:
 1934 0036 C046     		.align	2
 1935              	.L123:
 1936 0038 00000000 		.word	.LC0
 1937 003c 08000000 		.word	.LC2
 1938 0040 00000000 		.word	.LANCHOR24
 1939 0044 10000000 		.word	.LC5
 1940 0048 20000000 		.word	.LC7
 1941              		.cfi_endproc
 1942              	.LFE33:
 1944              		.section	.text.smtc_real_is_acceptable_dr,"ax",%progbits
 1945              		.align	1
 1946              		.global	smtc_real_is_acceptable_dr
 1947              		.syntax unified
 1948              		.code	16
 1949              		.thumb_func
 1950              		.fpu softvfp
 1952              	smtc_real_is_acceptable_dr:
 1953              	.LVL226:
 1954              	.LFB34:
 737:lr1mac/src/smtc_real/src/smtc_real.c **** 
 738:lr1mac/src/smtc_real/src/smtc_real.c **** status_lorawan_t smtc_real_is_acceptable_dr( lr1_stack_mac_t* lr1_mac, uint8_t dr )
 739:lr1mac/src/smtc_real/src/smtc_real.c **** {
 1955              		.loc 1 739 1 is_stmt 1 view -0
 1956              		.cfi_startproc
 1957              		@ args = 0, pretend = 0, frame = 0
 1958              		@ frame_needed = 0, uses_anonymous_args = 0
 740:lr1mac/src/smtc_real/src/smtc_real.c ****     switch( lr1_mac->real->region_type )
 1959              		.loc 1 740 5 view .LVU479
 739:lr1mac/src/smtc_real/src/smtc_real.c ****     switch( lr1_mac->real->region_type )
 1960              		.loc 1 739 1 is_stmt 0 view .LVU480
 1961 0000 10B5     		push	{r4, lr}
 1962              		.cfi_def_cfa_offset 8
 1963              		.cfi_offset 4, -8
 1964              		.cfi_offset 14, -4
 1965              		.loc 1 740 26 view .LVU481
 1966 0002 0368     		ldr	r3, [r0]
 1967              		.loc 1 740 5 view .LVU482
 1968 0004 1B79     		ldrb	r3, [r3, #4]
 1969 0006 062B     		cmp	r3, #6
 1970 0008 03D1     		bne	.L126
 741:lr1mac/src/smtc_real/src/smtc_real.c ****     {
 742:lr1mac/src/smtc_real/src/smtc_real.c **** #if defined( REGION_WW2G4 )
 743:lr1mac/src/smtc_real/src/smtc_real.c ****     case SMTC_REAL_REGION_WW2G4: {
 744:lr1mac/src/smtc_real/src/smtc_real.c ****         return region_ww2g4_is_acceptable_dr( dr );
 1971              		.loc 1 744 9 is_stmt 1 view .LVU483
 1972              		.loc 1 744 16 is_stmt 0 view .LVU484
 1973 000a 0800     		movs	r0, r1
 1974              	.LVL227:
 1975              		.loc 1 744 16 view .LVU485
 1976 000c FFF7FEFF 		bl	region_ww2g4_is_acceptable_dr
 1977              	.LVL228:
 1978              	.L127:
 745:lr1mac/src/smtc_real/src/smtc_real.c ****     }
 746:lr1mac/src/smtc_real/src/smtc_real.c **** #endif
 747:lr1mac/src/smtc_real/src/smtc_real.c **** #if defined( REGION_EU_868 )
 748:lr1mac/src/smtc_real/src/smtc_real.c ****     case SMTC_REAL_REGION_EU_868: {
ARM GAS  /var/folders/bq/yv49bw8j2kd6w3hsq868qv180000gn/T//ccRnzw9B.s 			page 53


 749:lr1mac/src/smtc_real/src/smtc_real.c ****         return region_eu_868_is_acceptable_dr( dr );
 750:lr1mac/src/smtc_real/src/smtc_real.c ****     }
 751:lr1mac/src/smtc_real/src/smtc_real.c **** #endif
 752:lr1mac/src/smtc_real/src/smtc_real.c **** #if defined( REGION_US_915 )
 753:lr1mac/src/smtc_real/src/smtc_real.c ****     case SMTC_REAL_REGION_US_915: {
 754:lr1mac/src/smtc_real/src/smtc_real.c ****         return region_us_915_is_acceptable_dr( dr );
 755:lr1mac/src/smtc_real/src/smtc_real.c ****     }
 756:lr1mac/src/smtc_real/src/smtc_real.c **** #endif
 757:lr1mac/src/smtc_real/src/smtc_real.c ****     default:
 758:lr1mac/src/smtc_real/src/smtc_real.c ****         BSP_DBG_TRACE_ERROR( "%s unsupported\n", __func__ );
 759:lr1mac/src/smtc_real/src/smtc_real.c ****         bsp_mcu_handle_lr1mac_issue( );
 760:lr1mac/src/smtc_real/src/smtc_real.c ****         break;
 761:lr1mac/src/smtc_real/src/smtc_real.c ****     }
 762:lr1mac/src/smtc_real/src/smtc_real.c ****     return ERRORLORAWAN;  // never reach => avoid warning
 763:lr1mac/src/smtc_real/src/smtc_real.c **** }
 1979              		.loc 1 763 1 view .LVU486
 1980              		@ sp needed
 1981 0010 10BD     		pop	{r4, pc}
 1982              	.LVL229:
 1983              	.L126:
 758:lr1mac/src/smtc_real/src/smtc_real.c ****         bsp_mcu_handle_lr1mac_issue( );
 1984              		.loc 1 758 9 is_stmt 1 view .LVU487
 758:lr1mac/src/smtc_real/src/smtc_real.c ****         bsp_mcu_handle_lr1mac_issue( );
 1985              		.loc 1 758 9 view .LVU488
 1986 0012 0948     		ldr	r0, .L128
 1987              	.LVL230:
 758:lr1mac/src/smtc_real/src/smtc_real.c ****         bsp_mcu_handle_lr1mac_issue( );
 1988              		.loc 1 758 9 is_stmt 0 view .LVU489
 1989 0014 FFF7FEFF 		bl	bsp_trace_print
 1990              	.LVL231:
 758:lr1mac/src/smtc_real/src/smtc_real.c ****         bsp_mcu_handle_lr1mac_issue( );
 1991              		.loc 1 758 9 is_stmt 1 view .LVU490
 1992 0018 0848     		ldr	r0, .L128+4
 1993 001a FFF7FEFF 		bl	bsp_trace_print
 1994              	.LVL232:
 758:lr1mac/src/smtc_real/src/smtc_real.c ****         bsp_mcu_handle_lr1mac_issue( );
 1995              		.loc 1 758 9 view .LVU491
 1996 001e 0849     		ldr	r1, .L128+8
 1997 0020 0848     		ldr	r0, .L128+12
 1998 0022 FFF7FEFF 		bl	bsp_trace_print
 1999              	.LVL233:
 758:lr1mac/src/smtc_real/src/smtc_real.c ****         bsp_mcu_handle_lr1mac_issue( );
 2000              		.loc 1 758 9 view .LVU492
 2001 0026 0848     		ldr	r0, .L128+16
 2002 0028 FFF7FEFF 		bl	bsp_trace_print
 2003              	.LVL234:
 758:lr1mac/src/smtc_real/src/smtc_real.c ****         bsp_mcu_handle_lr1mac_issue( );
 2004              		.loc 1 758 9 view .LVU493
 758:lr1mac/src/smtc_real/src/smtc_real.c ****         bsp_mcu_handle_lr1mac_issue( );
 2005              		.loc 1 758 60 view .LVU494
 759:lr1mac/src/smtc_real/src/smtc_real.c ****         break;
 2006              		.loc 1 759 9 view .LVU495
 2007 002c FFF7FEFF 		bl	bsp_mcu_handle_lr1mac_issue
 2008              	.LVL235:
 760:lr1mac/src/smtc_real/src/smtc_real.c ****     }
 2009              		.loc 1 760 9 view .LVU496
 762:lr1mac/src/smtc_real/src/smtc_real.c **** }
ARM GAS  /var/folders/bq/yv49bw8j2kd6w3hsq868qv180000gn/T//ccRnzw9B.s 			page 54


 2010              		.loc 1 762 5 view .LVU497
 762:lr1mac/src/smtc_real/src/smtc_real.c **** }
 2011              		.loc 1 762 12 is_stmt 0 view .LVU498
 2012 0030 0120     		movs	r0, #1
 2013 0032 4042     		rsbs	r0, r0, #0
 2014 0034 ECE7     		b	.L127
 2015              	.L129:
 2016 0036 C046     		.align	2
 2017              	.L128:
 2018 0038 00000000 		.word	.LC0
 2019 003c 08000000 		.word	.LC2
 2020 0040 00000000 		.word	.LANCHOR25
 2021 0044 10000000 		.word	.LC5
 2022 0048 20000000 		.word	.LC7
 2023              		.cfi_endproc
 2024              	.LFE34:
 2026              		.section	.text.smtc_real_is_valid_tx_frequency,"ax",%progbits
 2027              		.align	1
 2028              		.global	smtc_real_is_valid_tx_frequency
 2029              		.syntax unified
 2030              		.code	16
 2031              		.thumb_func
 2032              		.fpu softvfp
 2034              	smtc_real_is_valid_tx_frequency:
 2035              	.LVL236:
 2036              	.LFB35:
 764:lr1mac/src/smtc_real/src/smtc_real.c **** 
 765:lr1mac/src/smtc_real/src/smtc_real.c **** status_lorawan_t smtc_real_is_valid_tx_frequency( lr1_stack_mac_t* lr1_mac, uint32_t frequency )
 766:lr1mac/src/smtc_real/src/smtc_real.c **** {
 2037              		.loc 1 766 1 is_stmt 1 view -0
 2038              		.cfi_startproc
 2039              		@ args = 0, pretend = 0, frame = 0
 2040              		@ frame_needed = 0, uses_anonymous_args = 0
 767:lr1mac/src/smtc_real/src/smtc_real.c ****     switch( lr1_mac->real->region_type )
 2041              		.loc 1 767 5 view .LVU500
 766:lr1mac/src/smtc_real/src/smtc_real.c ****     switch( lr1_mac->real->region_type )
 2042              		.loc 1 766 1 is_stmt 0 view .LVU501
 2043 0000 10B5     		push	{r4, lr}
 2044              		.cfi_def_cfa_offset 8
 2045              		.cfi_offset 4, -8
 2046              		.cfi_offset 14, -4
 2047              		.loc 1 767 26 view .LVU502
 2048 0002 0368     		ldr	r3, [r0]
 2049              		.loc 1 767 5 view .LVU503
 2050 0004 1B79     		ldrb	r3, [r3, #4]
 2051 0006 062B     		cmp	r3, #6
 2052 0008 03D1     		bne	.L131
 768:lr1mac/src/smtc_real/src/smtc_real.c ****     {
 769:lr1mac/src/smtc_real/src/smtc_real.c **** #if defined( REGION_WW2G4 )
 770:lr1mac/src/smtc_real/src/smtc_real.c ****     case SMTC_REAL_REGION_WW2G4: {
 771:lr1mac/src/smtc_real/src/smtc_real.c ****         return region_ww2g4_is_valid_tx_frequency( frequency );
 2053              		.loc 1 771 9 is_stmt 1 view .LVU504
 2054              		.loc 1 771 16 is_stmt 0 view .LVU505
 2055 000a 0800     		movs	r0, r1
 2056              	.LVL237:
 2057              		.loc 1 771 16 view .LVU506
 2058 000c FFF7FEFF 		bl	region_ww2g4_is_valid_tx_frequency
ARM GAS  /var/folders/bq/yv49bw8j2kd6w3hsq868qv180000gn/T//ccRnzw9B.s 			page 55


 2059              	.LVL238:
 2060              	.L132:
 772:lr1mac/src/smtc_real/src/smtc_real.c ****     }
 773:lr1mac/src/smtc_real/src/smtc_real.c **** #endif
 774:lr1mac/src/smtc_real/src/smtc_real.c **** #if defined( REGION_EU_868 )
 775:lr1mac/src/smtc_real/src/smtc_real.c ****     case SMTC_REAL_REGION_EU_868: {
 776:lr1mac/src/smtc_real/src/smtc_real.c ****         return region_eu_868_is_valid_tx_frequency( frequency );
 777:lr1mac/src/smtc_real/src/smtc_real.c ****     }
 778:lr1mac/src/smtc_real/src/smtc_real.c **** #endif
 779:lr1mac/src/smtc_real/src/smtc_real.c **** #if defined( REGION_US_915 )
 780:lr1mac/src/smtc_real/src/smtc_real.c ****     case SMTC_REAL_REGION_US_915: {
 781:lr1mac/src/smtc_real/src/smtc_real.c ****         return region_us_915_is_valid_tx_frequency( frequency );
 782:lr1mac/src/smtc_real/src/smtc_real.c ****     }
 783:lr1mac/src/smtc_real/src/smtc_real.c **** #endif
 784:lr1mac/src/smtc_real/src/smtc_real.c ****     default:
 785:lr1mac/src/smtc_real/src/smtc_real.c ****         BSP_DBG_TRACE_ERROR( "%s unsupported\n", __func__ );
 786:lr1mac/src/smtc_real/src/smtc_real.c ****         bsp_mcu_handle_lr1mac_issue( );
 787:lr1mac/src/smtc_real/src/smtc_real.c ****         break;
 788:lr1mac/src/smtc_real/src/smtc_real.c ****     }
 789:lr1mac/src/smtc_real/src/smtc_real.c ****     return ERRORLORAWAN;  // never reach => avoid warning
 790:lr1mac/src/smtc_real/src/smtc_real.c **** }
 2061              		.loc 1 790 1 view .LVU507
 2062              		@ sp needed
 2063 0010 10BD     		pop	{r4, pc}
 2064              	.LVL239:
 2065              	.L131:
 785:lr1mac/src/smtc_real/src/smtc_real.c ****         bsp_mcu_handle_lr1mac_issue( );
 2066              		.loc 1 785 9 is_stmt 1 view .LVU508
 785:lr1mac/src/smtc_real/src/smtc_real.c ****         bsp_mcu_handle_lr1mac_issue( );
 2067              		.loc 1 785 9 view .LVU509
 2068 0012 0948     		ldr	r0, .L133
 2069              	.LVL240:
 785:lr1mac/src/smtc_real/src/smtc_real.c ****         bsp_mcu_handle_lr1mac_issue( );
 2070              		.loc 1 785 9 is_stmt 0 view .LVU510
 2071 0014 FFF7FEFF 		bl	bsp_trace_print
 2072              	.LVL241:
 785:lr1mac/src/smtc_real/src/smtc_real.c ****         bsp_mcu_handle_lr1mac_issue( );
 2073              		.loc 1 785 9 is_stmt 1 view .LVU511
 2074 0018 0848     		ldr	r0, .L133+4
 2075 001a FFF7FEFF 		bl	bsp_trace_print
 2076              	.LVL242:
 785:lr1mac/src/smtc_real/src/smtc_real.c ****         bsp_mcu_handle_lr1mac_issue( );
 2077              		.loc 1 785 9 view .LVU512
 2078 001e 0849     		ldr	r1, .L133+8
 2079 0020 0848     		ldr	r0, .L133+12
 2080 0022 FFF7FEFF 		bl	bsp_trace_print
 2081              	.LVL243:
 785:lr1mac/src/smtc_real/src/smtc_real.c ****         bsp_mcu_handle_lr1mac_issue( );
 2082              		.loc 1 785 9 view .LVU513
 2083 0026 0848     		ldr	r0, .L133+16
 2084 0028 FFF7FEFF 		bl	bsp_trace_print
 2085              	.LVL244:
 785:lr1mac/src/smtc_real/src/smtc_real.c ****         bsp_mcu_handle_lr1mac_issue( );
 2086              		.loc 1 785 9 view .LVU514
 785:lr1mac/src/smtc_real/src/smtc_real.c ****         bsp_mcu_handle_lr1mac_issue( );
 2087              		.loc 1 785 60 view .LVU515
 786:lr1mac/src/smtc_real/src/smtc_real.c ****         break;
ARM GAS  /var/folders/bq/yv49bw8j2kd6w3hsq868qv180000gn/T//ccRnzw9B.s 			page 56


 2088              		.loc 1 786 9 view .LVU516
 2089 002c FFF7FEFF 		bl	bsp_mcu_handle_lr1mac_issue
 2090              	.LVL245:
 787:lr1mac/src/smtc_real/src/smtc_real.c ****     }
 2091              		.loc 1 787 9 view .LVU517
 789:lr1mac/src/smtc_real/src/smtc_real.c **** }
 2092              		.loc 1 789 5 view .LVU518
 789:lr1mac/src/smtc_real/src/smtc_real.c **** }
 2093              		.loc 1 789 12 is_stmt 0 view .LVU519
 2094 0030 0120     		movs	r0, #1
 2095 0032 4042     		rsbs	r0, r0, #0
 2096 0034 ECE7     		b	.L132
 2097              	.L134:
 2098 0036 C046     		.align	2
 2099              	.L133:
 2100 0038 00000000 		.word	.LC0
 2101 003c 08000000 		.word	.LC2
 2102 0040 00000000 		.word	.LANCHOR26
 2103 0044 10000000 		.word	.LC5
 2104 0048 20000000 		.word	.LC7
 2105              		.cfi_endproc
 2106              	.LFE35:
 2108              		.section	.text.smtc_real_is_valid_rx_frequency,"ax",%progbits
 2109              		.align	1
 2110              		.global	smtc_real_is_valid_rx_frequency
 2111              		.syntax unified
 2112              		.code	16
 2113              		.thumb_func
 2114              		.fpu softvfp
 2116              	smtc_real_is_valid_rx_frequency:
 2117              	.LVL246:
 2118              	.LFB36:
 791:lr1mac/src/smtc_real/src/smtc_real.c **** 
 792:lr1mac/src/smtc_real/src/smtc_real.c **** status_lorawan_t smtc_real_is_valid_rx_frequency( lr1_stack_mac_t* lr1_mac, uint32_t frequency )
 793:lr1mac/src/smtc_real/src/smtc_real.c **** {
 2119              		.loc 1 793 1 is_stmt 1 view -0
 2120              		.cfi_startproc
 2121              		@ args = 0, pretend = 0, frame = 0
 2122              		@ frame_needed = 0, uses_anonymous_args = 0
 794:lr1mac/src/smtc_real/src/smtc_real.c ****     switch( lr1_mac->real->region_type )
 2123              		.loc 1 794 5 view .LVU521
 793:lr1mac/src/smtc_real/src/smtc_real.c ****     switch( lr1_mac->real->region_type )
 2124              		.loc 1 793 1 is_stmt 0 view .LVU522
 2125 0000 10B5     		push	{r4, lr}
 2126              		.cfi_def_cfa_offset 8
 2127              		.cfi_offset 4, -8
 2128              		.cfi_offset 14, -4
 2129              		.loc 1 794 26 view .LVU523
 2130 0002 0368     		ldr	r3, [r0]
 2131              		.loc 1 794 5 view .LVU524
 2132 0004 1B79     		ldrb	r3, [r3, #4]
 2133 0006 062B     		cmp	r3, #6
 2134 0008 03D1     		bne	.L136
 795:lr1mac/src/smtc_real/src/smtc_real.c ****     {
 796:lr1mac/src/smtc_real/src/smtc_real.c **** #if defined( REGION_WW2G4 )
 797:lr1mac/src/smtc_real/src/smtc_real.c ****     case SMTC_REAL_REGION_WW2G4: {
 798:lr1mac/src/smtc_real/src/smtc_real.c ****         return region_ww2g4_is_valid_rx_frequency( frequency );
ARM GAS  /var/folders/bq/yv49bw8j2kd6w3hsq868qv180000gn/T//ccRnzw9B.s 			page 57


 2135              		.loc 1 798 9 is_stmt 1 view .LVU525
 2136              		.loc 1 798 16 is_stmt 0 view .LVU526
 2137 000a 0800     		movs	r0, r1
 2138              	.LVL247:
 2139              		.loc 1 798 16 view .LVU527
 2140 000c FFF7FEFF 		bl	region_ww2g4_is_valid_rx_frequency
 2141              	.LVL248:
 2142              	.L137:
 799:lr1mac/src/smtc_real/src/smtc_real.c ****     }
 800:lr1mac/src/smtc_real/src/smtc_real.c **** #endif
 801:lr1mac/src/smtc_real/src/smtc_real.c **** #if defined( REGION_EU_868 )
 802:lr1mac/src/smtc_real/src/smtc_real.c ****     case SMTC_REAL_REGION_EU_868: {
 803:lr1mac/src/smtc_real/src/smtc_real.c ****         return region_eu_868_is_valid_rx_frequency( frequency );
 804:lr1mac/src/smtc_real/src/smtc_real.c ****     }
 805:lr1mac/src/smtc_real/src/smtc_real.c **** #endif
 806:lr1mac/src/smtc_real/src/smtc_real.c **** #if defined( REGION_US_915 )
 807:lr1mac/src/smtc_real/src/smtc_real.c ****     case SMTC_REAL_REGION_US_915: {
 808:lr1mac/src/smtc_real/src/smtc_real.c ****         return region_us_915_is_valid_rx_frequency( frequency );
 809:lr1mac/src/smtc_real/src/smtc_real.c ****     }
 810:lr1mac/src/smtc_real/src/smtc_real.c **** #endif
 811:lr1mac/src/smtc_real/src/smtc_real.c ****     default:
 812:lr1mac/src/smtc_real/src/smtc_real.c ****         BSP_DBG_TRACE_ERROR( "%s unsupported\n", __func__ );
 813:lr1mac/src/smtc_real/src/smtc_real.c ****         bsp_mcu_handle_lr1mac_issue( );
 814:lr1mac/src/smtc_real/src/smtc_real.c ****         break;
 815:lr1mac/src/smtc_real/src/smtc_real.c ****     }
 816:lr1mac/src/smtc_real/src/smtc_real.c ****     return ERRORLORAWAN;  // never reach => avoid warning
 817:lr1mac/src/smtc_real/src/smtc_real.c **** }
 2143              		.loc 1 817 1 view .LVU528
 2144              		@ sp needed
 2145 0010 10BD     		pop	{r4, pc}
 2146              	.LVL249:
 2147              	.L136:
 812:lr1mac/src/smtc_real/src/smtc_real.c ****         bsp_mcu_handle_lr1mac_issue( );
 2148              		.loc 1 812 9 is_stmt 1 view .LVU529
 812:lr1mac/src/smtc_real/src/smtc_real.c ****         bsp_mcu_handle_lr1mac_issue( );
 2149              		.loc 1 812 9 view .LVU530
 2150 0012 0948     		ldr	r0, .L138
 2151              	.LVL250:
 812:lr1mac/src/smtc_real/src/smtc_real.c ****         bsp_mcu_handle_lr1mac_issue( );
 2152              		.loc 1 812 9 is_stmt 0 view .LVU531
 2153 0014 FFF7FEFF 		bl	bsp_trace_print
 2154              	.LVL251:
 812:lr1mac/src/smtc_real/src/smtc_real.c ****         bsp_mcu_handle_lr1mac_issue( );
 2155              		.loc 1 812 9 is_stmt 1 view .LVU532
 2156 0018 0848     		ldr	r0, .L138+4
 2157 001a FFF7FEFF 		bl	bsp_trace_print
 2158              	.LVL252:
 812:lr1mac/src/smtc_real/src/smtc_real.c ****         bsp_mcu_handle_lr1mac_issue( );
 2159              		.loc 1 812 9 view .LVU533
 2160 001e 0849     		ldr	r1, .L138+8
 2161 0020 0848     		ldr	r0, .L138+12
 2162 0022 FFF7FEFF 		bl	bsp_trace_print
 2163              	.LVL253:
 812:lr1mac/src/smtc_real/src/smtc_real.c ****         bsp_mcu_handle_lr1mac_issue( );
 2164              		.loc 1 812 9 view .LVU534
 2165 0026 0848     		ldr	r0, .L138+16
 2166 0028 FFF7FEFF 		bl	bsp_trace_print
ARM GAS  /var/folders/bq/yv49bw8j2kd6w3hsq868qv180000gn/T//ccRnzw9B.s 			page 58


 2167              	.LVL254:
 812:lr1mac/src/smtc_real/src/smtc_real.c ****         bsp_mcu_handle_lr1mac_issue( );
 2168              		.loc 1 812 9 view .LVU535
 812:lr1mac/src/smtc_real/src/smtc_real.c ****         bsp_mcu_handle_lr1mac_issue( );
 2169              		.loc 1 812 60 view .LVU536
 813:lr1mac/src/smtc_real/src/smtc_real.c ****         break;
 2170              		.loc 1 813 9 view .LVU537
 2171 002c FFF7FEFF 		bl	bsp_mcu_handle_lr1mac_issue
 2172              	.LVL255:
 814:lr1mac/src/smtc_real/src/smtc_real.c ****     }
 2173              		.loc 1 814 9 view .LVU538
 816:lr1mac/src/smtc_real/src/smtc_real.c **** }
 2174              		.loc 1 816 5 view .LVU539
 816:lr1mac/src/smtc_real/src/smtc_real.c **** }
 2175              		.loc 1 816 12 is_stmt 0 view .LVU540
 2176 0030 0120     		movs	r0, #1
 2177 0032 4042     		rsbs	r0, r0, #0
 2178 0034 ECE7     		b	.L137
 2179              	.L139:
 2180 0036 C046     		.align	2
 2181              	.L138:
 2182 0038 00000000 		.word	.LC0
 2183 003c 08000000 		.word	.LC2
 2184 0040 00000000 		.word	.LANCHOR27
 2185 0044 10000000 		.word	.LC5
 2186 0048 20000000 		.word	.LC7
 2187              		.cfi_endproc
 2188              	.LFE36:
 2190              		.section	.text.smtc_real_is_valid_tx_power,"ax",%progbits
 2191              		.align	1
 2192              		.global	smtc_real_is_valid_tx_power
 2193              		.syntax unified
 2194              		.code	16
 2195              		.thumb_func
 2196              		.fpu softvfp
 2198              	smtc_real_is_valid_tx_power:
 2199              	.LVL256:
 2200              	.LFB37:
 818:lr1mac/src/smtc_real/src/smtc_real.c **** 
 819:lr1mac/src/smtc_real/src/smtc_real.c **** status_lorawan_t smtc_real_is_valid_tx_power( lr1_stack_mac_t* lr1_mac, uint8_t power )
 820:lr1mac/src/smtc_real/src/smtc_real.c **** {
 2201              		.loc 1 820 1 is_stmt 1 view -0
 2202              		.cfi_startproc
 2203              		@ args = 0, pretend = 0, frame = 0
 2204              		@ frame_needed = 0, uses_anonymous_args = 0
 821:lr1mac/src/smtc_real/src/smtc_real.c ****     switch( lr1_mac->real->region_type )
 2205              		.loc 1 821 5 view .LVU542
 820:lr1mac/src/smtc_real/src/smtc_real.c ****     switch( lr1_mac->real->region_type )
 2206              		.loc 1 820 1 is_stmt 0 view .LVU543
 2207 0000 10B5     		push	{r4, lr}
 2208              		.cfi_def_cfa_offset 8
 2209              		.cfi_offset 4, -8
 2210              		.cfi_offset 14, -4
 2211              		.loc 1 821 26 view .LVU544
 2212 0002 0368     		ldr	r3, [r0]
 2213              		.loc 1 821 5 view .LVU545
 2214 0004 1B79     		ldrb	r3, [r3, #4]
ARM GAS  /var/folders/bq/yv49bw8j2kd6w3hsq868qv180000gn/T//ccRnzw9B.s 			page 59


 2215 0006 062B     		cmp	r3, #6
 2216 0008 03D1     		bne	.L141
 822:lr1mac/src/smtc_real/src/smtc_real.c ****     {
 823:lr1mac/src/smtc_real/src/smtc_real.c **** #if defined( REGION_WW2G4 )
 824:lr1mac/src/smtc_real/src/smtc_real.c ****     case SMTC_REAL_REGION_WW2G4: {
 825:lr1mac/src/smtc_real/src/smtc_real.c ****         return region_ww2g4_is_valid_tx_power( power );
 2217              		.loc 1 825 9 is_stmt 1 view .LVU546
 2218              		.loc 1 825 16 is_stmt 0 view .LVU547
 2219 000a 0800     		movs	r0, r1
 2220              	.LVL257:
 2221              		.loc 1 825 16 view .LVU548
 2222 000c FFF7FEFF 		bl	region_ww2g4_is_valid_tx_power
 2223              	.LVL258:
 2224              	.L142:
 826:lr1mac/src/smtc_real/src/smtc_real.c ****     }
 827:lr1mac/src/smtc_real/src/smtc_real.c **** #endif
 828:lr1mac/src/smtc_real/src/smtc_real.c **** #if defined( REGION_EU_868 )
 829:lr1mac/src/smtc_real/src/smtc_real.c ****     case SMTC_REAL_REGION_EU_868: {
 830:lr1mac/src/smtc_real/src/smtc_real.c ****         return region_eu_868_is_valid_tx_power( power );
 831:lr1mac/src/smtc_real/src/smtc_real.c ****     }
 832:lr1mac/src/smtc_real/src/smtc_real.c **** #endif
 833:lr1mac/src/smtc_real/src/smtc_real.c **** #if defined( REGION_US_915 )
 834:lr1mac/src/smtc_real/src/smtc_real.c ****     case SMTC_REAL_REGION_US_915: {
 835:lr1mac/src/smtc_real/src/smtc_real.c ****         return region_us_915_is_valid_tx_power( power );
 836:lr1mac/src/smtc_real/src/smtc_real.c ****     }
 837:lr1mac/src/smtc_real/src/smtc_real.c **** #endif
 838:lr1mac/src/smtc_real/src/smtc_real.c ****     default:
 839:lr1mac/src/smtc_real/src/smtc_real.c ****         BSP_DBG_TRACE_ERROR( "%s unsupported\n", __func__ );
 840:lr1mac/src/smtc_real/src/smtc_real.c ****         bsp_mcu_handle_lr1mac_issue( );
 841:lr1mac/src/smtc_real/src/smtc_real.c ****         break;
 842:lr1mac/src/smtc_real/src/smtc_real.c ****     }
 843:lr1mac/src/smtc_real/src/smtc_real.c ****     return ERRORLORAWAN;  // never reach => avoid warning
 844:lr1mac/src/smtc_real/src/smtc_real.c **** }
 2225              		.loc 1 844 1 view .LVU549
 2226              		@ sp needed
 2227 0010 10BD     		pop	{r4, pc}
 2228              	.LVL259:
 2229              	.L141:
 839:lr1mac/src/smtc_real/src/smtc_real.c ****         bsp_mcu_handle_lr1mac_issue( );
 2230              		.loc 1 839 9 is_stmt 1 view .LVU550
 839:lr1mac/src/smtc_real/src/smtc_real.c ****         bsp_mcu_handle_lr1mac_issue( );
 2231              		.loc 1 839 9 view .LVU551
 2232 0012 0948     		ldr	r0, .L143
 2233              	.LVL260:
 839:lr1mac/src/smtc_real/src/smtc_real.c ****         bsp_mcu_handle_lr1mac_issue( );
 2234              		.loc 1 839 9 is_stmt 0 view .LVU552
 2235 0014 FFF7FEFF 		bl	bsp_trace_print
 2236              	.LVL261:
 839:lr1mac/src/smtc_real/src/smtc_real.c ****         bsp_mcu_handle_lr1mac_issue( );
 2237              		.loc 1 839 9 is_stmt 1 view .LVU553
 2238 0018 0848     		ldr	r0, .L143+4
 2239 001a FFF7FEFF 		bl	bsp_trace_print
 2240              	.LVL262:
 839:lr1mac/src/smtc_real/src/smtc_real.c ****         bsp_mcu_handle_lr1mac_issue( );
 2241              		.loc 1 839 9 view .LVU554
 2242 001e 0849     		ldr	r1, .L143+8
 2243 0020 0848     		ldr	r0, .L143+12
ARM GAS  /var/folders/bq/yv49bw8j2kd6w3hsq868qv180000gn/T//ccRnzw9B.s 			page 60


 2244 0022 FFF7FEFF 		bl	bsp_trace_print
 2245              	.LVL263:
 839:lr1mac/src/smtc_real/src/smtc_real.c ****         bsp_mcu_handle_lr1mac_issue( );
 2246              		.loc 1 839 9 view .LVU555
 2247 0026 0848     		ldr	r0, .L143+16
 2248 0028 FFF7FEFF 		bl	bsp_trace_print
 2249              	.LVL264:
 839:lr1mac/src/smtc_real/src/smtc_real.c ****         bsp_mcu_handle_lr1mac_issue( );
 2250              		.loc 1 839 9 view .LVU556
 839:lr1mac/src/smtc_real/src/smtc_real.c ****         bsp_mcu_handle_lr1mac_issue( );
 2251              		.loc 1 839 60 view .LVU557
 840:lr1mac/src/smtc_real/src/smtc_real.c ****         break;
 2252              		.loc 1 840 9 view .LVU558
 2253 002c FFF7FEFF 		bl	bsp_mcu_handle_lr1mac_issue
 2254              	.LVL265:
 841:lr1mac/src/smtc_real/src/smtc_real.c ****     }
 2255              		.loc 1 841 9 view .LVU559
 843:lr1mac/src/smtc_real/src/smtc_real.c **** }
 2256              		.loc 1 843 5 view .LVU560
 843:lr1mac/src/smtc_real/src/smtc_real.c **** }
 2257              		.loc 1 843 12 is_stmt 0 view .LVU561
 2258 0030 0120     		movs	r0, #1
 2259 0032 4042     		rsbs	r0, r0, #0
 2260 0034 ECE7     		b	.L142
 2261              	.L144:
 2262 0036 C046     		.align	2
 2263              	.L143:
 2264 0038 00000000 		.word	.LC0
 2265 003c 08000000 		.word	.LC2
 2266 0040 00000000 		.word	.LANCHOR28
 2267 0044 10000000 		.word	.LC5
 2268 0048 20000000 		.word	.LC7
 2269              		.cfi_endproc
 2270              	.LFE37:
 2272              		.section	.text.smtc_real_is_valid_channel_index,"ax",%progbits
 2273              		.align	1
 2274              		.global	smtc_real_is_valid_channel_index
 2275              		.syntax unified
 2276              		.code	16
 2277              		.thumb_func
 2278              		.fpu softvfp
 2280              	smtc_real_is_valid_channel_index:
 2281              	.LVL266:
 2282              	.LFB38:
 845:lr1mac/src/smtc_real/src/smtc_real.c **** 
 846:lr1mac/src/smtc_real/src/smtc_real.c **** status_lorawan_t smtc_real_is_valid_channel_index( lr1_stack_mac_t* lr1_mac, uint8_t channel_index 
 847:lr1mac/src/smtc_real/src/smtc_real.c **** {
 2283              		.loc 1 847 1 is_stmt 1 view -0
 2284              		.cfi_startproc
 2285              		@ args = 0, pretend = 0, frame = 0
 2286              		@ frame_needed = 0, uses_anonymous_args = 0
 848:lr1mac/src/smtc_real/src/smtc_real.c ****     switch( lr1_mac->real->region_type )
 2287              		.loc 1 848 5 view .LVU563
 847:lr1mac/src/smtc_real/src/smtc_real.c ****     switch( lr1_mac->real->region_type )
 2288              		.loc 1 847 1 is_stmt 0 view .LVU564
 2289 0000 10B5     		push	{r4, lr}
 2290              		.cfi_def_cfa_offset 8
ARM GAS  /var/folders/bq/yv49bw8j2kd6w3hsq868qv180000gn/T//ccRnzw9B.s 			page 61


 2291              		.cfi_offset 4, -8
 2292              		.cfi_offset 14, -4
 2293              		.loc 1 848 26 view .LVU565
 2294 0002 0368     		ldr	r3, [r0]
 2295              		.loc 1 848 5 view .LVU566
 2296 0004 1B79     		ldrb	r3, [r3, #4]
 2297 0006 062B     		cmp	r3, #6
 2298 0008 03D1     		bne	.L146
 849:lr1mac/src/smtc_real/src/smtc_real.c ****     {
 850:lr1mac/src/smtc_real/src/smtc_real.c **** #if defined( REGION_WW2G4 )
 851:lr1mac/src/smtc_real/src/smtc_real.c ****     case SMTC_REAL_REGION_WW2G4: {
 852:lr1mac/src/smtc_real/src/smtc_real.c ****         return region_ww2g4_is_valid_channel_index( channel_index );
 2299              		.loc 1 852 9 is_stmt 1 view .LVU567
 2300              		.loc 1 852 16 is_stmt 0 view .LVU568
 2301 000a 0800     		movs	r0, r1
 2302              	.LVL267:
 2303              		.loc 1 852 16 view .LVU569
 2304 000c FFF7FEFF 		bl	region_ww2g4_is_valid_channel_index
 2305              	.LVL268:
 2306              	.L147:
 853:lr1mac/src/smtc_real/src/smtc_real.c ****     }
 854:lr1mac/src/smtc_real/src/smtc_real.c **** #endif
 855:lr1mac/src/smtc_real/src/smtc_real.c **** #if defined( REGION_EU_868 )
 856:lr1mac/src/smtc_real/src/smtc_real.c ****     case SMTC_REAL_REGION_EU_868: {
 857:lr1mac/src/smtc_real/src/smtc_real.c ****         return region_eu_868_is_valid_channel_index( channel_index );
 858:lr1mac/src/smtc_real/src/smtc_real.c ****     }
 859:lr1mac/src/smtc_real/src/smtc_real.c **** #endif
 860:lr1mac/src/smtc_real/src/smtc_real.c **** #if defined( REGION_US_915 )
 861:lr1mac/src/smtc_real/src/smtc_real.c ****     case SMTC_REAL_REGION_US_915: {
 862:lr1mac/src/smtc_real/src/smtc_real.c ****         return region_us_915_is_valid_channel_index( channel_index );
 863:lr1mac/src/smtc_real/src/smtc_real.c ****     }
 864:lr1mac/src/smtc_real/src/smtc_real.c **** #endif
 865:lr1mac/src/smtc_real/src/smtc_real.c ****     default:
 866:lr1mac/src/smtc_real/src/smtc_real.c ****         BSP_DBG_TRACE_ERROR( "%s unsupported\n", __func__ );
 867:lr1mac/src/smtc_real/src/smtc_real.c ****         bsp_mcu_handle_lr1mac_issue( );
 868:lr1mac/src/smtc_real/src/smtc_real.c ****         break;
 869:lr1mac/src/smtc_real/src/smtc_real.c ****     }
 870:lr1mac/src/smtc_real/src/smtc_real.c ****     return ERRORLORAWAN;  // never reach => avoid warning
 871:lr1mac/src/smtc_real/src/smtc_real.c **** }
 2307              		.loc 1 871 1 view .LVU570
 2308              		@ sp needed
 2309 0010 10BD     		pop	{r4, pc}
 2310              	.LVL269:
 2311              	.L146:
 866:lr1mac/src/smtc_real/src/smtc_real.c ****         bsp_mcu_handle_lr1mac_issue( );
 2312              		.loc 1 866 9 is_stmt 1 view .LVU571
 866:lr1mac/src/smtc_real/src/smtc_real.c ****         bsp_mcu_handle_lr1mac_issue( );
 2313              		.loc 1 866 9 view .LVU572
 2314 0012 0948     		ldr	r0, .L148
 2315              	.LVL270:
 866:lr1mac/src/smtc_real/src/smtc_real.c ****         bsp_mcu_handle_lr1mac_issue( );
 2316              		.loc 1 866 9 is_stmt 0 view .LVU573
 2317 0014 FFF7FEFF 		bl	bsp_trace_print
 2318              	.LVL271:
 866:lr1mac/src/smtc_real/src/smtc_real.c ****         bsp_mcu_handle_lr1mac_issue( );
 2319              		.loc 1 866 9 is_stmt 1 view .LVU574
 2320 0018 0848     		ldr	r0, .L148+4
ARM GAS  /var/folders/bq/yv49bw8j2kd6w3hsq868qv180000gn/T//ccRnzw9B.s 			page 62


 2321 001a FFF7FEFF 		bl	bsp_trace_print
 2322              	.LVL272:
 866:lr1mac/src/smtc_real/src/smtc_real.c ****         bsp_mcu_handle_lr1mac_issue( );
 2323              		.loc 1 866 9 view .LVU575
 2324 001e 0849     		ldr	r1, .L148+8
 2325 0020 0848     		ldr	r0, .L148+12
 2326 0022 FFF7FEFF 		bl	bsp_trace_print
 2327              	.LVL273:
 866:lr1mac/src/smtc_real/src/smtc_real.c ****         bsp_mcu_handle_lr1mac_issue( );
 2328              		.loc 1 866 9 view .LVU576
 2329 0026 0848     		ldr	r0, .L148+16
 2330 0028 FFF7FEFF 		bl	bsp_trace_print
 2331              	.LVL274:
 866:lr1mac/src/smtc_real/src/smtc_real.c ****         bsp_mcu_handle_lr1mac_issue( );
 2332              		.loc 1 866 9 view .LVU577
 866:lr1mac/src/smtc_real/src/smtc_real.c ****         bsp_mcu_handle_lr1mac_issue( );
 2333              		.loc 1 866 60 view .LVU578
 867:lr1mac/src/smtc_real/src/smtc_real.c ****         break;
 2334              		.loc 1 867 9 view .LVU579
 2335 002c FFF7FEFF 		bl	bsp_mcu_handle_lr1mac_issue
 2336              	.LVL275:
 868:lr1mac/src/smtc_real/src/smtc_real.c ****     }
 2337              		.loc 1 868 9 view .LVU580
 870:lr1mac/src/smtc_real/src/smtc_real.c **** }
 2338              		.loc 1 870 5 view .LVU581
 870:lr1mac/src/smtc_real/src/smtc_real.c **** }
 2339              		.loc 1 870 12 is_stmt 0 view .LVU582
 2340 0030 0120     		movs	r0, #1
 2341 0032 4042     		rsbs	r0, r0, #0
 2342 0034 ECE7     		b	.L147
 2343              	.L149:
 2344 0036 C046     		.align	2
 2345              	.L148:
 2346 0038 00000000 		.word	.LC0
 2347 003c 08000000 		.word	.LC2
 2348 0040 00000000 		.word	.LANCHOR29
 2349 0044 10000000 		.word	.LC5
 2350 0048 20000000 		.word	.LC7
 2351              		.cfi_endproc
 2352              	.LFE38:
 2354              		.section	.text.smtc_real_is_valid_size,"ax",%progbits
 2355              		.align	1
 2356              		.global	smtc_real_is_valid_size
 2357              		.syntax unified
 2358              		.code	16
 2359              		.thumb_func
 2360              		.fpu softvfp
 2362              	smtc_real_is_valid_size:
 2363              	.LVL276:
 2364              	.LFB39:
 872:lr1mac/src/smtc_real/src/smtc_real.c **** 
 873:lr1mac/src/smtc_real/src/smtc_real.c **** status_lorawan_t smtc_real_is_valid_size( lr1_stack_mac_t* lr1_mac, uint8_t dr, uint8_t size )
 874:lr1mac/src/smtc_real/src/smtc_real.c **** {
 2365              		.loc 1 874 1 is_stmt 1 view -0
 2366              		.cfi_startproc
 2367              		@ args = 0, pretend = 0, frame = 0
 2368              		@ frame_needed = 0, uses_anonymous_args = 0
ARM GAS  /var/folders/bq/yv49bw8j2kd6w3hsq868qv180000gn/T//ccRnzw9B.s 			page 63


 875:lr1mac/src/smtc_real/src/smtc_real.c ****     switch( lr1_mac->real->region_type )
 2369              		.loc 1 875 5 view .LVU584
 874:lr1mac/src/smtc_real/src/smtc_real.c ****     switch( lr1_mac->real->region_type )
 2370              		.loc 1 874 1 is_stmt 0 view .LVU585
 2371 0000 10B5     		push	{r4, lr}
 2372              		.cfi_def_cfa_offset 8
 2373              		.cfi_offset 4, -8
 2374              		.cfi_offset 14, -4
 2375              		.loc 1 875 5 view .LVU586
 2376 0002 0368     		ldr	r3, [r0]
 2377 0004 1B79     		ldrb	r3, [r3, #4]
 2378 0006 062B     		cmp	r3, #6
 2379 0008 02D1     		bne	.L151
 876:lr1mac/src/smtc_real/src/smtc_real.c ****     {
 877:lr1mac/src/smtc_real/src/smtc_real.c **** #if defined( REGION_WW2G4 )
 878:lr1mac/src/smtc_real/src/smtc_real.c ****     case SMTC_REAL_REGION_WW2G4: {
 879:lr1mac/src/smtc_real/src/smtc_real.c ****         return region_ww2g4_is_valid_size( lr1_mac, dr, size );
 2380              		.loc 1 879 9 is_stmt 1 view .LVU587
 2381              		.loc 1 879 16 is_stmt 0 view .LVU588
 2382 000a FFF7FEFF 		bl	region_ww2g4_is_valid_size
 2383              	.LVL277:
 2384              	.L152:
 880:lr1mac/src/smtc_real/src/smtc_real.c ****     }
 881:lr1mac/src/smtc_real/src/smtc_real.c **** #endif
 882:lr1mac/src/smtc_real/src/smtc_real.c **** #if defined( REGION_EU_868 )
 883:lr1mac/src/smtc_real/src/smtc_real.c ****     case SMTC_REAL_REGION_EU_868: {
 884:lr1mac/src/smtc_real/src/smtc_real.c ****         return region_eu_868_is_valid_size( lr1_mac, dr, size );
 885:lr1mac/src/smtc_real/src/smtc_real.c ****     }
 886:lr1mac/src/smtc_real/src/smtc_real.c **** #endif
 887:lr1mac/src/smtc_real/src/smtc_real.c **** #if defined( REGION_US_915 )
 888:lr1mac/src/smtc_real/src/smtc_real.c ****     case SMTC_REAL_REGION_US_915: {
 889:lr1mac/src/smtc_real/src/smtc_real.c ****         return region_us_915_is_valid_size( lr1_mac, dr, size );
 890:lr1mac/src/smtc_real/src/smtc_real.c ****     }
 891:lr1mac/src/smtc_real/src/smtc_real.c **** #endif
 892:lr1mac/src/smtc_real/src/smtc_real.c ****     default:
 893:lr1mac/src/smtc_real/src/smtc_real.c ****         BSP_DBG_TRACE_ERROR( "%s unsupported\n", __func__ );
 894:lr1mac/src/smtc_real/src/smtc_real.c ****         bsp_mcu_handle_lr1mac_issue( );
 895:lr1mac/src/smtc_real/src/smtc_real.c ****         break;
 896:lr1mac/src/smtc_real/src/smtc_real.c ****     }
 897:lr1mac/src/smtc_real/src/smtc_real.c ****     return ERRORLORAWAN;  // never reach => avoid warning
 898:lr1mac/src/smtc_real/src/smtc_real.c **** }
 2385              		.loc 1 898 1 view .LVU589
 2386              		@ sp needed
 2387 000e 10BD     		pop	{r4, pc}
 2388              	.LVL278:
 2389              	.L151:
 893:lr1mac/src/smtc_real/src/smtc_real.c ****         bsp_mcu_handle_lr1mac_issue( );
 2390              		.loc 1 893 9 is_stmt 1 view .LVU590
 893:lr1mac/src/smtc_real/src/smtc_real.c ****         bsp_mcu_handle_lr1mac_issue( );
 2391              		.loc 1 893 9 view .LVU591
 2392 0010 0848     		ldr	r0, .L153
 2393              	.LVL279:
 893:lr1mac/src/smtc_real/src/smtc_real.c ****         bsp_mcu_handle_lr1mac_issue( );
 2394              		.loc 1 893 9 is_stmt 0 view .LVU592
 2395 0012 FFF7FEFF 		bl	bsp_trace_print
 2396              	.LVL280:
 893:lr1mac/src/smtc_real/src/smtc_real.c ****         bsp_mcu_handle_lr1mac_issue( );
ARM GAS  /var/folders/bq/yv49bw8j2kd6w3hsq868qv180000gn/T//ccRnzw9B.s 			page 64


 2397              		.loc 1 893 9 is_stmt 1 view .LVU593
 2398 0016 0848     		ldr	r0, .L153+4
 2399 0018 FFF7FEFF 		bl	bsp_trace_print
 2400              	.LVL281:
 893:lr1mac/src/smtc_real/src/smtc_real.c ****         bsp_mcu_handle_lr1mac_issue( );
 2401              		.loc 1 893 9 view .LVU594
 2402 001c 0749     		ldr	r1, .L153+8
 2403 001e 0848     		ldr	r0, .L153+12
 2404 0020 FFF7FEFF 		bl	bsp_trace_print
 2405              	.LVL282:
 893:lr1mac/src/smtc_real/src/smtc_real.c ****         bsp_mcu_handle_lr1mac_issue( );
 2406              		.loc 1 893 9 view .LVU595
 2407 0024 0748     		ldr	r0, .L153+16
 2408 0026 FFF7FEFF 		bl	bsp_trace_print
 2409              	.LVL283:
 893:lr1mac/src/smtc_real/src/smtc_real.c ****         bsp_mcu_handle_lr1mac_issue( );
 2410              		.loc 1 893 9 view .LVU596
 893:lr1mac/src/smtc_real/src/smtc_real.c ****         bsp_mcu_handle_lr1mac_issue( );
 2411              		.loc 1 893 60 view .LVU597
 894:lr1mac/src/smtc_real/src/smtc_real.c ****         break;
 2412              		.loc 1 894 9 view .LVU598
 2413 002a FFF7FEFF 		bl	bsp_mcu_handle_lr1mac_issue
 2414              	.LVL284:
 895:lr1mac/src/smtc_real/src/smtc_real.c ****     }
 2415              		.loc 1 895 9 view .LVU599
 897:lr1mac/src/smtc_real/src/smtc_real.c **** }
 2416              		.loc 1 897 5 view .LVU600
 897:lr1mac/src/smtc_real/src/smtc_real.c **** }
 2417              		.loc 1 897 12 is_stmt 0 view .LVU601
 2418 002e 0120     		movs	r0, #1
 2419 0030 4042     		rsbs	r0, r0, #0
 2420 0032 ECE7     		b	.L152
 2421              	.L154:
 2422              		.align	2
 2423              	.L153:
 2424 0034 00000000 		.word	.LC0
 2425 0038 08000000 		.word	.LC2
 2426 003c 00000000 		.word	.LANCHOR30
 2427 0040 10000000 		.word	.LC5
 2428 0044 20000000 		.word	.LC7
 2429              		.cfi_endproc
 2430              	.LFE39:
 2432              		.section	.text.smtc_real_tx_frequency_channel_set,"ax",%progbits
 2433              		.align	1
 2434              		.global	smtc_real_tx_frequency_channel_set
 2435              		.syntax unified
 2436              		.code	16
 2437              		.thumb_func
 2438              		.fpu softvfp
 2440              	smtc_real_tx_frequency_channel_set:
 2441              	.LVL285:
 2442              	.LFB40:
 899:lr1mac/src/smtc_real/src/smtc_real.c **** 
 900:lr1mac/src/smtc_real/src/smtc_real.c **** void smtc_real_tx_frequency_channel_set( lr1_stack_mac_t* lr1_mac, uint32_t tx_freq, uint8_t index 
 901:lr1mac/src/smtc_real/src/smtc_real.c **** {
 2443              		.loc 1 901 1 is_stmt 1 view -0
 2444              		.cfi_startproc
ARM GAS  /var/folders/bq/yv49bw8j2kd6w3hsq868qv180000gn/T//ccRnzw9B.s 			page 65


 2445              		@ args = 0, pretend = 0, frame = 0
 2446              		@ frame_needed = 0, uses_anonymous_args = 0
 902:lr1mac/src/smtc_real/src/smtc_real.c ****     switch( lr1_mac->real->region_type )
 2447              		.loc 1 902 5 view .LVU603
 901:lr1mac/src/smtc_real/src/smtc_real.c ****     switch( lr1_mac->real->region_type )
 2448              		.loc 1 901 1 is_stmt 0 view .LVU604
 2449 0000 0300     		movs	r3, r0
 2450 0002 10B5     		push	{r4, lr}
 2451              		.cfi_def_cfa_offset 8
 2452              		.cfi_offset 4, -8
 2453              		.cfi_offset 14, -4
 2454              		.loc 1 902 26 view .LVU605
 2455 0004 1B68     		ldr	r3, [r3]
 901:lr1mac/src/smtc_real/src/smtc_real.c ****     switch( lr1_mac->real->region_type )
 2456              		.loc 1 901 1 view .LVU606
 2457 0006 0800     		movs	r0, r1
 2458              	.LVL286:
 2459              		.loc 1 902 5 view .LVU607
 2460 0008 1B79     		ldrb	r3, [r3, #4]
 901:lr1mac/src/smtc_real/src/smtc_real.c ****     switch( lr1_mac->real->region_type )
 2461              		.loc 1 901 1 view .LVU608
 2462 000a 1100     		movs	r1, r2
 2463              	.LVL287:
 2464              		.loc 1 902 5 view .LVU609
 2465 000c 062B     		cmp	r3, #6
 2466 000e 02D1     		bne	.L156
 903:lr1mac/src/smtc_real/src/smtc_real.c ****     {
 904:lr1mac/src/smtc_real/src/smtc_real.c **** #if defined( REGION_WW2G4 )
 905:lr1mac/src/smtc_real/src/smtc_real.c ****     case SMTC_REAL_REGION_WW2G4: {
 906:lr1mac/src/smtc_real/src/smtc_real.c ****         region_ww2g4_tx_frequency_channel_set( tx_freq, index );
 2467              		.loc 1 906 9 is_stmt 1 view .LVU610
 2468 0010 FFF7FEFF 		bl	region_ww2g4_tx_frequency_channel_set
 2469              	.LVL288:
 907:lr1mac/src/smtc_real/src/smtc_real.c ****         break;
 2470              		.loc 1 907 9 view .LVU611
 2471              	.L155:
 908:lr1mac/src/smtc_real/src/smtc_real.c ****     }
 909:lr1mac/src/smtc_real/src/smtc_real.c **** #endif
 910:lr1mac/src/smtc_real/src/smtc_real.c **** #if defined( REGION_EU_868 )
 911:lr1mac/src/smtc_real/src/smtc_real.c ****     case SMTC_REAL_REGION_EU_868: {
 912:lr1mac/src/smtc_real/src/smtc_real.c ****         region_eu_868_tx_frequency_channel_set( tx_freq, index );
 913:lr1mac/src/smtc_real/src/smtc_real.c ****         break;
 914:lr1mac/src/smtc_real/src/smtc_real.c ****     }
 915:lr1mac/src/smtc_real/src/smtc_real.c **** #endif
 916:lr1mac/src/smtc_real/src/smtc_real.c **** #if defined( REGION_US_915 )
 917:lr1mac/src/smtc_real/src/smtc_real.c ****     case SMTC_REAL_REGION_US_915: {
 918:lr1mac/src/smtc_real/src/smtc_real.c ****         region_us_915_tx_frequency_channel_set( tx_freq, index );
 919:lr1mac/src/smtc_real/src/smtc_real.c ****         break;
 920:lr1mac/src/smtc_real/src/smtc_real.c ****     }
 921:lr1mac/src/smtc_real/src/smtc_real.c **** #endif
 922:lr1mac/src/smtc_real/src/smtc_real.c ****     default:
 923:lr1mac/src/smtc_real/src/smtc_real.c ****         BSP_DBG_TRACE_ERROR( "%s unsupported\n", __func__ );
 924:lr1mac/src/smtc_real/src/smtc_real.c ****         bsp_mcu_handle_lr1mac_issue( );
 925:lr1mac/src/smtc_real/src/smtc_real.c ****         break;
 926:lr1mac/src/smtc_real/src/smtc_real.c ****     }
 927:lr1mac/src/smtc_real/src/smtc_real.c **** }
 2472              		.loc 1 927 1 is_stmt 0 view .LVU612
ARM GAS  /var/folders/bq/yv49bw8j2kd6w3hsq868qv180000gn/T//ccRnzw9B.s 			page 66


 2473              		@ sp needed
 2474 0014 10BD     		pop	{r4, pc}
 2475              	.LVL289:
 2476              	.L156:
 923:lr1mac/src/smtc_real/src/smtc_real.c ****         bsp_mcu_handle_lr1mac_issue( );
 2477              		.loc 1 923 9 is_stmt 1 view .LVU613
 923:lr1mac/src/smtc_real/src/smtc_real.c ****         bsp_mcu_handle_lr1mac_issue( );
 2478              		.loc 1 923 9 view .LVU614
 2479 0016 0848     		ldr	r0, .L158
 2480              	.LVL290:
 923:lr1mac/src/smtc_real/src/smtc_real.c ****         bsp_mcu_handle_lr1mac_issue( );
 2481              		.loc 1 923 9 is_stmt 0 view .LVU615
 2482 0018 FFF7FEFF 		bl	bsp_trace_print
 2483              	.LVL291:
 923:lr1mac/src/smtc_real/src/smtc_real.c ****         bsp_mcu_handle_lr1mac_issue( );
 2484              		.loc 1 923 9 is_stmt 1 view .LVU616
 2485 001c 0748     		ldr	r0, .L158+4
 2486 001e FFF7FEFF 		bl	bsp_trace_print
 2487              	.LVL292:
 923:lr1mac/src/smtc_real/src/smtc_real.c ****         bsp_mcu_handle_lr1mac_issue( );
 2488              		.loc 1 923 9 view .LVU617
 2489 0022 0749     		ldr	r1, .L158+8
 2490 0024 0748     		ldr	r0, .L158+12
 2491 0026 FFF7FEFF 		bl	bsp_trace_print
 2492              	.LVL293:
 923:lr1mac/src/smtc_real/src/smtc_real.c ****         bsp_mcu_handle_lr1mac_issue( );
 2493              		.loc 1 923 9 view .LVU618
 2494 002a 0748     		ldr	r0, .L158+16
 2495 002c FFF7FEFF 		bl	bsp_trace_print
 2496              	.LVL294:
 923:lr1mac/src/smtc_real/src/smtc_real.c ****         bsp_mcu_handle_lr1mac_issue( );
 2497              		.loc 1 923 9 view .LVU619
 923:lr1mac/src/smtc_real/src/smtc_real.c ****         bsp_mcu_handle_lr1mac_issue( );
 2498              		.loc 1 923 60 view .LVU620
 924:lr1mac/src/smtc_real/src/smtc_real.c ****         break;
 2499              		.loc 1 924 9 view .LVU621
 2500 0030 FFF7FEFF 		bl	bsp_mcu_handle_lr1mac_issue
 2501              	.LVL295:
 925:lr1mac/src/smtc_real/src/smtc_real.c ****     }
 2502              		.loc 1 925 9 view .LVU622
 2503              		.loc 1 927 1 is_stmt 0 view .LVU623
 2504 0034 EEE7     		b	.L155
 2505              	.L159:
 2506 0036 C046     		.align	2
 2507              	.L158:
 2508 0038 00000000 		.word	.LC0
 2509 003c 08000000 		.word	.LC2
 2510 0040 00000000 		.word	.LANCHOR31
 2511 0044 10000000 		.word	.LC5
 2512 0048 20000000 		.word	.LC7
 2513              		.cfi_endproc
 2514              	.LFE40:
 2516              		.section	.text.smtc_real_rx1_frequency_channel_set,"ax",%progbits
 2517              		.align	1
 2518              		.global	smtc_real_rx1_frequency_channel_set
 2519              		.syntax unified
 2520              		.code	16
ARM GAS  /var/folders/bq/yv49bw8j2kd6w3hsq868qv180000gn/T//ccRnzw9B.s 			page 67


 2521              		.thumb_func
 2522              		.fpu softvfp
 2524              	smtc_real_rx1_frequency_channel_set:
 2525              	.LVL296:
 2526              	.LFB41:
 928:lr1mac/src/smtc_real/src/smtc_real.c **** 
 929:lr1mac/src/smtc_real/src/smtc_real.c **** void smtc_real_rx1_frequency_channel_set( lr1_stack_mac_t* lr1_mac, uint32_t rx_freq, uint8_t index
 930:lr1mac/src/smtc_real/src/smtc_real.c **** {
 2527              		.loc 1 930 1 is_stmt 1 view -0
 2528              		.cfi_startproc
 2529              		@ args = 0, pretend = 0, frame = 0
 2530              		@ frame_needed = 0, uses_anonymous_args = 0
 931:lr1mac/src/smtc_real/src/smtc_real.c ****     switch( lr1_mac->real->region_type )
 2531              		.loc 1 931 5 view .LVU625
 930:lr1mac/src/smtc_real/src/smtc_real.c ****     switch( lr1_mac->real->region_type )
 2532              		.loc 1 930 1 is_stmt 0 view .LVU626
 2533 0000 0300     		movs	r3, r0
 2534 0002 10B5     		push	{r4, lr}
 2535              		.cfi_def_cfa_offset 8
 2536              		.cfi_offset 4, -8
 2537              		.cfi_offset 14, -4
 2538              		.loc 1 931 26 view .LVU627
 2539 0004 1B68     		ldr	r3, [r3]
 930:lr1mac/src/smtc_real/src/smtc_real.c ****     switch( lr1_mac->real->region_type )
 2540              		.loc 1 930 1 view .LVU628
 2541 0006 0800     		movs	r0, r1
 2542              	.LVL297:
 2543              		.loc 1 931 5 view .LVU629
 2544 0008 1B79     		ldrb	r3, [r3, #4]
 930:lr1mac/src/smtc_real/src/smtc_real.c ****     switch( lr1_mac->real->region_type )
 2545              		.loc 1 930 1 view .LVU630
 2546 000a 1100     		movs	r1, r2
 2547              	.LVL298:
 2548              		.loc 1 931 5 view .LVU631
 2549 000c 062B     		cmp	r3, #6
 2550 000e 02D1     		bne	.L161
 932:lr1mac/src/smtc_real/src/smtc_real.c ****     {
 933:lr1mac/src/smtc_real/src/smtc_real.c **** #if defined( REGION_WW2G4 )
 934:lr1mac/src/smtc_real/src/smtc_real.c ****     case SMTC_REAL_REGION_WW2G4: {
 935:lr1mac/src/smtc_real/src/smtc_real.c ****         region_ww2g4_rx1_frequency_channel_set( rx_freq, index );
 2551              		.loc 1 935 9 is_stmt 1 view .LVU632
 2552 0010 FFF7FEFF 		bl	region_ww2g4_rx1_frequency_channel_set
 2553              	.LVL299:
 936:lr1mac/src/smtc_real/src/smtc_real.c ****         break;
 2554              		.loc 1 936 9 view .LVU633
 2555              	.L160:
 937:lr1mac/src/smtc_real/src/smtc_real.c ****     }
 938:lr1mac/src/smtc_real/src/smtc_real.c **** #endif
 939:lr1mac/src/smtc_real/src/smtc_real.c **** #if defined( REGION_EU_868 )
 940:lr1mac/src/smtc_real/src/smtc_real.c ****     case SMTC_REAL_REGION_EU_868: {
 941:lr1mac/src/smtc_real/src/smtc_real.c ****         region_eu_868_rx1_frequency_channel_set( rx_freq, index );
 942:lr1mac/src/smtc_real/src/smtc_real.c ****         break;
 943:lr1mac/src/smtc_real/src/smtc_real.c ****     }
 944:lr1mac/src/smtc_real/src/smtc_real.c **** #endif
 945:lr1mac/src/smtc_real/src/smtc_real.c **** #if defined( REGION_US_915 )
 946:lr1mac/src/smtc_real/src/smtc_real.c ****     case SMTC_REAL_REGION_US_915: {
 947:lr1mac/src/smtc_real/src/smtc_real.c ****         region_us_915_rx1_frequency_channel_set( rx_freq, index );
ARM GAS  /var/folders/bq/yv49bw8j2kd6w3hsq868qv180000gn/T//ccRnzw9B.s 			page 68


 948:lr1mac/src/smtc_real/src/smtc_real.c ****         break;
 949:lr1mac/src/smtc_real/src/smtc_real.c ****     }
 950:lr1mac/src/smtc_real/src/smtc_real.c **** #endif
 951:lr1mac/src/smtc_real/src/smtc_real.c ****     default:
 952:lr1mac/src/smtc_real/src/smtc_real.c ****         BSP_DBG_TRACE_ERROR( "%s unsupported\n", __func__ );
 953:lr1mac/src/smtc_real/src/smtc_real.c ****         bsp_mcu_handle_lr1mac_issue( );
 954:lr1mac/src/smtc_real/src/smtc_real.c ****         break;
 955:lr1mac/src/smtc_real/src/smtc_real.c ****     }
 956:lr1mac/src/smtc_real/src/smtc_real.c **** }
 2556              		.loc 1 956 1 is_stmt 0 view .LVU634
 2557              		@ sp needed
 2558 0014 10BD     		pop	{r4, pc}
 2559              	.LVL300:
 2560              	.L161:
 952:lr1mac/src/smtc_real/src/smtc_real.c ****         bsp_mcu_handle_lr1mac_issue( );
 2561              		.loc 1 952 9 is_stmt 1 view .LVU635
 952:lr1mac/src/smtc_real/src/smtc_real.c ****         bsp_mcu_handle_lr1mac_issue( );
 2562              		.loc 1 952 9 view .LVU636
 2563 0016 0848     		ldr	r0, .L163
 2564              	.LVL301:
 952:lr1mac/src/smtc_real/src/smtc_real.c ****         bsp_mcu_handle_lr1mac_issue( );
 2565              		.loc 1 952 9 is_stmt 0 view .LVU637
 2566 0018 FFF7FEFF 		bl	bsp_trace_print
 2567              	.LVL302:
 952:lr1mac/src/smtc_real/src/smtc_real.c ****         bsp_mcu_handle_lr1mac_issue( );
 2568              		.loc 1 952 9 is_stmt 1 view .LVU638
 2569 001c 0748     		ldr	r0, .L163+4
 2570 001e FFF7FEFF 		bl	bsp_trace_print
 2571              	.LVL303:
 952:lr1mac/src/smtc_real/src/smtc_real.c ****         bsp_mcu_handle_lr1mac_issue( );
 2572              		.loc 1 952 9 view .LVU639
 2573 0022 0749     		ldr	r1, .L163+8
 2574 0024 0748     		ldr	r0, .L163+12
 2575 0026 FFF7FEFF 		bl	bsp_trace_print
 2576              	.LVL304:
 952:lr1mac/src/smtc_real/src/smtc_real.c ****         bsp_mcu_handle_lr1mac_issue( );
 2577              		.loc 1 952 9 view .LVU640
 2578 002a 0748     		ldr	r0, .L163+16
 2579 002c FFF7FEFF 		bl	bsp_trace_print
 2580              	.LVL305:
 952:lr1mac/src/smtc_real/src/smtc_real.c ****         bsp_mcu_handle_lr1mac_issue( );
 2581              		.loc 1 952 9 view .LVU641
 952:lr1mac/src/smtc_real/src/smtc_real.c ****         bsp_mcu_handle_lr1mac_issue( );
 2582              		.loc 1 952 60 view .LVU642
 953:lr1mac/src/smtc_real/src/smtc_real.c ****         break;
 2583              		.loc 1 953 9 view .LVU643
 2584 0030 FFF7FEFF 		bl	bsp_mcu_handle_lr1mac_issue
 2585              	.LVL306:
 954:lr1mac/src/smtc_real/src/smtc_real.c ****     }
 2586              		.loc 1 954 9 view .LVU644
 2587              		.loc 1 956 1 is_stmt 0 view .LVU645
 2588 0034 EEE7     		b	.L160
 2589              	.L164:
 2590 0036 C046     		.align	2
 2591              	.L163:
 2592 0038 00000000 		.word	.LC0
 2593 003c 08000000 		.word	.LC2
ARM GAS  /var/folders/bq/yv49bw8j2kd6w3hsq868qv180000gn/T//ccRnzw9B.s 			page 69


 2594 0040 00000000 		.word	.LANCHOR32
 2595 0044 10000000 		.word	.LC5
 2596 0048 20000000 		.word	.LC7
 2597              		.cfi_endproc
 2598              	.LFE41:
 2600              		.section	.text.smtc_real_min_dr_channel_set,"ax",%progbits
 2601              		.align	1
 2602              		.global	smtc_real_min_dr_channel_set
 2603              		.syntax unified
 2604              		.code	16
 2605              		.thumb_func
 2606              		.fpu softvfp
 2608              	smtc_real_min_dr_channel_set:
 2609              	.LVL307:
 2610              	.LFB42:
 957:lr1mac/src/smtc_real/src/smtc_real.c **** 
 958:lr1mac/src/smtc_real/src/smtc_real.c **** void smtc_real_min_dr_channel_set( lr1_stack_mac_t* lr1_mac, uint8_t dr, uint8_t index )
 959:lr1mac/src/smtc_real/src/smtc_real.c **** {
 2611              		.loc 1 959 1 is_stmt 1 view -0
 2612              		.cfi_startproc
 2613              		@ args = 0, pretend = 0, frame = 0
 2614              		@ frame_needed = 0, uses_anonymous_args = 0
 960:lr1mac/src/smtc_real/src/smtc_real.c ****     switch( lr1_mac->real->region_type )
 2615              		.loc 1 960 5 view .LVU647
 959:lr1mac/src/smtc_real/src/smtc_real.c ****     switch( lr1_mac->real->region_type )
 2616              		.loc 1 959 1 is_stmt 0 view .LVU648
 2617 0000 0300     		movs	r3, r0
 2618 0002 10B5     		push	{r4, lr}
 2619              		.cfi_def_cfa_offset 8
 2620              		.cfi_offset 4, -8
 2621              		.cfi_offset 14, -4
 2622              		.loc 1 960 26 view .LVU649
 2623 0004 1B68     		ldr	r3, [r3]
 959:lr1mac/src/smtc_real/src/smtc_real.c ****     switch( lr1_mac->real->region_type )
 2624              		.loc 1 959 1 view .LVU650
 2625 0006 0800     		movs	r0, r1
 2626              	.LVL308:
 2627              		.loc 1 960 5 view .LVU651
 2628 0008 1B79     		ldrb	r3, [r3, #4]
 959:lr1mac/src/smtc_real/src/smtc_real.c ****     switch( lr1_mac->real->region_type )
 2629              		.loc 1 959 1 view .LVU652
 2630 000a 1100     		movs	r1, r2
 2631              	.LVL309:
 2632              		.loc 1 960 5 view .LVU653
 2633 000c 062B     		cmp	r3, #6
 2634 000e 02D1     		bne	.L166
 961:lr1mac/src/smtc_real/src/smtc_real.c ****     {
 962:lr1mac/src/smtc_real/src/smtc_real.c **** #if defined( REGION_WW2G4 )
 963:lr1mac/src/smtc_real/src/smtc_real.c ****     case SMTC_REAL_REGION_WW2G4: {
 964:lr1mac/src/smtc_real/src/smtc_real.c ****         region_ww2g4_min_dr_channel_set( dr, index );
 2635              		.loc 1 964 9 is_stmt 1 view .LVU654
 2636 0010 FFF7FEFF 		bl	region_ww2g4_min_dr_channel_set
 2637              	.LVL310:
 965:lr1mac/src/smtc_real/src/smtc_real.c ****         break;
 2638              		.loc 1 965 9 view .LVU655
 2639              	.L165:
 966:lr1mac/src/smtc_real/src/smtc_real.c ****     }
ARM GAS  /var/folders/bq/yv49bw8j2kd6w3hsq868qv180000gn/T//ccRnzw9B.s 			page 70


 967:lr1mac/src/smtc_real/src/smtc_real.c **** #endif
 968:lr1mac/src/smtc_real/src/smtc_real.c **** #if defined( REGION_EU_868 )
 969:lr1mac/src/smtc_real/src/smtc_real.c ****     case SMTC_REAL_REGION_EU_868: {
 970:lr1mac/src/smtc_real/src/smtc_real.c ****         region_eu_868_min_dr_channel_set( dr, index );
 971:lr1mac/src/smtc_real/src/smtc_real.c ****         break;
 972:lr1mac/src/smtc_real/src/smtc_real.c ****     }
 973:lr1mac/src/smtc_real/src/smtc_real.c **** #endif
 974:lr1mac/src/smtc_real/src/smtc_real.c **** #if defined( REGION_US_915 )
 975:lr1mac/src/smtc_real/src/smtc_real.c ****     case SMTC_REAL_REGION_US_915: {
 976:lr1mac/src/smtc_real/src/smtc_real.c ****         region_us_915_min_dr_channel_set( dr, index );
 977:lr1mac/src/smtc_real/src/smtc_real.c ****         break;
 978:lr1mac/src/smtc_real/src/smtc_real.c ****     }
 979:lr1mac/src/smtc_real/src/smtc_real.c **** #endif
 980:lr1mac/src/smtc_real/src/smtc_real.c ****     default:
 981:lr1mac/src/smtc_real/src/smtc_real.c ****         BSP_DBG_TRACE_ERROR( "%s unsupported\n", __func__ );
 982:lr1mac/src/smtc_real/src/smtc_real.c ****         bsp_mcu_handle_lr1mac_issue( );
 983:lr1mac/src/smtc_real/src/smtc_real.c ****         break;
 984:lr1mac/src/smtc_real/src/smtc_real.c ****     }
 985:lr1mac/src/smtc_real/src/smtc_real.c **** }
 2640              		.loc 1 985 1 is_stmt 0 view .LVU656
 2641              		@ sp needed
 2642 0014 10BD     		pop	{r4, pc}
 2643              	.LVL311:
 2644              	.L166:
 981:lr1mac/src/smtc_real/src/smtc_real.c ****         bsp_mcu_handle_lr1mac_issue( );
 2645              		.loc 1 981 9 is_stmt 1 view .LVU657
 981:lr1mac/src/smtc_real/src/smtc_real.c ****         bsp_mcu_handle_lr1mac_issue( );
 2646              		.loc 1 981 9 view .LVU658
 2647 0016 0848     		ldr	r0, .L168
 2648 0018 FFF7FEFF 		bl	bsp_trace_print
 2649              	.LVL312:
 981:lr1mac/src/smtc_real/src/smtc_real.c ****         bsp_mcu_handle_lr1mac_issue( );
 2650              		.loc 1 981 9 view .LVU659
 2651 001c 0748     		ldr	r0, .L168+4
 2652 001e FFF7FEFF 		bl	bsp_trace_print
 2653              	.LVL313:
 981:lr1mac/src/smtc_real/src/smtc_real.c ****         bsp_mcu_handle_lr1mac_issue( );
 2654              		.loc 1 981 9 view .LVU660
 2655 0022 0749     		ldr	r1, .L168+8
 2656 0024 0748     		ldr	r0, .L168+12
 2657 0026 FFF7FEFF 		bl	bsp_trace_print
 2658              	.LVL314:
 981:lr1mac/src/smtc_real/src/smtc_real.c ****         bsp_mcu_handle_lr1mac_issue( );
 2659              		.loc 1 981 9 view .LVU661
 2660 002a 0748     		ldr	r0, .L168+16
 2661 002c FFF7FEFF 		bl	bsp_trace_print
 2662              	.LVL315:
 981:lr1mac/src/smtc_real/src/smtc_real.c ****         bsp_mcu_handle_lr1mac_issue( );
 2663              		.loc 1 981 9 view .LVU662
 981:lr1mac/src/smtc_real/src/smtc_real.c ****         bsp_mcu_handle_lr1mac_issue( );
 2664              		.loc 1 981 60 view .LVU663
 982:lr1mac/src/smtc_real/src/smtc_real.c ****         break;
 2665              		.loc 1 982 9 view .LVU664
 2666 0030 FFF7FEFF 		bl	bsp_mcu_handle_lr1mac_issue
 2667              	.LVL316:
 983:lr1mac/src/smtc_real/src/smtc_real.c ****     }
 2668              		.loc 1 983 9 view .LVU665
ARM GAS  /var/folders/bq/yv49bw8j2kd6w3hsq868qv180000gn/T//ccRnzw9B.s 			page 71


 2669              		.loc 1 985 1 is_stmt 0 view .LVU666
 2670 0034 EEE7     		b	.L165
 2671              	.L169:
 2672 0036 C046     		.align	2
 2673              	.L168:
 2674 0038 00000000 		.word	.LC0
 2675 003c 08000000 		.word	.LC2
 2676 0040 00000000 		.word	.LANCHOR33
 2677 0044 10000000 		.word	.LC5
 2678 0048 20000000 		.word	.LC7
 2679              		.cfi_endproc
 2680              	.LFE42:
 2682              		.section	.text.smtc_real_max_dr_channel_set,"ax",%progbits
 2683              		.align	1
 2684              		.global	smtc_real_max_dr_channel_set
 2685              		.syntax unified
 2686              		.code	16
 2687              		.thumb_func
 2688              		.fpu softvfp
 2690              	smtc_real_max_dr_channel_set:
 2691              	.LVL317:
 2692              	.LFB43:
 986:lr1mac/src/smtc_real/src/smtc_real.c **** 
 987:lr1mac/src/smtc_real/src/smtc_real.c **** void smtc_real_max_dr_channel_set( lr1_stack_mac_t* lr1_mac, uint8_t dr, uint8_t index )
 988:lr1mac/src/smtc_real/src/smtc_real.c **** {
 2693              		.loc 1 988 1 is_stmt 1 view -0
 2694              		.cfi_startproc
 2695              		@ args = 0, pretend = 0, frame = 0
 2696              		@ frame_needed = 0, uses_anonymous_args = 0
 989:lr1mac/src/smtc_real/src/smtc_real.c ****     switch( lr1_mac->real->region_type )
 2697              		.loc 1 989 5 view .LVU668
 988:lr1mac/src/smtc_real/src/smtc_real.c ****     switch( lr1_mac->real->region_type )
 2698              		.loc 1 988 1 is_stmt 0 view .LVU669
 2699 0000 0300     		movs	r3, r0
 2700 0002 10B5     		push	{r4, lr}
 2701              		.cfi_def_cfa_offset 8
 2702              		.cfi_offset 4, -8
 2703              		.cfi_offset 14, -4
 2704              		.loc 1 989 26 view .LVU670
 2705 0004 1B68     		ldr	r3, [r3]
 988:lr1mac/src/smtc_real/src/smtc_real.c ****     switch( lr1_mac->real->region_type )
 2706              		.loc 1 988 1 view .LVU671
 2707 0006 0800     		movs	r0, r1
 2708              	.LVL318:
 2709              		.loc 1 989 5 view .LVU672
 2710 0008 1B79     		ldrb	r3, [r3, #4]
 988:lr1mac/src/smtc_real/src/smtc_real.c ****     switch( lr1_mac->real->region_type )
 2711              		.loc 1 988 1 view .LVU673
 2712 000a 1100     		movs	r1, r2
 2713              	.LVL319:
 2714              		.loc 1 989 5 view .LVU674
 2715 000c 062B     		cmp	r3, #6
 2716 000e 02D1     		bne	.L171
 990:lr1mac/src/smtc_real/src/smtc_real.c ****     {
 991:lr1mac/src/smtc_real/src/smtc_real.c **** #if defined( REGION_WW2G4 )
 992:lr1mac/src/smtc_real/src/smtc_real.c ****     case SMTC_REAL_REGION_WW2G4: {
 993:lr1mac/src/smtc_real/src/smtc_real.c ****         region_ww2g4_max_dr_channel_set( dr, index );
ARM GAS  /var/folders/bq/yv49bw8j2kd6w3hsq868qv180000gn/T//ccRnzw9B.s 			page 72


 2717              		.loc 1 993 9 is_stmt 1 view .LVU675
 2718 0010 FFF7FEFF 		bl	region_ww2g4_max_dr_channel_set
 2719              	.LVL320:
 994:lr1mac/src/smtc_real/src/smtc_real.c ****         break;
 2720              		.loc 1 994 9 view .LVU676
 2721              	.L170:
 995:lr1mac/src/smtc_real/src/smtc_real.c ****     }
 996:lr1mac/src/smtc_real/src/smtc_real.c **** #endif
 997:lr1mac/src/smtc_real/src/smtc_real.c **** #if defined( REGION_EU_868 )
 998:lr1mac/src/smtc_real/src/smtc_real.c ****     case SMTC_REAL_REGION_EU_868: {
 999:lr1mac/src/smtc_real/src/smtc_real.c ****         region_eu_868_max_dr_channel_set( dr, index );
1000:lr1mac/src/smtc_real/src/smtc_real.c ****         break;
1001:lr1mac/src/smtc_real/src/smtc_real.c ****     }
1002:lr1mac/src/smtc_real/src/smtc_real.c **** #endif
1003:lr1mac/src/smtc_real/src/smtc_real.c **** #if defined( REGION_US_915 )
1004:lr1mac/src/smtc_real/src/smtc_real.c ****     case SMTC_REAL_REGION_US_915: {
1005:lr1mac/src/smtc_real/src/smtc_real.c ****         region_us_915_max_dr_channel_set( dr, index );
1006:lr1mac/src/smtc_real/src/smtc_real.c ****         break;
1007:lr1mac/src/smtc_real/src/smtc_real.c ****     }
1008:lr1mac/src/smtc_real/src/smtc_real.c **** #endif
1009:lr1mac/src/smtc_real/src/smtc_real.c ****     default:
1010:lr1mac/src/smtc_real/src/smtc_real.c ****         BSP_DBG_TRACE_ERROR( "%s unsupported\n", __func__ );
1011:lr1mac/src/smtc_real/src/smtc_real.c ****         bsp_mcu_handle_lr1mac_issue( );
1012:lr1mac/src/smtc_real/src/smtc_real.c ****         break;
1013:lr1mac/src/smtc_real/src/smtc_real.c ****     }
1014:lr1mac/src/smtc_real/src/smtc_real.c **** }
 2722              		.loc 1 1014 1 is_stmt 0 view .LVU677
 2723              		@ sp needed
 2724 0014 10BD     		pop	{r4, pc}
 2725              	.LVL321:
 2726              	.L171:
1010:lr1mac/src/smtc_real/src/smtc_real.c ****         bsp_mcu_handle_lr1mac_issue( );
 2727              		.loc 1 1010 9 is_stmt 1 view .LVU678
1010:lr1mac/src/smtc_real/src/smtc_real.c ****         bsp_mcu_handle_lr1mac_issue( );
 2728              		.loc 1 1010 9 view .LVU679
 2729 0016 0848     		ldr	r0, .L173
 2730 0018 FFF7FEFF 		bl	bsp_trace_print
 2731              	.LVL322:
1010:lr1mac/src/smtc_real/src/smtc_real.c ****         bsp_mcu_handle_lr1mac_issue( );
 2732              		.loc 1 1010 9 view .LVU680
 2733 001c 0748     		ldr	r0, .L173+4
 2734 001e FFF7FEFF 		bl	bsp_trace_print
 2735              	.LVL323:
1010:lr1mac/src/smtc_real/src/smtc_real.c ****         bsp_mcu_handle_lr1mac_issue( );
 2736              		.loc 1 1010 9 view .LVU681
 2737 0022 0749     		ldr	r1, .L173+8
 2738 0024 0748     		ldr	r0, .L173+12
 2739 0026 FFF7FEFF 		bl	bsp_trace_print
 2740              	.LVL324:
1010:lr1mac/src/smtc_real/src/smtc_real.c ****         bsp_mcu_handle_lr1mac_issue( );
 2741              		.loc 1 1010 9 view .LVU682
 2742 002a 0748     		ldr	r0, .L173+16
 2743 002c FFF7FEFF 		bl	bsp_trace_print
 2744              	.LVL325:
1010:lr1mac/src/smtc_real/src/smtc_real.c ****         bsp_mcu_handle_lr1mac_issue( );
 2745              		.loc 1 1010 9 view .LVU683
1010:lr1mac/src/smtc_real/src/smtc_real.c ****         bsp_mcu_handle_lr1mac_issue( );
ARM GAS  /var/folders/bq/yv49bw8j2kd6w3hsq868qv180000gn/T//ccRnzw9B.s 			page 73


 2746              		.loc 1 1010 60 view .LVU684
1011:lr1mac/src/smtc_real/src/smtc_real.c ****         break;
 2747              		.loc 1 1011 9 view .LVU685
 2748 0030 FFF7FEFF 		bl	bsp_mcu_handle_lr1mac_issue
 2749              	.LVL326:
1012:lr1mac/src/smtc_real/src/smtc_real.c ****     }
 2750              		.loc 1 1012 9 view .LVU686
 2751              		.loc 1 1014 1 is_stmt 0 view .LVU687
 2752 0034 EEE7     		b	.L170
 2753              	.L174:
 2754 0036 C046     		.align	2
 2755              	.L173:
 2756 0038 00000000 		.word	.LC0
 2757 003c 08000000 		.word	.LC2
 2758 0040 00000000 		.word	.LANCHOR34
 2759 0044 10000000 		.word	.LC5
 2760 0048 20000000 		.word	.LC7
 2761              		.cfi_endproc
 2762              	.LFE43:
 2764              		.section	.text.smtc_real_channel_enabled_set,"ax",%progbits
 2765              		.align	1
 2766              		.global	smtc_real_channel_enabled_set
 2767              		.syntax unified
 2768              		.code	16
 2769              		.thumb_func
 2770              		.fpu softvfp
 2772              	smtc_real_channel_enabled_set:
 2773              	.LVL327:
 2774              	.LFB44:
1015:lr1mac/src/smtc_real/src/smtc_real.c **** 
1016:lr1mac/src/smtc_real/src/smtc_real.c **** void smtc_real_channel_enabled_set( lr1_stack_mac_t* lr1_mac, uint8_t enable, uint8_t index )
1017:lr1mac/src/smtc_real/src/smtc_real.c **** {
 2775              		.loc 1 1017 1 is_stmt 1 view -0
 2776              		.cfi_startproc
 2777              		@ args = 0, pretend = 0, frame = 0
 2778              		@ frame_needed = 0, uses_anonymous_args = 0
1018:lr1mac/src/smtc_real/src/smtc_real.c ****     switch( lr1_mac->real->region_type )
 2779              		.loc 1 1018 5 view .LVU689
1017:lr1mac/src/smtc_real/src/smtc_real.c ****     switch( lr1_mac->real->region_type )
 2780              		.loc 1 1017 1 is_stmt 0 view .LVU690
 2781 0000 0300     		movs	r3, r0
 2782 0002 10B5     		push	{r4, lr}
 2783              		.cfi_def_cfa_offset 8
 2784              		.cfi_offset 4, -8
 2785              		.cfi_offset 14, -4
 2786              		.loc 1 1018 26 view .LVU691
 2787 0004 1B68     		ldr	r3, [r3]
1017:lr1mac/src/smtc_real/src/smtc_real.c ****     switch( lr1_mac->real->region_type )
 2788              		.loc 1 1017 1 view .LVU692
 2789 0006 0800     		movs	r0, r1
 2790              	.LVL328:
 2791              		.loc 1 1018 5 view .LVU693
 2792 0008 1B79     		ldrb	r3, [r3, #4]
1017:lr1mac/src/smtc_real/src/smtc_real.c ****     switch( lr1_mac->real->region_type )
 2793              		.loc 1 1017 1 view .LVU694
 2794 000a 1100     		movs	r1, r2
 2795              	.LVL329:
ARM GAS  /var/folders/bq/yv49bw8j2kd6w3hsq868qv180000gn/T//ccRnzw9B.s 			page 74


 2796              		.loc 1 1018 5 view .LVU695
 2797 000c 062B     		cmp	r3, #6
 2798 000e 02D1     		bne	.L176
1019:lr1mac/src/smtc_real/src/smtc_real.c ****     {
1020:lr1mac/src/smtc_real/src/smtc_real.c **** #if defined( REGION_WW2G4 )
1021:lr1mac/src/smtc_real/src/smtc_real.c ****     case SMTC_REAL_REGION_WW2G4: {
1022:lr1mac/src/smtc_real/src/smtc_real.c ****         region_ww2g4_channel_enabled_set( enable, index );
 2799              		.loc 1 1022 9 is_stmt 1 view .LVU696
 2800 0010 FFF7FEFF 		bl	region_ww2g4_channel_enabled_set
 2801              	.LVL330:
1023:lr1mac/src/smtc_real/src/smtc_real.c ****         break;
 2802              		.loc 1 1023 9 view .LVU697
 2803              	.L175:
1024:lr1mac/src/smtc_real/src/smtc_real.c ****     }
1025:lr1mac/src/smtc_real/src/smtc_real.c **** #endif
1026:lr1mac/src/smtc_real/src/smtc_real.c **** #if defined( REGION_EU_868 )
1027:lr1mac/src/smtc_real/src/smtc_real.c ****     case SMTC_REAL_REGION_EU_868: {
1028:lr1mac/src/smtc_real/src/smtc_real.c ****         region_eu_868_channel_enabled_set( enable, index );
1029:lr1mac/src/smtc_real/src/smtc_real.c ****         break;
1030:lr1mac/src/smtc_real/src/smtc_real.c ****     }
1031:lr1mac/src/smtc_real/src/smtc_real.c **** #endif
1032:lr1mac/src/smtc_real/src/smtc_real.c **** #if defined( REGION_US_915 )
1033:lr1mac/src/smtc_real/src/smtc_real.c ****     case SMTC_REAL_REGION_US_915: {
1034:lr1mac/src/smtc_real/src/smtc_real.c ****         region_us_915_channel_enabled_set( enable, index );
1035:lr1mac/src/smtc_real/src/smtc_real.c ****         break;
1036:lr1mac/src/smtc_real/src/smtc_real.c ****     }
1037:lr1mac/src/smtc_real/src/smtc_real.c **** #endif
1038:lr1mac/src/smtc_real/src/smtc_real.c ****     default:
1039:lr1mac/src/smtc_real/src/smtc_real.c ****         BSP_DBG_TRACE_ERROR( "%s unsupported\n", __func__ );
1040:lr1mac/src/smtc_real/src/smtc_real.c ****         bsp_mcu_handle_lr1mac_issue( );
1041:lr1mac/src/smtc_real/src/smtc_real.c ****         break;
1042:lr1mac/src/smtc_real/src/smtc_real.c ****     }
1043:lr1mac/src/smtc_real/src/smtc_real.c **** }
 2804              		.loc 1 1043 1 is_stmt 0 view .LVU698
 2805              		@ sp needed
 2806 0014 10BD     		pop	{r4, pc}
 2807              	.LVL331:
 2808              	.L176:
1039:lr1mac/src/smtc_real/src/smtc_real.c ****         bsp_mcu_handle_lr1mac_issue( );
 2809              		.loc 1 1039 9 is_stmt 1 view .LVU699
1039:lr1mac/src/smtc_real/src/smtc_real.c ****         bsp_mcu_handle_lr1mac_issue( );
 2810              		.loc 1 1039 9 view .LVU700
 2811 0016 0848     		ldr	r0, .L178
 2812 0018 FFF7FEFF 		bl	bsp_trace_print
 2813              	.LVL332:
1039:lr1mac/src/smtc_real/src/smtc_real.c ****         bsp_mcu_handle_lr1mac_issue( );
 2814              		.loc 1 1039 9 view .LVU701
 2815 001c 0748     		ldr	r0, .L178+4
 2816 001e FFF7FEFF 		bl	bsp_trace_print
 2817              	.LVL333:
1039:lr1mac/src/smtc_real/src/smtc_real.c ****         bsp_mcu_handle_lr1mac_issue( );
 2818              		.loc 1 1039 9 view .LVU702
 2819 0022 0749     		ldr	r1, .L178+8
 2820 0024 0748     		ldr	r0, .L178+12
 2821 0026 FFF7FEFF 		bl	bsp_trace_print
 2822              	.LVL334:
1039:lr1mac/src/smtc_real/src/smtc_real.c ****         bsp_mcu_handle_lr1mac_issue( );
ARM GAS  /var/folders/bq/yv49bw8j2kd6w3hsq868qv180000gn/T//ccRnzw9B.s 			page 75


 2823              		.loc 1 1039 9 view .LVU703
 2824 002a 0748     		ldr	r0, .L178+16
 2825 002c FFF7FEFF 		bl	bsp_trace_print
 2826              	.LVL335:
1039:lr1mac/src/smtc_real/src/smtc_real.c ****         bsp_mcu_handle_lr1mac_issue( );
 2827              		.loc 1 1039 9 view .LVU704
1039:lr1mac/src/smtc_real/src/smtc_real.c ****         bsp_mcu_handle_lr1mac_issue( );
 2828              		.loc 1 1039 60 view .LVU705
1040:lr1mac/src/smtc_real/src/smtc_real.c ****         break;
 2829              		.loc 1 1040 9 view .LVU706
 2830 0030 FFF7FEFF 		bl	bsp_mcu_handle_lr1mac_issue
 2831              	.LVL336:
1041:lr1mac/src/smtc_real/src/smtc_real.c ****     }
 2832              		.loc 1 1041 9 view .LVU707
 2833              		.loc 1 1043 1 is_stmt 0 view .LVU708
 2834 0034 EEE7     		b	.L175
 2835              	.L179:
 2836 0036 C046     		.align	2
 2837              	.L178:
 2838 0038 00000000 		.word	.LC0
 2839 003c 08000000 		.word	.LC2
 2840 0040 00000000 		.word	.LANCHOR35
 2841 0044 10000000 		.word	.LC5
 2842 0048 20000000 		.word	.LC7
 2843              		.cfi_endproc
 2844              	.LFE44:
 2846              		.section	.text.smtc_real_tx_frequency_channel_get,"ax",%progbits
 2847              		.align	1
 2848              		.global	smtc_real_tx_frequency_channel_get
 2849              		.syntax unified
 2850              		.code	16
 2851              		.thumb_func
 2852              		.fpu softvfp
 2854              	smtc_real_tx_frequency_channel_get:
 2855              	.LVL337:
 2856              	.LFB45:
1044:lr1mac/src/smtc_real/src/smtc_real.c **** 
1045:lr1mac/src/smtc_real/src/smtc_real.c **** uint32_t smtc_real_tx_frequency_channel_get( lr1_stack_mac_t* lr1_mac, uint8_t index )
1046:lr1mac/src/smtc_real/src/smtc_real.c **** {
 2857              		.loc 1 1046 1 is_stmt 1 view -0
 2858              		.cfi_startproc
 2859              		@ args = 0, pretend = 0, frame = 0
 2860              		@ frame_needed = 0, uses_anonymous_args = 0
1047:lr1mac/src/smtc_real/src/smtc_real.c ****     switch( lr1_mac->real->region_type )
 2861              		.loc 1 1047 5 view .LVU710
1046:lr1mac/src/smtc_real/src/smtc_real.c ****     switch( lr1_mac->real->region_type )
 2862              		.loc 1 1046 1 is_stmt 0 view .LVU711
 2863 0000 10B5     		push	{r4, lr}
 2864              		.cfi_def_cfa_offset 8
 2865              		.cfi_offset 4, -8
 2866              		.cfi_offset 14, -4
 2867              		.loc 1 1047 26 view .LVU712
 2868 0002 0368     		ldr	r3, [r0]
 2869              		.loc 1 1047 5 view .LVU713
 2870 0004 1B79     		ldrb	r3, [r3, #4]
 2871 0006 062B     		cmp	r3, #6
 2872 0008 03D1     		bne	.L181
ARM GAS  /var/folders/bq/yv49bw8j2kd6w3hsq868qv180000gn/T//ccRnzw9B.s 			page 76


1048:lr1mac/src/smtc_real/src/smtc_real.c ****     {
1049:lr1mac/src/smtc_real/src/smtc_real.c **** #if defined( REGION_WW2G4 )
1050:lr1mac/src/smtc_real/src/smtc_real.c ****     case SMTC_REAL_REGION_WW2G4: {
1051:lr1mac/src/smtc_real/src/smtc_real.c ****         return region_ww2g4_tx_frequency_channel_get( index );
 2873              		.loc 1 1051 9 is_stmt 1 view .LVU714
 2874              		.loc 1 1051 16 is_stmt 0 view .LVU715
 2875 000a 0800     		movs	r0, r1
 2876              	.LVL338:
 2877              		.loc 1 1051 16 view .LVU716
 2878 000c FFF7FEFF 		bl	region_ww2g4_tx_frequency_channel_get
 2879              	.LVL339:
 2880              	.L180:
1052:lr1mac/src/smtc_real/src/smtc_real.c ****     }
1053:lr1mac/src/smtc_real/src/smtc_real.c **** #endif
1054:lr1mac/src/smtc_real/src/smtc_real.c **** #if defined( REGION_EU_868 )
1055:lr1mac/src/smtc_real/src/smtc_real.c ****     case SMTC_REAL_REGION_EU_868: {
1056:lr1mac/src/smtc_real/src/smtc_real.c ****         return region_eu_868_tx_frequency_channel_get( index );
1057:lr1mac/src/smtc_real/src/smtc_real.c ****     }
1058:lr1mac/src/smtc_real/src/smtc_real.c **** #endif
1059:lr1mac/src/smtc_real/src/smtc_real.c **** #if defined( REGION_US_915 )
1060:lr1mac/src/smtc_real/src/smtc_real.c ****     case SMTC_REAL_REGION_US_915: {
1061:lr1mac/src/smtc_real/src/smtc_real.c ****         return region_us_915_tx_frequency_channel_get( index );
1062:lr1mac/src/smtc_real/src/smtc_real.c ****     }
1063:lr1mac/src/smtc_real/src/smtc_real.c **** #endif
1064:lr1mac/src/smtc_real/src/smtc_real.c ****     default:
1065:lr1mac/src/smtc_real/src/smtc_real.c ****         BSP_DBG_TRACE_ERROR( "%s unsupported\n", __func__ );
1066:lr1mac/src/smtc_real/src/smtc_real.c ****         bsp_mcu_handle_lr1mac_issue( );
1067:lr1mac/src/smtc_real/src/smtc_real.c ****         break;
1068:lr1mac/src/smtc_real/src/smtc_real.c ****     }
1069:lr1mac/src/smtc_real/src/smtc_real.c ****     return 0;  // never reach => avoid warning
1070:lr1mac/src/smtc_real/src/smtc_real.c **** }
 2881              		.loc 1 1070 1 view .LVU717
 2882              		@ sp needed
 2883 0010 10BD     		pop	{r4, pc}
 2884              	.LVL340:
 2885              	.L181:
1065:lr1mac/src/smtc_real/src/smtc_real.c ****         bsp_mcu_handle_lr1mac_issue( );
 2886              		.loc 1 1065 9 is_stmt 1 view .LVU718
1065:lr1mac/src/smtc_real/src/smtc_real.c ****         bsp_mcu_handle_lr1mac_issue( );
 2887              		.loc 1 1065 9 view .LVU719
 2888 0012 0848     		ldr	r0, .L183
 2889              	.LVL341:
1065:lr1mac/src/smtc_real/src/smtc_real.c ****         bsp_mcu_handle_lr1mac_issue( );
 2890              		.loc 1 1065 9 is_stmt 0 view .LVU720
 2891 0014 FFF7FEFF 		bl	bsp_trace_print
 2892              	.LVL342:
1065:lr1mac/src/smtc_real/src/smtc_real.c ****         bsp_mcu_handle_lr1mac_issue( );
 2893              		.loc 1 1065 9 is_stmt 1 view .LVU721
 2894 0018 0748     		ldr	r0, .L183+4
 2895 001a FFF7FEFF 		bl	bsp_trace_print
 2896              	.LVL343:
1065:lr1mac/src/smtc_real/src/smtc_real.c ****         bsp_mcu_handle_lr1mac_issue( );
 2897              		.loc 1 1065 9 view .LVU722
 2898 001e 0749     		ldr	r1, .L183+8
 2899 0020 0748     		ldr	r0, .L183+12
 2900 0022 FFF7FEFF 		bl	bsp_trace_print
 2901              	.LVL344:
ARM GAS  /var/folders/bq/yv49bw8j2kd6w3hsq868qv180000gn/T//ccRnzw9B.s 			page 77


1065:lr1mac/src/smtc_real/src/smtc_real.c ****         bsp_mcu_handle_lr1mac_issue( );
 2902              		.loc 1 1065 9 view .LVU723
 2903 0026 0748     		ldr	r0, .L183+16
 2904 0028 FFF7FEFF 		bl	bsp_trace_print
 2905              	.LVL345:
1065:lr1mac/src/smtc_real/src/smtc_real.c ****         bsp_mcu_handle_lr1mac_issue( );
 2906              		.loc 1 1065 9 view .LVU724
1065:lr1mac/src/smtc_real/src/smtc_real.c ****         bsp_mcu_handle_lr1mac_issue( );
 2907              		.loc 1 1065 60 view .LVU725
1066:lr1mac/src/smtc_real/src/smtc_real.c ****         break;
 2908              		.loc 1 1066 9 view .LVU726
 2909 002c FFF7FEFF 		bl	bsp_mcu_handle_lr1mac_issue
 2910              	.LVL346:
1067:lr1mac/src/smtc_real/src/smtc_real.c ****     }
 2911              		.loc 1 1067 9 view .LVU727
1069:lr1mac/src/smtc_real/src/smtc_real.c **** }
 2912              		.loc 1 1069 5 view .LVU728
1069:lr1mac/src/smtc_real/src/smtc_real.c **** }
 2913              		.loc 1 1069 12 is_stmt 0 view .LVU729
 2914 0030 0020     		movs	r0, #0
 2915 0032 EDE7     		b	.L180
 2916              	.L184:
 2917              		.align	2
 2918              	.L183:
 2919 0034 00000000 		.word	.LC0
 2920 0038 08000000 		.word	.LC2
 2921 003c 00000000 		.word	.LANCHOR36
 2922 0040 10000000 		.word	.LC5
 2923 0044 20000000 		.word	.LC7
 2924              		.cfi_endproc
 2925              	.LFE45:
 2927              		.section	.text.smtc_real_rx1_frequency_channel_get,"ax",%progbits
 2928              		.align	1
 2929              		.global	smtc_real_rx1_frequency_channel_get
 2930              		.syntax unified
 2931              		.code	16
 2932              		.thumb_func
 2933              		.fpu softvfp
 2935              	smtc_real_rx1_frequency_channel_get:
 2936              	.LVL347:
 2937              	.LFB46:
1071:lr1mac/src/smtc_real/src/smtc_real.c **** 
1072:lr1mac/src/smtc_real/src/smtc_real.c **** uint32_t smtc_real_rx1_frequency_channel_get( lr1_stack_mac_t* lr1_mac, uint8_t index )
1073:lr1mac/src/smtc_real/src/smtc_real.c **** {
 2938              		.loc 1 1073 1 is_stmt 1 view -0
 2939              		.cfi_startproc
 2940              		@ args = 0, pretend = 0, frame = 0
 2941              		@ frame_needed = 0, uses_anonymous_args = 0
1074:lr1mac/src/smtc_real/src/smtc_real.c ****     switch( lr1_mac->real->region_type )
 2942              		.loc 1 1074 5 view .LVU731
1073:lr1mac/src/smtc_real/src/smtc_real.c ****     switch( lr1_mac->real->region_type )
 2943              		.loc 1 1073 1 is_stmt 0 view .LVU732
 2944 0000 10B5     		push	{r4, lr}
 2945              		.cfi_def_cfa_offset 8
 2946              		.cfi_offset 4, -8
 2947              		.cfi_offset 14, -4
 2948              		.loc 1 1074 26 view .LVU733
ARM GAS  /var/folders/bq/yv49bw8j2kd6w3hsq868qv180000gn/T//ccRnzw9B.s 			page 78


 2949 0002 0368     		ldr	r3, [r0]
 2950              		.loc 1 1074 5 view .LVU734
 2951 0004 1B79     		ldrb	r3, [r3, #4]
 2952 0006 062B     		cmp	r3, #6
 2953 0008 03D1     		bne	.L186
1075:lr1mac/src/smtc_real/src/smtc_real.c ****     {
1076:lr1mac/src/smtc_real/src/smtc_real.c **** #if defined( REGION_WW2G4 )
1077:lr1mac/src/smtc_real/src/smtc_real.c ****     case SMTC_REAL_REGION_WW2G4: {
1078:lr1mac/src/smtc_real/src/smtc_real.c ****         return region_ww2g4_rx1_frequency_channel_get( index );
 2954              		.loc 1 1078 9 is_stmt 1 view .LVU735
 2955              		.loc 1 1078 16 is_stmt 0 view .LVU736
 2956 000a 0800     		movs	r0, r1
 2957              	.LVL348:
 2958              		.loc 1 1078 16 view .LVU737
 2959 000c FFF7FEFF 		bl	region_ww2g4_rx1_frequency_channel_get
 2960              	.LVL349:
 2961              	.L185:
1079:lr1mac/src/smtc_real/src/smtc_real.c ****     }
1080:lr1mac/src/smtc_real/src/smtc_real.c **** #endif
1081:lr1mac/src/smtc_real/src/smtc_real.c **** #if defined( REGION_EU_868 )
1082:lr1mac/src/smtc_real/src/smtc_real.c ****     case SMTC_REAL_REGION_EU_868: {
1083:lr1mac/src/smtc_real/src/smtc_real.c ****         return region_eu_868_rx1_frequency_channel_get( index );
1084:lr1mac/src/smtc_real/src/smtc_real.c ****     }
1085:lr1mac/src/smtc_real/src/smtc_real.c **** #endif
1086:lr1mac/src/smtc_real/src/smtc_real.c **** #if defined( REGION_US_915 )
1087:lr1mac/src/smtc_real/src/smtc_real.c ****     case SMTC_REAL_REGION_US_915: {
1088:lr1mac/src/smtc_real/src/smtc_real.c ****         return region_us_915_rx1_frequency_channel_get( index );
1089:lr1mac/src/smtc_real/src/smtc_real.c ****     }
1090:lr1mac/src/smtc_real/src/smtc_real.c **** #endif
1091:lr1mac/src/smtc_real/src/smtc_real.c ****     default:
1092:lr1mac/src/smtc_real/src/smtc_real.c ****         BSP_DBG_TRACE_ERROR( "%s unsupported\n", __func__ );
1093:lr1mac/src/smtc_real/src/smtc_real.c ****         bsp_mcu_handle_lr1mac_issue( );
1094:lr1mac/src/smtc_real/src/smtc_real.c ****         break;
1095:lr1mac/src/smtc_real/src/smtc_real.c ****     }
1096:lr1mac/src/smtc_real/src/smtc_real.c ****     return 0;  // never reach => avoid warning
1097:lr1mac/src/smtc_real/src/smtc_real.c **** }
 2962              		.loc 1 1097 1 view .LVU738
 2963              		@ sp needed
 2964 0010 10BD     		pop	{r4, pc}
 2965              	.LVL350:
 2966              	.L186:
1092:lr1mac/src/smtc_real/src/smtc_real.c ****         bsp_mcu_handle_lr1mac_issue( );
 2967              		.loc 1 1092 9 is_stmt 1 view .LVU739
1092:lr1mac/src/smtc_real/src/smtc_real.c ****         bsp_mcu_handle_lr1mac_issue( );
 2968              		.loc 1 1092 9 view .LVU740
 2969 0012 0848     		ldr	r0, .L188
 2970              	.LVL351:
1092:lr1mac/src/smtc_real/src/smtc_real.c ****         bsp_mcu_handle_lr1mac_issue( );
 2971              		.loc 1 1092 9 is_stmt 0 view .LVU741
 2972 0014 FFF7FEFF 		bl	bsp_trace_print
 2973              	.LVL352:
1092:lr1mac/src/smtc_real/src/smtc_real.c ****         bsp_mcu_handle_lr1mac_issue( );
 2974              		.loc 1 1092 9 is_stmt 1 view .LVU742
 2975 0018 0748     		ldr	r0, .L188+4
 2976 001a FFF7FEFF 		bl	bsp_trace_print
 2977              	.LVL353:
1092:lr1mac/src/smtc_real/src/smtc_real.c ****         bsp_mcu_handle_lr1mac_issue( );
ARM GAS  /var/folders/bq/yv49bw8j2kd6w3hsq868qv180000gn/T//ccRnzw9B.s 			page 79


 2978              		.loc 1 1092 9 view .LVU743
 2979 001e 0749     		ldr	r1, .L188+8
 2980 0020 0748     		ldr	r0, .L188+12
 2981 0022 FFF7FEFF 		bl	bsp_trace_print
 2982              	.LVL354:
1092:lr1mac/src/smtc_real/src/smtc_real.c ****         bsp_mcu_handle_lr1mac_issue( );
 2983              		.loc 1 1092 9 view .LVU744
 2984 0026 0748     		ldr	r0, .L188+16
 2985 0028 FFF7FEFF 		bl	bsp_trace_print
 2986              	.LVL355:
1092:lr1mac/src/smtc_real/src/smtc_real.c ****         bsp_mcu_handle_lr1mac_issue( );
 2987              		.loc 1 1092 9 view .LVU745
1092:lr1mac/src/smtc_real/src/smtc_real.c ****         bsp_mcu_handle_lr1mac_issue( );
 2988              		.loc 1 1092 60 view .LVU746
1093:lr1mac/src/smtc_real/src/smtc_real.c ****         break;
 2989              		.loc 1 1093 9 view .LVU747
 2990 002c FFF7FEFF 		bl	bsp_mcu_handle_lr1mac_issue
 2991              	.LVL356:
1094:lr1mac/src/smtc_real/src/smtc_real.c ****     }
 2992              		.loc 1 1094 9 view .LVU748
1096:lr1mac/src/smtc_real/src/smtc_real.c **** }
 2993              		.loc 1 1096 5 view .LVU749
1096:lr1mac/src/smtc_real/src/smtc_real.c **** }
 2994              		.loc 1 1096 12 is_stmt 0 view .LVU750
 2995 0030 0020     		movs	r0, #0
 2996 0032 EDE7     		b	.L185
 2997              	.L189:
 2998              		.align	2
 2999              	.L188:
 3000 0034 00000000 		.word	.LC0
 3001 0038 08000000 		.word	.LC2
 3002 003c 00000000 		.word	.LANCHOR37
 3003 0040 10000000 		.word	.LC5
 3004 0044 20000000 		.word	.LC7
 3005              		.cfi_endproc
 3006              	.LFE46:
 3008              		.section	.text.smtc_real_min_dr_channel_get,"ax",%progbits
 3009              		.align	1
 3010              		.global	smtc_real_min_dr_channel_get
 3011              		.syntax unified
 3012              		.code	16
 3013              		.thumb_func
 3014              		.fpu softvfp
 3016              	smtc_real_min_dr_channel_get:
 3017              	.LVL357:
 3018              	.LFB47:
1098:lr1mac/src/smtc_real/src/smtc_real.c **** 
1099:lr1mac/src/smtc_real/src/smtc_real.c **** uint8_t smtc_real_min_dr_channel_get( lr1_stack_mac_t* lr1_mac )
1100:lr1mac/src/smtc_real/src/smtc_real.c **** {
 3019              		.loc 1 1100 1 is_stmt 1 view -0
 3020              		.cfi_startproc
 3021              		@ args = 0, pretend = 0, frame = 0
 3022              		@ frame_needed = 0, uses_anonymous_args = 0
1101:lr1mac/src/smtc_real/src/smtc_real.c ****     switch( lr1_mac->real->region_type )
 3023              		.loc 1 1101 5 view .LVU752
1100:lr1mac/src/smtc_real/src/smtc_real.c ****     switch( lr1_mac->real->region_type )
 3024              		.loc 1 1100 1 is_stmt 0 view .LVU753
ARM GAS  /var/folders/bq/yv49bw8j2kd6w3hsq868qv180000gn/T//ccRnzw9B.s 			page 80


 3025 0000 10B5     		push	{r4, lr}
 3026              		.cfi_def_cfa_offset 8
 3027              		.cfi_offset 4, -8
 3028              		.cfi_offset 14, -4
 3029              		.loc 1 1101 26 view .LVU754
 3030 0002 0368     		ldr	r3, [r0]
 3031              		.loc 1 1101 5 view .LVU755
 3032 0004 1B79     		ldrb	r3, [r3, #4]
 3033 0006 062B     		cmp	r3, #6
 3034 0008 02D1     		bne	.L191
1102:lr1mac/src/smtc_real/src/smtc_real.c ****     {
1103:lr1mac/src/smtc_real/src/smtc_real.c **** #if defined( REGION_WW2G4 )
1104:lr1mac/src/smtc_real/src/smtc_real.c ****     case SMTC_REAL_REGION_WW2G4: {
1105:lr1mac/src/smtc_real/src/smtc_real.c ****         return region_ww2g4_min_dr_channel_get( );
 3035              		.loc 1 1105 9 is_stmt 1 view .LVU756
 3036              		.loc 1 1105 16 is_stmt 0 view .LVU757
 3037 000a FFF7FEFF 		bl	region_ww2g4_min_dr_channel_get
 3038              	.LVL358:
 3039              	.L192:
1106:lr1mac/src/smtc_real/src/smtc_real.c ****     }
1107:lr1mac/src/smtc_real/src/smtc_real.c **** #endif
1108:lr1mac/src/smtc_real/src/smtc_real.c **** #if defined( REGION_EU_868 )
1109:lr1mac/src/smtc_real/src/smtc_real.c ****     case SMTC_REAL_REGION_EU_868: {
1110:lr1mac/src/smtc_real/src/smtc_real.c ****         return region_eu_868_min_dr_channel_get( );
1111:lr1mac/src/smtc_real/src/smtc_real.c ****     }
1112:lr1mac/src/smtc_real/src/smtc_real.c **** #endif
1113:lr1mac/src/smtc_real/src/smtc_real.c **** #if defined( REGION_US_915 )
1114:lr1mac/src/smtc_real/src/smtc_real.c ****     case SMTC_REAL_REGION_US_915: {
1115:lr1mac/src/smtc_real/src/smtc_real.c ****         return region_us_915_min_dr_channel_get( );
1116:lr1mac/src/smtc_real/src/smtc_real.c ****     }
1117:lr1mac/src/smtc_real/src/smtc_real.c **** #endif
1118:lr1mac/src/smtc_real/src/smtc_real.c ****     default:
1119:lr1mac/src/smtc_real/src/smtc_real.c ****         BSP_DBG_TRACE_ERROR( "%s unsupported\n", __func__ );
1120:lr1mac/src/smtc_real/src/smtc_real.c ****         bsp_mcu_handle_lr1mac_issue( );
1121:lr1mac/src/smtc_real/src/smtc_real.c ****         break;
1122:lr1mac/src/smtc_real/src/smtc_real.c ****     }
1123:lr1mac/src/smtc_real/src/smtc_real.c ****     return 0;  // never reach => avoid warning
1124:lr1mac/src/smtc_real/src/smtc_real.c **** }
 3040              		.loc 1 1124 1 view .LVU758
 3041              		@ sp needed
 3042 000e 10BD     		pop	{r4, pc}
 3043              	.LVL359:
 3044              	.L191:
1119:lr1mac/src/smtc_real/src/smtc_real.c ****         bsp_mcu_handle_lr1mac_issue( );
 3045              		.loc 1 1119 9 is_stmt 1 view .LVU759
1119:lr1mac/src/smtc_real/src/smtc_real.c ****         bsp_mcu_handle_lr1mac_issue( );
 3046              		.loc 1 1119 9 view .LVU760
 3047 0010 0848     		ldr	r0, .L193
 3048              	.LVL360:
1119:lr1mac/src/smtc_real/src/smtc_real.c ****         bsp_mcu_handle_lr1mac_issue( );
 3049              		.loc 1 1119 9 is_stmt 0 view .LVU761
 3050 0012 FFF7FEFF 		bl	bsp_trace_print
 3051              	.LVL361:
1119:lr1mac/src/smtc_real/src/smtc_real.c ****         bsp_mcu_handle_lr1mac_issue( );
 3052              		.loc 1 1119 9 is_stmt 1 view .LVU762
 3053 0016 0848     		ldr	r0, .L193+4
 3054 0018 FFF7FEFF 		bl	bsp_trace_print
ARM GAS  /var/folders/bq/yv49bw8j2kd6w3hsq868qv180000gn/T//ccRnzw9B.s 			page 81


 3055              	.LVL362:
1119:lr1mac/src/smtc_real/src/smtc_real.c ****         bsp_mcu_handle_lr1mac_issue( );
 3056              		.loc 1 1119 9 view .LVU763
 3057 001c 0749     		ldr	r1, .L193+8
 3058 001e 0848     		ldr	r0, .L193+12
 3059 0020 FFF7FEFF 		bl	bsp_trace_print
 3060              	.LVL363:
1119:lr1mac/src/smtc_real/src/smtc_real.c ****         bsp_mcu_handle_lr1mac_issue( );
 3061              		.loc 1 1119 9 view .LVU764
 3062 0024 0748     		ldr	r0, .L193+16
 3063 0026 FFF7FEFF 		bl	bsp_trace_print
 3064              	.LVL364:
1119:lr1mac/src/smtc_real/src/smtc_real.c ****         bsp_mcu_handle_lr1mac_issue( );
 3065              		.loc 1 1119 9 view .LVU765
1119:lr1mac/src/smtc_real/src/smtc_real.c ****         bsp_mcu_handle_lr1mac_issue( );
 3066              		.loc 1 1119 60 view .LVU766
1120:lr1mac/src/smtc_real/src/smtc_real.c ****         break;
 3067              		.loc 1 1120 9 view .LVU767
 3068 002a FFF7FEFF 		bl	bsp_mcu_handle_lr1mac_issue
 3069              	.LVL365:
1121:lr1mac/src/smtc_real/src/smtc_real.c ****     }
 3070              		.loc 1 1121 9 view .LVU768
1123:lr1mac/src/smtc_real/src/smtc_real.c **** }
 3071              		.loc 1 1123 5 view .LVU769
1123:lr1mac/src/smtc_real/src/smtc_real.c **** }
 3072              		.loc 1 1123 12 is_stmt 0 view .LVU770
 3073 002e 0020     		movs	r0, #0
 3074 0030 EDE7     		b	.L192
 3075              	.L194:
 3076 0032 C046     		.align	2
 3077              	.L193:
 3078 0034 00000000 		.word	.LC0
 3079 0038 08000000 		.word	.LC2
 3080 003c 00000000 		.word	.LANCHOR38
 3081 0040 10000000 		.word	.LC5
 3082 0044 20000000 		.word	.LC7
 3083              		.cfi_endproc
 3084              	.LFE47:
 3086              		.section	.text.smtc_real_max_dr_channel_get,"ax",%progbits
 3087              		.align	1
 3088              		.global	smtc_real_max_dr_channel_get
 3089              		.syntax unified
 3090              		.code	16
 3091              		.thumb_func
 3092              		.fpu softvfp
 3094              	smtc_real_max_dr_channel_get:
 3095              	.LVL366:
 3096              	.LFB48:
1125:lr1mac/src/smtc_real/src/smtc_real.c **** 
1126:lr1mac/src/smtc_real/src/smtc_real.c **** uint8_t smtc_real_max_dr_channel_get( lr1_stack_mac_t* lr1_mac )
1127:lr1mac/src/smtc_real/src/smtc_real.c **** {
 3097              		.loc 1 1127 1 is_stmt 1 view -0
 3098              		.cfi_startproc
 3099              		@ args = 0, pretend = 0, frame = 0
 3100              		@ frame_needed = 0, uses_anonymous_args = 0
1128:lr1mac/src/smtc_real/src/smtc_real.c ****     switch( lr1_mac->real->region_type )
 3101              		.loc 1 1128 5 view .LVU772
ARM GAS  /var/folders/bq/yv49bw8j2kd6w3hsq868qv180000gn/T//ccRnzw9B.s 			page 82


1127:lr1mac/src/smtc_real/src/smtc_real.c ****     switch( lr1_mac->real->region_type )
 3102              		.loc 1 1127 1 is_stmt 0 view .LVU773
 3103 0000 10B5     		push	{r4, lr}
 3104              		.cfi_def_cfa_offset 8
 3105              		.cfi_offset 4, -8
 3106              		.cfi_offset 14, -4
 3107              		.loc 1 1128 26 view .LVU774
 3108 0002 0368     		ldr	r3, [r0]
 3109              		.loc 1 1128 5 view .LVU775
 3110 0004 1B79     		ldrb	r3, [r3, #4]
 3111 0006 062B     		cmp	r3, #6
 3112 0008 02D1     		bne	.L196
1129:lr1mac/src/smtc_real/src/smtc_real.c ****     {
1130:lr1mac/src/smtc_real/src/smtc_real.c **** #if defined( REGION_WW2G4 )
1131:lr1mac/src/smtc_real/src/smtc_real.c ****     case SMTC_REAL_REGION_WW2G4: {
1132:lr1mac/src/smtc_real/src/smtc_real.c ****         return region_ww2g4_max_dr_channel_get( );
 3113              		.loc 1 1132 9 is_stmt 1 view .LVU776
 3114              		.loc 1 1132 16 is_stmt 0 view .LVU777
 3115 000a FFF7FEFF 		bl	region_ww2g4_max_dr_channel_get
 3116              	.LVL367:
 3117              	.L197:
1133:lr1mac/src/smtc_real/src/smtc_real.c ****     }
1134:lr1mac/src/smtc_real/src/smtc_real.c **** #endif
1135:lr1mac/src/smtc_real/src/smtc_real.c **** #if defined( REGION_EU_868 )
1136:lr1mac/src/smtc_real/src/smtc_real.c ****     case SMTC_REAL_REGION_EU_868: {
1137:lr1mac/src/smtc_real/src/smtc_real.c ****         return region_eu_868_max_dr_channel_get( );
1138:lr1mac/src/smtc_real/src/smtc_real.c ****     }
1139:lr1mac/src/smtc_real/src/smtc_real.c **** #endif
1140:lr1mac/src/smtc_real/src/smtc_real.c **** #if defined( REGION_US_915 )
1141:lr1mac/src/smtc_real/src/smtc_real.c ****     case SMTC_REAL_REGION_US_915: {
1142:lr1mac/src/smtc_real/src/smtc_real.c ****         return region_us_915_max_dr_channel_get( );
1143:lr1mac/src/smtc_real/src/smtc_real.c ****     }
1144:lr1mac/src/smtc_real/src/smtc_real.c **** #endif
1145:lr1mac/src/smtc_real/src/smtc_real.c ****     default:
1146:lr1mac/src/smtc_real/src/smtc_real.c ****         BSP_DBG_TRACE_ERROR( "%s unsupported\n", __func__ );
1147:lr1mac/src/smtc_real/src/smtc_real.c ****         bsp_mcu_handle_lr1mac_issue( );
1148:lr1mac/src/smtc_real/src/smtc_real.c ****         break;
1149:lr1mac/src/smtc_real/src/smtc_real.c ****     }
1150:lr1mac/src/smtc_real/src/smtc_real.c ****     return 0;  // never reach => avoid warning
1151:lr1mac/src/smtc_real/src/smtc_real.c **** }
 3118              		.loc 1 1151 1 view .LVU778
 3119              		@ sp needed
 3120 000e 10BD     		pop	{r4, pc}
 3121              	.LVL368:
 3122              	.L196:
1146:lr1mac/src/smtc_real/src/smtc_real.c ****         bsp_mcu_handle_lr1mac_issue( );
 3123              		.loc 1 1146 9 is_stmt 1 view .LVU779
1146:lr1mac/src/smtc_real/src/smtc_real.c ****         bsp_mcu_handle_lr1mac_issue( );
 3124              		.loc 1 1146 9 view .LVU780
 3125 0010 0848     		ldr	r0, .L198
 3126              	.LVL369:
1146:lr1mac/src/smtc_real/src/smtc_real.c ****         bsp_mcu_handle_lr1mac_issue( );
 3127              		.loc 1 1146 9 is_stmt 0 view .LVU781
 3128 0012 FFF7FEFF 		bl	bsp_trace_print
 3129              	.LVL370:
1146:lr1mac/src/smtc_real/src/smtc_real.c ****         bsp_mcu_handle_lr1mac_issue( );
 3130              		.loc 1 1146 9 is_stmt 1 view .LVU782
ARM GAS  /var/folders/bq/yv49bw8j2kd6w3hsq868qv180000gn/T//ccRnzw9B.s 			page 83


 3131 0016 0848     		ldr	r0, .L198+4
 3132 0018 FFF7FEFF 		bl	bsp_trace_print
 3133              	.LVL371:
1146:lr1mac/src/smtc_real/src/smtc_real.c ****         bsp_mcu_handle_lr1mac_issue( );
 3134              		.loc 1 1146 9 view .LVU783
 3135 001c 0749     		ldr	r1, .L198+8
 3136 001e 0848     		ldr	r0, .L198+12
 3137 0020 FFF7FEFF 		bl	bsp_trace_print
 3138              	.LVL372:
1146:lr1mac/src/smtc_real/src/smtc_real.c ****         bsp_mcu_handle_lr1mac_issue( );
 3139              		.loc 1 1146 9 view .LVU784
 3140 0024 0748     		ldr	r0, .L198+16
 3141 0026 FFF7FEFF 		bl	bsp_trace_print
 3142              	.LVL373:
1146:lr1mac/src/smtc_real/src/smtc_real.c ****         bsp_mcu_handle_lr1mac_issue( );
 3143              		.loc 1 1146 9 view .LVU785
1146:lr1mac/src/smtc_real/src/smtc_real.c ****         bsp_mcu_handle_lr1mac_issue( );
 3144              		.loc 1 1146 60 view .LVU786
1147:lr1mac/src/smtc_real/src/smtc_real.c ****         break;
 3145              		.loc 1 1147 9 view .LVU787
 3146 002a FFF7FEFF 		bl	bsp_mcu_handle_lr1mac_issue
 3147              	.LVL374:
1148:lr1mac/src/smtc_real/src/smtc_real.c ****     }
 3148              		.loc 1 1148 9 view .LVU788
1150:lr1mac/src/smtc_real/src/smtc_real.c **** }
 3149              		.loc 1 1150 5 view .LVU789
1150:lr1mac/src/smtc_real/src/smtc_real.c **** }
 3150              		.loc 1 1150 12 is_stmt 0 view .LVU790
 3151 002e 0020     		movs	r0, #0
 3152 0030 EDE7     		b	.L197
 3153              	.L199:
 3154 0032 C046     		.align	2
 3155              	.L198:
 3156 0034 00000000 		.word	.LC0
 3157 0038 08000000 		.word	.LC2
 3158 003c 00000000 		.word	.LANCHOR39
 3159 0040 10000000 		.word	.LC5
 3160 0044 20000000 		.word	.LC7
 3161              		.cfi_endproc
 3162              	.LFE48:
 3164              		.section	.text.smtc_real_channel_enabled_get,"ax",%progbits
 3165              		.align	1
 3166              		.global	smtc_real_channel_enabled_get
 3167              		.syntax unified
 3168              		.code	16
 3169              		.thumb_func
 3170              		.fpu softvfp
 3172              	smtc_real_channel_enabled_get:
 3173              	.LVL375:
 3174              	.LFB49:
1152:lr1mac/src/smtc_real/src/smtc_real.c **** 
1153:lr1mac/src/smtc_real/src/smtc_real.c **** uint8_t smtc_real_channel_enabled_get( lr1_stack_mac_t* lr1_mac, uint8_t index )
1154:lr1mac/src/smtc_real/src/smtc_real.c **** {
 3175              		.loc 1 1154 1 is_stmt 1 view -0
 3176              		.cfi_startproc
 3177              		@ args = 0, pretend = 0, frame = 0
 3178              		@ frame_needed = 0, uses_anonymous_args = 0
ARM GAS  /var/folders/bq/yv49bw8j2kd6w3hsq868qv180000gn/T//ccRnzw9B.s 			page 84


1155:lr1mac/src/smtc_real/src/smtc_real.c ****     switch( lr1_mac->real->region_type )
 3179              		.loc 1 1155 5 view .LVU792
1154:lr1mac/src/smtc_real/src/smtc_real.c ****     switch( lr1_mac->real->region_type )
 3180              		.loc 1 1154 1 is_stmt 0 view .LVU793
 3181 0000 10B5     		push	{r4, lr}
 3182              		.cfi_def_cfa_offset 8
 3183              		.cfi_offset 4, -8
 3184              		.cfi_offset 14, -4
 3185              		.loc 1 1155 26 view .LVU794
 3186 0002 0368     		ldr	r3, [r0]
 3187              		.loc 1 1155 5 view .LVU795
 3188 0004 1B79     		ldrb	r3, [r3, #4]
 3189 0006 062B     		cmp	r3, #6
 3190 0008 03D1     		bne	.L201
1156:lr1mac/src/smtc_real/src/smtc_real.c ****     {
1157:lr1mac/src/smtc_real/src/smtc_real.c **** #if defined( REGION_WW2G4 )
1158:lr1mac/src/smtc_real/src/smtc_real.c ****     case SMTC_REAL_REGION_WW2G4: {
1159:lr1mac/src/smtc_real/src/smtc_real.c ****         return region_ww2g4_channel_enabled_get( index );
 3191              		.loc 1 1159 9 is_stmt 1 view .LVU796
 3192              		.loc 1 1159 16 is_stmt 0 view .LVU797
 3193 000a 0800     		movs	r0, r1
 3194              	.LVL376:
 3195              		.loc 1 1159 16 view .LVU798
 3196 000c FFF7FEFF 		bl	region_ww2g4_channel_enabled_get
 3197              	.LVL377:
 3198              	.L202:
1160:lr1mac/src/smtc_real/src/smtc_real.c ****     }
1161:lr1mac/src/smtc_real/src/smtc_real.c **** #endif
1162:lr1mac/src/smtc_real/src/smtc_real.c **** #if defined( REGION_EU_868 )
1163:lr1mac/src/smtc_real/src/smtc_real.c ****     case SMTC_REAL_REGION_EU_868: {
1164:lr1mac/src/smtc_real/src/smtc_real.c ****         return region_eu_868_channel_enabled_get( index );
1165:lr1mac/src/smtc_real/src/smtc_real.c ****     }
1166:lr1mac/src/smtc_real/src/smtc_real.c **** #endif
1167:lr1mac/src/smtc_real/src/smtc_real.c **** #if defined( REGION_US_915 )
1168:lr1mac/src/smtc_real/src/smtc_real.c ****     case SMTC_REAL_REGION_US_915: {
1169:lr1mac/src/smtc_real/src/smtc_real.c ****         return region_us_915_channel_enabled_get( index );
1170:lr1mac/src/smtc_real/src/smtc_real.c ****     }
1171:lr1mac/src/smtc_real/src/smtc_real.c **** #endif
1172:lr1mac/src/smtc_real/src/smtc_real.c ****     default:
1173:lr1mac/src/smtc_real/src/smtc_real.c ****         BSP_DBG_TRACE_ERROR( "%s unsupported\n", __func__ );
1174:lr1mac/src/smtc_real/src/smtc_real.c ****         bsp_mcu_handle_lr1mac_issue( );
1175:lr1mac/src/smtc_real/src/smtc_real.c ****         break;
1176:lr1mac/src/smtc_real/src/smtc_real.c ****     }
1177:lr1mac/src/smtc_real/src/smtc_real.c ****     return 0;  // never reach => avoid warning
1178:lr1mac/src/smtc_real/src/smtc_real.c **** }
 3199              		.loc 1 1178 1 view .LVU799
 3200              		@ sp needed
 3201 0010 10BD     		pop	{r4, pc}
 3202              	.LVL378:
 3203              	.L201:
1173:lr1mac/src/smtc_real/src/smtc_real.c ****         bsp_mcu_handle_lr1mac_issue( );
 3204              		.loc 1 1173 9 is_stmt 1 view .LVU800
1173:lr1mac/src/smtc_real/src/smtc_real.c ****         bsp_mcu_handle_lr1mac_issue( );
 3205              		.loc 1 1173 9 view .LVU801
 3206 0012 0848     		ldr	r0, .L203
 3207              	.LVL379:
1173:lr1mac/src/smtc_real/src/smtc_real.c ****         bsp_mcu_handle_lr1mac_issue( );
ARM GAS  /var/folders/bq/yv49bw8j2kd6w3hsq868qv180000gn/T//ccRnzw9B.s 			page 85


 3208              		.loc 1 1173 9 is_stmt 0 view .LVU802
 3209 0014 FFF7FEFF 		bl	bsp_trace_print
 3210              	.LVL380:
1173:lr1mac/src/smtc_real/src/smtc_real.c ****         bsp_mcu_handle_lr1mac_issue( );
 3211              		.loc 1 1173 9 is_stmt 1 view .LVU803
 3212 0018 0748     		ldr	r0, .L203+4
 3213 001a FFF7FEFF 		bl	bsp_trace_print
 3214              	.LVL381:
1173:lr1mac/src/smtc_real/src/smtc_real.c ****         bsp_mcu_handle_lr1mac_issue( );
 3215              		.loc 1 1173 9 view .LVU804
 3216 001e 0749     		ldr	r1, .L203+8
 3217 0020 0748     		ldr	r0, .L203+12
 3218 0022 FFF7FEFF 		bl	bsp_trace_print
 3219              	.LVL382:
1173:lr1mac/src/smtc_real/src/smtc_real.c ****         bsp_mcu_handle_lr1mac_issue( );
 3220              		.loc 1 1173 9 view .LVU805
 3221 0026 0748     		ldr	r0, .L203+16
 3222 0028 FFF7FEFF 		bl	bsp_trace_print
 3223              	.LVL383:
1173:lr1mac/src/smtc_real/src/smtc_real.c ****         bsp_mcu_handle_lr1mac_issue( );
 3224              		.loc 1 1173 9 view .LVU806
1173:lr1mac/src/smtc_real/src/smtc_real.c ****         bsp_mcu_handle_lr1mac_issue( );
 3225              		.loc 1 1173 60 view .LVU807
1174:lr1mac/src/smtc_real/src/smtc_real.c ****         break;
 3226              		.loc 1 1174 9 view .LVU808
 3227 002c FFF7FEFF 		bl	bsp_mcu_handle_lr1mac_issue
 3228              	.LVL384:
1175:lr1mac/src/smtc_real/src/smtc_real.c ****     }
 3229              		.loc 1 1175 9 view .LVU809
1177:lr1mac/src/smtc_real/src/smtc_real.c **** }
 3230              		.loc 1 1177 5 view .LVU810
1177:lr1mac/src/smtc_real/src/smtc_real.c **** }
 3231              		.loc 1 1177 12 is_stmt 0 view .LVU811
 3232 0030 0020     		movs	r0, #0
 3233 0032 EDE7     		b	.L202
 3234              	.L204:
 3235              		.align	2
 3236              	.L203:
 3237 0034 00000000 		.word	.LC0
 3238 0038 08000000 		.word	.LC2
 3239 003c 00000000 		.word	.LANCHOR40
 3240 0040 10000000 		.word	.LC5
 3241 0044 20000000 		.word	.LC7
 3242              		.cfi_endproc
 3243              	.LFE49:
 3245              		.section	.text.smtc_real_rx1_join_delay_get,"ax",%progbits
 3246              		.align	1
 3247              		.global	smtc_real_rx1_join_delay_get
 3248              		.syntax unified
 3249              		.code	16
 3250              		.thumb_func
 3251              		.fpu softvfp
 3253              	smtc_real_rx1_join_delay_get:
 3254              	.LVL385:
 3255              	.LFB50:
1179:lr1mac/src/smtc_real/src/smtc_real.c **** 
1180:lr1mac/src/smtc_real/src/smtc_real.c **** uint8_t smtc_real_rx1_join_delay_get( lr1_stack_mac_t* lr1_mac )
ARM GAS  /var/folders/bq/yv49bw8j2kd6w3hsq868qv180000gn/T//ccRnzw9B.s 			page 86


1181:lr1mac/src/smtc_real/src/smtc_real.c **** {
 3256              		.loc 1 1181 1 is_stmt 1 view -0
 3257              		.cfi_startproc
 3258              		@ args = 0, pretend = 0, frame = 0
 3259              		@ frame_needed = 0, uses_anonymous_args = 0
1182:lr1mac/src/smtc_real/src/smtc_real.c ****     switch( lr1_mac->real->region_type )
 3260              		.loc 1 1182 5 view .LVU813
1181:lr1mac/src/smtc_real/src/smtc_real.c ****     switch( lr1_mac->real->region_type )
 3261              		.loc 1 1181 1 is_stmt 0 view .LVU814
 3262 0000 10B5     		push	{r4, lr}
 3263              		.cfi_def_cfa_offset 8
 3264              		.cfi_offset 4, -8
 3265              		.cfi_offset 14, -4
 3266              		.loc 1 1182 26 view .LVU815
 3267 0002 0368     		ldr	r3, [r0]
1183:lr1mac/src/smtc_real/src/smtc_real.c ****     {
1184:lr1mac/src/smtc_real/src/smtc_real.c **** #if defined( REGION_WW2G4 )
1185:lr1mac/src/smtc_real/src/smtc_real.c ****     case SMTC_REAL_REGION_WW2G4: {
1186:lr1mac/src/smtc_real/src/smtc_real.c ****         return JOIN_ACCEPT_DELAY1_WW2G4;
 3268              		.loc 1 1186 16 view .LVU816
 3269 0004 0520     		movs	r0, #5
 3270              	.LVL386:
1182:lr1mac/src/smtc_real/src/smtc_real.c ****     {
 3271              		.loc 1 1182 5 view .LVU817
 3272 0006 1B79     		ldrb	r3, [r3, #4]
 3273 0008 062B     		cmp	r3, #6
 3274 000a 0FD0     		beq	.L206
1187:lr1mac/src/smtc_real/src/smtc_real.c ****     }
1188:lr1mac/src/smtc_real/src/smtc_real.c **** #endif
1189:lr1mac/src/smtc_real/src/smtc_real.c **** #if defined( REGION_EU_868 )
1190:lr1mac/src/smtc_real/src/smtc_real.c ****     case SMTC_REAL_REGION_EU_868: {
1191:lr1mac/src/smtc_real/src/smtc_real.c ****         return JOIN_ACCEPT_DELAY1_EU_868;
1192:lr1mac/src/smtc_real/src/smtc_real.c ****     }
1193:lr1mac/src/smtc_real/src/smtc_real.c **** #endif
1194:lr1mac/src/smtc_real/src/smtc_real.c **** #if defined( REGION_US_915 )
1195:lr1mac/src/smtc_real/src/smtc_real.c ****     case SMTC_REAL_REGION_US_915: {
1196:lr1mac/src/smtc_real/src/smtc_real.c ****         return JOIN_ACCEPT_DELAY1_US_915;
1197:lr1mac/src/smtc_real/src/smtc_real.c ****     }
1198:lr1mac/src/smtc_real/src/smtc_real.c **** #endif
1199:lr1mac/src/smtc_real/src/smtc_real.c ****     default:
1200:lr1mac/src/smtc_real/src/smtc_real.c ****         BSP_DBG_TRACE_ERROR( "%s unsupported\n", __func__ );
 3275              		.loc 1 1200 9 is_stmt 1 view .LVU818
 3276              		.loc 1 1200 9 view .LVU819
 3277 000c 0848     		ldr	r0, .L208
 3278 000e FFF7FEFF 		bl	bsp_trace_print
 3279              	.LVL387:
 3280              		.loc 1 1200 9 view .LVU820
 3281 0012 0848     		ldr	r0, .L208+4
 3282 0014 FFF7FEFF 		bl	bsp_trace_print
 3283              	.LVL388:
 3284              		.loc 1 1200 9 view .LVU821
 3285 0018 0749     		ldr	r1, .L208+8
 3286 001a 0848     		ldr	r0, .L208+12
 3287 001c FFF7FEFF 		bl	bsp_trace_print
 3288              	.LVL389:
 3289              		.loc 1 1200 9 view .LVU822
 3290 0020 0748     		ldr	r0, .L208+16
ARM GAS  /var/folders/bq/yv49bw8j2kd6w3hsq868qv180000gn/T//ccRnzw9B.s 			page 87


 3291 0022 FFF7FEFF 		bl	bsp_trace_print
 3292              	.LVL390:
 3293              		.loc 1 1200 9 view .LVU823
 3294              		.loc 1 1200 60 view .LVU824
1201:lr1mac/src/smtc_real/src/smtc_real.c ****         bsp_mcu_handle_lr1mac_issue( );
 3295              		.loc 1 1201 9 view .LVU825
 3296 0026 FFF7FEFF 		bl	bsp_mcu_handle_lr1mac_issue
 3297              	.LVL391:
1202:lr1mac/src/smtc_real/src/smtc_real.c ****         break;
 3298              		.loc 1 1202 9 view .LVU826
1203:lr1mac/src/smtc_real/src/smtc_real.c ****     }
1204:lr1mac/src/smtc_real/src/smtc_real.c ****     return 0;  // never reach => avoid warning
 3299              		.loc 1 1204 5 view .LVU827
 3300              		.loc 1 1204 12 is_stmt 0 view .LVU828
 3301 002a 0020     		movs	r0, #0
 3302              	.L206:
1205:lr1mac/src/smtc_real/src/smtc_real.c **** }
 3303              		.loc 1 1205 1 view .LVU829
 3304              		@ sp needed
 3305 002c 10BD     		pop	{r4, pc}
 3306              	.L209:
 3307 002e C046     		.align	2
 3308              	.L208:
 3309 0030 00000000 		.word	.LC0
 3310 0034 08000000 		.word	.LC2
 3311 0038 00000000 		.word	.LANCHOR41
 3312 003c 10000000 		.word	.LC5
 3313 0040 20000000 		.word	.LC7
 3314              		.cfi_endproc
 3315              	.LFE50:
 3317              		.section	.text.smtc_real_rx2_join_dr_get,"ax",%progbits
 3318              		.align	1
 3319              		.global	smtc_real_rx2_join_dr_get
 3320              		.syntax unified
 3321              		.code	16
 3322              		.thumb_func
 3323              		.fpu softvfp
 3325              	smtc_real_rx2_join_dr_get:
 3326              	.LVL392:
 3327              	.LFB51:
1206:lr1mac/src/smtc_real/src/smtc_real.c **** 
1207:lr1mac/src/smtc_real/src/smtc_real.c **** uint8_t smtc_real_rx2_join_dr_get( lr1_stack_mac_t* lr1_mac )
1208:lr1mac/src/smtc_real/src/smtc_real.c **** {
 3328              		.loc 1 1208 1 is_stmt 1 view -0
 3329              		.cfi_startproc
 3330              		@ args = 0, pretend = 0, frame = 0
 3331              		@ frame_needed = 0, uses_anonymous_args = 0
1209:lr1mac/src/smtc_real/src/smtc_real.c ****     switch( lr1_mac->real->region_type )
 3332              		.loc 1 1209 5 view .LVU831
1208:lr1mac/src/smtc_real/src/smtc_real.c ****     switch( lr1_mac->real->region_type )
 3333              		.loc 1 1208 1 is_stmt 0 view .LVU832
 3334 0000 10B5     		push	{r4, lr}
 3335              		.cfi_def_cfa_offset 8
 3336              		.cfi_offset 4, -8
 3337              		.cfi_offset 14, -4
 3338              		.loc 1 1209 26 view .LVU833
 3339 0002 0368     		ldr	r3, [r0]
ARM GAS  /var/folders/bq/yv49bw8j2kd6w3hsq868qv180000gn/T//ccRnzw9B.s 			page 88


 3340              		.loc 1 1209 5 view .LVU834
 3341 0004 1B79     		ldrb	r3, [r3, #4]
 3342 0006 062B     		cmp	r3, #6
 3343 0008 0ED0     		beq	.L211
1210:lr1mac/src/smtc_real/src/smtc_real.c ****     {
1211:lr1mac/src/smtc_real/src/smtc_real.c **** #if defined( REGION_WW2G4 )
1212:lr1mac/src/smtc_real/src/smtc_real.c ****     case SMTC_REAL_REGION_WW2G4: {
1213:lr1mac/src/smtc_real/src/smtc_real.c ****         return RX2DR_INIT_WW2G4;
1214:lr1mac/src/smtc_real/src/smtc_real.c ****     }
1215:lr1mac/src/smtc_real/src/smtc_real.c **** #endif
1216:lr1mac/src/smtc_real/src/smtc_real.c **** #if defined( REGION_EU_868 )
1217:lr1mac/src/smtc_real/src/smtc_real.c ****     case SMTC_REAL_REGION_EU_868: {
1218:lr1mac/src/smtc_real/src/smtc_real.c ****         return RX2DR_INIT_EU_868;
1219:lr1mac/src/smtc_real/src/smtc_real.c ****     }
1220:lr1mac/src/smtc_real/src/smtc_real.c **** #endif
1221:lr1mac/src/smtc_real/src/smtc_real.c **** #if defined( REGION_US_915 )
1222:lr1mac/src/smtc_real/src/smtc_real.c ****     case SMTC_REAL_REGION_US_915: {
1223:lr1mac/src/smtc_real/src/smtc_real.c ****         return RX2DR_INIT_US_915;
1224:lr1mac/src/smtc_real/src/smtc_real.c ****     }
1225:lr1mac/src/smtc_real/src/smtc_real.c **** #endif
1226:lr1mac/src/smtc_real/src/smtc_real.c ****     default:
1227:lr1mac/src/smtc_real/src/smtc_real.c ****         BSP_DBG_TRACE_ERROR( "%s unsupported\n", __func__ );
 3344              		.loc 1 1227 9 is_stmt 1 view .LVU835
 3345              		.loc 1 1227 9 view .LVU836
 3346 000a 0848     		ldr	r0, .L215
 3347              	.LVL393:
 3348              		.loc 1 1227 9 is_stmt 0 view .LVU837
 3349 000c FFF7FEFF 		bl	bsp_trace_print
 3350              	.LVL394:
 3351              		.loc 1 1227 9 is_stmt 1 view .LVU838
 3352 0010 0748     		ldr	r0, .L215+4
 3353 0012 FFF7FEFF 		bl	bsp_trace_print
 3354              	.LVL395:
 3355              		.loc 1 1227 9 view .LVU839
 3356 0016 0749     		ldr	r1, .L215+8
 3357 0018 0748     		ldr	r0, .L215+12
 3358 001a FFF7FEFF 		bl	bsp_trace_print
 3359              	.LVL396:
 3360              		.loc 1 1227 9 view .LVU840
 3361 001e 0748     		ldr	r0, .L215+16
 3362 0020 FFF7FEFF 		bl	bsp_trace_print
 3363              	.LVL397:
 3364              		.loc 1 1227 9 view .LVU841
 3365              		.loc 1 1227 60 view .LVU842
1228:lr1mac/src/smtc_real/src/smtc_real.c ****         bsp_mcu_handle_lr1mac_issue( );
 3366              		.loc 1 1228 9 view .LVU843
 3367 0024 FFF7FEFF 		bl	bsp_mcu_handle_lr1mac_issue
 3368              	.LVL398:
1229:lr1mac/src/smtc_real/src/smtc_real.c ****         break;
 3369              		.loc 1 1229 9 view .LVU844
1230:lr1mac/src/smtc_real/src/smtc_real.c ****     }
1231:lr1mac/src/smtc_real/src/smtc_real.c ****     return 0;  // never reach => avoid warning
 3370              		.loc 1 1231 5 view .LVU845
 3371              	.L211:
1232:lr1mac/src/smtc_real/src/smtc_real.c **** }
 3372              		.loc 1 1232 1 is_stmt 0 view .LVU846
 3373 0028 0020     		movs	r0, #0
ARM GAS  /var/folders/bq/yv49bw8j2kd6w3hsq868qv180000gn/T//ccRnzw9B.s 			page 89


 3374              		@ sp needed
 3375 002a 10BD     		pop	{r4, pc}
 3376              	.L216:
 3377              		.align	2
 3378              	.L215:
 3379 002c 00000000 		.word	.LC0
 3380 0030 08000000 		.word	.LC2
 3381 0034 00000000 		.word	.LANCHOR42
 3382 0038 10000000 		.word	.LC5
 3383 003c 20000000 		.word	.LC7
 3384              		.cfi_endproc
 3385              	.LFE51:
 3387              		.section	.text.smtc_real_frequency_factor_get,"ax",%progbits
 3388              		.align	1
 3389              		.global	smtc_real_frequency_factor_get
 3390              		.syntax unified
 3391              		.code	16
 3392              		.thumb_func
 3393              		.fpu softvfp
 3395              	smtc_real_frequency_factor_get:
 3396              	.LVL399:
 3397              	.LFB52:
1233:lr1mac/src/smtc_real/src/smtc_real.c **** 
1234:lr1mac/src/smtc_real/src/smtc_real.c **** uint8_t smtc_real_frequency_factor_get( lr1_stack_mac_t* lr1_mac )
1235:lr1mac/src/smtc_real/src/smtc_real.c **** {
 3398              		.loc 1 1235 1 is_stmt 1 view -0
 3399              		.cfi_startproc
 3400              		@ args = 0, pretend = 0, frame = 0
 3401              		@ frame_needed = 0, uses_anonymous_args = 0
1236:lr1mac/src/smtc_real/src/smtc_real.c ****     switch( lr1_mac->real->region_type )
 3402              		.loc 1 1236 5 view .LVU848
1235:lr1mac/src/smtc_real/src/smtc_real.c ****     switch( lr1_mac->real->region_type )
 3403              		.loc 1 1235 1 is_stmt 0 view .LVU849
 3404 0000 10B5     		push	{r4, lr}
 3405              		.cfi_def_cfa_offset 8
 3406              		.cfi_offset 4, -8
 3407              		.cfi_offset 14, -4
 3408              		.loc 1 1236 26 view .LVU850
 3409 0002 0368     		ldr	r3, [r0]
1237:lr1mac/src/smtc_real/src/smtc_real.c ****     {
1238:lr1mac/src/smtc_real/src/smtc_real.c **** #if defined( REGION_WW2G4 )
1239:lr1mac/src/smtc_real/src/smtc_real.c ****     case SMTC_REAL_REGION_WW2G4: {
1240:lr1mac/src/smtc_real/src/smtc_real.c ****         return FREQUENCY_FACTOR_WW2G4;
 3410              		.loc 1 1240 16 view .LVU851
 3411 0004 C820     		movs	r0, #200
 3412              	.LVL400:
1236:lr1mac/src/smtc_real/src/smtc_real.c ****     {
 3413              		.loc 1 1236 5 view .LVU852
 3414 0006 1B79     		ldrb	r3, [r3, #4]
 3415 0008 062B     		cmp	r3, #6
 3416 000a 0FD0     		beq	.L218
1241:lr1mac/src/smtc_real/src/smtc_real.c ****     }
1242:lr1mac/src/smtc_real/src/smtc_real.c **** #endif
1243:lr1mac/src/smtc_real/src/smtc_real.c **** #if defined( REGION_EU_868 )
1244:lr1mac/src/smtc_real/src/smtc_real.c ****     case SMTC_REAL_REGION_EU_868: {
1245:lr1mac/src/smtc_real/src/smtc_real.c ****         return FREQUENCY_FACTOR_EU_868;
1246:lr1mac/src/smtc_real/src/smtc_real.c ****     }
ARM GAS  /var/folders/bq/yv49bw8j2kd6w3hsq868qv180000gn/T//ccRnzw9B.s 			page 90


1247:lr1mac/src/smtc_real/src/smtc_real.c **** #endif
1248:lr1mac/src/smtc_real/src/smtc_real.c **** #if defined( REGION_US_915 )
1249:lr1mac/src/smtc_real/src/smtc_real.c ****     case SMTC_REAL_REGION_US_915: {
1250:lr1mac/src/smtc_real/src/smtc_real.c ****         return FREQUENCY_FACTOR_US_915;
1251:lr1mac/src/smtc_real/src/smtc_real.c ****     }
1252:lr1mac/src/smtc_real/src/smtc_real.c **** #endif
1253:lr1mac/src/smtc_real/src/smtc_real.c ****     default:
1254:lr1mac/src/smtc_real/src/smtc_real.c ****         BSP_DBG_TRACE_ERROR( "%s unsupported\n", __func__ );
 3417              		.loc 1 1254 9 is_stmt 1 view .LVU853
 3418              		.loc 1 1254 9 view .LVU854
 3419 000c 0848     		ldr	r0, .L220
 3420 000e FFF7FEFF 		bl	bsp_trace_print
 3421              	.LVL401:
 3422              		.loc 1 1254 9 view .LVU855
 3423 0012 0848     		ldr	r0, .L220+4
 3424 0014 FFF7FEFF 		bl	bsp_trace_print
 3425              	.LVL402:
 3426              		.loc 1 1254 9 view .LVU856
 3427 0018 0749     		ldr	r1, .L220+8
 3428 001a 0848     		ldr	r0, .L220+12
 3429 001c FFF7FEFF 		bl	bsp_trace_print
 3430              	.LVL403:
 3431              		.loc 1 1254 9 view .LVU857
 3432 0020 0748     		ldr	r0, .L220+16
 3433 0022 FFF7FEFF 		bl	bsp_trace_print
 3434              	.LVL404:
 3435              		.loc 1 1254 9 view .LVU858
 3436              		.loc 1 1254 60 view .LVU859
1255:lr1mac/src/smtc_real/src/smtc_real.c ****         bsp_mcu_handle_lr1mac_issue( );
 3437              		.loc 1 1255 9 view .LVU860
 3438 0026 FFF7FEFF 		bl	bsp_mcu_handle_lr1mac_issue
 3439              	.LVL405:
1256:lr1mac/src/smtc_real/src/smtc_real.c ****         break;
 3440              		.loc 1 1256 9 view .LVU861
1257:lr1mac/src/smtc_real/src/smtc_real.c ****     }
1258:lr1mac/src/smtc_real/src/smtc_real.c ****     return 0;  // never reach => avoid warning
 3441              		.loc 1 1258 5 view .LVU862
 3442              		.loc 1 1258 12 is_stmt 0 view .LVU863
 3443 002a 0020     		movs	r0, #0
 3444              	.L218:
1259:lr1mac/src/smtc_real/src/smtc_real.c **** }
 3445              		.loc 1 1259 1 view .LVU864
 3446              		@ sp needed
 3447 002c 10BD     		pop	{r4, pc}
 3448              	.L221:
 3449 002e C046     		.align	2
 3450              	.L220:
 3451 0030 00000000 		.word	.LC0
 3452 0034 08000000 		.word	.LC2
 3453 0038 00000000 		.word	.LANCHOR43
 3454 003c 10000000 		.word	.LC5
 3455 0040 20000000 		.word	.LC7
 3456              		.cfi_endproc
 3457              	.LFE52:
 3459              		.section	.text.smtc_real_coding_rate_get,"ax",%progbits
 3460              		.align	1
 3461              		.global	smtc_real_coding_rate_get
ARM GAS  /var/folders/bq/yv49bw8j2kd6w3hsq868qv180000gn/T//ccRnzw9B.s 			page 91


 3462              		.syntax unified
 3463              		.code	16
 3464              		.thumb_func
 3465              		.fpu softvfp
 3467              	smtc_real_coding_rate_get:
 3468              	.LVL406:
 3469              	.LFB53:
1260:lr1mac/src/smtc_real/src/smtc_real.c **** enum ral_lora_cr_e smtc_real_coding_rate_get( lr1_stack_mac_t* lr1_mac )
1261:lr1mac/src/smtc_real/src/smtc_real.c **** {
 3470              		.loc 1 1261 1 is_stmt 1 view -0
 3471              		.cfi_startproc
 3472              		@ args = 0, pretend = 0, frame = 0
 3473              		@ frame_needed = 0, uses_anonymous_args = 0
1262:lr1mac/src/smtc_real/src/smtc_real.c ****     switch( lr1_mac->real->region_type )
 3474              		.loc 1 1262 5 view .LVU866
1261:lr1mac/src/smtc_real/src/smtc_real.c ****     switch( lr1_mac->real->region_type )
 3475              		.loc 1 1261 1 is_stmt 0 view .LVU867
 3476 0000 10B5     		push	{r4, lr}
 3477              		.cfi_def_cfa_offset 8
 3478              		.cfi_offset 4, -8
 3479              		.cfi_offset 14, -4
 3480              		.loc 1 1262 26 view .LVU868
 3481 0002 0368     		ldr	r3, [r0]
 3482 0004 1879     		ldrb	r0, [r3, #4]
 3483              	.LVL407:
 3484              		.loc 1 1262 5 view .LVU869
 3485 0006 0628     		cmp	r0, #6
 3486 0008 0FD0     		beq	.L223
1263:lr1mac/src/smtc_real/src/smtc_real.c ****     {
1264:lr1mac/src/smtc_real/src/smtc_real.c **** #if defined( REGION_WW2G4 )
1265:lr1mac/src/smtc_real/src/smtc_real.c ****     case SMTC_REAL_REGION_WW2G4: {
1266:lr1mac/src/smtc_real/src/smtc_real.c ****         return RAL_LORA_CR_LI_4_8;
1267:lr1mac/src/smtc_real/src/smtc_real.c ****     }
1268:lr1mac/src/smtc_real/src/smtc_real.c **** #endif
1269:lr1mac/src/smtc_real/src/smtc_real.c **** #if defined( REGION_EU_868 )
1270:lr1mac/src/smtc_real/src/smtc_real.c ****     case SMTC_REAL_REGION_EU_868: {
1271:lr1mac/src/smtc_real/src/smtc_real.c ****         return RAL_LORA_CR_4_5;
1272:lr1mac/src/smtc_real/src/smtc_real.c ****     }
1273:lr1mac/src/smtc_real/src/smtc_real.c **** #endif
1274:lr1mac/src/smtc_real/src/smtc_real.c **** #if defined( REGION_US_915 )
1275:lr1mac/src/smtc_real/src/smtc_real.c ****     case SMTC_REAL_REGION_US_915: {
1276:lr1mac/src/smtc_real/src/smtc_real.c ****         return RAL_LORA_CR_4_5;
1277:lr1mac/src/smtc_real/src/smtc_real.c ****     }
1278:lr1mac/src/smtc_real/src/smtc_real.c **** #endif
1279:lr1mac/src/smtc_real/src/smtc_real.c ****     default:
1280:lr1mac/src/smtc_real/src/smtc_real.c ****         BSP_DBG_TRACE_ERROR( "%s unsupported\n", __func__ );
 3487              		.loc 1 1280 9 is_stmt 1 view .LVU870
 3488              		.loc 1 1280 9 view .LVU871
 3489 000a 0848     		ldr	r0, .L227
 3490 000c FFF7FEFF 		bl	bsp_trace_print
 3491              	.LVL408:
 3492              		.loc 1 1280 9 view .LVU872
 3493 0010 0748     		ldr	r0, .L227+4
 3494 0012 FFF7FEFF 		bl	bsp_trace_print
 3495              	.LVL409:
 3496              		.loc 1 1280 9 view .LVU873
 3497 0016 0749     		ldr	r1, .L227+8
ARM GAS  /var/folders/bq/yv49bw8j2kd6w3hsq868qv180000gn/T//ccRnzw9B.s 			page 92


 3498 0018 0748     		ldr	r0, .L227+12
 3499 001a FFF7FEFF 		bl	bsp_trace_print
 3500              	.LVL410:
 3501              		.loc 1 1280 9 view .LVU874
 3502 001e 0748     		ldr	r0, .L227+16
 3503 0020 FFF7FEFF 		bl	bsp_trace_print
 3504              	.LVL411:
 3505              		.loc 1 1280 9 view .LVU875
 3506              		.loc 1 1280 60 view .LVU876
1281:lr1mac/src/smtc_real/src/smtc_real.c ****         bsp_mcu_handle_lr1mac_issue( );
 3507              		.loc 1 1281 9 view .LVU877
 3508 0024 FFF7FEFF 		bl	bsp_mcu_handle_lr1mac_issue
 3509              	.LVL412:
1282:lr1mac/src/smtc_real/src/smtc_real.c ****         break;
 3510              		.loc 1 1282 9 view .LVU878
1283:lr1mac/src/smtc_real/src/smtc_real.c ****     }
1284:lr1mac/src/smtc_real/src/smtc_real.c ****     return 0;  // never reach => avoid warning
 3511              		.loc 1 1284 5 view .LVU879
 3512              		.loc 1 1284 12 is_stmt 0 view .LVU880
 3513 0028 0020     		movs	r0, #0
 3514              	.L223:
1285:lr1mac/src/smtc_real/src/smtc_real.c **** }
 3515              		.loc 1 1285 1 view .LVU881
 3516              		@ sp needed
 3517 002a 10BD     		pop	{r4, pc}
 3518              	.L228:
 3519              		.align	2
 3520              	.L227:
 3521 002c 00000000 		.word	.LC0
 3522 0030 08000000 		.word	.LC2
 3523 0034 00000000 		.word	.LANCHOR44
 3524 0038 10000000 		.word	.LC5
 3525 003c 20000000 		.word	.LC7
 3526              		.cfi_endproc
 3527              	.LFE53:
 3529              		.section	.text.smtc_real_get_join_sf5_toa_in_ms,"ax",%progbits
 3530              		.align	1
 3531              		.global	smtc_real_get_join_sf5_toa_in_ms
 3532              		.syntax unified
 3533              		.code	16
 3534              		.thumb_func
 3535              		.fpu softvfp
 3537              	smtc_real_get_join_sf5_toa_in_ms:
 3538              	.LVL413:
 3539              	.LFB54:
1286:lr1mac/src/smtc_real/src/smtc_real.c **** 
1287:lr1mac/src/smtc_real/src/smtc_real.c **** uint32_t smtc_real_get_join_sf5_toa_in_ms( const lr1_stack_mac_t* lr1_mac )
1288:lr1mac/src/smtc_real/src/smtc_real.c **** {
 3540              		.loc 1 1288 1 is_stmt 1 view -0
 3541              		.cfi_startproc
 3542              		@ args = 0, pretend = 0, frame = 0
 3543              		@ frame_needed = 0, uses_anonymous_args = 0
1289:lr1mac/src/smtc_real/src/smtc_real.c ****     switch( lr1_mac->real->region_type )
 3544              		.loc 1 1289 5 view .LVU883
1288:lr1mac/src/smtc_real/src/smtc_real.c ****     switch( lr1_mac->real->region_type )
 3545              		.loc 1 1288 1 is_stmt 0 view .LVU884
 3546 0000 10B5     		push	{r4, lr}
ARM GAS  /var/folders/bq/yv49bw8j2kd6w3hsq868qv180000gn/T//ccRnzw9B.s 			page 93


 3547              		.cfi_def_cfa_offset 8
 3548              		.cfi_offset 4, -8
 3549              		.cfi_offset 14, -4
 3550              		.loc 1 1289 26 view .LVU885
 3551 0002 0368     		ldr	r3, [r0]
1290:lr1mac/src/smtc_real/src/smtc_real.c ****     {
1291:lr1mac/src/smtc_real/src/smtc_real.c **** #if defined( REGION_WW2G4 )
1292:lr1mac/src/smtc_real/src/smtc_real.c ****     case SMTC_REAL_REGION_WW2G4: {
1293:lr1mac/src/smtc_real/src/smtc_real.c ****         return TIMEONAIR_JOIN_SF5_MS_WW2G4;
 3552              		.loc 1 1293 16 view .LVU886
 3553 0004 0520     		movs	r0, #5
 3554              	.LVL414:
1289:lr1mac/src/smtc_real/src/smtc_real.c ****     {
 3555              		.loc 1 1289 5 view .LVU887
 3556 0006 1B79     		ldrb	r3, [r3, #4]
 3557 0008 062B     		cmp	r3, #6
 3558 000a 0FD0     		beq	.L229
1294:lr1mac/src/smtc_real/src/smtc_real.c ****     }
1295:lr1mac/src/smtc_real/src/smtc_real.c **** #endif
1296:lr1mac/src/smtc_real/src/smtc_real.c **** #if defined( REGION_EU_868 )
1297:lr1mac/src/smtc_real/src/smtc_real.c ****     case SMTC_REAL_REGION_EU_868: {
1298:lr1mac/src/smtc_real/src/smtc_real.c ****         return TIMEONAIR_JOIN_SF5_MS_868;
1299:lr1mac/src/smtc_real/src/smtc_real.c ****     }
1300:lr1mac/src/smtc_real/src/smtc_real.c **** #endif
1301:lr1mac/src/smtc_real/src/smtc_real.c **** #if defined( REGION_US_915 )
1302:lr1mac/src/smtc_real/src/smtc_real.c ****     case SMTC_REAL_REGION_US_915: {
1303:lr1mac/src/smtc_real/src/smtc_real.c ****         return TIMEONAIR_JOIN_SF5_MS_915;
1304:lr1mac/src/smtc_real/src/smtc_real.c ****     }
1305:lr1mac/src/smtc_real/src/smtc_real.c **** #endif
1306:lr1mac/src/smtc_real/src/smtc_real.c ****     default:
1307:lr1mac/src/smtc_real/src/smtc_real.c ****         BSP_DBG_TRACE_ERROR( "%s unsupported\n", __func__ );
 3559              		.loc 1 1307 9 is_stmt 1 view .LVU888
 3560              		.loc 1 1307 9 view .LVU889
 3561 000c 0848     		ldr	r0, .L232
 3562 000e FFF7FEFF 		bl	bsp_trace_print
 3563              	.LVL415:
 3564              		.loc 1 1307 9 view .LVU890
 3565 0012 0848     		ldr	r0, .L232+4
 3566 0014 FFF7FEFF 		bl	bsp_trace_print
 3567              	.LVL416:
 3568              		.loc 1 1307 9 view .LVU891
 3569 0018 0749     		ldr	r1, .L232+8
 3570 001a 0848     		ldr	r0, .L232+12
 3571 001c FFF7FEFF 		bl	bsp_trace_print
 3572              	.LVL417:
 3573              		.loc 1 1307 9 view .LVU892
 3574 0020 0748     		ldr	r0, .L232+16
 3575 0022 FFF7FEFF 		bl	bsp_trace_print
 3576              	.LVL418:
 3577              		.loc 1 1307 9 view .LVU893
 3578              		.loc 1 1307 60 view .LVU894
1308:lr1mac/src/smtc_real/src/smtc_real.c ****         bsp_mcu_handle_lr1mac_issue( );
 3579              		.loc 1 1308 9 view .LVU895
 3580 0026 FFF7FEFF 		bl	bsp_mcu_handle_lr1mac_issue
 3581              	.LVL419:
1309:lr1mac/src/smtc_real/src/smtc_real.c ****         break;
 3582              		.loc 1 1309 9 view .LVU896
ARM GAS  /var/folders/bq/yv49bw8j2kd6w3hsq868qv180000gn/T//ccRnzw9B.s 			page 94


1310:lr1mac/src/smtc_real/src/smtc_real.c ****     }
1311:lr1mac/src/smtc_real/src/smtc_real.c ****     return false;  // never reach => avoid warning
 3583              		.loc 1 1311 5 view .LVU897
 3584              		.loc 1 1311 12 is_stmt 0 view .LVU898
 3585 002a 0020     		movs	r0, #0
 3586              	.L229:
1312:lr1mac/src/smtc_real/src/smtc_real.c **** }
 3587              		.loc 1 1312 1 view .LVU899
 3588              		@ sp needed
 3589 002c 10BD     		pop	{r4, pc}
 3590              	.L233:
 3591 002e C046     		.align	2
 3592              	.L232:
 3593 0030 00000000 		.word	.LC0
 3594 0034 08000000 		.word	.LC2
 3595 0038 00000000 		.word	.LANCHOR45
 3596 003c 10000000 		.word	.LC5
 3597 0040 20000000 		.word	.LC7
 3598              		.cfi_endproc
 3599              	.LFE54:
 3601              		.section	.text.smtc_real_duty_cycle_enable_set,"ax",%progbits
 3602              		.align	1
 3603              		.global	smtc_real_duty_cycle_enable_set
 3604              		.syntax unified
 3605              		.code	16
 3606              		.thumb_func
 3607              		.fpu softvfp
 3609              	smtc_real_duty_cycle_enable_set:
 3610              	.LVL420:
 3611              	.LFB55:
1313:lr1mac/src/smtc_real/src/smtc_real.c **** 
1314:lr1mac/src/smtc_real/src/smtc_real.c **** void smtc_real_duty_cycle_enable_set( const lr1_stack_mac_t* lr1_mac, uint8_t enable )
1315:lr1mac/src/smtc_real/src/smtc_real.c **** {
 3612              		.loc 1 1315 1 is_stmt 1 view -0
 3613              		.cfi_startproc
 3614              		@ args = 0, pretend = 0, frame = 0
 3615              		@ frame_needed = 0, uses_anonymous_args = 0
1316:lr1mac/src/smtc_real/src/smtc_real.c ****     switch( lr1_mac->real->region_type )
 3616              		.loc 1 1316 5 view .LVU901
1315:lr1mac/src/smtc_real/src/smtc_real.c ****     switch( lr1_mac->real->region_type )
 3617              		.loc 1 1315 1 is_stmt 0 view .LVU902
 3618 0000 10B5     		push	{r4, lr}
 3619              		.cfi_def_cfa_offset 8
 3620              		.cfi_offset 4, -8
 3621              		.cfi_offset 14, -4
 3622              		.loc 1 1316 26 view .LVU903
 3623 0002 0368     		ldr	r3, [r0]
 3624              		.loc 1 1316 5 view .LVU904
 3625 0004 1B79     		ldrb	r3, [r3, #4]
 3626 0006 062B     		cmp	r3, #6
 3627 0008 0ED0     		beq	.L234
1317:lr1mac/src/smtc_real/src/smtc_real.c ****     {
1318:lr1mac/src/smtc_real/src/smtc_real.c **** #if defined( REGION_WW2G4 )
1319:lr1mac/src/smtc_real/src/smtc_real.c ****     case SMTC_REAL_REGION_WW2G4: {
1320:lr1mac/src/smtc_real/src/smtc_real.c ****         // No Duty Cycle in WW2G4
1321:lr1mac/src/smtc_real/src/smtc_real.c ****         break;
1322:lr1mac/src/smtc_real/src/smtc_real.c ****     }
ARM GAS  /var/folders/bq/yv49bw8j2kd6w3hsq868qv180000gn/T//ccRnzw9B.s 			page 95


1323:lr1mac/src/smtc_real/src/smtc_real.c **** #endif
1324:lr1mac/src/smtc_real/src/smtc_real.c **** #if defined( REGION_EU_868 )
1325:lr1mac/src/smtc_real/src/smtc_real.c ****     case SMTC_REAL_REGION_EU_868: {
1326:lr1mac/src/smtc_real/src/smtc_real.c ****         region_eu_868_duty_cycle_enable_set( enable );
1327:lr1mac/src/smtc_real/src/smtc_real.c ****         break;
1328:lr1mac/src/smtc_real/src/smtc_real.c ****     }
1329:lr1mac/src/smtc_real/src/smtc_real.c **** #endif
1330:lr1mac/src/smtc_real/src/smtc_real.c **** #if defined( REGION_US_915 )
1331:lr1mac/src/smtc_real/src/smtc_real.c ****     case SMTC_REAL_REGION_US_915: {
1332:lr1mac/src/smtc_real/src/smtc_real.c ****         // No Duty Cycle in US_915
1333:lr1mac/src/smtc_real/src/smtc_real.c ****         break;
1334:lr1mac/src/smtc_real/src/smtc_real.c ****     }
1335:lr1mac/src/smtc_real/src/smtc_real.c **** #endif
1336:lr1mac/src/smtc_real/src/smtc_real.c ****     default:
1337:lr1mac/src/smtc_real/src/smtc_real.c ****         BSP_DBG_TRACE_ERROR( "%s unsupported\n", __func__ );
 3628              		.loc 1 1337 9 is_stmt 1 view .LVU905
 3629              		.loc 1 1337 9 view .LVU906
 3630 000a 0848     		ldr	r0, .L239
 3631              	.LVL421:
 3632              		.loc 1 1337 9 is_stmt 0 view .LVU907
 3633 000c FFF7FEFF 		bl	bsp_trace_print
 3634              	.LVL422:
 3635              		.loc 1 1337 9 is_stmt 1 view .LVU908
 3636 0010 0748     		ldr	r0, .L239+4
 3637 0012 FFF7FEFF 		bl	bsp_trace_print
 3638              	.LVL423:
 3639              		.loc 1 1337 9 view .LVU909
 3640 0016 0749     		ldr	r1, .L239+8
 3641 0018 0748     		ldr	r0, .L239+12
 3642 001a FFF7FEFF 		bl	bsp_trace_print
 3643              	.LVL424:
 3644              		.loc 1 1337 9 view .LVU910
 3645 001e 0748     		ldr	r0, .L239+16
 3646 0020 FFF7FEFF 		bl	bsp_trace_print
 3647              	.LVL425:
 3648              		.loc 1 1337 9 view .LVU911
 3649              		.loc 1 1337 60 view .LVU912
1338:lr1mac/src/smtc_real/src/smtc_real.c ****         bsp_mcu_handle_lr1mac_issue( );
 3650              		.loc 1 1338 9 view .LVU913
 3651 0024 FFF7FEFF 		bl	bsp_mcu_handle_lr1mac_issue
 3652              	.LVL426:
1339:lr1mac/src/smtc_real/src/smtc_real.c ****         break;
 3653              		.loc 1 1339 9 view .LVU914
 3654              	.L234:
1340:lr1mac/src/smtc_real/src/smtc_real.c ****     }
1341:lr1mac/src/smtc_real/src/smtc_real.c **** }
 3655              		.loc 1 1341 1 is_stmt 0 view .LVU915
 3656              		@ sp needed
 3657 0028 10BD     		pop	{r4, pc}
 3658              	.L240:
 3659 002a C046     		.align	2
 3660              	.L239:
 3661 002c 00000000 		.word	.LC0
 3662 0030 08000000 		.word	.LC2
 3663 0034 00000000 		.word	.LANCHOR46
 3664 0038 10000000 		.word	.LC5
 3665 003c 20000000 		.word	.LC7
ARM GAS  /var/folders/bq/yv49bw8j2kd6w3hsq868qv180000gn/T//ccRnzw9B.s 			page 96


 3666              		.cfi_endproc
 3667              	.LFE55:
 3669              		.section	.text.smtc_real_duty_cycle_sum,"ax",%progbits
 3670              		.align	1
 3671              		.global	smtc_real_duty_cycle_sum
 3672              		.syntax unified
 3673              		.code	16
 3674              		.thumb_func
 3675              		.fpu softvfp
 3677              	smtc_real_duty_cycle_sum:
 3678              	.LVL427:
 3679              	.LFB56:
1342:lr1mac/src/smtc_real/src/smtc_real.c **** 
1343:lr1mac/src/smtc_real/src/smtc_real.c **** void smtc_real_duty_cycle_sum( const lr1_stack_mac_t* lr1_mac, uint32_t freq_hz, uint32_t toa_ms )
1344:lr1mac/src/smtc_real/src/smtc_real.c **** {
 3680              		.loc 1 1344 1 is_stmt 1 view -0
 3681              		.cfi_startproc
 3682              		@ args = 0, pretend = 0, frame = 0
 3683              		@ frame_needed = 0, uses_anonymous_args = 0
1345:lr1mac/src/smtc_real/src/smtc_real.c ****     switch( lr1_mac->real->region_type )
 3684              		.loc 1 1345 5 view .LVU917
1344:lr1mac/src/smtc_real/src/smtc_real.c ****     switch( lr1_mac->real->region_type )
 3685              		.loc 1 1344 1 is_stmt 0 view .LVU918
 3686 0000 10B5     		push	{r4, lr}
 3687              		.cfi_def_cfa_offset 8
 3688              		.cfi_offset 4, -8
 3689              		.cfi_offset 14, -4
 3690              		.loc 1 1345 26 view .LVU919
 3691 0002 0368     		ldr	r3, [r0]
 3692              		.loc 1 1345 5 view .LVU920
 3693 0004 1B79     		ldrb	r3, [r3, #4]
 3694 0006 062B     		cmp	r3, #6
 3695 0008 0ED0     		beq	.L241
1346:lr1mac/src/smtc_real/src/smtc_real.c ****     {
1347:lr1mac/src/smtc_real/src/smtc_real.c **** #if defined( REGION_WW2G4 )
1348:lr1mac/src/smtc_real/src/smtc_real.c ****     case SMTC_REAL_REGION_WW2G4: {
1349:lr1mac/src/smtc_real/src/smtc_real.c ****         // No Duty Cycle in WW2G4
1350:lr1mac/src/smtc_real/src/smtc_real.c ****         break;
1351:lr1mac/src/smtc_real/src/smtc_real.c ****     }
1352:lr1mac/src/smtc_real/src/smtc_real.c **** #endif
1353:lr1mac/src/smtc_real/src/smtc_real.c **** #if defined( REGION_EU_868 )
1354:lr1mac/src/smtc_real/src/smtc_real.c ****     case SMTC_REAL_REGION_EU_868: {
1355:lr1mac/src/smtc_real/src/smtc_real.c ****         region_eu_868_duty_cycle_sum( freq_hz, toa_ms );
1356:lr1mac/src/smtc_real/src/smtc_real.c ****         break;
1357:lr1mac/src/smtc_real/src/smtc_real.c ****     }
1358:lr1mac/src/smtc_real/src/smtc_real.c **** #endif
1359:lr1mac/src/smtc_real/src/smtc_real.c **** #if defined( REGION_US_915 )
1360:lr1mac/src/smtc_real/src/smtc_real.c ****     case SMTC_REAL_REGION_US_915: {
1361:lr1mac/src/smtc_real/src/smtc_real.c ****         // No Duty Cycle in US_915
1362:lr1mac/src/smtc_real/src/smtc_real.c ****         break;
1363:lr1mac/src/smtc_real/src/smtc_real.c ****     }
1364:lr1mac/src/smtc_real/src/smtc_real.c **** #endif
1365:lr1mac/src/smtc_real/src/smtc_real.c ****     default:
1366:lr1mac/src/smtc_real/src/smtc_real.c ****         BSP_DBG_TRACE_ERROR( "%s unsupported\n", __func__ );
 3696              		.loc 1 1366 9 is_stmt 1 view .LVU921
 3697              		.loc 1 1366 9 view .LVU922
 3698 000a 0848     		ldr	r0, .L246
ARM GAS  /var/folders/bq/yv49bw8j2kd6w3hsq868qv180000gn/T//ccRnzw9B.s 			page 97


 3699              	.LVL428:
 3700              		.loc 1 1366 9 is_stmt 0 view .LVU923
 3701 000c FFF7FEFF 		bl	bsp_trace_print
 3702              	.LVL429:
 3703              		.loc 1 1366 9 is_stmt 1 view .LVU924
 3704 0010 0748     		ldr	r0, .L246+4
 3705 0012 FFF7FEFF 		bl	bsp_trace_print
 3706              	.LVL430:
 3707              		.loc 1 1366 9 view .LVU925
 3708 0016 0749     		ldr	r1, .L246+8
 3709 0018 0748     		ldr	r0, .L246+12
 3710 001a FFF7FEFF 		bl	bsp_trace_print
 3711              	.LVL431:
 3712              		.loc 1 1366 9 view .LVU926
 3713 001e 0748     		ldr	r0, .L246+16
 3714 0020 FFF7FEFF 		bl	bsp_trace_print
 3715              	.LVL432:
 3716              		.loc 1 1366 9 view .LVU927
 3717              		.loc 1 1366 60 view .LVU928
1367:lr1mac/src/smtc_real/src/smtc_real.c ****         bsp_mcu_handle_lr1mac_issue( );
 3718              		.loc 1 1367 9 view .LVU929
 3719 0024 FFF7FEFF 		bl	bsp_mcu_handle_lr1mac_issue
 3720              	.LVL433:
1368:lr1mac/src/smtc_real/src/smtc_real.c ****         break;
 3721              		.loc 1 1368 9 view .LVU930
 3722              	.L241:
1369:lr1mac/src/smtc_real/src/smtc_real.c ****     }
1370:lr1mac/src/smtc_real/src/smtc_real.c **** }
 3723              		.loc 1 1370 1 is_stmt 0 view .LVU931
 3724              		@ sp needed
 3725 0028 10BD     		pop	{r4, pc}
 3726              	.L247:
 3727 002a C046     		.align	2
 3728              	.L246:
 3729 002c 00000000 		.word	.LC0
 3730 0030 08000000 		.word	.LC2
 3731 0034 00000000 		.word	.LANCHOR47
 3732 0038 10000000 		.word	.LC5
 3733 003c 20000000 		.word	.LC7
 3734              		.cfi_endproc
 3735              	.LFE56:
 3737              		.section	.text.smtc_real_duty_cycle_update,"ax",%progbits
 3738              		.align	1
 3739              		.global	smtc_real_duty_cycle_update
 3740              		.syntax unified
 3741              		.code	16
 3742              		.thumb_func
 3743              		.fpu softvfp
 3745              	smtc_real_duty_cycle_update:
 3746              	.LVL434:
 3747              	.LFB57:
1371:lr1mac/src/smtc_real/src/smtc_real.c **** 
1372:lr1mac/src/smtc_real/src/smtc_real.c **** void smtc_real_duty_cycle_update( const lr1_stack_mac_t* lr1_mac )
1373:lr1mac/src/smtc_real/src/smtc_real.c **** {
 3748              		.loc 1 1373 1 is_stmt 1 view -0
 3749              		.cfi_startproc
 3750              		@ args = 0, pretend = 0, frame = 0
ARM GAS  /var/folders/bq/yv49bw8j2kd6w3hsq868qv180000gn/T//ccRnzw9B.s 			page 98


 3751              		@ frame_needed = 0, uses_anonymous_args = 0
1374:lr1mac/src/smtc_real/src/smtc_real.c ****     switch( lr1_mac->real->region_type )
 3752              		.loc 1 1374 5 view .LVU933
1373:lr1mac/src/smtc_real/src/smtc_real.c ****     switch( lr1_mac->real->region_type )
 3753              		.loc 1 1373 1 is_stmt 0 view .LVU934
 3754 0000 10B5     		push	{r4, lr}
 3755              		.cfi_def_cfa_offset 8
 3756              		.cfi_offset 4, -8
 3757              		.cfi_offset 14, -4
 3758              		.loc 1 1374 26 view .LVU935
 3759 0002 0368     		ldr	r3, [r0]
 3760              		.loc 1 1374 5 view .LVU936
 3761 0004 1B79     		ldrb	r3, [r3, #4]
 3762 0006 062B     		cmp	r3, #6
 3763 0008 0ED0     		beq	.L248
1375:lr1mac/src/smtc_real/src/smtc_real.c ****     {
1376:lr1mac/src/smtc_real/src/smtc_real.c **** #if defined( REGION_WW2G4 )
1377:lr1mac/src/smtc_real/src/smtc_real.c ****     case SMTC_REAL_REGION_WW2G4: {
1378:lr1mac/src/smtc_real/src/smtc_real.c ****         // No Duty Cycle in WW2G4
1379:lr1mac/src/smtc_real/src/smtc_real.c ****         break;
1380:lr1mac/src/smtc_real/src/smtc_real.c ****     }
1381:lr1mac/src/smtc_real/src/smtc_real.c **** #endif
1382:lr1mac/src/smtc_real/src/smtc_real.c **** #if defined( REGION_EU_868 )
1383:lr1mac/src/smtc_real/src/smtc_real.c ****     case SMTC_REAL_REGION_EU_868: {
1384:lr1mac/src/smtc_real/src/smtc_real.c ****         region_eu_868_duty_cycle_update( );
1385:lr1mac/src/smtc_real/src/smtc_real.c ****         break;
1386:lr1mac/src/smtc_real/src/smtc_real.c ****     }
1387:lr1mac/src/smtc_real/src/smtc_real.c **** #endif
1388:lr1mac/src/smtc_real/src/smtc_real.c **** #if defined( REGION_US_915 )
1389:lr1mac/src/smtc_real/src/smtc_real.c ****     case SMTC_REAL_REGION_US_915: {
1390:lr1mac/src/smtc_real/src/smtc_real.c ****         // No Duty Cycle in US_915
1391:lr1mac/src/smtc_real/src/smtc_real.c ****         break;
1392:lr1mac/src/smtc_real/src/smtc_real.c ****     }
1393:lr1mac/src/smtc_real/src/smtc_real.c **** #endif
1394:lr1mac/src/smtc_real/src/smtc_real.c ****     default:
1395:lr1mac/src/smtc_real/src/smtc_real.c ****         BSP_DBG_TRACE_ERROR( "%s unsupported\n", __func__ );
 3764              		.loc 1 1395 9 is_stmt 1 view .LVU937
 3765              		.loc 1 1395 9 view .LVU938
 3766 000a 0848     		ldr	r0, .L253
 3767              	.LVL435:
 3768              		.loc 1 1395 9 is_stmt 0 view .LVU939
 3769 000c FFF7FEFF 		bl	bsp_trace_print
 3770              	.LVL436:
 3771              		.loc 1 1395 9 is_stmt 1 view .LVU940
 3772 0010 0748     		ldr	r0, .L253+4
 3773 0012 FFF7FEFF 		bl	bsp_trace_print
 3774              	.LVL437:
 3775              		.loc 1 1395 9 view .LVU941
 3776 0016 0749     		ldr	r1, .L253+8
 3777 0018 0748     		ldr	r0, .L253+12
 3778 001a FFF7FEFF 		bl	bsp_trace_print
 3779              	.LVL438:
 3780              		.loc 1 1395 9 view .LVU942
 3781 001e 0748     		ldr	r0, .L253+16
 3782 0020 FFF7FEFF 		bl	bsp_trace_print
 3783              	.LVL439:
 3784              		.loc 1 1395 9 view .LVU943
ARM GAS  /var/folders/bq/yv49bw8j2kd6w3hsq868qv180000gn/T//ccRnzw9B.s 			page 99


 3785              		.loc 1 1395 60 view .LVU944
1396:lr1mac/src/smtc_real/src/smtc_real.c ****         bsp_mcu_handle_lr1mac_issue( );
 3786              		.loc 1 1396 9 view .LVU945
 3787 0024 FFF7FEFF 		bl	bsp_mcu_handle_lr1mac_issue
 3788              	.LVL440:
1397:lr1mac/src/smtc_real/src/smtc_real.c ****         break;
 3789              		.loc 1 1397 9 view .LVU946
 3790              	.L248:
1398:lr1mac/src/smtc_real/src/smtc_real.c ****     }
1399:lr1mac/src/smtc_real/src/smtc_real.c **** }
 3791              		.loc 1 1399 1 is_stmt 0 view .LVU947
 3792              		@ sp needed
 3793 0028 10BD     		pop	{r4, pc}
 3794              	.L254:
 3795 002a C046     		.align	2
 3796              	.L253:
 3797 002c 00000000 		.word	.LC0
 3798 0030 08000000 		.word	.LC2
 3799 0034 00000000 		.word	.LANCHOR48
 3800 0038 10000000 		.word	.LC5
 3801 003c 20000000 		.word	.LC7
 3802              		.cfi_endproc
 3803              	.LFE57:
 3805              		.section	.text.smtc_real_duty_cycle_is_toa_accepted,"ax",%progbits
 3806              		.align	1
 3807              		.global	smtc_real_duty_cycle_is_toa_accepted
 3808              		.syntax unified
 3809              		.code	16
 3810              		.thumb_func
 3811              		.fpu softvfp
 3813              	smtc_real_duty_cycle_is_toa_accepted:
 3814              	.LVL441:
 3815              	.LFB58:
1400:lr1mac/src/smtc_real/src/smtc_real.c **** 
1401:lr1mac/src/smtc_real/src/smtc_real.c **** status_lorawan_t smtc_real_duty_cycle_is_toa_accepted( const lr1_stack_mac_t* lr1_mac, uint32_t fre
1402:lr1mac/src/smtc_real/src/smtc_real.c ****                                                        uint32_t toa_ms )
1403:lr1mac/src/smtc_real/src/smtc_real.c **** {
 3816              		.loc 1 1403 1 is_stmt 1 view -0
 3817              		.cfi_startproc
 3818              		@ args = 0, pretend = 0, frame = 0
 3819              		@ frame_needed = 0, uses_anonymous_args = 0
1404:lr1mac/src/smtc_real/src/smtc_real.c ****     switch( lr1_mac->real->region_type )
 3820              		.loc 1 1404 5 view .LVU949
1403:lr1mac/src/smtc_real/src/smtc_real.c ****     switch( lr1_mac->real->region_type )
 3821              		.loc 1 1403 1 is_stmt 0 view .LVU950
 3822 0000 10B5     		push	{r4, lr}
 3823              		.cfi_def_cfa_offset 8
 3824              		.cfi_offset 4, -8
 3825              		.cfi_offset 14, -4
 3826              		.loc 1 1404 26 view .LVU951
 3827 0002 0368     		ldr	r3, [r0]
1405:lr1mac/src/smtc_real/src/smtc_real.c ****     {
1406:lr1mac/src/smtc_real/src/smtc_real.c **** #if defined( REGION_WW2G4 )
1407:lr1mac/src/smtc_real/src/smtc_real.c ****     case SMTC_REAL_REGION_WW2G4: {
1408:lr1mac/src/smtc_real/src/smtc_real.c ****         // No Duty Cycle in WW2G4
1409:lr1mac/src/smtc_real/src/smtc_real.c ****         return OKLORAWAN;
 3828              		.loc 1 1409 16 view .LVU952
ARM GAS  /var/folders/bq/yv49bw8j2kd6w3hsq868qv180000gn/T//ccRnzw9B.s 			page 100


 3829 0004 0020     		movs	r0, #0
 3830              	.LVL442:
1404:lr1mac/src/smtc_real/src/smtc_real.c ****     {
 3831              		.loc 1 1404 5 view .LVU953
 3832 0006 1B79     		ldrb	r3, [r3, #4]
 3833 0008 062B     		cmp	r3, #6
 3834 000a 10D0     		beq	.L256
1410:lr1mac/src/smtc_real/src/smtc_real.c ****     }
1411:lr1mac/src/smtc_real/src/smtc_real.c **** #endif
1412:lr1mac/src/smtc_real/src/smtc_real.c **** #if defined( REGION_EU_868 )
1413:lr1mac/src/smtc_real/src/smtc_real.c ****     case SMTC_REAL_REGION_EU_868: {
1414:lr1mac/src/smtc_real/src/smtc_real.c ****         return region_eu_868_duty_cycle_is_toa_accepted( freq_hz, toa_ms );
1415:lr1mac/src/smtc_real/src/smtc_real.c ****     }
1416:lr1mac/src/smtc_real/src/smtc_real.c **** #endif
1417:lr1mac/src/smtc_real/src/smtc_real.c **** #if defined( REGION_US_915 )
1418:lr1mac/src/smtc_real/src/smtc_real.c ****     case SMTC_REAL_REGION_US_915: {
1419:lr1mac/src/smtc_real/src/smtc_real.c ****         // No Duty Cycle in US_915
1420:lr1mac/src/smtc_real/src/smtc_real.c ****         return OKLORAWAN;
1421:lr1mac/src/smtc_real/src/smtc_real.c ****     }
1422:lr1mac/src/smtc_real/src/smtc_real.c **** #endif
1423:lr1mac/src/smtc_real/src/smtc_real.c ****     default:
1424:lr1mac/src/smtc_real/src/smtc_real.c ****         BSP_DBG_TRACE_ERROR( "%s unsupported\n", __func__ );
 3835              		.loc 1 1424 9 is_stmt 1 view .LVU954
 3836              		.loc 1 1424 9 view .LVU955
 3837 000c 0848     		ldr	r0, .L259
 3838 000e FFF7FEFF 		bl	bsp_trace_print
 3839              	.LVL443:
 3840              		.loc 1 1424 9 view .LVU956
 3841 0012 0848     		ldr	r0, .L259+4
 3842 0014 FFF7FEFF 		bl	bsp_trace_print
 3843              	.LVL444:
 3844              		.loc 1 1424 9 view .LVU957
 3845 0018 0749     		ldr	r1, .L259+8
 3846 001a 0848     		ldr	r0, .L259+12
 3847 001c FFF7FEFF 		bl	bsp_trace_print
 3848              	.LVL445:
 3849              		.loc 1 1424 9 view .LVU958
 3850 0020 0748     		ldr	r0, .L259+16
 3851 0022 FFF7FEFF 		bl	bsp_trace_print
 3852              	.LVL446:
 3853              		.loc 1 1424 9 view .LVU959
 3854              		.loc 1 1424 60 view .LVU960
1425:lr1mac/src/smtc_real/src/smtc_real.c ****         bsp_mcu_handle_lr1mac_issue( );
 3855              		.loc 1 1425 9 view .LVU961
 3856 0026 FFF7FEFF 		bl	bsp_mcu_handle_lr1mac_issue
 3857              	.LVL447:
1426:lr1mac/src/smtc_real/src/smtc_real.c ****         break;
 3858              		.loc 1 1426 9 view .LVU962
1427:lr1mac/src/smtc_real/src/smtc_real.c ****     }
1428:lr1mac/src/smtc_real/src/smtc_real.c ****     return ERRORLORAWAN;  // never reach => avoid warning
 3859              		.loc 1 1428 5 view .LVU963
 3860              		.loc 1 1428 12 is_stmt 0 view .LVU964
 3861 002a 0120     		movs	r0, #1
 3862 002c 4042     		rsbs	r0, r0, #0
 3863              	.L256:
1429:lr1mac/src/smtc_real/src/smtc_real.c **** }
 3864              		.loc 1 1429 1 view .LVU965
ARM GAS  /var/folders/bq/yv49bw8j2kd6w3hsq868qv180000gn/T//ccRnzw9B.s 			page 101


 3865              		@ sp needed
 3866 002e 10BD     		pop	{r4, pc}
 3867              	.L260:
 3868              		.align	2
 3869              	.L259:
 3870 0030 00000000 		.word	.LC0
 3871 0034 08000000 		.word	.LC2
 3872 0038 00000000 		.word	.LANCHOR49
 3873 003c 10000000 		.word	.LC5
 3874 0040 20000000 		.word	.LC7
 3875              		.cfi_endproc
 3876              	.LFE58:
 3878              		.section	.text.smtc_real_duty_cycle_is_channel_free,"ax",%progbits
 3879              		.align	1
 3880              		.global	smtc_real_duty_cycle_is_channel_free
 3881              		.syntax unified
 3882              		.code	16
 3883              		.thumb_func
 3884              		.fpu softvfp
 3886              	smtc_real_duty_cycle_is_channel_free:
 3887              	.LVL448:
 3888              	.LFB59:
1430:lr1mac/src/smtc_real/src/smtc_real.c **** 
1431:lr1mac/src/smtc_real/src/smtc_real.c **** status_lorawan_t smtc_real_duty_cycle_is_channel_free( const lr1_stack_mac_t* lr1_mac, uint32_t fre
1432:lr1mac/src/smtc_real/src/smtc_real.c **** {
 3889              		.loc 1 1432 1 is_stmt 1 view -0
 3890              		.cfi_startproc
 3891              		@ args = 0, pretend = 0, frame = 0
 3892              		@ frame_needed = 0, uses_anonymous_args = 0
1433:lr1mac/src/smtc_real/src/smtc_real.c ****     switch( lr1_mac->real->region_type )
 3893              		.loc 1 1433 5 view .LVU967
1432:lr1mac/src/smtc_real/src/smtc_real.c ****     switch( lr1_mac->real->region_type )
 3894              		.loc 1 1432 1 is_stmt 0 view .LVU968
 3895 0000 10B5     		push	{r4, lr}
 3896              		.cfi_def_cfa_offset 8
 3897              		.cfi_offset 4, -8
 3898              		.cfi_offset 14, -4
 3899              		.loc 1 1433 26 view .LVU969
 3900 0002 0368     		ldr	r3, [r0]
1434:lr1mac/src/smtc_real/src/smtc_real.c ****     {
1435:lr1mac/src/smtc_real/src/smtc_real.c **** #if defined( REGION_WW2G4 )
1436:lr1mac/src/smtc_real/src/smtc_real.c ****     case SMTC_REAL_REGION_WW2G4: {
1437:lr1mac/src/smtc_real/src/smtc_real.c ****         // No Duty Cycle in WW2G4
1438:lr1mac/src/smtc_real/src/smtc_real.c ****         return OKLORAWAN;
 3901              		.loc 1 1438 16 view .LVU970
 3902 0004 0020     		movs	r0, #0
 3903              	.LVL449:
1433:lr1mac/src/smtc_real/src/smtc_real.c ****     {
 3904              		.loc 1 1433 5 view .LVU971
 3905 0006 1B79     		ldrb	r3, [r3, #4]
 3906 0008 062B     		cmp	r3, #6
 3907 000a 10D0     		beq	.L262
1439:lr1mac/src/smtc_real/src/smtc_real.c ****     }
1440:lr1mac/src/smtc_real/src/smtc_real.c **** #endif
1441:lr1mac/src/smtc_real/src/smtc_real.c **** #if defined( REGION_EU_868 )
1442:lr1mac/src/smtc_real/src/smtc_real.c ****     case SMTC_REAL_REGION_EU_868: {
1443:lr1mac/src/smtc_real/src/smtc_real.c ****         return region_eu_868_duty_cycle_is_channel_free( freq_hz );
ARM GAS  /var/folders/bq/yv49bw8j2kd6w3hsq868qv180000gn/T//ccRnzw9B.s 			page 102


1444:lr1mac/src/smtc_real/src/smtc_real.c ****     }
1445:lr1mac/src/smtc_real/src/smtc_real.c **** #endif
1446:lr1mac/src/smtc_real/src/smtc_real.c **** #if defined( REGION_US_915 )
1447:lr1mac/src/smtc_real/src/smtc_real.c ****     case SMTC_REAL_REGION_US_915: {
1448:lr1mac/src/smtc_real/src/smtc_real.c ****         // No Duty Cycle in US_915
1449:lr1mac/src/smtc_real/src/smtc_real.c ****         return OKLORAWAN;
1450:lr1mac/src/smtc_real/src/smtc_real.c ****     }
1451:lr1mac/src/smtc_real/src/smtc_real.c **** #endif
1452:lr1mac/src/smtc_real/src/smtc_real.c ****     default:
1453:lr1mac/src/smtc_real/src/smtc_real.c ****         BSP_DBG_TRACE_ERROR( "%s unsupported\n", __func__ );
 3908              		.loc 1 1453 9 is_stmt 1 view .LVU972
 3909              		.loc 1 1453 9 view .LVU973
 3910 000c 0848     		ldr	r0, .L265
 3911 000e FFF7FEFF 		bl	bsp_trace_print
 3912              	.LVL450:
 3913              		.loc 1 1453 9 view .LVU974
 3914 0012 0848     		ldr	r0, .L265+4
 3915 0014 FFF7FEFF 		bl	bsp_trace_print
 3916              	.LVL451:
 3917              		.loc 1 1453 9 view .LVU975
 3918 0018 0749     		ldr	r1, .L265+8
 3919 001a 0848     		ldr	r0, .L265+12
 3920 001c FFF7FEFF 		bl	bsp_trace_print
 3921              	.LVL452:
 3922              		.loc 1 1453 9 view .LVU976
 3923 0020 0748     		ldr	r0, .L265+16
 3924 0022 FFF7FEFF 		bl	bsp_trace_print
 3925              	.LVL453:
 3926              		.loc 1 1453 9 view .LVU977
 3927              		.loc 1 1453 60 view .LVU978
1454:lr1mac/src/smtc_real/src/smtc_real.c ****         bsp_mcu_handle_lr1mac_issue( );
 3928              		.loc 1 1454 9 view .LVU979
 3929 0026 FFF7FEFF 		bl	bsp_mcu_handle_lr1mac_issue
 3930              	.LVL454:
1455:lr1mac/src/smtc_real/src/smtc_real.c ****         break;
 3931              		.loc 1 1455 9 view .LVU980
1456:lr1mac/src/smtc_real/src/smtc_real.c ****     }
1457:lr1mac/src/smtc_real/src/smtc_real.c ****     return ERRORLORAWAN;  // never reach => avoid warning
 3932              		.loc 1 1457 5 view .LVU981
 3933              		.loc 1 1457 12 is_stmt 0 view .LVU982
 3934 002a 0120     		movs	r0, #1
 3935 002c 4042     		rsbs	r0, r0, #0
 3936              	.L262:
1458:lr1mac/src/smtc_real/src/smtc_real.c **** }
 3937              		.loc 1 1458 1 view .LVU983
 3938              		@ sp needed
 3939 002e 10BD     		pop	{r4, pc}
 3940              	.L266:
 3941              		.align	2
 3942              	.L265:
 3943 0030 00000000 		.word	.LC0
 3944 0034 08000000 		.word	.LC2
 3945 0038 00000000 		.word	.LANCHOR50
 3946 003c 10000000 		.word	.LC5
 3947 0040 20000000 		.word	.LC7
 3948              		.cfi_endproc
 3949              	.LFE59:
ARM GAS  /var/folders/bq/yv49bw8j2kd6w3hsq868qv180000gn/T//ccRnzw9B.s 			page 103


 3951              		.section	.text.smtc_real_next_free_duty_cycle_ms_get,"ax",%progbits
 3952              		.align	1
 3953              		.global	smtc_real_next_free_duty_cycle_ms_get
 3954              		.syntax unified
 3955              		.code	16
 3956              		.thumb_func
 3957              		.fpu softvfp
 3959              	smtc_real_next_free_duty_cycle_ms_get:
 3960              	.LVL455:
 3961              	.LFB60:
1459:lr1mac/src/smtc_real/src/smtc_real.c **** 
1460:lr1mac/src/smtc_real/src/smtc_real.c **** int32_t smtc_real_next_free_duty_cycle_ms_get( const lr1_stack_mac_t* lr1_mac )
1461:lr1mac/src/smtc_real/src/smtc_real.c **** {
 3962              		.loc 1 1461 1 is_stmt 1 view -0
 3963              		.cfi_startproc
 3964              		@ args = 0, pretend = 0, frame = 0
 3965              		@ frame_needed = 0, uses_anonymous_args = 0
1462:lr1mac/src/smtc_real/src/smtc_real.c ****     switch( lr1_mac->real->region_type )
 3966              		.loc 1 1462 5 view .LVU985
1461:lr1mac/src/smtc_real/src/smtc_real.c ****     switch( lr1_mac->real->region_type )
 3967              		.loc 1 1461 1 is_stmt 0 view .LVU986
 3968 0000 10B5     		push	{r4, lr}
 3969              		.cfi_def_cfa_offset 8
 3970              		.cfi_offset 4, -8
 3971              		.cfi_offset 14, -4
 3972              		.loc 1 1462 26 view .LVU987
 3973 0002 0368     		ldr	r3, [r0]
 3974              		.loc 1 1462 5 view .LVU988
 3975 0004 1B79     		ldrb	r3, [r3, #4]
 3976 0006 062B     		cmp	r3, #6
 3977 0008 0ED0     		beq	.L268
1463:lr1mac/src/smtc_real/src/smtc_real.c ****     {
1464:lr1mac/src/smtc_real/src/smtc_real.c **** #if defined( REGION_WW2G4 )
1465:lr1mac/src/smtc_real/src/smtc_real.c ****     case SMTC_REAL_REGION_WW2G4: {
1466:lr1mac/src/smtc_real/src/smtc_real.c ****         // No Duty Cycle in WW2G4
1467:lr1mac/src/smtc_real/src/smtc_real.c ****         return 0;
1468:lr1mac/src/smtc_real/src/smtc_real.c ****     }
1469:lr1mac/src/smtc_real/src/smtc_real.c **** #endif
1470:lr1mac/src/smtc_real/src/smtc_real.c **** #if defined( REGION_EU_868 )
1471:lr1mac/src/smtc_real/src/smtc_real.c ****     case SMTC_REAL_REGION_EU_868: {
1472:lr1mac/src/smtc_real/src/smtc_real.c ****         return region_eu_868_next_free_duty_cycle_ms_get( );
1473:lr1mac/src/smtc_real/src/smtc_real.c ****     }
1474:lr1mac/src/smtc_real/src/smtc_real.c **** #endif
1475:lr1mac/src/smtc_real/src/smtc_real.c **** #if defined( REGION_US_915 )
1476:lr1mac/src/smtc_real/src/smtc_real.c ****     case SMTC_REAL_REGION_US_915: {
1477:lr1mac/src/smtc_real/src/smtc_real.c ****         // No Duty Cycle in US_915
1478:lr1mac/src/smtc_real/src/smtc_real.c ****         return 0;
1479:lr1mac/src/smtc_real/src/smtc_real.c ****     }
1480:lr1mac/src/smtc_real/src/smtc_real.c **** #endif
1481:lr1mac/src/smtc_real/src/smtc_real.c ****     default:
1482:lr1mac/src/smtc_real/src/smtc_real.c ****         BSP_DBG_TRACE_ERROR( "%s unsupported\n", __func__ );
 3978              		.loc 1 1482 9 is_stmt 1 view .LVU989
 3979              		.loc 1 1482 9 view .LVU990
 3980 000a 0848     		ldr	r0, .L272
 3981              	.LVL456:
 3982              		.loc 1 1482 9 is_stmt 0 view .LVU991
 3983 000c FFF7FEFF 		bl	bsp_trace_print
ARM GAS  /var/folders/bq/yv49bw8j2kd6w3hsq868qv180000gn/T//ccRnzw9B.s 			page 104


 3984              	.LVL457:
 3985              		.loc 1 1482 9 is_stmt 1 view .LVU992
 3986 0010 0748     		ldr	r0, .L272+4
 3987 0012 FFF7FEFF 		bl	bsp_trace_print
 3988              	.LVL458:
 3989              		.loc 1 1482 9 view .LVU993
 3990 0016 0749     		ldr	r1, .L272+8
 3991 0018 0748     		ldr	r0, .L272+12
 3992 001a FFF7FEFF 		bl	bsp_trace_print
 3993              	.LVL459:
 3994              		.loc 1 1482 9 view .LVU994
 3995 001e 0748     		ldr	r0, .L272+16
 3996 0020 FFF7FEFF 		bl	bsp_trace_print
 3997              	.LVL460:
 3998              		.loc 1 1482 9 view .LVU995
 3999              		.loc 1 1482 60 view .LVU996
1483:lr1mac/src/smtc_real/src/smtc_real.c ****         bsp_mcu_handle_lr1mac_issue( );
 4000              		.loc 1 1483 9 view .LVU997
 4001 0024 FFF7FEFF 		bl	bsp_mcu_handle_lr1mac_issue
 4002              	.LVL461:
1484:lr1mac/src/smtc_real/src/smtc_real.c ****         break;
 4003              		.loc 1 1484 9 view .LVU998
1485:lr1mac/src/smtc_real/src/smtc_real.c ****     }
1486:lr1mac/src/smtc_real/src/smtc_real.c ****     return 0;  // never reach => avoid warning
 4004              		.loc 1 1486 5 view .LVU999
 4005              	.L268:
1487:lr1mac/src/smtc_real/src/smtc_real.c **** }
 4006              		.loc 1 1487 1 is_stmt 0 view .LVU1000
 4007 0028 0020     		movs	r0, #0
 4008              		@ sp needed
 4009 002a 10BD     		pop	{r4, pc}
 4010              	.L273:
 4011              		.align	2
 4012              	.L272:
 4013 002c 00000000 		.word	.LC0
 4014 0030 08000000 		.word	.LC2
 4015 0034 00000000 		.word	.LANCHOR51
 4016 0038 10000000 		.word	.LC5
 4017 003c 20000000 		.word	.LC7
 4018              		.cfi_endproc
 4019              	.LFE60:
 4021              		.section	.rodata.smtc_real_preamble_get.str1.1,"aMS",%progbits,1
 4022              	.LC267:
 4023 0000 25732075 		.ascii	"%s unsupported sf \012\000"
 4023      6E737570 
 4023      706F7274 
 4023      65642073 
 4023      66200A00 
 4024              		.section	.text.smtc_real_preamble_get,"ax",%progbits
 4025              		.align	1
 4026              		.global	smtc_real_preamble_get
 4027              		.syntax unified
 4028              		.code	16
 4029              		.thumb_func
 4030              		.fpu softvfp
 4032              	smtc_real_preamble_get:
 4033              	.LVL462:
ARM GAS  /var/folders/bq/yv49bw8j2kd6w3hsq868qv180000gn/T//ccRnzw9B.s 			page 105


 4034              	.LFB61:
1488:lr1mac/src/smtc_real/src/smtc_real.c **** 
1489:lr1mac/src/smtc_real/src/smtc_real.c **** 
1490:lr1mac/src/smtc_real/src/smtc_real.c **** uint8_t  smtc_real_preamble_get( const lr1_stack_mac_t* lr1_mac, uint8_t sf ){
 4035              		.loc 1 1490 78 is_stmt 1 view -0
 4036              		.cfi_startproc
 4037              		@ args = 0, pretend = 0, frame = 0
 4038              		@ frame_needed = 0, uses_anonymous_args = 0
1491:lr1mac/src/smtc_real/src/smtc_real.c ****      switch( lr1_mac->real->region_type )
 4039              		.loc 1 1491 6 view .LVU1002
1490:lr1mac/src/smtc_real/src/smtc_real.c ****      switch( lr1_mac->real->region_type )
 4040              		.loc 1 1490 78 is_stmt 0 view .LVU1003
 4041 0000 10B5     		push	{r4, lr}
 4042              		.cfi_def_cfa_offset 8
 4043              		.cfi_offset 4, -8
 4044              		.cfi_offset 14, -4
 4045              		.loc 1 1491 27 view .LVU1004
 4046 0002 0368     		ldr	r3, [r0]
 4047              		.loc 1 1491 6 view .LVU1005
 4048 0004 1B79     		ldrb	r3, [r3, #4]
 4049 0006 062B     		cmp	r3, #6
 4050 0008 18D1     		bne	.L275
1492:lr1mac/src/smtc_real/src/smtc_real.c ****     {
1493:lr1mac/src/smtc_real/src/smtc_real.c **** #if defined( REGION_WW2G4 )
1494:lr1mac/src/smtc_real/src/smtc_real.c ****     case SMTC_REAL_REGION_WW2G4:
1495:lr1mac/src/smtc_real/src/smtc_real.c ****     {
1496:lr1mac/src/smtc_real/src/smtc_real.c ****         if ( ( sf == 5 )  || ( sf == 6 ) ) {
 4051              		.loc 1 1496 9 is_stmt 1 view .LVU1006
 4052              		.loc 1 1496 12 is_stmt 0 view .LVU1007
 4053 000a 4B1F     		subs	r3, r1, #5
1497:lr1mac/src/smtc_real/src/smtc_real.c ****             return 12;
 4054              		.loc 1 1497 20 view .LVU1008
 4055 000c 0C20     		movs	r0, #12
 4056              	.LVL463:
1496:lr1mac/src/smtc_real/src/smtc_real.c ****             return 12;
 4057              		.loc 1 1496 12 view .LVU1009
 4058 000e 012B     		cmp	r3, #1
 4059 0010 13D9     		bls	.L276
1498:lr1mac/src/smtc_real/src/smtc_real.c ****         }
1499:lr1mac/src/smtc_real/src/smtc_real.c ****         else if ( ( sf >= 7 )  && ( sf <= 12 ) ){
 4060              		.loc 1 1499 14 is_stmt 1 view .LVU1010
 4061              		.loc 1 1499 17 is_stmt 0 view .LVU1011
 4062 0012 0739     		subs	r1, r1, #7
 4063              	.LVL464:
1500:lr1mac/src/smtc_real/src/smtc_real.c ****             return 8;
 4064              		.loc 1 1500 20 view .LVU1012
 4065 0014 0438     		subs	r0, r0, #4
1499:lr1mac/src/smtc_real/src/smtc_real.c ****             return 8;
 4066              		.loc 1 1499 17 view .LVU1013
 4067 0016 0529     		cmp	r1, #5
 4068 0018 0FD9     		bls	.L276
1501:lr1mac/src/smtc_real/src/smtc_real.c ****         }
1502:lr1mac/src/smtc_real/src/smtc_real.c ****         else {
1503:lr1mac/src/smtc_real/src/smtc_real.c ****             BSP_DBG_TRACE_ERROR( "%s unsupported sf \n", __func__ );
 4069              		.loc 1 1503 13 is_stmt 1 view .LVU1014
 4070              		.loc 1 1503 13 view .LVU1015
 4071 001a 0D48     		ldr	r0, .L280
ARM GAS  /var/folders/bq/yv49bw8j2kd6w3hsq868qv180000gn/T//ccRnzw9B.s 			page 106


 4072 001c FFF7FEFF 		bl	bsp_trace_print
 4073              	.LVL465:
 4074              		.loc 1 1503 13 view .LVU1016
 4075 0020 0C48     		ldr	r0, .L280+4
 4076 0022 FFF7FEFF 		bl	bsp_trace_print
 4077              	.LVL466:
 4078              		.loc 1 1503 13 view .LVU1017
 4079 0026 0C49     		ldr	r1, .L280+8
 4080 0028 0C48     		ldr	r0, .L280+12
 4081              	.L279:
1504:lr1mac/src/smtc_real/src/smtc_real.c ****             bsp_mcu_handle_lr1mac_issue( );
1505:lr1mac/src/smtc_real/src/smtc_real.c ****             break;
1506:lr1mac/src/smtc_real/src/smtc_real.c ****         }
1507:lr1mac/src/smtc_real/src/smtc_real.c ****     }
1508:lr1mac/src/smtc_real/src/smtc_real.c **** #endif
1509:lr1mac/src/smtc_real/src/smtc_real.c **** #if defined( REGION_EU_868 )
1510:lr1mac/src/smtc_real/src/smtc_real.c ****     case SMTC_REAL_REGION_EU_868:
1511:lr1mac/src/smtc_real/src/smtc_real.c ****     {
1512:lr1mac/src/smtc_real/src/smtc_real.c ****         return 8;
1513:lr1mac/src/smtc_real/src/smtc_real.c ****     }
1514:lr1mac/src/smtc_real/src/smtc_real.c **** #endif
1515:lr1mac/src/smtc_real/src/smtc_real.c **** #if defined( REGION_US_915 )
1516:lr1mac/src/smtc_real/src/smtc_real.c ****     case SMTC_REAL_REGION_US_915:
1517:lr1mac/src/smtc_real/src/smtc_real.c ****     {
1518:lr1mac/src/smtc_real/src/smtc_real.c ****         return 8;
1519:lr1mac/src/smtc_real/src/smtc_real.c ****     }
1520:lr1mac/src/smtc_real/src/smtc_real.c **** #endif
1521:lr1mac/src/smtc_real/src/smtc_real.c ****     default:
1522:lr1mac/src/smtc_real/src/smtc_real.c ****         BSP_DBG_TRACE_ERROR( "%s unsupported\n", __func__ );
 4082              		.loc 1 1522 9 is_stmt 0 view .LVU1018
 4083 002a FFF7FEFF 		bl	bsp_trace_print
 4084              	.LVL467:
 4085              		.loc 1 1522 9 is_stmt 1 view .LVU1019
 4086 002e 0C48     		ldr	r0, .L280+16
 4087 0030 FFF7FEFF 		bl	bsp_trace_print
 4088              	.LVL468:
 4089              		.loc 1 1522 9 view .LVU1020
 4090              		.loc 1 1522 60 view .LVU1021
1523:lr1mac/src/smtc_real/src/smtc_real.c ****         bsp_mcu_handle_lr1mac_issue( );
 4091              		.loc 1 1523 9 view .LVU1022
 4092 0034 FFF7FEFF 		bl	bsp_mcu_handle_lr1mac_issue
 4093              	.LVL469:
1524:lr1mac/src/smtc_real/src/smtc_real.c ****         break;
 4094              		.loc 1 1524 9 view .LVU1023
1525:lr1mac/src/smtc_real/src/smtc_real.c ****     }
1526:lr1mac/src/smtc_real/src/smtc_real.c ****     return 0;  // never reach => avoid warning
 4095              		.loc 1 1526 12 is_stmt 0 view .LVU1024
 4096 0038 0020     		movs	r0, #0
 4097              	.L276:
1527:lr1mac/src/smtc_real/src/smtc_real.c **** }
 4098              		.loc 1 1527 1 view .LVU1025
 4099              		@ sp needed
 4100 003a 10BD     		pop	{r4, pc}
 4101              	.LVL470:
 4102              	.L275:
1522:lr1mac/src/smtc_real/src/smtc_real.c ****         bsp_mcu_handle_lr1mac_issue( );
 4103              		.loc 1 1522 9 is_stmt 1 view .LVU1026
ARM GAS  /var/folders/bq/yv49bw8j2kd6w3hsq868qv180000gn/T//ccRnzw9B.s 			page 107


1522:lr1mac/src/smtc_real/src/smtc_real.c ****         bsp_mcu_handle_lr1mac_issue( );
 4104              		.loc 1 1522 9 view .LVU1027
 4105 003c 0448     		ldr	r0, .L280
 4106              	.LVL471:
1522:lr1mac/src/smtc_real/src/smtc_real.c ****         bsp_mcu_handle_lr1mac_issue( );
 4107              		.loc 1 1522 9 is_stmt 0 view .LVU1028
 4108 003e FFF7FEFF 		bl	bsp_trace_print
 4109              	.LVL472:
1522:lr1mac/src/smtc_real/src/smtc_real.c ****         bsp_mcu_handle_lr1mac_issue( );
 4110              		.loc 1 1522 9 is_stmt 1 view .LVU1029
 4111 0042 0448     		ldr	r0, .L280+4
 4112 0044 FFF7FEFF 		bl	bsp_trace_print
 4113              	.LVL473:
1522:lr1mac/src/smtc_real/src/smtc_real.c ****         bsp_mcu_handle_lr1mac_issue( );
 4114              		.loc 1 1522 9 view .LVU1030
 4115 0048 0349     		ldr	r1, .L280+8
 4116 004a 0648     		ldr	r0, .L280+20
 4117 004c EDE7     		b	.L279
 4118              	.L281:
 4119 004e C046     		.align	2
 4120              	.L280:
 4121 0050 00000000 		.word	.LC0
 4122 0054 08000000 		.word	.LC2
 4123 0058 00000000 		.word	.LANCHOR52
 4124 005c 00000000 		.word	.LC267
 4125 0060 20000000 		.word	.LC7
 4126 0064 10000000 		.word	.LC5
 4127              		.cfi_endproc
 4128              	.LFE61:
 4130              		.section	.rodata.__func__.6075,"a"
 4131              		.set	.LANCHOR0,. + 0
 4134              	__func__.6075:
 4135 0000 736D7463 		.ascii	"smtc_real_init\000"
 4135      5F726561 
 4135      6C5F696E 
 4135      697400
 4136              		.section	.rodata.__func__.6083,"a"
 4137              		.set	.LANCHOR1,. + 0
 4140              	__func__.6083:
 4141 0000 736D7463 		.ascii	"smtc_real_dr_distribution_set\000"
 4141      5F726561 
 4141      6C5F6472 
 4141      5F646973 
 4141      74726962 
 4142              		.section	.rodata.__func__.6089,"a"
 4143              		.set	.LANCHOR2,. + 0
 4146              	__func__.6089:
 4147 0000 736D7463 		.ascii	"smtc_real_memory_load\000"
 4147      5F726561 
 4147      6C5F6D65 
 4147      6D6F7279 
 4147      5F6C6F61 
 4148              		.section	.rodata.__func__.6096,"a"
 4149              		.set	.LANCHOR3,. + 0
 4152              	__func__.6096:
 4153 0000 736D7463 		.ascii	"smtc_real_bad_crc_memory_set\000"
 4153      5F726561 
ARM GAS  /var/folders/bq/yv49bw8j2kd6w3hsq868qv180000gn/T//ccRnzw9B.s 			page 108


 4153      6C5F6261 
 4153      645F6372 
 4153      635F6D65 
 4154              		.section	.rodata.__func__.6103,"a"
 4155              		.set	.LANCHOR4,. + 0
 4158              	__func__.6103:
 4159 0000 736D7463 		.ascii	"smtc_real_next_dr_get\000"
 4159      5F726561 
 4159      6C5F6E65 
 4159      78745F64 
 4159      725F6765 
 4160              		.section	.rodata.__func__.6110,"a"
 4161              		.set	.LANCHOR5,. + 0
 4164              	__func__.6110:
 4165 0000 736D7463 		.ascii	"smtc_real_memory_save\000"
 4165      5F726561 
 4165      6C5F6D65 
 4165      6D6F7279 
 4165      5F736176 
 4166              		.section	.rodata.__func__.6117,"a"
 4167              		.set	.LANCHOR6,. + 0
 4170              	__func__.6117:
 4171 0000 736D7463 		.ascii	"smtc_real_max_payload_size_get\000"
 4171      5F726561 
 4171      6C5F6D61 
 4171      785F7061 
 4171      796C6F61 
 4172              		.section	.rodata.__func__.6125,"a"
 4173              		.set	.LANCHOR7,. + 0
 4176              	__func__.6125:
 4177 0000 736D7463 		.ascii	"smtc_real_decode_freq_from_buf\000"
 4177      5F726561 
 4177      6C5F6465 
 4177      636F6465 
 4177      5F667265 
 4178              		.section	.rodata.__func__.6133,"a"
 4179              		.set	.LANCHOR8,. + 0
 4182              	__func__.6133:
 4183 0000 736D7463 		.ascii	"smtc_real_cflist_get\000"
 4183      5F726561 
 4183      6C5F6366 
 4183      6C697374 
 4183      5F676574 
 4184              		.section	.rodata.__func__.6139,"a"
 4185              		.set	.LANCHOR9,. + 0
 4188              	__func__.6139:
 4189 0000 736D7463 		.ascii	"smtc_real_next_channel_get\000"
 4189      5F726561 
 4189      6C5F6E65 
 4189      78745F63 
 4189      68616E6E 
 4190              		.section	.rodata.__func__.6146,"a"
 4191              		.set	.LANCHOR10,. + 0
 4194              	__func__.6146:
 4195 0000 736D7463 		.ascii	"smtc_real_join_next_channel_get\000"
 4195      5F726561 
 4195      6C5F6A6F 
ARM GAS  /var/folders/bq/yv49bw8j2kd6w3hsq868qv180000gn/T//ccRnzw9B.s 			page 109


 4195      696E5F6E 
 4195      6578745F 
 4196              		.section	.rodata.__func__.6155,"a"
 4197              		.set	.LANCHOR11,. + 0
 4200              	__func__.6155:
 4201 0000 736D7463 		.ascii	"smtc_real_rx_config_set\000"
 4201      5F726561 
 4201      6C5F7278 
 4201      5F636F6E 
 4201      6669675F 
 4202              		.section	.rodata.__func__.6163,"a"
 4203              		.set	.LANCHOR12,. + 0
 4206              	__func__.6163:
 4207 0000 736D7463 		.ascii	"smtc_real_power_set\000"
 4207      5F726561 
 4207      6C5F706F 
 4207      7765725F 
 4207      73657400 
 4208              		.section	.rodata.__func__.6169,"a"
 4209              		.set	.LANCHOR13,. + 0
 4212              	__func__.6169:
 4213 0000 736D7463 		.ascii	"smtc_real_default_max_eirp_get\000"
 4213      5F726561 
 4213      6C5F6465 
 4213      6661756C 
 4213      745F6D61 
 4214              		.section	.rodata.__func__.6177,"a"
 4215              		.set	.LANCHOR14,. + 0
 4218              	__func__.6177:
 4219 0000 736D7463 		.ascii	"smtc_real_channel_mask_set\000"
 4219      5F726561 
 4219      6C5F6368 
 4219      616E6E65 
 4219      6C5F6D61 
 4220              		.section	.rodata.__func__.6184,"a"
 4221              		.set	.LANCHOR15,. + 0
 4224              	__func__.6184:
 4225 0000 736D7463 		.ascii	"smtc_real_channel_mask_init\000"
 4225      5F726561 
 4225      6C5F6368 
 4225      616E6E65 
 4225      6C5F6D61 
 4226              		.section	.rodata.__func__.6191,"a"
 4227              		.set	.LANCHOR16,. + 0
 4230              	__func__.6191:
 4231 0000 736D7463 		.ascii	"smtc_real_join_snapshot_channel_mask_init\000"
 4231      5F726561 
 4231      6C5F6A6F 
 4231      696E5F73 
 4231      6E617073 
 4232              		.section	.rodata.__func__.6199,"a"
 4233              		.set	.LANCHOR17,. + 0
 4236              	__func__.6199:
 4237 0000 736D7463 		.ascii	"smtc_real_channel_mask_build\000"
 4237      5F726561 
 4237      6C5F6368 
 4237      616E6E65 
ARM GAS  /var/folders/bq/yv49bw8j2kd6w3hsq868qv180000gn/T//ccRnzw9B.s 			page 110


 4237      6C5F6D61 
 4238              		.section	.rodata.__func__.6207,"a"
 4239              		.set	.LANCHOR18,. + 0
 4242              	__func__.6207:
 4243 0000 736D7463 		.ascii	"smtc_real_dr_decrement\000"
 4243      5F726561 
 4243      6C5F6472 
 4243      5F646563 
 4243      72656D65 
 4244              		.section	.rodata.__func__.6213,"a"
 4245              		.set	.LANCHOR19,. + 0
 4248              	__func__.6213:
 4249 0000 736D7463 		.ascii	"smtc_real_adr_ack_delay_get\000"
 4249      5F726561 
 4249      6C5F6164 
 4249      725F6163 
 4249      6B5F6465 
 4250              		.section	.rodata.__func__.6220,"a"
 4251              		.set	.LANCHOR20,. + 0
 4254              	__func__.6220:
 4255 0000 736D7463 		.ascii	"smtc_real_adr_ack_limit_get\000"
 4255      5F726561 
 4255      6C5F6164 
 4255      725F6163 
 4255      6B5F6C69 
 4256              		.section	.rodata.__func__.6227,"a"
 4257              		.set	.LANCHOR21,. + 0
 4260              	__func__.6227:
 4261 0000 736D7463 		.ascii	"smtc_real_sync_word_get\000"
 4261      5F726561 
 4261      6C5F7379 
 4261      6E635F77 
 4261      6F72645F 
 4262              		.section	.rodata.__func__.6233,"a"
 4263              		.set	.LANCHOR22,. + 0
 4266              	__func__.6233:
 4267 0000 736D7463 		.ascii	"smtc_real_gfsk_sync_word_get\000"
 4267      5F726561 
 4267      6C5F6766 
 4267      736B5F73 
 4267      796E635F 
 4268              		.section	.rodata.__func__.6241,"a"
 4269              		.set	.LANCHOR23,. + 0
 4272              	__func__.6241:
 4273 0000 736D7463 		.ascii	"smtc_real_is_valid_rx1_dr_offset\000"
 4273      5F726561 
 4273      6C5F6973 
 4273      5F76616C 
 4273      69645F72 
 4274              		.section	.rodata.__func__.6249,"a"
 4275              		.set	.LANCHOR24,. + 0
 4278              	__func__.6249:
 4279 0000 736D7463 		.ascii	"smtc_real_is_valid_dr\000"
 4279      5F726561 
 4279      6C5F6973 
 4279      5F76616C 
 4279      69645F64 
ARM GAS  /var/folders/bq/yv49bw8j2kd6w3hsq868qv180000gn/T//ccRnzw9B.s 			page 111


 4280              		.section	.rodata.__func__.6257,"a"
 4281              		.set	.LANCHOR25,. + 0
 4284              	__func__.6257:
 4285 0000 736D7463 		.ascii	"smtc_real_is_acceptable_dr\000"
 4285      5F726561 
 4285      6C5F6973 
 4285      5F616363 
 4285      65707461 
 4286              		.section	.rodata.__func__.6265,"a"
 4287              		.set	.LANCHOR26,. + 0
 4290              	__func__.6265:
 4291 0000 736D7463 		.ascii	"smtc_real_is_valid_tx_frequency\000"
 4291      5F726561 
 4291      6C5F6973 
 4291      5F76616C 
 4291      69645F74 
 4292              		.section	.rodata.__func__.6273,"a"
 4293              		.set	.LANCHOR27,. + 0
 4296              	__func__.6273:
 4297 0000 736D7463 		.ascii	"smtc_real_is_valid_rx_frequency\000"
 4297      5F726561 
 4297      6C5F6973 
 4297      5F76616C 
 4297      69645F72 
 4298              		.section	.rodata.__func__.6281,"a"
 4299              		.set	.LANCHOR28,. + 0
 4302              	__func__.6281:
 4303 0000 736D7463 		.ascii	"smtc_real_is_valid_tx_power\000"
 4303      5F726561 
 4303      6C5F6973 
 4303      5F76616C 
 4303      69645F74 
 4304              		.section	.rodata.__func__.6289,"a"
 4305              		.set	.LANCHOR29,. + 0
 4308              	__func__.6289:
 4309 0000 736D7463 		.ascii	"smtc_real_is_valid_channel_index\000"
 4309      5F726561 
 4309      6C5F6973 
 4309      5F76616C 
 4309      69645F63 
 4310              		.section	.rodata.__func__.6298,"a"
 4311              		.set	.LANCHOR30,. + 0
 4314              	__func__.6298:
 4315 0000 736D7463 		.ascii	"smtc_real_is_valid_size\000"
 4315      5F726561 
 4315      6C5F6973 
 4315      5F76616C 
 4315      69645F73 
 4316              		.section	.rodata.__func__.6308,"a"
 4317              		.set	.LANCHOR31,. + 0
 4320              	__func__.6308:
 4321 0000 736D7463 		.ascii	"smtc_real_tx_frequency_channel_set\000"
 4321      5F726561 
 4321      6C5F7478 
 4321      5F667265 
 4321      7175656E 
 4322              		.section	.rodata.__func__.6317,"a"
ARM GAS  /var/folders/bq/yv49bw8j2kd6w3hsq868qv180000gn/T//ccRnzw9B.s 			page 112


 4323              		.set	.LANCHOR32,. + 0
 4326              	__func__.6317:
 4327 0000 736D7463 		.ascii	"smtc_real_rx1_frequency_channel_set\000"
 4327      5F726561 
 4327      6C5F7278 
 4327      315F6672 
 4327      65717565 
 4328              		.section	.rodata.__func__.6326,"a"
 4329              		.set	.LANCHOR33,. + 0
 4332              	__func__.6326:
 4333 0000 736D7463 		.ascii	"smtc_real_min_dr_channel_set\000"
 4333      5F726561 
 4333      6C5F6D69 
 4333      6E5F6472 
 4333      5F636861 
 4334              		.section	.rodata.__func__.6335,"a"
 4335              		.set	.LANCHOR34,. + 0
 4338              	__func__.6335:
 4339 0000 736D7463 		.ascii	"smtc_real_max_dr_channel_set\000"
 4339      5F726561 
 4339      6C5F6D61 
 4339      785F6472 
 4339      5F636861 
 4340              		.section	.rodata.__func__.6344,"a"
 4341              		.set	.LANCHOR35,. + 0
 4344              	__func__.6344:
 4345 0000 736D7463 		.ascii	"smtc_real_channel_enabled_set\000"
 4345      5F726561 
 4345      6C5F6368 
 4345      616E6E65 
 4345      6C5F656E 
 4346              		.section	.rodata.__func__.6351,"a"
 4347              		.set	.LANCHOR36,. + 0
 4350              	__func__.6351:
 4351 0000 736D7463 		.ascii	"smtc_real_tx_frequency_channel_get\000"
 4351      5F726561 
 4351      6C5F7478 
 4351      5F667265 
 4351      7175656E 
 4352              		.section	.rodata.__func__.6359,"a"
 4353              		.set	.LANCHOR37,. + 0
 4356              	__func__.6359:
 4357 0000 736D7463 		.ascii	"smtc_real_rx1_frequency_channel_get\000"
 4357      5F726561 
 4357      6C5F7278 
 4357      315F6672 
 4357      65717565 
 4358              		.section	.rodata.__func__.6366,"a"
 4359              		.set	.LANCHOR38,. + 0
 4362              	__func__.6366:
 4363 0000 736D7463 		.ascii	"smtc_real_min_dr_channel_get\000"
 4363      5F726561 
 4363      6C5F6D69 
 4363      6E5F6472 
 4363      5F636861 
 4364              		.section	.rodata.__func__.6373,"a"
 4365              		.set	.LANCHOR39,. + 0
ARM GAS  /var/folders/bq/yv49bw8j2kd6w3hsq868qv180000gn/T//ccRnzw9B.s 			page 113


 4368              	__func__.6373:
 4369 0000 736D7463 		.ascii	"smtc_real_max_dr_channel_get\000"
 4369      5F726561 
 4369      6C5F6D61 
 4369      785F6472 
 4369      5F636861 
 4370              		.section	.rodata.__func__.6381,"a"
 4371              		.set	.LANCHOR40,. + 0
 4374              	__func__.6381:
 4375 0000 736D7463 		.ascii	"smtc_real_channel_enabled_get\000"
 4375      5F726561 
 4375      6C5F6368 
 4375      616E6E65 
 4375      6C5F656E 
 4376              		.section	.rodata.__func__.6388,"a"
 4377              		.set	.LANCHOR41,. + 0
 4380              	__func__.6388:
 4381 0000 736D7463 		.ascii	"smtc_real_rx1_join_delay_get\000"
 4381      5F726561 
 4381      6C5F7278 
 4381      315F6A6F 
 4381      696E5F64 
 4382              		.section	.rodata.__func__.6395,"a"
 4383              		.set	.LANCHOR42,. + 0
 4386              	__func__.6395:
 4387 0000 736D7463 		.ascii	"smtc_real_rx2_join_dr_get\000"
 4387      5F726561 
 4387      6C5F7278 
 4387      325F6A6F 
 4387      696E5F64 
 4388              		.section	.rodata.__func__.6402,"a"
 4389              		.set	.LANCHOR43,. + 0
 4392              	__func__.6402:
 4393 0000 736D7463 		.ascii	"smtc_real_frequency_factor_get\000"
 4393      5F726561 
 4393      6C5F6672 
 4393      65717565 
 4393      6E63795F 
 4394              		.section	.rodata.__func__.6409,"a"
 4395              		.set	.LANCHOR44,. + 0
 4398              	__func__.6409:
 4399 0000 736D7463 		.ascii	"smtc_real_coding_rate_get\000"
 4399      5F726561 
 4399      6C5F636F 
 4399      64696E67 
 4399      5F726174 
 4400              		.section	.rodata.__func__.6416,"a"
 4401              		.set	.LANCHOR45,. + 0
 4404              	__func__.6416:
 4405 0000 736D7463 		.ascii	"smtc_real_get_join_sf5_toa_in_ms\000"
 4405      5F726561 
 4405      6C5F6765 
 4405      745F6A6F 
 4405      696E5F73 
 4406              		.section	.rodata.__func__.6425,"a"
 4407              		.set	.LANCHOR46,. + 0
 4410              	__func__.6425:
ARM GAS  /var/folders/bq/yv49bw8j2kd6w3hsq868qv180000gn/T//ccRnzw9B.s 			page 114


 4411 0000 736D7463 		.ascii	"smtc_real_duty_cycle_enable_set\000"
 4411      5F726561 
 4411      6C5F6475 
 4411      74795F63 
 4411      79636C65 
 4412              		.section	.rodata.__func__.6434,"a"
 4413              		.set	.LANCHOR47,. + 0
 4416              	__func__.6434:
 4417 0000 736D7463 		.ascii	"smtc_real_duty_cycle_sum\000"
 4417      5F726561 
 4417      6C5F6475 
 4417      74795F63 
 4417      79636C65 
 4418              		.section	.rodata.__func__.6441,"a"
 4419              		.set	.LANCHOR48,. + 0
 4422              	__func__.6441:
 4423 0000 736D7463 		.ascii	"smtc_real_duty_cycle_update\000"
 4423      5F726561 
 4423      6C5F6475 
 4423      74795F63 
 4423      79636C65 
 4424              		.section	.rodata.__func__.6449,"a"
 4425              		.set	.LANCHOR49,. + 0
 4428              	__func__.6449:
 4429 0000 736D7463 		.ascii	"smtc_real_duty_cycle_is_toa_accepted\000"
 4429      5F726561 
 4429      6C5F6475 
 4429      74795F63 
 4429      79636C65 
 4430              		.section	.rodata.__func__.6457,"a"
 4431              		.set	.LANCHOR50,. + 0
 4434              	__func__.6457:
 4435 0000 736D7463 		.ascii	"smtc_real_duty_cycle_is_channel_free\000"
 4435      5F726561 
 4435      6C5F6475 
 4435      74795F63 
 4435      79636C65 
 4436              		.section	.rodata.__func__.6464,"a"
 4437              		.set	.LANCHOR51,. + 0
 4440              	__func__.6464:
 4441 0000 736D7463 		.ascii	"smtc_real_next_free_duty_cycle_ms_get\000"
 4441      5F726561 
 4441      6C5F6E65 
 4441      78745F66 
 4441      7265655F 
 4442              		.section	.rodata.__func__.6471,"a"
 4443              		.set	.LANCHOR52,. + 0
 4446              	__func__.6471:
 4447 0000 736D7463 		.ascii	"smtc_real_preamble_get\000"
 4447      5F726561 
 4447      6C5F7072 
 4447      65616D62 
 4447      6C655F67 
 4448              		.text
 4449              	.Letext0:
 4450              		.file 2 "/Applications/STM32CubeIDE.app/Contents/Eclipse/plugins/com.st.stm32cube.ide.mcu.external
 4451              		.file 3 "/Applications/STM32CubeIDE.app/Contents/Eclipse/plugins/com.st.stm32cube.ide.mcu.external
ARM GAS  /var/folders/bq/yv49bw8j2kd6w3hsq868qv180000gn/T//ccRnzw9B.s 			page 115


 4452              		.file 4 "lr1mac/src/smtc_real/src/smtc_real_defs.h"
 4453              		.file 5 "/Applications/STM32CubeIDE.app/Contents/Eclipse/plugins/com.st.stm32cube.ide.mcu.external
 4454              		.file 6 "/Applications/STM32CubeIDE.app/Contents/Eclipse/plugins/com.st.stm32cube.ide.mcu.external
 4455              		.file 7 "/Applications/STM32CubeIDE.app/Contents/Eclipse/plugins/com.st.stm32cube.ide.mcu.external
 4456              		.file 8 "/Applications/STM32CubeIDE.app/Contents/Eclipse/plugins/com.st.stm32cube.ide.mcu.external
 4457              		.file 9 "smtc_ral/src/ral_defs.h"
 4458              		.file 10 "lr1mac/src/lr1mac_defs.h"
 4459              		.file 11 "radio_planner/src/radio_planner_types.h"
 4460              		.file 12 "radio_planner/src/radio_planner_stats.h"
 4461              		.file 13 "radio_planner/src/radio_planner.h"
 4462              		.file 14 "lr1mac/src/lr1_stack_mac_layer.h"
 4463              		.file 15 "smtc_bsp/smtc_bsp_mcu.h"
 4464              		.file 16 "lr1mac/src/smtc_real/src/region_ww2g4.h"
ARM GAS  /var/folders/bq/yv49bw8j2kd6w3hsq868qv180000gn/T//ccRnzw9B.s 			page 116


DEFINED SYMBOLS
                            *ABS*:0000000000000000 smtc_real.c
/var/folders/bq/yv49bw8j2kd6w3hsq868qv180000gn/T//ccRnzw9B.s:23     .text.smtc_real_init:0000000000000000 $t
/var/folders/bq/yv49bw8j2kd6w3hsq868qv180000gn/T//ccRnzw9B.s:31     .text.smtc_real_init:0000000000000000 smtc_real_init
/var/folders/bq/yv49bw8j2kd6w3hsq868qv180000gn/T//ccRnzw9B.s:91     .text.smtc_real_init:0000000000000030 $d
/var/folders/bq/yv49bw8j2kd6w3hsq868qv180000gn/T//ccRnzw9B.s:100    .text.smtc_real_dr_distribution_set:0000000000000000 $t
/var/folders/bq/yv49bw8j2kd6w3hsq868qv180000gn/T//ccRnzw9B.s:107    .text.smtc_real_dr_distribution_set:0000000000000000 smtc_real_dr_distribution_set
/var/folders/bq/yv49bw8j2kd6w3hsq868qv180000gn/T//ccRnzw9B.s:166    .text.smtc_real_dr_distribution_set:0000000000000030 $d
/var/folders/bq/yv49bw8j2kd6w3hsq868qv180000gn/T//ccRnzw9B.s:175    .text.smtc_real_memory_load:0000000000000000 $t
/var/folders/bq/yv49bw8j2kd6w3hsq868qv180000gn/T//ccRnzw9B.s:182    .text.smtc_real_memory_load:0000000000000000 smtc_real_memory_load
/var/folders/bq/yv49bw8j2kd6w3hsq868qv180000gn/T//ccRnzw9B.s:245    .text.smtc_real_memory_load:0000000000000034 $d
/var/folders/bq/yv49bw8j2kd6w3hsq868qv180000gn/T//ccRnzw9B.s:254    .text.smtc_real_bad_crc_memory_set:0000000000000000 $t
/var/folders/bq/yv49bw8j2kd6w3hsq868qv180000gn/T//ccRnzw9B.s:261    .text.smtc_real_bad_crc_memory_set:0000000000000000 smtc_real_bad_crc_memory_set
/var/folders/bq/yv49bw8j2kd6w3hsq868qv180000gn/T//ccRnzw9B.s:320    .text.smtc_real_bad_crc_memory_set:0000000000000030 $d
/var/folders/bq/yv49bw8j2kd6w3hsq868qv180000gn/T//ccRnzw9B.s:329    .text.smtc_real_next_dr_get:0000000000000000 $t
/var/folders/bq/yv49bw8j2kd6w3hsq868qv180000gn/T//ccRnzw9B.s:336    .text.smtc_real_next_dr_get:0000000000000000 smtc_real_next_dr_get
/var/folders/bq/yv49bw8j2kd6w3hsq868qv180000gn/T//ccRnzw9B.s:395    .text.smtc_real_next_dr_get:0000000000000030 $d
/var/folders/bq/yv49bw8j2kd6w3hsq868qv180000gn/T//ccRnzw9B.s:404    .text.smtc_real_memory_save:0000000000000000 $t
/var/folders/bq/yv49bw8j2kd6w3hsq868qv180000gn/T//ccRnzw9B.s:411    .text.smtc_real_memory_save:0000000000000000 smtc_real_memory_save
/var/folders/bq/yv49bw8j2kd6w3hsq868qv180000gn/T//ccRnzw9B.s:470    .text.smtc_real_memory_save:0000000000000030 $d
/var/folders/bq/yv49bw8j2kd6w3hsq868qv180000gn/T//ccRnzw9B.s:479    .text.smtc_real_max_payload_size_get:0000000000000000 $t
/var/folders/bq/yv49bw8j2kd6w3hsq868qv180000gn/T//ccRnzw9B.s:486    .text.smtc_real_max_payload_size_get:0000000000000000 smtc_real_max_payload_size_get
/var/folders/bq/yv49bw8j2kd6w3hsq868qv180000gn/T//ccRnzw9B.s:551    .text.smtc_real_max_payload_size_get:0000000000000034 $d
/var/folders/bq/yv49bw8j2kd6w3hsq868qv180000gn/T//ccRnzw9B.s:560    .text.smtc_real_decode_freq_from_buf:0000000000000000 $t
/var/folders/bq/yv49bw8j2kd6w3hsq868qv180000gn/T//ccRnzw9B.s:567    .text.smtc_real_decode_freq_from_buf:0000000000000000 smtc_real_decode_freq_from_buf
/var/folders/bq/yv49bw8j2kd6w3hsq868qv180000gn/T//ccRnzw9B.s:632    .text.smtc_real_decode_freq_from_buf:0000000000000034 $d
/var/folders/bq/yv49bw8j2kd6w3hsq868qv180000gn/T//ccRnzw9B.s:641    .text.smtc_real_cflist_get:0000000000000000 $t
/var/folders/bq/yv49bw8j2kd6w3hsq868qv180000gn/T//ccRnzw9B.s:648    .text.smtc_real_cflist_get:0000000000000000 smtc_real_cflist_get
/var/folders/bq/yv49bw8j2kd6w3hsq868qv180000gn/T//ccRnzw9B.s:707    .text.smtc_real_cflist_get:0000000000000030 $d
/var/folders/bq/yv49bw8j2kd6w3hsq868qv180000gn/T//ccRnzw9B.s:716    .text.smtc_real_next_channel_get:0000000000000000 $t
/var/folders/bq/yv49bw8j2kd6w3hsq868qv180000gn/T//ccRnzw9B.s:723    .text.smtc_real_next_channel_get:0000000000000000 smtc_real_next_channel_get
/var/folders/bq/yv49bw8j2kd6w3hsq868qv180000gn/T//ccRnzw9B.s:785    .text.smtc_real_next_channel_get:0000000000000034 $d
/var/folders/bq/yv49bw8j2kd6w3hsq868qv180000gn/T//ccRnzw9B.s:794    .text.smtc_real_join_next_channel_get:0000000000000000 $t
/var/folders/bq/yv49bw8j2kd6w3hsq868qv180000gn/T//ccRnzw9B.s:801    .text.smtc_real_join_next_channel_get:0000000000000000 smtc_real_join_next_channel_get
/var/folders/bq/yv49bw8j2kd6w3hsq868qv180000gn/T//ccRnzw9B.s:863    .text.smtc_real_join_next_channel_get:0000000000000034 $d
/var/folders/bq/yv49bw8j2kd6w3hsq868qv180000gn/T//ccRnzw9B.s:872    .text.smtc_real_rx_config_set:0000000000000000 $t
/var/folders/bq/yv49bw8j2kd6w3hsq868qv180000gn/T//ccRnzw9B.s:879    .text.smtc_real_rx_config_set:0000000000000000 smtc_real_rx_config_set
/var/folders/bq/yv49bw8j2kd6w3hsq868qv180000gn/T//ccRnzw9B.s:938    .text.smtc_real_rx_config_set:0000000000000030 $d
/var/folders/bq/yv49bw8j2kd6w3hsq868qv180000gn/T//ccRnzw9B.s:947    .text.smtc_real_power_set:0000000000000000 $t
/var/folders/bq/yv49bw8j2kd6w3hsq868qv180000gn/T//ccRnzw9B.s:954    .text.smtc_real_power_set:0000000000000000 smtc_real_power_set
/var/folders/bq/yv49bw8j2kd6w3hsq868qv180000gn/T//ccRnzw9B.s:1013   .text.smtc_real_power_set:0000000000000030 $d
/var/folders/bq/yv49bw8j2kd6w3hsq868qv180000gn/T//ccRnzw9B.s:1022   .text.smtc_real_default_max_eirp_get:0000000000000000 $t
/var/folders/bq/yv49bw8j2kd6w3hsq868qv180000gn/T//ccRnzw9B.s:1029   .text.smtc_real_default_max_eirp_get:0000000000000000 smtc_real_default_max_eirp_get
/var/folders/bq/yv49bw8j2kd6w3hsq868qv180000gn/T//ccRnzw9B.s:1085   .text.smtc_real_default_max_eirp_get:0000000000000030 $d
/var/folders/bq/yv49bw8j2kd6w3hsq868qv180000gn/T//ccRnzw9B.s:1094   .text.smtc_real_channel_mask_set:0000000000000000 $t
/var/folders/bq/yv49bw8j2kd6w3hsq868qv180000gn/T//ccRnzw9B.s:1101   .text.smtc_real_channel_mask_set:0000000000000000 smtc_real_channel_mask_set
/var/folders/bq/yv49bw8j2kd6w3hsq868qv180000gn/T//ccRnzw9B.s:1160   .text.smtc_real_channel_mask_set:0000000000000030 $d
/var/folders/bq/yv49bw8j2kd6w3hsq868qv180000gn/T//ccRnzw9B.s:1169   .text.smtc_real_channel_mask_init:0000000000000000 $t
/var/folders/bq/yv49bw8j2kd6w3hsq868qv180000gn/T//ccRnzw9B.s:1176   .text.smtc_real_channel_mask_init:0000000000000000 smtc_real_channel_mask_init
/var/folders/bq/yv49bw8j2kd6w3hsq868qv180000gn/T//ccRnzw9B.s:1236   .text.smtc_real_channel_mask_init:0000000000000030 $d
/var/folders/bq/yv49bw8j2kd6w3hsq868qv180000gn/T//ccRnzw9B.s:1245   .text.smtc_real_join_snapshot_channel_mask_init:0000000000000000 $t
/var/folders/bq/yv49bw8j2kd6w3hsq868qv180000gn/T//ccRnzw9B.s:1252   .text.smtc_real_join_snapshot_channel_mask_init:0000000000000000 smtc_real_join_snapshot_channel_mask_init
/var/folders/bq/yv49bw8j2kd6w3hsq868qv180000gn/T//ccRnzw9B.s:1312   .text.smtc_real_join_snapshot_channel_mask_init:0000000000000030 $d
/var/folders/bq/yv49bw8j2kd6w3hsq868qv180000gn/T//ccRnzw9B.s:1321   .text.smtc_real_channel_mask_build:0000000000000000 $t
/var/folders/bq/yv49bw8j2kd6w3hsq868qv180000gn/T//ccRnzw9B.s:1328   .text.smtc_real_channel_mask_build:0000000000000000 smtc_real_channel_mask_build
/var/folders/bq/yv49bw8j2kd6w3hsq868qv180000gn/T//ccRnzw9B.s:1397   .text.smtc_real_channel_mask_build:000000000000003c $d
/var/folders/bq/yv49bw8j2kd6w3hsq868qv180000gn/T//ccRnzw9B.s:1406   .text.smtc_real_dr_decrement:0000000000000000 $t
ARM GAS  /var/folders/bq/yv49bw8j2kd6w3hsq868qv180000gn/T//ccRnzw9B.s 			page 117


/var/folders/bq/yv49bw8j2kd6w3hsq868qv180000gn/T//ccRnzw9B.s:1413   .text.smtc_real_dr_decrement:0000000000000000 smtc_real_dr_decrement
/var/folders/bq/yv49bw8j2kd6w3hsq868qv180000gn/T//ccRnzw9B.s:1472   .text.smtc_real_dr_decrement:0000000000000030 $d
/var/folders/bq/yv49bw8j2kd6w3hsq868qv180000gn/T//ccRnzw9B.s:1481   .text.smtc_real_adr_ack_delay_get:0000000000000000 $t
/var/folders/bq/yv49bw8j2kd6w3hsq868qv180000gn/T//ccRnzw9B.s:1488   .text.smtc_real_adr_ack_delay_get:0000000000000000 smtc_real_adr_ack_delay_get
/var/folders/bq/yv49bw8j2kd6w3hsq868qv180000gn/T//ccRnzw9B.s:1550   .text.smtc_real_adr_ack_delay_get:0000000000000034 $d
/var/folders/bq/yv49bw8j2kd6w3hsq868qv180000gn/T//ccRnzw9B.s:1559   .text.smtc_real_adr_ack_limit_get:0000000000000000 $t
/var/folders/bq/yv49bw8j2kd6w3hsq868qv180000gn/T//ccRnzw9B.s:1566   .text.smtc_real_adr_ack_limit_get:0000000000000000 smtc_real_adr_ack_limit_get
/var/folders/bq/yv49bw8j2kd6w3hsq868qv180000gn/T//ccRnzw9B.s:1628   .text.smtc_real_adr_ack_limit_get:0000000000000034 $d
/var/folders/bq/yv49bw8j2kd6w3hsq868qv180000gn/T//ccRnzw9B.s:1637   .text.smtc_real_sync_word_get:0000000000000000 $t
/var/folders/bq/yv49bw8j2kd6w3hsq868qv180000gn/T//ccRnzw9B.s:1644   .text.smtc_real_sync_word_get:0000000000000000 smtc_real_sync_word_get
/var/folders/bq/yv49bw8j2kd6w3hsq868qv180000gn/T//ccRnzw9B.s:1706   .text.smtc_real_sync_word_get:0000000000000034 $d
/var/folders/bq/yv49bw8j2kd6w3hsq868qv180000gn/T//ccRnzw9B.s:1715   .text.smtc_real_gfsk_sync_word_get:0000000000000000 $t
/var/folders/bq/yv49bw8j2kd6w3hsq868qv180000gn/T//ccRnzw9B.s:1722   .text.smtc_real_gfsk_sync_word_get:0000000000000000 smtc_real_gfsk_sync_word_get
/var/folders/bq/yv49bw8j2kd6w3hsq868qv180000gn/T//ccRnzw9B.s:1772   .text.smtc_real_gfsk_sync_word_get:0000000000000024 $d
/var/folders/bq/yv49bw8j2kd6w3hsq868qv180000gn/T//ccRnzw9B.s:1781   .text.smtc_real_is_valid_rx1_dr_offset:0000000000000000 $t
/var/folders/bq/yv49bw8j2kd6w3hsq868qv180000gn/T//ccRnzw9B.s:1788   .text.smtc_real_is_valid_rx1_dr_offset:0000000000000000 smtc_real_is_valid_rx1_dr_offset
/var/folders/bq/yv49bw8j2kd6w3hsq868qv180000gn/T//ccRnzw9B.s:1854   .text.smtc_real_is_valid_rx1_dr_offset:0000000000000038 $d
/var/folders/bq/yv49bw8j2kd6w3hsq868qv180000gn/T//ccRnzw9B.s:1863   .text.smtc_real_is_valid_dr:0000000000000000 $t
/var/folders/bq/yv49bw8j2kd6w3hsq868qv180000gn/T//ccRnzw9B.s:1870   .text.smtc_real_is_valid_dr:0000000000000000 smtc_real_is_valid_dr
/var/folders/bq/yv49bw8j2kd6w3hsq868qv180000gn/T//ccRnzw9B.s:1936   .text.smtc_real_is_valid_dr:0000000000000038 $d
/var/folders/bq/yv49bw8j2kd6w3hsq868qv180000gn/T//ccRnzw9B.s:1945   .text.smtc_real_is_acceptable_dr:0000000000000000 $t
/var/folders/bq/yv49bw8j2kd6w3hsq868qv180000gn/T//ccRnzw9B.s:1952   .text.smtc_real_is_acceptable_dr:0000000000000000 smtc_real_is_acceptable_dr
/var/folders/bq/yv49bw8j2kd6w3hsq868qv180000gn/T//ccRnzw9B.s:2018   .text.smtc_real_is_acceptable_dr:0000000000000038 $d
/var/folders/bq/yv49bw8j2kd6w3hsq868qv180000gn/T//ccRnzw9B.s:2027   .text.smtc_real_is_valid_tx_frequency:0000000000000000 $t
/var/folders/bq/yv49bw8j2kd6w3hsq868qv180000gn/T//ccRnzw9B.s:2034   .text.smtc_real_is_valid_tx_frequency:0000000000000000 smtc_real_is_valid_tx_frequency
/var/folders/bq/yv49bw8j2kd6w3hsq868qv180000gn/T//ccRnzw9B.s:2100   .text.smtc_real_is_valid_tx_frequency:0000000000000038 $d
/var/folders/bq/yv49bw8j2kd6w3hsq868qv180000gn/T//ccRnzw9B.s:2109   .text.smtc_real_is_valid_rx_frequency:0000000000000000 $t
/var/folders/bq/yv49bw8j2kd6w3hsq868qv180000gn/T//ccRnzw9B.s:2116   .text.smtc_real_is_valid_rx_frequency:0000000000000000 smtc_real_is_valid_rx_frequency
/var/folders/bq/yv49bw8j2kd6w3hsq868qv180000gn/T//ccRnzw9B.s:2182   .text.smtc_real_is_valid_rx_frequency:0000000000000038 $d
/var/folders/bq/yv49bw8j2kd6w3hsq868qv180000gn/T//ccRnzw9B.s:2191   .text.smtc_real_is_valid_tx_power:0000000000000000 $t
/var/folders/bq/yv49bw8j2kd6w3hsq868qv180000gn/T//ccRnzw9B.s:2198   .text.smtc_real_is_valid_tx_power:0000000000000000 smtc_real_is_valid_tx_power
/var/folders/bq/yv49bw8j2kd6w3hsq868qv180000gn/T//ccRnzw9B.s:2264   .text.smtc_real_is_valid_tx_power:0000000000000038 $d
/var/folders/bq/yv49bw8j2kd6w3hsq868qv180000gn/T//ccRnzw9B.s:2273   .text.smtc_real_is_valid_channel_index:0000000000000000 $t
/var/folders/bq/yv49bw8j2kd6w3hsq868qv180000gn/T//ccRnzw9B.s:2280   .text.smtc_real_is_valid_channel_index:0000000000000000 smtc_real_is_valid_channel_index
/var/folders/bq/yv49bw8j2kd6w3hsq868qv180000gn/T//ccRnzw9B.s:2346   .text.smtc_real_is_valid_channel_index:0000000000000038 $d
/var/folders/bq/yv49bw8j2kd6w3hsq868qv180000gn/T//ccRnzw9B.s:2355   .text.smtc_real_is_valid_size:0000000000000000 $t
/var/folders/bq/yv49bw8j2kd6w3hsq868qv180000gn/T//ccRnzw9B.s:2362   .text.smtc_real_is_valid_size:0000000000000000 smtc_real_is_valid_size
/var/folders/bq/yv49bw8j2kd6w3hsq868qv180000gn/T//ccRnzw9B.s:2424   .text.smtc_real_is_valid_size:0000000000000034 $d
/var/folders/bq/yv49bw8j2kd6w3hsq868qv180000gn/T//ccRnzw9B.s:2433   .text.smtc_real_tx_frequency_channel_set:0000000000000000 $t
/var/folders/bq/yv49bw8j2kd6w3hsq868qv180000gn/T//ccRnzw9B.s:2440   .text.smtc_real_tx_frequency_channel_set:0000000000000000 smtc_real_tx_frequency_channel_set
/var/folders/bq/yv49bw8j2kd6w3hsq868qv180000gn/T//ccRnzw9B.s:2508   .text.smtc_real_tx_frequency_channel_set:0000000000000038 $d
/var/folders/bq/yv49bw8j2kd6w3hsq868qv180000gn/T//ccRnzw9B.s:2517   .text.smtc_real_rx1_frequency_channel_set:0000000000000000 $t
/var/folders/bq/yv49bw8j2kd6w3hsq868qv180000gn/T//ccRnzw9B.s:2524   .text.smtc_real_rx1_frequency_channel_set:0000000000000000 smtc_real_rx1_frequency_channel_set
/var/folders/bq/yv49bw8j2kd6w3hsq868qv180000gn/T//ccRnzw9B.s:2592   .text.smtc_real_rx1_frequency_channel_set:0000000000000038 $d
/var/folders/bq/yv49bw8j2kd6w3hsq868qv180000gn/T//ccRnzw9B.s:2601   .text.smtc_real_min_dr_channel_set:0000000000000000 $t
/var/folders/bq/yv49bw8j2kd6w3hsq868qv180000gn/T//ccRnzw9B.s:2608   .text.smtc_real_min_dr_channel_set:0000000000000000 smtc_real_min_dr_channel_set
/var/folders/bq/yv49bw8j2kd6w3hsq868qv180000gn/T//ccRnzw9B.s:2674   .text.smtc_real_min_dr_channel_set:0000000000000038 $d
/var/folders/bq/yv49bw8j2kd6w3hsq868qv180000gn/T//ccRnzw9B.s:2683   .text.smtc_real_max_dr_channel_set:0000000000000000 $t
/var/folders/bq/yv49bw8j2kd6w3hsq868qv180000gn/T//ccRnzw9B.s:2690   .text.smtc_real_max_dr_channel_set:0000000000000000 smtc_real_max_dr_channel_set
/var/folders/bq/yv49bw8j2kd6w3hsq868qv180000gn/T//ccRnzw9B.s:2756   .text.smtc_real_max_dr_channel_set:0000000000000038 $d
/var/folders/bq/yv49bw8j2kd6w3hsq868qv180000gn/T//ccRnzw9B.s:2765   .text.smtc_real_channel_enabled_set:0000000000000000 $t
/var/folders/bq/yv49bw8j2kd6w3hsq868qv180000gn/T//ccRnzw9B.s:2772   .text.smtc_real_channel_enabled_set:0000000000000000 smtc_real_channel_enabled_set
/var/folders/bq/yv49bw8j2kd6w3hsq868qv180000gn/T//ccRnzw9B.s:2838   .text.smtc_real_channel_enabled_set:0000000000000038 $d
/var/folders/bq/yv49bw8j2kd6w3hsq868qv180000gn/T//ccRnzw9B.s:2847   .text.smtc_real_tx_frequency_channel_get:0000000000000000 $t
/var/folders/bq/yv49bw8j2kd6w3hsq868qv180000gn/T//ccRnzw9B.s:2854   .text.smtc_real_tx_frequency_channel_get:0000000000000000 smtc_real_tx_frequency_channel_get
/var/folders/bq/yv49bw8j2kd6w3hsq868qv180000gn/T//ccRnzw9B.s:2919   .text.smtc_real_tx_frequency_channel_get:0000000000000034 $d
/var/folders/bq/yv49bw8j2kd6w3hsq868qv180000gn/T//ccRnzw9B.s:2928   .text.smtc_real_rx1_frequency_channel_get:0000000000000000 $t
ARM GAS  /var/folders/bq/yv49bw8j2kd6w3hsq868qv180000gn/T//ccRnzw9B.s 			page 118


/var/folders/bq/yv49bw8j2kd6w3hsq868qv180000gn/T//ccRnzw9B.s:2935   .text.smtc_real_rx1_frequency_channel_get:0000000000000000 smtc_real_rx1_frequency_channel_get
/var/folders/bq/yv49bw8j2kd6w3hsq868qv180000gn/T//ccRnzw9B.s:3000   .text.smtc_real_rx1_frequency_channel_get:0000000000000034 $d
/var/folders/bq/yv49bw8j2kd6w3hsq868qv180000gn/T//ccRnzw9B.s:3009   .text.smtc_real_min_dr_channel_get:0000000000000000 $t
/var/folders/bq/yv49bw8j2kd6w3hsq868qv180000gn/T//ccRnzw9B.s:3016   .text.smtc_real_min_dr_channel_get:0000000000000000 smtc_real_min_dr_channel_get
/var/folders/bq/yv49bw8j2kd6w3hsq868qv180000gn/T//ccRnzw9B.s:3078   .text.smtc_real_min_dr_channel_get:0000000000000034 $d
/var/folders/bq/yv49bw8j2kd6w3hsq868qv180000gn/T//ccRnzw9B.s:3087   .text.smtc_real_max_dr_channel_get:0000000000000000 $t
/var/folders/bq/yv49bw8j2kd6w3hsq868qv180000gn/T//ccRnzw9B.s:3094   .text.smtc_real_max_dr_channel_get:0000000000000000 smtc_real_max_dr_channel_get
/var/folders/bq/yv49bw8j2kd6w3hsq868qv180000gn/T//ccRnzw9B.s:3156   .text.smtc_real_max_dr_channel_get:0000000000000034 $d
/var/folders/bq/yv49bw8j2kd6w3hsq868qv180000gn/T//ccRnzw9B.s:3165   .text.smtc_real_channel_enabled_get:0000000000000000 $t
/var/folders/bq/yv49bw8j2kd6w3hsq868qv180000gn/T//ccRnzw9B.s:3172   .text.smtc_real_channel_enabled_get:0000000000000000 smtc_real_channel_enabled_get
/var/folders/bq/yv49bw8j2kd6w3hsq868qv180000gn/T//ccRnzw9B.s:3237   .text.smtc_real_channel_enabled_get:0000000000000034 $d
/var/folders/bq/yv49bw8j2kd6w3hsq868qv180000gn/T//ccRnzw9B.s:3246   .text.smtc_real_rx1_join_delay_get:0000000000000000 $t
/var/folders/bq/yv49bw8j2kd6w3hsq868qv180000gn/T//ccRnzw9B.s:3253   .text.smtc_real_rx1_join_delay_get:0000000000000000 smtc_real_rx1_join_delay_get
/var/folders/bq/yv49bw8j2kd6w3hsq868qv180000gn/T//ccRnzw9B.s:3309   .text.smtc_real_rx1_join_delay_get:0000000000000030 $d
/var/folders/bq/yv49bw8j2kd6w3hsq868qv180000gn/T//ccRnzw9B.s:3318   .text.smtc_real_rx2_join_dr_get:0000000000000000 $t
/var/folders/bq/yv49bw8j2kd6w3hsq868qv180000gn/T//ccRnzw9B.s:3325   .text.smtc_real_rx2_join_dr_get:0000000000000000 smtc_real_rx2_join_dr_get
/var/folders/bq/yv49bw8j2kd6w3hsq868qv180000gn/T//ccRnzw9B.s:3379   .text.smtc_real_rx2_join_dr_get:000000000000002c $d
/var/folders/bq/yv49bw8j2kd6w3hsq868qv180000gn/T//ccRnzw9B.s:3388   .text.smtc_real_frequency_factor_get:0000000000000000 $t
/var/folders/bq/yv49bw8j2kd6w3hsq868qv180000gn/T//ccRnzw9B.s:3395   .text.smtc_real_frequency_factor_get:0000000000000000 smtc_real_frequency_factor_get
/var/folders/bq/yv49bw8j2kd6w3hsq868qv180000gn/T//ccRnzw9B.s:3451   .text.smtc_real_frequency_factor_get:0000000000000030 $d
/var/folders/bq/yv49bw8j2kd6w3hsq868qv180000gn/T//ccRnzw9B.s:3460   .text.smtc_real_coding_rate_get:0000000000000000 $t
/var/folders/bq/yv49bw8j2kd6w3hsq868qv180000gn/T//ccRnzw9B.s:3467   .text.smtc_real_coding_rate_get:0000000000000000 smtc_real_coding_rate_get
/var/folders/bq/yv49bw8j2kd6w3hsq868qv180000gn/T//ccRnzw9B.s:3521   .text.smtc_real_coding_rate_get:000000000000002c $d
/var/folders/bq/yv49bw8j2kd6w3hsq868qv180000gn/T//ccRnzw9B.s:3530   .text.smtc_real_get_join_sf5_toa_in_ms:0000000000000000 $t
/var/folders/bq/yv49bw8j2kd6w3hsq868qv180000gn/T//ccRnzw9B.s:3537   .text.smtc_real_get_join_sf5_toa_in_ms:0000000000000000 smtc_real_get_join_sf5_toa_in_ms
/var/folders/bq/yv49bw8j2kd6w3hsq868qv180000gn/T//ccRnzw9B.s:3593   .text.smtc_real_get_join_sf5_toa_in_ms:0000000000000030 $d
/var/folders/bq/yv49bw8j2kd6w3hsq868qv180000gn/T//ccRnzw9B.s:3602   .text.smtc_real_duty_cycle_enable_set:0000000000000000 $t
/var/folders/bq/yv49bw8j2kd6w3hsq868qv180000gn/T//ccRnzw9B.s:3609   .text.smtc_real_duty_cycle_enable_set:0000000000000000 smtc_real_duty_cycle_enable_set
/var/folders/bq/yv49bw8j2kd6w3hsq868qv180000gn/T//ccRnzw9B.s:3661   .text.smtc_real_duty_cycle_enable_set:000000000000002c $d
/var/folders/bq/yv49bw8j2kd6w3hsq868qv180000gn/T//ccRnzw9B.s:3670   .text.smtc_real_duty_cycle_sum:0000000000000000 $t
/var/folders/bq/yv49bw8j2kd6w3hsq868qv180000gn/T//ccRnzw9B.s:3677   .text.smtc_real_duty_cycle_sum:0000000000000000 smtc_real_duty_cycle_sum
/var/folders/bq/yv49bw8j2kd6w3hsq868qv180000gn/T//ccRnzw9B.s:3729   .text.smtc_real_duty_cycle_sum:000000000000002c $d
/var/folders/bq/yv49bw8j2kd6w3hsq868qv180000gn/T//ccRnzw9B.s:3738   .text.smtc_real_duty_cycle_update:0000000000000000 $t
/var/folders/bq/yv49bw8j2kd6w3hsq868qv180000gn/T//ccRnzw9B.s:3745   .text.smtc_real_duty_cycle_update:0000000000000000 smtc_real_duty_cycle_update
/var/folders/bq/yv49bw8j2kd6w3hsq868qv180000gn/T//ccRnzw9B.s:3797   .text.smtc_real_duty_cycle_update:000000000000002c $d
/var/folders/bq/yv49bw8j2kd6w3hsq868qv180000gn/T//ccRnzw9B.s:3806   .text.smtc_real_duty_cycle_is_toa_accepted:0000000000000000 $t
/var/folders/bq/yv49bw8j2kd6w3hsq868qv180000gn/T//ccRnzw9B.s:3813   .text.smtc_real_duty_cycle_is_toa_accepted:0000000000000000 smtc_real_duty_cycle_is_toa_accepted
/var/folders/bq/yv49bw8j2kd6w3hsq868qv180000gn/T//ccRnzw9B.s:3870   .text.smtc_real_duty_cycle_is_toa_accepted:0000000000000030 $d
/var/folders/bq/yv49bw8j2kd6w3hsq868qv180000gn/T//ccRnzw9B.s:3879   .text.smtc_real_duty_cycle_is_channel_free:0000000000000000 $t
/var/folders/bq/yv49bw8j2kd6w3hsq868qv180000gn/T//ccRnzw9B.s:3886   .text.smtc_real_duty_cycle_is_channel_free:0000000000000000 smtc_real_duty_cycle_is_channel_free
/var/folders/bq/yv49bw8j2kd6w3hsq868qv180000gn/T//ccRnzw9B.s:3943   .text.smtc_real_duty_cycle_is_channel_free:0000000000000030 $d
/var/folders/bq/yv49bw8j2kd6w3hsq868qv180000gn/T//ccRnzw9B.s:3952   .text.smtc_real_next_free_duty_cycle_ms_get:0000000000000000 $t
/var/folders/bq/yv49bw8j2kd6w3hsq868qv180000gn/T//ccRnzw9B.s:3959   .text.smtc_real_next_free_duty_cycle_ms_get:0000000000000000 smtc_real_next_free_duty_cycle_ms_get
/var/folders/bq/yv49bw8j2kd6w3hsq868qv180000gn/T//ccRnzw9B.s:4013   .text.smtc_real_next_free_duty_cycle_ms_get:000000000000002c $d
/var/folders/bq/yv49bw8j2kd6w3hsq868qv180000gn/T//ccRnzw9B.s:4025   .text.smtc_real_preamble_get:0000000000000000 $t
/var/folders/bq/yv49bw8j2kd6w3hsq868qv180000gn/T//ccRnzw9B.s:4032   .text.smtc_real_preamble_get:0000000000000000 smtc_real_preamble_get
/var/folders/bq/yv49bw8j2kd6w3hsq868qv180000gn/T//ccRnzw9B.s:4121   .text.smtc_real_preamble_get:0000000000000050 $d
/var/folders/bq/yv49bw8j2kd6w3hsq868qv180000gn/T//ccRnzw9B.s:4134   .rodata.__func__.6075:0000000000000000 __func__.6075
/var/folders/bq/yv49bw8j2kd6w3hsq868qv180000gn/T//ccRnzw9B.s:4140   .rodata.__func__.6083:0000000000000000 __func__.6083
/var/folders/bq/yv49bw8j2kd6w3hsq868qv180000gn/T//ccRnzw9B.s:4146   .rodata.__func__.6089:0000000000000000 __func__.6089
/var/folders/bq/yv49bw8j2kd6w3hsq868qv180000gn/T//ccRnzw9B.s:4152   .rodata.__func__.6096:0000000000000000 __func__.6096
/var/folders/bq/yv49bw8j2kd6w3hsq868qv180000gn/T//ccRnzw9B.s:4158   .rodata.__func__.6103:0000000000000000 __func__.6103
/var/folders/bq/yv49bw8j2kd6w3hsq868qv180000gn/T//ccRnzw9B.s:4164   .rodata.__func__.6110:0000000000000000 __func__.6110
/var/folders/bq/yv49bw8j2kd6w3hsq868qv180000gn/T//ccRnzw9B.s:4170   .rodata.__func__.6117:0000000000000000 __func__.6117
/var/folders/bq/yv49bw8j2kd6w3hsq868qv180000gn/T//ccRnzw9B.s:4176   .rodata.__func__.6125:0000000000000000 __func__.6125
/var/folders/bq/yv49bw8j2kd6w3hsq868qv180000gn/T//ccRnzw9B.s:4182   .rodata.__func__.6133:0000000000000000 __func__.6133
/var/folders/bq/yv49bw8j2kd6w3hsq868qv180000gn/T//ccRnzw9B.s:4188   .rodata.__func__.6139:0000000000000000 __func__.6139
ARM GAS  /var/folders/bq/yv49bw8j2kd6w3hsq868qv180000gn/T//ccRnzw9B.s 			page 119


/var/folders/bq/yv49bw8j2kd6w3hsq868qv180000gn/T//ccRnzw9B.s:4194   .rodata.__func__.6146:0000000000000000 __func__.6146
/var/folders/bq/yv49bw8j2kd6w3hsq868qv180000gn/T//ccRnzw9B.s:4200   .rodata.__func__.6155:0000000000000000 __func__.6155
/var/folders/bq/yv49bw8j2kd6w3hsq868qv180000gn/T//ccRnzw9B.s:4206   .rodata.__func__.6163:0000000000000000 __func__.6163
/var/folders/bq/yv49bw8j2kd6w3hsq868qv180000gn/T//ccRnzw9B.s:4212   .rodata.__func__.6169:0000000000000000 __func__.6169
/var/folders/bq/yv49bw8j2kd6w3hsq868qv180000gn/T//ccRnzw9B.s:4218   .rodata.__func__.6177:0000000000000000 __func__.6177
/var/folders/bq/yv49bw8j2kd6w3hsq868qv180000gn/T//ccRnzw9B.s:4224   .rodata.__func__.6184:0000000000000000 __func__.6184
/var/folders/bq/yv49bw8j2kd6w3hsq868qv180000gn/T//ccRnzw9B.s:4230   .rodata.__func__.6191:0000000000000000 __func__.6191
/var/folders/bq/yv49bw8j2kd6w3hsq868qv180000gn/T//ccRnzw9B.s:4236   .rodata.__func__.6199:0000000000000000 __func__.6199
/var/folders/bq/yv49bw8j2kd6w3hsq868qv180000gn/T//ccRnzw9B.s:4242   .rodata.__func__.6207:0000000000000000 __func__.6207
/var/folders/bq/yv49bw8j2kd6w3hsq868qv180000gn/T//ccRnzw9B.s:4248   .rodata.__func__.6213:0000000000000000 __func__.6213
/var/folders/bq/yv49bw8j2kd6w3hsq868qv180000gn/T//ccRnzw9B.s:4254   .rodata.__func__.6220:0000000000000000 __func__.6220
/var/folders/bq/yv49bw8j2kd6w3hsq868qv180000gn/T//ccRnzw9B.s:4260   .rodata.__func__.6227:0000000000000000 __func__.6227
/var/folders/bq/yv49bw8j2kd6w3hsq868qv180000gn/T//ccRnzw9B.s:4266   .rodata.__func__.6233:0000000000000000 __func__.6233
/var/folders/bq/yv49bw8j2kd6w3hsq868qv180000gn/T//ccRnzw9B.s:4272   .rodata.__func__.6241:0000000000000000 __func__.6241
/var/folders/bq/yv49bw8j2kd6w3hsq868qv180000gn/T//ccRnzw9B.s:4278   .rodata.__func__.6249:0000000000000000 __func__.6249
/var/folders/bq/yv49bw8j2kd6w3hsq868qv180000gn/T//ccRnzw9B.s:4284   .rodata.__func__.6257:0000000000000000 __func__.6257
/var/folders/bq/yv49bw8j2kd6w3hsq868qv180000gn/T//ccRnzw9B.s:4290   .rodata.__func__.6265:0000000000000000 __func__.6265
/var/folders/bq/yv49bw8j2kd6w3hsq868qv180000gn/T//ccRnzw9B.s:4296   .rodata.__func__.6273:0000000000000000 __func__.6273
/var/folders/bq/yv49bw8j2kd6w3hsq868qv180000gn/T//ccRnzw9B.s:4302   .rodata.__func__.6281:0000000000000000 __func__.6281
/var/folders/bq/yv49bw8j2kd6w3hsq868qv180000gn/T//ccRnzw9B.s:4308   .rodata.__func__.6289:0000000000000000 __func__.6289
/var/folders/bq/yv49bw8j2kd6w3hsq868qv180000gn/T//ccRnzw9B.s:4314   .rodata.__func__.6298:0000000000000000 __func__.6298
/var/folders/bq/yv49bw8j2kd6w3hsq868qv180000gn/T//ccRnzw9B.s:4320   .rodata.__func__.6308:0000000000000000 __func__.6308
/var/folders/bq/yv49bw8j2kd6w3hsq868qv180000gn/T//ccRnzw9B.s:4326   .rodata.__func__.6317:0000000000000000 __func__.6317
/var/folders/bq/yv49bw8j2kd6w3hsq868qv180000gn/T//ccRnzw9B.s:4332   .rodata.__func__.6326:0000000000000000 __func__.6326
/var/folders/bq/yv49bw8j2kd6w3hsq868qv180000gn/T//ccRnzw9B.s:4338   .rodata.__func__.6335:0000000000000000 __func__.6335
/var/folders/bq/yv49bw8j2kd6w3hsq868qv180000gn/T//ccRnzw9B.s:4344   .rodata.__func__.6344:0000000000000000 __func__.6344
/var/folders/bq/yv49bw8j2kd6w3hsq868qv180000gn/T//ccRnzw9B.s:4350   .rodata.__func__.6351:0000000000000000 __func__.6351
/var/folders/bq/yv49bw8j2kd6w3hsq868qv180000gn/T//ccRnzw9B.s:4356   .rodata.__func__.6359:0000000000000000 __func__.6359
/var/folders/bq/yv49bw8j2kd6w3hsq868qv180000gn/T//ccRnzw9B.s:4362   .rodata.__func__.6366:0000000000000000 __func__.6366
/var/folders/bq/yv49bw8j2kd6w3hsq868qv180000gn/T//ccRnzw9B.s:4368   .rodata.__func__.6373:0000000000000000 __func__.6373
/var/folders/bq/yv49bw8j2kd6w3hsq868qv180000gn/T//ccRnzw9B.s:4374   .rodata.__func__.6381:0000000000000000 __func__.6381
/var/folders/bq/yv49bw8j2kd6w3hsq868qv180000gn/T//ccRnzw9B.s:4380   .rodata.__func__.6388:0000000000000000 __func__.6388
/var/folders/bq/yv49bw8j2kd6w3hsq868qv180000gn/T//ccRnzw9B.s:4386   .rodata.__func__.6395:0000000000000000 __func__.6395
/var/folders/bq/yv49bw8j2kd6w3hsq868qv180000gn/T//ccRnzw9B.s:4392   .rodata.__func__.6402:0000000000000000 __func__.6402
/var/folders/bq/yv49bw8j2kd6w3hsq868qv180000gn/T//ccRnzw9B.s:4398   .rodata.__func__.6409:0000000000000000 __func__.6409
/var/folders/bq/yv49bw8j2kd6w3hsq868qv180000gn/T//ccRnzw9B.s:4404   .rodata.__func__.6416:0000000000000000 __func__.6416
/var/folders/bq/yv49bw8j2kd6w3hsq868qv180000gn/T//ccRnzw9B.s:4410   .rodata.__func__.6425:0000000000000000 __func__.6425
/var/folders/bq/yv49bw8j2kd6w3hsq868qv180000gn/T//ccRnzw9B.s:4416   .rodata.__func__.6434:0000000000000000 __func__.6434
/var/folders/bq/yv49bw8j2kd6w3hsq868qv180000gn/T//ccRnzw9B.s:4422   .rodata.__func__.6441:0000000000000000 __func__.6441
/var/folders/bq/yv49bw8j2kd6w3hsq868qv180000gn/T//ccRnzw9B.s:4428   .rodata.__func__.6449:0000000000000000 __func__.6449
/var/folders/bq/yv49bw8j2kd6w3hsq868qv180000gn/T//ccRnzw9B.s:4434   .rodata.__func__.6457:0000000000000000 __func__.6457
/var/folders/bq/yv49bw8j2kd6w3hsq868qv180000gn/T//ccRnzw9B.s:4440   .rodata.__func__.6464:0000000000000000 __func__.6464
/var/folders/bq/yv49bw8j2kd6w3hsq868qv180000gn/T//ccRnzw9B.s:4446   .rodata.__func__.6471:0000000000000000 __func__.6471

UNDEFINED SYMBOLS
region_ww2g4_init
bsp_trace_print
bsp_mcu_handle_lr1mac_issue
region_ww2g4_dr_distribution_set
region_ww2g4_memory_load
region_ww2g4_bad_crc_memory_set
region_ww2g4_next_dr_get
region_ww2g4_memory_save
region_ww2g4_max_payload_size_get
region_ww2g4_decode_freq_from_buf
region_ww2g4_cflist_get
region_ww2g4_next_channel_get
ARM GAS  /var/folders/bq/yv49bw8j2kd6w3hsq868qv180000gn/T//ccRnzw9B.s 			page 120


region_ww2g4_join_next_channel_get
region_ww2g4_rx_config_set
region_ww2g4_power_set
region_ww2g4_channel_mask_set
region_ww2g4_channel_mask_init
region_ww2g4_join_snapshot_channel_mask_init
region_ww2g4_channel_mask_build
region_ww2g4_dr_decrement
region_ww2g4_adr_ack_delay_get
region_ww2g4_adr_ack_limit_get
region_ww2g4_sync_word_get
region_ww2g4_is_valid_rx1_dr_offset
region_ww2g4_is_valid_dr
region_ww2g4_is_acceptable_dr
region_ww2g4_is_valid_tx_frequency
region_ww2g4_is_valid_rx_frequency
region_ww2g4_is_valid_tx_power
region_ww2g4_is_valid_channel_index
region_ww2g4_is_valid_size
region_ww2g4_tx_frequency_channel_set
region_ww2g4_rx1_frequency_channel_set
region_ww2g4_min_dr_channel_set
region_ww2g4_max_dr_channel_set
region_ww2g4_channel_enabled_set
region_ww2g4_tx_frequency_channel_get
region_ww2g4_rx1_frequency_channel_get
region_ww2g4_min_dr_channel_get
region_ww2g4_max_dr_channel_get
region_ww2g4_channel_enabled_get
