ARM GAS  /var/folders/bq/yv49bw8j2kd6w3hsq868qv180000gn/T//ccRnzw9B.s 			page 1


   1              		.cpu cortex-m0plus
   2              		.eabi_attribute 23, 1
   3              		.eabi_attribute 24, 1
   4              		.eabi_attribute 25, 1
   5              		.eabi_attribute 26, 1
   6              		.eabi_attribute 30, 4
   7              		.eabi_attribute 34, 0
   8              		.eabi_attribute 18, 4
   9              		.file	"smtc_real.c"
  10              		.text
  11              	.Ltext0:
  12              		.cfi_sections	.debug_frame
  13              		.section	.rodata.smtc_real_init.str1.1,"aMS",%progbits,1
  14              	.LC0:
  15 0000 1B5B303B 		.ascii	"\033[0;31m\000"
  15      33316D00 
  16              	.LC2:
  17 0008 4552524F 		.ascii	"ERROR: \000"
  17      523A2000 
  18              	.LC5:
  19 0010 25732075 		.ascii	"%s unsupported\012\000"
  19      6E737570 
  19      706F7274 
  19      65640A00 
  20              	.LC7:
  21 0020 1B5B306D 		.ascii	"\033[0m\000"
  21      00
  22              		.section	.text.smtc_real_init,"ax",%progbits
  23              		.align	1
  24              		.global	smtc_real_init
  25              		.arch armv6s-m
  26              		.syntax unified
  27              		.code	16
  28              		.thumb_func
  29              		.fpu softvfp
  31              	smtc_real_init:
  32              	.LVL0:
  33              	.LFB9:
  34              		.file 1 "lr1mac/src/smtc_real/src/smtc_real.c"
   1:lr1mac/src/smtc_real/src/smtc_real.c **** /*!
   2:lr1mac/src/smtc_real/src/smtc_real.c ****  * \file      smtc_real.c
   3:lr1mac/src/smtc_real/src/smtc_real.c ****  *
   4:lr1mac/src/smtc_real/src/smtc_real.c ****  * \brief     Region Abstraction Layer (REAL) API implementation
   5:lr1mac/src/smtc_real/src/smtc_real.c ****  *
   6:lr1mac/src/smtc_real/src/smtc_real.c ****  * Revised BSD License
   7:lr1mac/src/smtc_real/src/smtc_real.c ****  * Copyright Semtech Corporation 2020. All rights reserved.
   8:lr1mac/src/smtc_real/src/smtc_real.c ****  *
   9:lr1mac/src/smtc_real/src/smtc_real.c ****  * Redistribution and use in source and binary forms, with or without
  10:lr1mac/src/smtc_real/src/smtc_real.c ****  * modification, are permitted provided that the following conditions are met:
  11:lr1mac/src/smtc_real/src/smtc_real.c ****  *     * Redistributions of source code must retain the above copyright
  12:lr1mac/src/smtc_real/src/smtc_real.c ****  *       notice, this list of conditions and the following disclaimer.
  13:lr1mac/src/smtc_real/src/smtc_real.c ****  *     * Redistributions in binary form must reproduce the above copyright
  14:lr1mac/src/smtc_real/src/smtc_real.c ****  *       notice, this list of conditions and the following disclaimer in the
  15:lr1mac/src/smtc_real/src/smtc_real.c ****  *       documentation and/or other materials provided with the distribution.
  16:lr1mac/src/smtc_real/src/smtc_real.c ****  *     * Neither the name of the Semtech corporation nor the
  17:lr1mac/src/smtc_real/src/smtc_real.c ****  *       names of its contributors may be used to endorse or promote products
  18:lr1mac/src/smtc_real/src/smtc_real.c ****  *       derived from this software without specific prior written permission.
ARM GAS  /var/folders/bq/yv49bw8j2kd6w3hsq868qv180000gn/T//ccRnzw9B.s 			page 2


  19:lr1mac/src/smtc_real/src/smtc_real.c ****  *
  20:lr1mac/src/smtc_real/src/smtc_real.c ****  * THIS SOFTWARE IS PROVIDED BY THE COPYRIGHT HOLDERS AND CONTRIBUTORS "AS IS"
  21:lr1mac/src/smtc_real/src/smtc_real.c ****  * AND ANY EXPRESS OR IMPLIED WARRANTIES, INCLUDING, BUT NOT LIMITED TO, THE
  22:lr1mac/src/smtc_real/src/smtc_real.c ****  * IMPLIED WARRANTIES OF MERCHANTABILITY AND FITNESS FOR A PARTICULAR PURPOSE
  23:lr1mac/src/smtc_real/src/smtc_real.c ****  * ARE DISCLAIMED. IN NO EVENT SHALL SEMTECH CORPORATION BE LIABLE FOR ANY DIRECT,
  24:lr1mac/src/smtc_real/src/smtc_real.c ****  * INDIRECT, INCIDENTAL, SPECIAL, EXEMPLARY, OR CONSEQUENTIAL DAMAGES
  25:lr1mac/src/smtc_real/src/smtc_real.c ****  * (INCLUDING, BUT NOT LIMITED TO, PROCUREMENT OF SUBSTITUTE GOODS OR SERVICES;
  26:lr1mac/src/smtc_real/src/smtc_real.c ****  * LOSS OF USE, DATA, OR PROFITS; OR BUSINESS INTERRUPTION) HOWEVER CAUSED AND
  27:lr1mac/src/smtc_real/src/smtc_real.c ****  * ON ANY THEORY OF LIABILITY, WHETHER IN CONTRACT, STRICT LIABILITY, OR TORT
  28:lr1mac/src/smtc_real/src/smtc_real.c ****  * (INCLUDING NEGLIGENCE OR OTHERWISE) ARISING IN ANY WAY OUT OF THE USE OF THIS
  29:lr1mac/src/smtc_real/src/smtc_real.c ****  * SOFTWARE, EVEN IF ADVISED OF THE POSSIBILITY OF SUCH DAMAGE.
  30:lr1mac/src/smtc_real/src/smtc_real.c ****  */
  31:lr1mac/src/smtc_real/src/smtc_real.c **** 
  32:lr1mac/src/smtc_real/src/smtc_real.c **** #include "smtc_real.h"
  33:lr1mac/src/smtc_real/src/smtc_real.c **** 
  34:lr1mac/src/smtc_real/src/smtc_real.c **** #if defined( REGION_WW2G4 )
  35:lr1mac/src/smtc_real/src/smtc_real.c **** #include "region_ww2g4.h"
  36:lr1mac/src/smtc_real/src/smtc_real.c **** #endif
  37:lr1mac/src/smtc_real/src/smtc_real.c **** #if defined( REGION_EU_868 )
  38:lr1mac/src/smtc_real/src/smtc_real.c **** #include "region_eu_868.h"
  39:lr1mac/src/smtc_real/src/smtc_real.c **** #endif
  40:lr1mac/src/smtc_real/src/smtc_real.c **** #if defined( REGION_US_915 )
  41:lr1mac/src/smtc_real/src/smtc_real.c **** #include "region_us_915.h"
  42:lr1mac/src/smtc_real/src/smtc_real.c **** #endif
  43:lr1mac/src/smtc_real/src/smtc_real.c **** #if !defined( REGION_WW2G4 ) && !defined( REGION_EU_868 ) && !defined( REGION_US_915 )
  44:lr1mac/src/smtc_real/src/smtc_real.c **** #error "Unknown region selected..."
  45:lr1mac/src/smtc_real/src/smtc_real.c **** #endif
  46:lr1mac/src/smtc_real/src/smtc_real.c **** 
  47:lr1mac/src/smtc_real/src/smtc_real.c **** void smtc_real_init( lr1_stack_mac_t* lr1_mac )
  48:lr1mac/src/smtc_real/src/smtc_real.c **** {
  35              		.loc 1 48 1 view -0
  36              		.cfi_startproc
  37              		@ args = 0, pretend = 0, frame = 0
  38              		@ frame_needed = 0, uses_anonymous_args = 0
  49:lr1mac/src/smtc_real/src/smtc_real.c ****     switch( lr1_mac->real->region_type )
  39              		.loc 1 49 5 view .LVU1
  48:lr1mac/src/smtc_real/src/smtc_real.c ****     switch( lr1_mac->real->region_type )
  40              		.loc 1 48 1 is_stmt 0 view .LVU2
  41 0000 10B5     		push	{r4, lr}
  42              		.cfi_def_cfa_offset 8
  43              		.cfi_offset 4, -8
  44              		.cfi_offset 14, -4
  45              		.loc 1 49 5 view .LVU3
  46 0002 0368     		ldr	r3, [r0]
  47 0004 1B79     		ldrb	r3, [r3, #4]
  48 0006 062B     		cmp	r3, #6
  49 0008 02D1     		bne	.L2
  50:lr1mac/src/smtc_real/src/smtc_real.c ****     {
  51:lr1mac/src/smtc_real/src/smtc_real.c **** #if defined( REGION_WW2G4 )
  52:lr1mac/src/smtc_real/src/smtc_real.c ****     case SMTC_REAL_REGION_WW2G4: {
  53:lr1mac/src/smtc_real/src/smtc_real.c ****         region_ww2g4_init( lr1_mac );
  50              		.loc 1 53 9 is_stmt 1 view .LVU4
  51 000a FFF7FEFF 		bl	region_ww2g4_init
  52              	.LVL1:
  54:lr1mac/src/smtc_real/src/smtc_real.c ****         break;
  53              		.loc 1 54 9 view .LVU5
  54              	.L1:
ARM GAS  /var/folders/bq/yv49bw8j2kd6w3hsq868qv180000gn/T//ccRnzw9B.s 			page 3


  55:lr1mac/src/smtc_real/src/smtc_real.c ****     }
  56:lr1mac/src/smtc_real/src/smtc_real.c **** #endif
  57:lr1mac/src/smtc_real/src/smtc_real.c **** #if defined( REGION_EU_868 )
  58:lr1mac/src/smtc_real/src/smtc_real.c ****     case SMTC_REAL_REGION_EU_868: {
  59:lr1mac/src/smtc_real/src/smtc_real.c ****         region_eu_868_init( lr1_mac );
  60:lr1mac/src/smtc_real/src/smtc_real.c ****         break;
  61:lr1mac/src/smtc_real/src/smtc_real.c ****     }
  62:lr1mac/src/smtc_real/src/smtc_real.c **** #endif
  63:lr1mac/src/smtc_real/src/smtc_real.c **** #if defined( REGION_US_915 )
  64:lr1mac/src/smtc_real/src/smtc_real.c ****     case SMTC_REAL_REGION_US_915: {
  65:lr1mac/src/smtc_real/src/smtc_real.c ****         region_us_915_init( lr1_mac );
  66:lr1mac/src/smtc_real/src/smtc_real.c ****         break;
  67:lr1mac/src/smtc_real/src/smtc_real.c ****     }
  68:lr1mac/src/smtc_real/src/smtc_real.c **** #endif
  69:lr1mac/src/smtc_real/src/smtc_real.c ****     default:
  70:lr1mac/src/smtc_real/src/smtc_real.c ****         BSP_DBG_TRACE_ERROR( "%s unsupported\n", __func__ );
  71:lr1mac/src/smtc_real/src/smtc_real.c ****         bsp_mcu_handle_lr1mac_issue( );
  72:lr1mac/src/smtc_real/src/smtc_real.c ****         break;
  73:lr1mac/src/smtc_real/src/smtc_real.c ****     }
  74:lr1mac/src/smtc_real/src/smtc_real.c **** }
  55              		.loc 1 74 1 is_stmt 0 view .LVU6
  56              		@ sp needed
  57 000e 10BD     		pop	{r4, pc}
  58              	.LVL2:
  59              	.L2:
  70:lr1mac/src/smtc_real/src/smtc_real.c ****         bsp_mcu_handle_lr1mac_issue( );
  60              		.loc 1 70 9 is_stmt 1 view .LVU7
  70:lr1mac/src/smtc_real/src/smtc_real.c ****         bsp_mcu_handle_lr1mac_issue( );
  61              		.loc 1 70 9 view .LVU8
  62 0010 0748     		ldr	r0, .L4
  63              	.LVL3:
  70:lr1mac/src/smtc_real/src/smtc_real.c ****         bsp_mcu_handle_lr1mac_issue( );
  64              		.loc 1 70 9 is_stmt 0 view .LVU9
  65 0012 FFF7FEFF 		bl	bsp_trace_print
  66              	.LVL4:
  70:lr1mac/src/smtc_real/src/smtc_real.c ****         bsp_mcu_handle_lr1mac_issue( );
  67              		.loc 1 70 9 is_stmt 1 view .LVU10
  68 0016 0748     		ldr	r0, .L4+4
  69 0018 FFF7FEFF 		bl	bsp_trace_print
  70              	.LVL5:
  70:lr1mac/src/smtc_real/src/smtc_real.c ****         bsp_mcu_handle_lr1mac_issue( );
  71              		.loc 1 70 9 view .LVU11
  72 001c 0649     		ldr	r1, .L4+8
  73 001e 0748     		ldr	r0, .L4+12
  74 0020 FFF7FEFF 		bl	bsp_trace_print
  75              	.LVL6:
  70:lr1mac/src/smtc_real/src/smtc_real.c ****         bsp_mcu_handle_lr1mac_issue( );
  76              		.loc 1 70 9 view .LVU12
  77 0024 0648     		ldr	r0, .L4+16
  78 0026 FFF7FEFF 		bl	bsp_trace_print
  79              	.LVL7:
  70:lr1mac/src/smtc_real/src/smtc_real.c ****         bsp_mcu_handle_lr1mac_issue( );
  80              		.loc 1 70 9 view .LVU13
  70:lr1mac/src/smtc_real/src/smtc_real.c ****         bsp_mcu_handle_lr1mac_issue( );
  81              		.loc 1 70 60 view .LVU14
  71:lr1mac/src/smtc_real/src/smtc_real.c ****         break;
  82              		.loc 1 71 9 view .LVU15
ARM GAS  /var/folders/bq/yv49bw8j2kd6w3hsq868qv180000gn/T//ccRnzw9B.s 			page 4


  83 002a FFF7FEFF 		bl	bsp_mcu_handle_lr1mac_issue
  84              	.LVL8:
  72:lr1mac/src/smtc_real/src/smtc_real.c ****     }
  85              		.loc 1 72 9 view .LVU16
  86              		.loc 1 74 1 is_stmt 0 view .LVU17
  87 002e EEE7     		b	.L1
  88              	.L5:
  89              		.align	2
  90              	.L4:
  91 0030 00000000 		.word	.LC0
  92 0034 08000000 		.word	.LC2
  93 0038 00000000 		.word	.LANCHOR0
  94 003c 10000000 		.word	.LC5
  95 0040 20000000 		.word	.LC7
  96              		.cfi_endproc
  97              	.LFE9:
  99              		.section	.text.smtc_real_dr_distribution_set,"ax",%progbits
 100              		.align	1
 101              		.global	smtc_real_dr_distribution_set
 102              		.syntax unified
 103              		.code	16
 104              		.thumb_func
 105              		.fpu softvfp
 107              	smtc_real_dr_distribution_set:
 108              	.LVL9:
 109              	.LFB10:
  75:lr1mac/src/smtc_real/src/smtc_real.c **** 
  76:lr1mac/src/smtc_real/src/smtc_real.c **** void smtc_real_dr_distribution_set( lr1_stack_mac_t* lr1_mac, uint8_t adrMode )
  77:lr1mac/src/smtc_real/src/smtc_real.c **** {
 110              		.loc 1 77 1 is_stmt 1 view -0
 111              		.cfi_startproc
 112              		@ args = 0, pretend = 0, frame = 0
 113              		@ frame_needed = 0, uses_anonymous_args = 0
  78:lr1mac/src/smtc_real/src/smtc_real.c ****     switch( lr1_mac->real->region_type )
 114              		.loc 1 78 5 view .LVU19
  77:lr1mac/src/smtc_real/src/smtc_real.c ****     switch( lr1_mac->real->region_type )
 115              		.loc 1 77 1 is_stmt 0 view .LVU20
 116 0000 10B5     		push	{r4, lr}
 117              		.cfi_def_cfa_offset 8
 118              		.cfi_offset 4, -8
 119              		.cfi_offset 14, -4
 120              		.loc 1 78 5 view .LVU21
 121 0002 0368     		ldr	r3, [r0]
 122 0004 1B79     		ldrb	r3, [r3, #4]
 123 0006 062B     		cmp	r3, #6
 124 0008 02D1     		bne	.L7
  79:lr1mac/src/smtc_real/src/smtc_real.c ****     {
  80:lr1mac/src/smtc_real/src/smtc_real.c **** #if defined( REGION_WW2G4 )
  81:lr1mac/src/smtc_real/src/smtc_real.c ****     case SMTC_REAL_REGION_WW2G4: {
  82:lr1mac/src/smtc_real/src/smtc_real.c ****         region_ww2g4_dr_distribution_set( lr1_mac, adrMode );
 125              		.loc 1 82 9 is_stmt 1 view .LVU22
 126 000a FFF7FEFF 		bl	region_ww2g4_dr_distribution_set
 127              	.LVL10:
  83:lr1mac/src/smtc_real/src/smtc_real.c ****         break;
 128              		.loc 1 83 9 view .LVU23
 129              	.L6:
  84:lr1mac/src/smtc_real/src/smtc_real.c ****     }
ARM GAS  /var/folders/bq/yv49bw8j2kd6w3hsq868qv180000gn/T//ccRnzw9B.s 			page 5


  85:lr1mac/src/smtc_real/src/smtc_real.c **** #endif
  86:lr1mac/src/smtc_real/src/smtc_real.c **** #if defined( REGION_EU_868 )
  87:lr1mac/src/smtc_real/src/smtc_real.c ****     case SMTC_REAL_REGION_EU_868: {
  88:lr1mac/src/smtc_real/src/smtc_real.c ****         region_eu_868_dr_distribution_set( lr1_mac, adrMode );
  89:lr1mac/src/smtc_real/src/smtc_real.c ****         break;
  90:lr1mac/src/smtc_real/src/smtc_real.c ****     }
  91:lr1mac/src/smtc_real/src/smtc_real.c **** #endif
  92:lr1mac/src/smtc_real/src/smtc_real.c **** #if defined( REGION_US_915 )
  93:lr1mac/src/smtc_real/src/smtc_real.c ****     case SMTC_REAL_REGION_US_915: {
  94:lr1mac/src/smtc_real/src/smtc_real.c ****         region_us_915_dr_distribution_set( lr1_mac, adrMode );
  95:lr1mac/src/smtc_real/src/smtc_real.c ****         break;
  96:lr1mac/src/smtc_real/src/smtc_real.c ****     }
  97:lr1mac/src/smtc_real/src/smtc_real.c **** #endif
  98:lr1mac/src/smtc_real/src/smtc_real.c ****     default:
  99:lr1mac/src/smtc_real/src/smtc_real.c ****         BSP_DBG_TRACE_ERROR( "%s unsupported\n", __func__ );
 100:lr1mac/src/smtc_real/src/smtc_real.c ****         bsp_mcu_handle_lr1mac_issue( );
 101:lr1mac/src/smtc_real/src/smtc_real.c ****         break;
 102:lr1mac/src/smtc_real/src/smtc_real.c ****     }
 103:lr1mac/src/smtc_real/src/smtc_real.c **** }
 130              		.loc 1 103 1 is_stmt 0 view .LVU24
 131              		@ sp needed
 132 000e 10BD     		pop	{r4, pc}
 133              	.LVL11:
 134              	.L7:
  99:lr1mac/src/smtc_real/src/smtc_real.c ****         bsp_mcu_handle_lr1mac_issue( );
 135              		.loc 1 99 9 is_stmt 1 view .LVU25
  99:lr1mac/src/smtc_real/src/smtc_real.c ****         bsp_mcu_handle_lr1mac_issue( );
 136              		.loc 1 99 9 view .LVU26
 137 0010 0748     		ldr	r0, .L9
 138              	.LVL12:
  99:lr1mac/src/smtc_real/src/smtc_real.c ****         bsp_mcu_handle_lr1mac_issue( );
 139              		.loc 1 99 9 is_stmt 0 view .LVU27
 140 0012 FFF7FEFF 		bl	bsp_trace_print
 141              	.LVL13:
  99:lr1mac/src/smtc_real/src/smtc_real.c ****         bsp_mcu_handle_lr1mac_issue( );
 142              		.loc 1 99 9 is_stmt 1 view .LVU28
 143 0016 0748     		ldr	r0, .L9+4
 144 0018 FFF7FEFF 		bl	bsp_trace_print
 145              	.LVL14:
  99:lr1mac/src/smtc_real/src/smtc_real.c ****         bsp_mcu_handle_lr1mac_issue( );
 146              		.loc 1 99 9 view .LVU29
 147 001c 0649     		ldr	r1, .L9+8
 148 001e 0748     		ldr	r0, .L9+12
 149 0020 FFF7FEFF 		bl	bsp_trace_print
 150              	.LVL15:
  99:lr1mac/src/smtc_real/src/smtc_real.c ****         bsp_mcu_handle_lr1mac_issue( );
 151              		.loc 1 99 9 view .LVU30
 152 0024 0648     		ldr	r0, .L9+16
 153 0026 FFF7FEFF 		bl	bsp_trace_print
 154              	.LVL16:
  99:lr1mac/src/smtc_real/src/smtc_real.c ****         bsp_mcu_handle_lr1mac_issue( );
 155              		.loc 1 99 9 view .LVU31
  99:lr1mac/src/smtc_real/src/smtc_real.c ****         bsp_mcu_handle_lr1mac_issue( );
 156              		.loc 1 99 60 view .LVU32
 100:lr1mac/src/smtc_real/src/smtc_real.c ****         break;
 157              		.loc 1 100 9 view .LVU33
 158 002a FFF7FEFF 		bl	bsp_mcu_handle_lr1mac_issue
ARM GAS  /var/folders/bq/yv49bw8j2kd6w3hsq868qv180000gn/T//ccRnzw9B.s 			page 6


 159              	.LVL17:
 101:lr1mac/src/smtc_real/src/smtc_real.c ****     }
 160              		.loc 1 101 9 view .LVU34
 161              		.loc 1 103 1 is_stmt 0 view .LVU35
 162 002e EEE7     		b	.L6
 163              	.L10:
 164              		.align	2
 165              	.L9:
 166 0030 00000000 		.word	.LC0
 167 0034 08000000 		.word	.LC2
 168 0038 00000000 		.word	.LANCHOR1
 169 003c 10000000 		.word	.LC5
 170 0040 20000000 		.word	.LC7
 171              		.cfi_endproc
 172              	.LFE10:
 174              		.section	.text.smtc_real_memory_load,"ax",%progbits
 175              		.align	1
 176              		.global	smtc_real_memory_load
 177              		.syntax unified
 178              		.code	16
 179              		.thumb_func
 180              		.fpu softvfp
 182              	smtc_real_memory_load:
 183              	.LVL18:
 184              	.LFB11:
 104:lr1mac/src/smtc_real/src/smtc_real.c **** 
 105:lr1mac/src/smtc_real/src/smtc_real.c **** status_lorawan_t smtc_real_memory_load( lr1_stack_mac_t* lr1_mac )
 106:lr1mac/src/smtc_real/src/smtc_real.c **** {
 185              		.loc 1 106 1 is_stmt 1 view -0
 186              		.cfi_startproc
 187              		@ args = 0, pretend = 0, frame = 0
 188              		@ frame_needed = 0, uses_anonymous_args = 0
 107:lr1mac/src/smtc_real/src/smtc_real.c ****     switch( lr1_mac->real->region_type )
 189              		.loc 1 107 5 view .LVU37
 106:lr1mac/src/smtc_real/src/smtc_real.c ****     switch( lr1_mac->real->region_type )
 190              		.loc 1 106 1 is_stmt 0 view .LVU38
 191 0000 10B5     		push	{r4, lr}
 192              		.cfi_def_cfa_offset 8
 193              		.cfi_offset 4, -8
 194              		.cfi_offset 14, -4
 195              		.loc 1 107 5 view .LVU39
 196 0002 0368     		ldr	r3, [r0]
 197 0004 1B79     		ldrb	r3, [r3, #4]
 198 0006 062B     		cmp	r3, #6
 199 0008 02D1     		bne	.L12
 108:lr1mac/src/smtc_real/src/smtc_real.c ****     {
 109:lr1mac/src/smtc_real/src/smtc_real.c **** #if defined( REGION_WW2G4 )
 110:lr1mac/src/smtc_real/src/smtc_real.c ****     case SMTC_REAL_REGION_WW2G4: {
 111:lr1mac/src/smtc_real/src/smtc_real.c ****         return region_ww2g4_memory_load( lr1_mac );
 200              		.loc 1 111 9 is_stmt 1 view .LVU40
 201              		.loc 1 111 16 is_stmt 0 view .LVU41
 202 000a FFF7FEFF 		bl	region_ww2g4_memory_load
 203              	.LVL19:
 204              	.L13:
 112:lr1mac/src/smtc_real/src/smtc_real.c ****         break;
 113:lr1mac/src/smtc_real/src/smtc_real.c ****     }
 114:lr1mac/src/smtc_real/src/smtc_real.c **** #endif
ARM GAS  /var/folders/bq/yv49bw8j2kd6w3hsq868qv180000gn/T//ccRnzw9B.s 			page 7


 115:lr1mac/src/smtc_real/src/smtc_real.c **** #if defined( REGION_EU_868 )
 116:lr1mac/src/smtc_real/src/smtc_real.c ****     case SMTC_REAL_REGION_EU_868: {
 117:lr1mac/src/smtc_real/src/smtc_real.c ****         return region_eu_868_memory_load( lr1_mac );
 118:lr1mac/src/smtc_real/src/smtc_real.c ****         break;
 119:lr1mac/src/smtc_real/src/smtc_real.c ****     }
 120:lr1mac/src/smtc_real/src/smtc_real.c **** #endif
 121:lr1mac/src/smtc_real/src/smtc_real.c **** #if defined( REGION_US_915 )
 122:lr1mac/src/smtc_real/src/smtc_real.c ****     case SMTC_REAL_REGION_US_915: {
 123:lr1mac/src/smtc_real/src/smtc_real.c ****         return region_us_915_memory_load( lr1_mac );
 124:lr1mac/src/smtc_real/src/smtc_real.c ****         break;
 125:lr1mac/src/smtc_real/src/smtc_real.c ****     }
 126:lr1mac/src/smtc_real/src/smtc_real.c **** #endif
 127:lr1mac/src/smtc_real/src/smtc_real.c ****     default:
 128:lr1mac/src/smtc_real/src/smtc_real.c ****         BSP_DBG_TRACE_ERROR( "%s unsupported\n", __func__ );
 129:lr1mac/src/smtc_real/src/smtc_real.c ****         bsp_mcu_handle_lr1mac_issue( );
 130:lr1mac/src/smtc_real/src/smtc_real.c ****         return ( ERRORLORAWAN );  // never reach just for warning
 131:lr1mac/src/smtc_real/src/smtc_real.c ****         break;
 205              		.loc 1 131 9 is_stmt 1 view .LVU42
 132:lr1mac/src/smtc_real/src/smtc_real.c ****     }
 133:lr1mac/src/smtc_real/src/smtc_real.c **** }
 206              		.loc 1 133 1 is_stmt 0 view .LVU43
 207              		@ sp needed
 208 000e 10BD     		pop	{r4, pc}
 209              	.LVL20:
 210              	.L12:
 112:lr1mac/src/smtc_real/src/smtc_real.c ****         break;
 211              		.loc 1 112 9 is_stmt 1 view .LVU44
 128:lr1mac/src/smtc_real/src/smtc_real.c ****         bsp_mcu_handle_lr1mac_issue( );
 212              		.loc 1 128 9 view .LVU45
 128:lr1mac/src/smtc_real/src/smtc_real.c ****         bsp_mcu_handle_lr1mac_issue( );
 213              		.loc 1 128 9 view .LVU46
 214 0010 0848     		ldr	r0, .L14
 215              	.LVL21:
 128:lr1mac/src/smtc_real/src/smtc_real.c ****         bsp_mcu_handle_lr1mac_issue( );
 216              		.loc 1 128 9 is_stmt 0 view .LVU47
 217 0012 FFF7FEFF 		bl	bsp_trace_print
 218              	.LVL22:
 128:lr1mac/src/smtc_real/src/smtc_real.c ****         bsp_mcu_handle_lr1mac_issue( );
 219              		.loc 1 128 9 is_stmt 1 view .LVU48
 220 0016 0848     		ldr	r0, .L14+4
 221 0018 FFF7FEFF 		bl	bsp_trace_print
 222              	.LVL23:
 128:lr1mac/src/smtc_real/src/smtc_real.c ****         bsp_mcu_handle_lr1mac_issue( );
 223              		.loc 1 128 9 view .LVU49
 224 001c 0749     		ldr	r1, .L14+8
 225 001e 0848     		ldr	r0, .L14+12
 226 0020 FFF7FEFF 		bl	bsp_trace_print
 227              	.LVL24:
 128:lr1mac/src/smtc_real/src/smtc_real.c ****         bsp_mcu_handle_lr1mac_issue( );
 228              		.loc 1 128 9 view .LVU50
 229 0024 0748     		ldr	r0, .L14+16
 230 0026 FFF7FEFF 		bl	bsp_trace_print
 231              	.LVL25:
 128:lr1mac/src/smtc_real/src/smtc_real.c ****         bsp_mcu_handle_lr1mac_issue( );
 232              		.loc 1 128 9 view .LVU51
 128:lr1mac/src/smtc_real/src/smtc_real.c ****         bsp_mcu_handle_lr1mac_issue( );
 233              		.loc 1 128 60 view .LVU52
ARM GAS  /var/folders/bq/yv49bw8j2kd6w3hsq868qv180000gn/T//ccRnzw9B.s 			page 8


 129:lr1mac/src/smtc_real/src/smtc_real.c ****         return ( ERRORLORAWAN );  // never reach just for warning
 234              		.loc 1 129 9 view .LVU53
 235 002a FFF7FEFF 		bl	bsp_mcu_handle_lr1mac_issue
 236              	.LVL26:
 130:lr1mac/src/smtc_real/src/smtc_real.c ****         break;
 237              		.loc 1 130 9 view .LVU54
 130:lr1mac/src/smtc_real/src/smtc_real.c ****         break;
 238              		.loc 1 130 16 is_stmt 0 view .LVU55
 239 002e 0120     		movs	r0, #1
 240 0030 4042     		rsbs	r0, r0, #0
 241 0032 ECE7     		b	.L13
 242              	.L15:
 243              		.align	2
 244              	.L14:
 245 0034 00000000 		.word	.LC0
 246 0038 08000000 		.word	.LC2
 247 003c 00000000 		.word	.LANCHOR2
 248 0040 10000000 		.word	.LC5
 249 0044 20000000 		.word	.LC7
 250              		.cfi_endproc
 251              	.LFE11:
 253              		.section	.text.smtc_real_bad_crc_memory_set,"ax",%progbits
 254              		.align	1
 255              		.global	smtc_real_bad_crc_memory_set
 256              		.syntax unified
 257              		.code	16
 258              		.thumb_func
 259              		.fpu softvfp
 261              	smtc_real_bad_crc_memory_set:
 262              	.LVL27:
 263              	.LFB12:
 134:lr1mac/src/smtc_real/src/smtc_real.c **** 
 135:lr1mac/src/smtc_real/src/smtc_real.c **** void smtc_real_bad_crc_memory_set( lr1_stack_mac_t* lr1_mac )
 136:lr1mac/src/smtc_real/src/smtc_real.c **** {
 264              		.loc 1 136 1 is_stmt 1 view -0
 265              		.cfi_startproc
 266              		@ args = 0, pretend = 0, frame = 0
 267              		@ frame_needed = 0, uses_anonymous_args = 0
 137:lr1mac/src/smtc_real/src/smtc_real.c ****     switch( lr1_mac->real->region_type )
 268              		.loc 1 137 5 view .LVU57
 136:lr1mac/src/smtc_real/src/smtc_real.c ****     switch( lr1_mac->real->region_type )
 269              		.loc 1 136 1 is_stmt 0 view .LVU58
 270 0000 10B5     		push	{r4, lr}
 271              		.cfi_def_cfa_offset 8
 272              		.cfi_offset 4, -8
 273              		.cfi_offset 14, -4
 274              		.loc 1 137 5 view .LVU59
 275 0002 0368     		ldr	r3, [r0]
 276 0004 1B79     		ldrb	r3, [r3, #4]
 277 0006 062B     		cmp	r3, #6
 278 0008 02D1     		bne	.L17
 138:lr1mac/src/smtc_real/src/smtc_real.c ****     {
 139:lr1mac/src/smtc_real/src/smtc_real.c **** #if defined( REGION_WW2G4 )
 140:lr1mac/src/smtc_real/src/smtc_real.c ****     case SMTC_REAL_REGION_WW2G4: {
 141:lr1mac/src/smtc_real/src/smtc_real.c ****         region_ww2g4_bad_crc_memory_set( lr1_mac );
 279              		.loc 1 141 9 is_stmt 1 view .LVU60
 280 000a FFF7FEFF 		bl	region_ww2g4_bad_crc_memory_set
ARM GAS  /var/folders/bq/yv49bw8j2kd6w3hsq868qv180000gn/T//ccRnzw9B.s 			page 9


 281              	.LVL28:
 142:lr1mac/src/smtc_real/src/smtc_real.c ****         break;
 282              		.loc 1 142 9 view .LVU61
 283              	.L16:
 143:lr1mac/src/smtc_real/src/smtc_real.c ****     }
 144:lr1mac/src/smtc_real/src/smtc_real.c **** #endif
 145:lr1mac/src/smtc_real/src/smtc_real.c **** #if defined( REGION_EU_868 )
 146:lr1mac/src/smtc_real/src/smtc_real.c ****     case SMTC_REAL_REGION_EU_868: {
 147:lr1mac/src/smtc_real/src/smtc_real.c ****         region_eu_868_bad_crc_memory_set( lr1_mac );
 148:lr1mac/src/smtc_real/src/smtc_real.c ****         break;
 149:lr1mac/src/smtc_real/src/smtc_real.c ****     }
 150:lr1mac/src/smtc_real/src/smtc_real.c **** #endif
 151:lr1mac/src/smtc_real/src/smtc_real.c **** #if defined( REGION_US_915 )
 152:lr1mac/src/smtc_real/src/smtc_real.c ****     case SMTC_REAL_REGION_US_915: {
 153:lr1mac/src/smtc_real/src/smtc_real.c ****         region_us_915_bad_crc_memory_set( lr1_mac );
 154:lr1mac/src/smtc_real/src/smtc_real.c ****         break;
 155:lr1mac/src/smtc_real/src/smtc_real.c ****     }
 156:lr1mac/src/smtc_real/src/smtc_real.c **** #endif
 157:lr1mac/src/smtc_real/src/smtc_real.c ****     default:
 158:lr1mac/src/smtc_real/src/smtc_real.c ****         BSP_DBG_TRACE_ERROR( "%s unsupported\n", __func__ );
 159:lr1mac/src/smtc_real/src/smtc_real.c ****         bsp_mcu_handle_lr1mac_issue( );
 160:lr1mac/src/smtc_real/src/smtc_real.c ****         break;
 161:lr1mac/src/smtc_real/src/smtc_real.c ****     }
 162:lr1mac/src/smtc_real/src/smtc_real.c **** }
 284              		.loc 1 162 1 is_stmt 0 view .LVU62
 285              		@ sp needed
 286 000e 10BD     		pop	{r4, pc}
 287              	.LVL29:
 288              	.L17:
 158:lr1mac/src/smtc_real/src/smtc_real.c ****         bsp_mcu_handle_lr1mac_issue( );
 289              		.loc 1 158 9 is_stmt 1 view .LVU63
 158:lr1mac/src/smtc_real/src/smtc_real.c ****         bsp_mcu_handle_lr1mac_issue( );
 290              		.loc 1 158 9 view .LVU64
 291 0010 0748     		ldr	r0, .L19
 292              	.LVL30:
 158:lr1mac/src/smtc_real/src/smtc_real.c ****         bsp_mcu_handle_lr1mac_issue( );
 293              		.loc 1 158 9 is_stmt 0 view .LVU65
 294 0012 FFF7FEFF 		bl	bsp_trace_print
 295              	.LVL31:
 158:lr1mac/src/smtc_real/src/smtc_real.c ****         bsp_mcu_handle_lr1mac_issue( );
 296              		.loc 1 158 9 is_stmt 1 view .LVU66
 297 0016 0748     		ldr	r0, .L19+4
 298 0018 FFF7FEFF 		bl	bsp_trace_print
 299              	.LVL32:
 158:lr1mac/src/smtc_real/src/smtc_real.c ****         bsp_mcu_handle_lr1mac_issue( );
 300              		.loc 1 158 9 view .LVU67
 301 001c 0649     		ldr	r1, .L19+8
 302 001e 0748     		ldr	r0, .L19+12
 303 0020 FFF7FEFF 		bl	bsp_trace_print
 304              	.LVL33:
 158:lr1mac/src/smtc_real/src/smtc_real.c ****         bsp_mcu_handle_lr1mac_issue( );
 305              		.loc 1 158 9 view .LVU68
 306 0024 0648     		ldr	r0, .L19+16
 307 0026 FFF7FEFF 		bl	bsp_trace_print
 308              	.LVL34:
 158:lr1mac/src/smtc_real/src/smtc_real.c ****         bsp_mcu_handle_lr1mac_issue( );
 309              		.loc 1 158 9 view .LVU69
ARM GAS  /var/folders/bq/yv49bw8j2kd6w3hsq868qv180000gn/T//ccRnzw9B.s 			page 10


 158:lr1mac/src/smtc_real/src/smtc_real.c ****         bsp_mcu_handle_lr1mac_issue( );
 310              		.loc 1 158 60 view .LVU70
 159:lr1mac/src/smtc_real/src/smtc_real.c ****         break;
 311              		.loc 1 159 9 view .LVU71
 312 002a FFF7FEFF 		bl	bsp_mcu_handle_lr1mac_issue
 313              	.LVL35:
 160:lr1mac/src/smtc_real/src/smtc_real.c ****     }
 314              		.loc 1 160 9 view .LVU72
 315              		.loc 1 162 1 is_stmt 0 view .LVU73
 316 002e EEE7     		b	.L16
 317              	.L20:
 318              		.align	2
 319              	.L19:
 320 0030 00000000 		.word	.LC0
 321 0034 08000000 		.word	.LC2
 322 0038 00000000 		.word	.LANCHOR3
 323 003c 10000000 		.word	.LC5
 324 0040 20000000 		.word	.LC7
 325              		.cfi_endproc
 326              	.LFE12:
 328              		.section	.text.smtc_real_next_dr_get,"ax",%progbits
 329              		.align	1
 330              		.global	smtc_real_next_dr_get
 331              		.syntax unified
 332              		.code	16
 333              		.thumb_func
 334              		.fpu softvfp
 336              	smtc_real_next_dr_get:
 337              	.LVL36:
 338              	.LFB13:
 163:lr1mac/src/smtc_real/src/smtc_real.c **** 
 164:lr1mac/src/smtc_real/src/smtc_real.c **** void smtc_real_next_dr_get( lr1_stack_mac_t* lr1_mac )
 165:lr1mac/src/smtc_real/src/smtc_real.c **** {
 339              		.loc 1 165 1 is_stmt 1 view -0
 340              		.cfi_startproc
 341              		@ args = 0, pretend = 0, frame = 0
 342              		@ frame_needed = 0, uses_anonymous_args = 0
 166:lr1mac/src/smtc_real/src/smtc_real.c ****     switch( lr1_mac->real->region_type )
 343              		.loc 1 166 5 view .LVU75
 165:lr1mac/src/smtc_real/src/smtc_real.c ****     switch( lr1_mac->real->region_type )
 344              		.loc 1 165 1 is_stmt 0 view .LVU76
 345 0000 10B5     		push	{r4, lr}
 346              		.cfi_def_cfa_offset 8
 347              		.cfi_offset 4, -8
 348              		.cfi_offset 14, -4
 349              		.loc 1 166 5 view .LVU77
 350 0002 0368     		ldr	r3, [r0]
 351 0004 1B79     		ldrb	r3, [r3, #4]
 352 0006 062B     		cmp	r3, #6
 353 0008 02D1     		bne	.L22
 167:lr1mac/src/smtc_real/src/smtc_real.c ****     {
 168:lr1mac/src/smtc_real/src/smtc_real.c **** #if defined( REGION_WW2G4 )
 169:lr1mac/src/smtc_real/src/smtc_real.c ****     case SMTC_REAL_REGION_WW2G4: {
 170:lr1mac/src/smtc_real/src/smtc_real.c ****         region_ww2g4_next_dr_get( lr1_mac );
 354              		.loc 1 170 9 is_stmt 1 view .LVU78
 355 000a FFF7FEFF 		bl	region_ww2g4_next_dr_get
 356              	.LVL37:
ARM GAS  /var/folders/bq/yv49bw8j2kd6w3hsq868qv180000gn/T//ccRnzw9B.s 			page 11


 171:lr1mac/src/smtc_real/src/smtc_real.c ****         break;
 357              		.loc 1 171 9 view .LVU79
 358              	.L21:
 172:lr1mac/src/smtc_real/src/smtc_real.c ****     }
 173:lr1mac/src/smtc_real/src/smtc_real.c **** #endif
 174:lr1mac/src/smtc_real/src/smtc_real.c **** #if defined( REGION_EU_868 )
 175:lr1mac/src/smtc_real/src/smtc_real.c ****     case SMTC_REAL_REGION_EU_868: {
 176:lr1mac/src/smtc_real/src/smtc_real.c ****         region_eu_868_next_dr_get( lr1_mac );
 177:lr1mac/src/smtc_real/src/smtc_real.c ****         break;
 178:lr1mac/src/smtc_real/src/smtc_real.c ****     }
 179:lr1mac/src/smtc_real/src/smtc_real.c **** #endif
 180:lr1mac/src/smtc_real/src/smtc_real.c **** #if defined( REGION_US_915 )
 181:lr1mac/src/smtc_real/src/smtc_real.c ****     case SMTC_REAL_REGION_US_915: {
 182:lr1mac/src/smtc_real/src/smtc_real.c ****         region_us_915_next_dr_get( lr1_mac );
 183:lr1mac/src/smtc_real/src/smtc_real.c ****         break;
 184:lr1mac/src/smtc_real/src/smtc_real.c ****     }
 185:lr1mac/src/smtc_real/src/smtc_real.c **** #endif
 186:lr1mac/src/smtc_real/src/smtc_real.c ****     default:
 187:lr1mac/src/smtc_real/src/smtc_real.c ****         BSP_DBG_TRACE_ERROR( "%s unsupported\n", __func__ );
 188:lr1mac/src/smtc_real/src/smtc_real.c ****         bsp_mcu_handle_lr1mac_issue( );
 189:lr1mac/src/smtc_real/src/smtc_real.c ****         break;
 190:lr1mac/src/smtc_real/src/smtc_real.c ****     }
 191:lr1mac/src/smtc_real/src/smtc_real.c **** }
 359              		.loc 1 191 1 is_stmt 0 view .LVU80
 360              		@ sp needed
 361 000e 10BD     		pop	{r4, pc}
 362              	.LVL38:
 363              	.L22:
 187:lr1mac/src/smtc_real/src/smtc_real.c ****         bsp_mcu_handle_lr1mac_issue( );
 364              		.loc 1 187 9 is_stmt 1 view .LVU81
 187:lr1mac/src/smtc_real/src/smtc_real.c ****         bsp_mcu_handle_lr1mac_issue( );
 365              		.loc 1 187 9 view .LVU82
 366 0010 0748     		ldr	r0, .L24
 367              	.LVL39:
 187:lr1mac/src/smtc_real/src/smtc_real.c ****         bsp_mcu_handle_lr1mac_issue( );
 368              		.loc 1 187 9 is_stmt 0 view .LVU83
 369 0012 FFF7FEFF 		bl	bsp_trace_print
 370              	.LVL40:
 187:lr1mac/src/smtc_real/src/smtc_real.c ****         bsp_mcu_handle_lr1mac_issue( );
 371              		.loc 1 187 9 is_stmt 1 view .LVU84
 372 0016 0748     		ldr	r0, .L24+4
 373 0018 FFF7FEFF 		bl	bsp_trace_print
 374              	.LVL41:
 187:lr1mac/src/smtc_real/src/smtc_real.c ****         bsp_mcu_handle_lr1mac_issue( );
 375              		.loc 1 187 9 view .LVU85
 376 001c 0649     		ldr	r1, .L24+8
 377 001e 0748     		ldr	r0, .L24+12
 378 0020 FFF7FEFF 		bl	bsp_trace_print
 379              	.LVL42:
 187:lr1mac/src/smtc_real/src/smtc_real.c ****         bsp_mcu_handle_lr1mac_issue( );
 380              		.loc 1 187 9 view .LVU86
 381 0024 0648     		ldr	r0, .L24+16
 382 0026 FFF7FEFF 		bl	bsp_trace_print
 383              	.LVL43:
 187:lr1mac/src/smtc_real/src/smtc_real.c ****         bsp_mcu_handle_lr1mac_issue( );
 384              		.loc 1 187 9 view .LVU87
 187:lr1mac/src/smtc_real/src/smtc_real.c ****         bsp_mcu_handle_lr1mac_issue( );
ARM GAS  /var/folders/bq/yv49bw8j2kd6w3hsq868qv180000gn/T//ccRnzw9B.s 			page 12


 385              		.loc 1 187 60 view .LVU88
 188:lr1mac/src/smtc_real/src/smtc_real.c ****         break;
 386              		.loc 1 188 9 view .LVU89
 387 002a FFF7FEFF 		bl	bsp_mcu_handle_lr1mac_issue
 388              	.LVL44:
 189:lr1mac/src/smtc_real/src/smtc_real.c ****     }
 389              		.loc 1 189 9 view .LVU90
 390              		.loc 1 191 1 is_stmt 0 view .LVU91
 391 002e EEE7     		b	.L21
 392              	.L25:
 393              		.align	2
 394              	.L24:
 395 0030 00000000 		.word	.LC0
 396 0034 08000000 		.word	.LC2
 397 0038 00000000 		.word	.LANCHOR4
 398 003c 10000000 		.word	.LC5
 399 0040 20000000 		.word	.LC7
 400              		.cfi_endproc
 401              	.LFE13:
 403              		.section	.text.smtc_real_memory_save,"ax",%progbits
 404              		.align	1
 405              		.global	smtc_real_memory_save
 406              		.syntax unified
 407              		.code	16
 408              		.thumb_func
 409              		.fpu softvfp
 411              	smtc_real_memory_save:
 412              	.LVL45:
 413              	.LFB14:
 192:lr1mac/src/smtc_real/src/smtc_real.c **** 
 193:lr1mac/src/smtc_real/src/smtc_real.c **** void smtc_real_memory_save( lr1_stack_mac_t* lr1_mac )
 194:lr1mac/src/smtc_real/src/smtc_real.c **** {
 414              		.loc 1 194 1 is_stmt 1 view -0
 415              		.cfi_startproc
 416              		@ args = 0, pretend = 0, frame = 0
 417              		@ frame_needed = 0, uses_anonymous_args = 0
 195:lr1mac/src/smtc_real/src/smtc_real.c ****     switch( lr1_mac->real->region_type )
 418              		.loc 1 195 5 view .LVU93
 194:lr1mac/src/smtc_real/src/smtc_real.c ****     switch( lr1_mac->real->region_type )
 419              		.loc 1 194 1 is_stmt 0 view .LVU94
 420 0000 10B5     		push	{r4, lr}
 421              		.cfi_def_cfa_offset 8
 422              		.cfi_offset 4, -8
 423              		.cfi_offset 14, -4
 424              		.loc 1 195 5 view .LVU95
 425 0002 0368     		ldr	r3, [r0]
 426 0004 1B79     		ldrb	r3, [r3, #4]
 427 0006 062B     		cmp	r3, #6
 428 0008 02D1     		bne	.L27
 196:lr1mac/src/smtc_real/src/smtc_real.c ****     {
 197:lr1mac/src/smtc_real/src/smtc_real.c **** #if defined( REGION_WW2G4 )
 198:lr1mac/src/smtc_real/src/smtc_real.c ****     case SMTC_REAL_REGION_WW2G4: {
 199:lr1mac/src/smtc_real/src/smtc_real.c ****         region_ww2g4_memory_save( lr1_mac );
 429              		.loc 1 199 9 is_stmt 1 view .LVU96
 430 000a FFF7FEFF 		bl	region_ww2g4_memory_save
 431              	.LVL46:
 200:lr1mac/src/smtc_real/src/smtc_real.c ****         break;
ARM GAS  /var/folders/bq/yv49bw8j2kd6w3hsq868qv180000gn/T//ccRnzw9B.s 			page 13


 432              		.loc 1 200 9 view .LVU97
 433              	.L26:
 201:lr1mac/src/smtc_real/src/smtc_real.c ****     }
 202:lr1mac/src/smtc_real/src/smtc_real.c **** #endif
 203:lr1mac/src/smtc_real/src/smtc_real.c **** #if defined( REGION_EU_868 )
 204:lr1mac/src/smtc_real/src/smtc_real.c ****     case SMTC_REAL_REGION_EU_868: {
 205:lr1mac/src/smtc_real/src/smtc_real.c ****         region_eu_868_memory_save( lr1_mac );
 206:lr1mac/src/smtc_real/src/smtc_real.c ****         break;
 207:lr1mac/src/smtc_real/src/smtc_real.c ****     }
 208:lr1mac/src/smtc_real/src/smtc_real.c **** #endif
 209:lr1mac/src/smtc_real/src/smtc_real.c **** #if defined( REGION_US_915 )
 210:lr1mac/src/smtc_real/src/smtc_real.c ****     case SMTC_REAL_REGION_US_915: {
 211:lr1mac/src/smtc_real/src/smtc_real.c ****         region_us_915_memory_save( lr1_mac );
 212:lr1mac/src/smtc_real/src/smtc_real.c ****         break;
 213:lr1mac/src/smtc_real/src/smtc_real.c ****     }
 214:lr1mac/src/smtc_real/src/smtc_real.c **** #endif
 215:lr1mac/src/smtc_real/src/smtc_real.c ****     default:
 216:lr1mac/src/smtc_real/src/smtc_real.c ****         BSP_DBG_TRACE_ERROR( "%s unsupported\n", __func__ );
 217:lr1mac/src/smtc_real/src/smtc_real.c ****         bsp_mcu_handle_lr1mac_issue( );
 218:lr1mac/src/smtc_real/src/smtc_real.c ****         break;
 219:lr1mac/src/smtc_real/src/smtc_real.c ****     }
 220:lr1mac/src/smtc_real/src/smtc_real.c **** }
 434              		.loc 1 220 1 is_stmt 0 view .LVU98
 435              		@ sp needed
 436 000e 10BD     		pop	{r4, pc}
 437              	.LVL47:
 438              	.L27:
 216:lr1mac/src/smtc_real/src/smtc_real.c ****         bsp_mcu_handle_lr1mac_issue( );
 439              		.loc 1 216 9 is_stmt 1 view .LVU99
 216:lr1mac/src/smtc_real/src/smtc_real.c ****         bsp_mcu_handle_lr1mac_issue( );
 440              		.loc 1 216 9 view .LVU100
 441 0010 0748     		ldr	r0, .L29
 442              	.LVL48:
 216:lr1mac/src/smtc_real/src/smtc_real.c ****         bsp_mcu_handle_lr1mac_issue( );
 443              		.loc 1 216 9 is_stmt 0 view .LVU101
 444 0012 FFF7FEFF 		bl	bsp_trace_print
 445              	.LVL49:
 216:lr1mac/src/smtc_real/src/smtc_real.c ****         bsp_mcu_handle_lr1mac_issue( );
 446              		.loc 1 216 9 is_stmt 1 view .LVU102
 447 0016 0748     		ldr	r0, .L29+4
 448 0018 FFF7FEFF 		bl	bsp_trace_print
 449              	.LVL50:
 216:lr1mac/src/smtc_real/src/smtc_real.c ****         bsp_mcu_handle_lr1mac_issue( );
 450              		.loc 1 216 9 view .LVU103
 451 001c 0649     		ldr	r1, .L29+8
 452 001e 0748     		ldr	r0, .L29+12
 453 0020 FFF7FEFF 		bl	bsp_trace_print
 454              	.LVL51:
 216:lr1mac/src/smtc_real/src/smtc_real.c ****         bsp_mcu_handle_lr1mac_issue( );
 455              		.loc 1 216 9 view .LVU104
 456 0024 0648     		ldr	r0, .L29+16
 457 0026 FFF7FEFF 		bl	bsp_trace_print
 458              	.LVL52:
 216:lr1mac/src/smtc_real/src/smtc_real.c ****         bsp_mcu_handle_lr1mac_issue( );
 459              		.loc 1 216 9 view .LVU105
 216:lr1mac/src/smtc_real/src/smtc_real.c ****         bsp_mcu_handle_lr1mac_issue( );
 460              		.loc 1 216 60 view .LVU106
ARM GAS  /var/folders/bq/yv49bw8j2kd6w3hsq868qv180000gn/T//ccRnzw9B.s 			page 14


 217:lr1mac/src/smtc_real/src/smtc_real.c ****         break;
 461              		.loc 1 217 9 view .LVU107
 462 002a FFF7FEFF 		bl	bsp_mcu_handle_lr1mac_issue
 463              	.LVL53:
 218:lr1mac/src/smtc_real/src/smtc_real.c ****     }
 464              		.loc 1 218 9 view .LVU108
 465              		.loc 1 220 1 is_stmt 0 view .LVU109
 466 002e EEE7     		b	.L26
 467              	.L30:
 468              		.align	2
 469              	.L29:
 470 0030 00000000 		.word	.LC0
 471 0034 08000000 		.word	.LC2
 472 0038 00000000 		.word	.LANCHOR5
 473 003c 10000000 		.word	.LC5
 474 0040 20000000 		.word	.LC7
 475              		.cfi_endproc
 476              	.LFE14:
 478              		.section	.text.smtc_real_max_payload_size_get,"ax",%progbits
 479              		.align	1
 480              		.global	smtc_real_max_payload_size_get
 481              		.syntax unified
 482              		.code	16
 483              		.thumb_func
 484              		.fpu softvfp
 486              	smtc_real_max_payload_size_get:
 487              	.LVL54:
 488              	.LFB15:
 221:lr1mac/src/smtc_real/src/smtc_real.c **** 
 222:lr1mac/src/smtc_real/src/smtc_real.c **** uint8_t smtc_real_max_payload_size_get( lr1_stack_mac_t* lr1_mac, uint8_t dr )
 223:lr1mac/src/smtc_real/src/smtc_real.c **** {
 489              		.loc 1 223 1 is_stmt 1 view -0
 490              		.cfi_startproc
 491              		@ args = 0, pretend = 0, frame = 0
 492              		@ frame_needed = 0, uses_anonymous_args = 0
 224:lr1mac/src/smtc_real/src/smtc_real.c ****     switch( lr1_mac->real->region_type )
 493              		.loc 1 224 5 view .LVU111
 223:lr1mac/src/smtc_real/src/smtc_real.c ****     switch( lr1_mac->real->region_type )
 494              		.loc 1 223 1 is_stmt 0 view .LVU112
 495 0000 10B5     		push	{r4, lr}
 496              		.cfi_def_cfa_offset 8
 497              		.cfi_offset 4, -8
 498              		.cfi_offset 14, -4
 499              		.loc 1 224 26 view .LVU113
 500 0002 0368     		ldr	r3, [r0]
 501              		.loc 1 224 5 view .LVU114
 502 0004 1B79     		ldrb	r3, [r3, #4]
 503 0006 062B     		cmp	r3, #6
 504 0008 03D1     		bne	.L32
 225:lr1mac/src/smtc_real/src/smtc_real.c ****     {
 226:lr1mac/src/smtc_real/src/smtc_real.c **** #if defined( REGION_WW2G4 )
 227:lr1mac/src/smtc_real/src/smtc_real.c ****     case SMTC_REAL_REGION_WW2G4: {
 228:lr1mac/src/smtc_real/src/smtc_real.c ****         return region_ww2g4_max_payload_size_get( dr );
 505              		.loc 1 228 9 is_stmt 1 view .LVU115
 506              		.loc 1 228 16 is_stmt 0 view .LVU116
 507 000a 0800     		movs	r0, r1
 508              	.LVL55:
ARM GAS  /var/folders/bq/yv49bw8j2kd6w3hsq868qv180000gn/T//ccRnzw9B.s 			page 15


 509              		.loc 1 228 16 view .LVU117
 510 000c FFF7FEFF 		bl	region_ww2g4_max_payload_size_get
 511              	.LVL56:
 512              	.L33:
 229:lr1mac/src/smtc_real/src/smtc_real.c ****     }
 230:lr1mac/src/smtc_real/src/smtc_real.c **** #endif
 231:lr1mac/src/smtc_real/src/smtc_real.c **** #if defined( REGION_EU_868 )
 232:lr1mac/src/smtc_real/src/smtc_real.c ****     case SMTC_REAL_REGION_EU_868: {
 233:lr1mac/src/smtc_real/src/smtc_real.c ****         return region_eu_868_max_payload_size_get( dr );
 234:lr1mac/src/smtc_real/src/smtc_real.c ****     }
 235:lr1mac/src/smtc_real/src/smtc_real.c **** #endif
 236:lr1mac/src/smtc_real/src/smtc_real.c **** #if defined( REGION_US_915 )
 237:lr1mac/src/smtc_real/src/smtc_real.c ****     case SMTC_REAL_REGION_US_915: {
 238:lr1mac/src/smtc_real/src/smtc_real.c ****         return region_us_915_max_payload_size_get( dr );
 239:lr1mac/src/smtc_real/src/smtc_real.c ****     }
 240:lr1mac/src/smtc_real/src/smtc_real.c **** #endif
 241:lr1mac/src/smtc_real/src/smtc_real.c ****     default:
 242:lr1mac/src/smtc_real/src/smtc_real.c ****         BSP_DBG_TRACE_ERROR( "%s unsupported\n", __func__ );
 243:lr1mac/src/smtc_real/src/smtc_real.c ****         bsp_mcu_handle_lr1mac_issue( );
 244:lr1mac/src/smtc_real/src/smtc_real.c ****         break;
 245:lr1mac/src/smtc_real/src/smtc_real.c ****     }
 246:lr1mac/src/smtc_real/src/smtc_real.c ****     return 0;  // never reach => avoid warning
 247:lr1mac/src/smtc_real/src/smtc_real.c **** }
 513              		.loc 1 247 1 view .LVU118
 514              		@ sp needed
 515 0010 10BD     		pop	{r4, pc}
 516              	.LVL57:
 517              	.L32:
 242:lr1mac/src/smtc_real/src/smtc_real.c ****         bsp_mcu_handle_lr1mac_issue( );
 518              		.loc 1 242 9 is_stmt 1 view .LVU119
 242:lr1mac/src/smtc_real/src/smtc_real.c ****         bsp_mcu_handle_lr1mac_issue( );
 519              		.loc 1 242 9 view .LVU120
 520 0012 0848     		ldr	r0, .L34
 521              	.LVL58:
 242:lr1mac/src/smtc_real/src/smtc_real.c ****         bsp_mcu_handle_lr1mac_issue( );
 522              		.loc 1 242 9 is_stmt 0 view .LVU121
 523 0014 FFF7FEFF 		bl	bsp_trace_print
 524              	.LVL59:
 242:lr1mac/src/smtc_real/src/smtc_real.c ****         bsp_mcu_handle_lr1mac_issue( );
 525              		.loc 1 242 9 is_stmt 1 view .LVU122
 526 0018 0748     		ldr	r0, .L34+4
 527 001a FFF7FEFF 		bl	bsp_trace_print
 528              	.LVL60:
 242:lr1mac/src/smtc_real/src/smtc_real.c ****         bsp_mcu_handle_lr1mac_issue( );
 529              		.loc 1 242 9 view .LVU123
 530 001e 0749     		ldr	r1, .L34+8
 531 0020 0748     		ldr	r0, .L34+12
 532 0022 FFF7FEFF 		bl	bsp_trace_print
 533              	.LVL61:
 242:lr1mac/src/smtc_real/src/smtc_real.c ****         bsp_mcu_handle_lr1mac_issue( );
 534              		.loc 1 242 9 view .LVU124
 535 0026 0748     		ldr	r0, .L34+16
 536 0028 FFF7FEFF 		bl	bsp_trace_print
 537              	.LVL62:
 242:lr1mac/src/smtc_real/src/smtc_real.c ****         bsp_mcu_handle_lr1mac_issue( );
 538              		.loc 1 242 9 view .LVU125
 242:lr1mac/src/smtc_real/src/smtc_real.c ****         bsp_mcu_handle_lr1mac_issue( );
ARM GAS  /var/folders/bq/yv49bw8j2kd6w3hsq868qv180000gn/T//ccRnzw9B.s 			page 16


 539              		.loc 1 242 60 view .LVU126
 243:lr1mac/src/smtc_real/src/smtc_real.c ****         break;
 540              		.loc 1 243 9 view .LVU127
 541 002c FFF7FEFF 		bl	bsp_mcu_handle_lr1mac_issue
 542              	.LVL63:
 244:lr1mac/src/smtc_real/src/smtc_real.c ****     }
 543              		.loc 1 244 9 view .LVU128
 246:lr1mac/src/smtc_real/src/smtc_real.c **** }
 544              		.loc 1 246 5 view .LVU129
 246:lr1mac/src/smtc_real/src/smtc_real.c **** }
 545              		.loc 1 246 12 is_stmt 0 view .LVU130
 546 0030 0020     		movs	r0, #0
 547 0032 EDE7     		b	.L33
 548              	.L35:
 549              		.align	2
 550              	.L34:
 551 0034 00000000 		.word	.LC0
 552 0038 08000000 		.word	.LC2
 553 003c 00000000 		.word	.LANCHOR6
 554 0040 10000000 		.word	.LC5
 555 0044 20000000 		.word	.LC7
 556              		.cfi_endproc
 557              	.LFE15:
 559              		.section	.text.smtc_real_decode_freq_from_buf,"ax",%progbits
 560              		.align	1
 561              		.global	smtc_real_decode_freq_from_buf
 562              		.syntax unified
 563              		.code	16
 564              		.thumb_func
 565              		.fpu softvfp
 567              	smtc_real_decode_freq_from_buf:
 568              	.LVL64:
 569              	.LFB16:
 248:lr1mac/src/smtc_real/src/smtc_real.c **** 
 249:lr1mac/src/smtc_real/src/smtc_real.c **** uint32_t smtc_real_decode_freq_from_buf( lr1_stack_mac_t* lr1_mac, uint8_t freq_buf[3] )
 250:lr1mac/src/smtc_real/src/smtc_real.c **** {
 570              		.loc 1 250 1 is_stmt 1 view -0
 571              		.cfi_startproc
 572              		@ args = 0, pretend = 0, frame = 0
 573              		@ frame_needed = 0, uses_anonymous_args = 0
 251:lr1mac/src/smtc_real/src/smtc_real.c ****     switch( lr1_mac->real->region_type )
 574              		.loc 1 251 5 view .LVU132
 250:lr1mac/src/smtc_real/src/smtc_real.c ****     switch( lr1_mac->real->region_type )
 575              		.loc 1 250 1 is_stmt 0 view .LVU133
 576 0000 10B5     		push	{r4, lr}
 577              		.cfi_def_cfa_offset 8
 578              		.cfi_offset 4, -8
 579              		.cfi_offset 14, -4
 580              		.loc 1 251 26 view .LVU134
 581 0002 0368     		ldr	r3, [r0]
 582              		.loc 1 251 5 view .LVU135
 583 0004 1B79     		ldrb	r3, [r3, #4]
 584 0006 062B     		cmp	r3, #6
 585 0008 03D1     		bne	.L37
 252:lr1mac/src/smtc_real/src/smtc_real.c ****     {
 253:lr1mac/src/smtc_real/src/smtc_real.c **** #if defined( REGION_WW2G4 )
 254:lr1mac/src/smtc_real/src/smtc_real.c ****     case SMTC_REAL_REGION_WW2G4: {
ARM GAS  /var/folders/bq/yv49bw8j2kd6w3hsq868qv180000gn/T//ccRnzw9B.s 			page 17


 255:lr1mac/src/smtc_real/src/smtc_real.c ****         return region_ww2g4_decode_freq_from_buf( freq_buf );
 586              		.loc 1 255 9 is_stmt 1 view .LVU136
 587              		.loc 1 255 16 is_stmt 0 view .LVU137
 588 000a 0800     		movs	r0, r1
 589              	.LVL65:
 590              		.loc 1 255 16 view .LVU138
 591 000c FFF7FEFF 		bl	region_ww2g4_decode_freq_from_buf
 592              	.LVL66:
 593              	.L36:
 256:lr1mac/src/smtc_real/src/smtc_real.c ****     }
 257:lr1mac/src/smtc_real/src/smtc_real.c **** #endif
 258:lr1mac/src/smtc_real/src/smtc_real.c **** #if defined( REGION_EU_868 )
 259:lr1mac/src/smtc_real/src/smtc_real.c ****     case SMTC_REAL_REGION_EU_868: {
 260:lr1mac/src/smtc_real/src/smtc_real.c ****         return region_eu_868_decode_freq_from_buf( freq_buf );
 261:lr1mac/src/smtc_real/src/smtc_real.c ****     }
 262:lr1mac/src/smtc_real/src/smtc_real.c **** #endif
 263:lr1mac/src/smtc_real/src/smtc_real.c **** #if defined( REGION_US_915 )
 264:lr1mac/src/smtc_real/src/smtc_real.c ****     case SMTC_REAL_REGION_US_915: {
 265:lr1mac/src/smtc_real/src/smtc_real.c ****         return region_us_915_decode_freq_from_buf( freq_buf );
 266:lr1mac/src/smtc_real/src/smtc_real.c ****     }
 267:lr1mac/src/smtc_real/src/smtc_real.c **** #endif
 268:lr1mac/src/smtc_real/src/smtc_real.c ****     default:
 269:lr1mac/src/smtc_real/src/smtc_real.c ****         BSP_DBG_TRACE_ERROR( "%s unsupported\n", __func__ );
 270:lr1mac/src/smtc_real/src/smtc_real.c ****         bsp_mcu_handle_lr1mac_issue( );
 271:lr1mac/src/smtc_real/src/smtc_real.c ****         break;
 272:lr1mac/src/smtc_real/src/smtc_real.c ****     }
 273:lr1mac/src/smtc_real/src/smtc_real.c ****     return 0;  // never reach => avoid warning
 274:lr1mac/src/smtc_real/src/smtc_real.c **** }
 594              		.loc 1 274 1 view .LVU139
 595              		@ sp needed
 596 0010 10BD     		pop	{r4, pc}
 597              	.LVL67:
 598              	.L37:
 269:lr1mac/src/smtc_real/src/smtc_real.c ****         bsp_mcu_handle_lr1mac_issue( );
 599              		.loc 1 269 9 is_stmt 1 view .LVU140
 269:lr1mac/src/smtc_real/src/smtc_real.c ****         bsp_mcu_handle_lr1mac_issue( );
 600              		.loc 1 269 9 view .LVU141
 601 0012 0848     		ldr	r0, .L39
 602              	.LVL68:
 269:lr1mac/src/smtc_real/src/smtc_real.c ****         bsp_mcu_handle_lr1mac_issue( );
 603              		.loc 1 269 9 is_stmt 0 view .LVU142
 604 0014 FFF7FEFF 		bl	bsp_trace_print
 605              	.LVL69:
 269:lr1mac/src/smtc_real/src/smtc_real.c ****         bsp_mcu_handle_lr1mac_issue( );
 606              		.loc 1 269 9 is_stmt 1 view .LVU143
 607 0018 0748     		ldr	r0, .L39+4
 608 001a FFF7FEFF 		bl	bsp_trace_print
 609              	.LVL70:
 269:lr1mac/src/smtc_real/src/smtc_real.c ****         bsp_mcu_handle_lr1mac_issue( );
 610              		.loc 1 269 9 view .LVU144
 611 001e 0749     		ldr	r1, .L39+8
 612 0020 0748     		ldr	r0, .L39+12
 613 0022 FFF7FEFF 		bl	bsp_trace_print
 614              	.LVL71:
 269:lr1mac/src/smtc_real/src/smtc_real.c ****         bsp_mcu_handle_lr1mac_issue( );
 615              		.loc 1 269 9 view .LVU145
 616 0026 0748     		ldr	r0, .L39+16
ARM GAS  /var/folders/bq/yv49bw8j2kd6w3hsq868qv180000gn/T//ccRnzw9B.s 			page 18


 617 0028 FFF7FEFF 		bl	bsp_trace_print
 618              	.LVL72:
 269:lr1mac/src/smtc_real/src/smtc_real.c ****         bsp_mcu_handle_lr1mac_issue( );
 619              		.loc 1 269 9 view .LVU146
 269:lr1mac/src/smtc_real/src/smtc_real.c ****         bsp_mcu_handle_lr1mac_issue( );
 620              		.loc 1 269 60 view .LVU147
 270:lr1mac/src/smtc_real/src/smtc_real.c ****         break;
 621              		.loc 1 270 9 view .LVU148
 622 002c FFF7FEFF 		bl	bsp_mcu_handle_lr1mac_issue
 623              	.LVL73:
 271:lr1mac/src/smtc_real/src/smtc_real.c ****     }
 624              		.loc 1 271 9 view .LVU149
 273:lr1mac/src/smtc_real/src/smtc_real.c **** }
 625              		.loc 1 273 5 view .LVU150
 273:lr1mac/src/smtc_real/src/smtc_real.c **** }
 626              		.loc 1 273 12 is_stmt 0 view .LVU151
 627 0030 0020     		movs	r0, #0
 628 0032 EDE7     		b	.L36
 629              	.L40:
 630              		.align	2
 631              	.L39:
 632 0034 00000000 		.word	.LC0
 633 0038 08000000 		.word	.LC2
 634 003c 00000000 		.word	.LANCHOR7
 635 0040 10000000 		.word	.LC5
 636 0044 20000000 		.word	.LC7
 637              		.cfi_endproc
 638              	.LFE16:
 640              		.section	.text.smtc_real_cflist_get,"ax",%progbits
 641              		.align	1
 642              		.global	smtc_real_cflist_get
 643              		.syntax unified
 644              		.code	16
 645              		.thumb_func
 646              		.fpu softvfp
 648              	smtc_real_cflist_get:
 649              	.LVL74:
 650              	.LFB17:
 275:lr1mac/src/smtc_real/src/smtc_real.c **** 
 276:lr1mac/src/smtc_real/src/smtc_real.c **** void smtc_real_cflist_get( lr1_stack_mac_t* lr1_mac )
 277:lr1mac/src/smtc_real/src/smtc_real.c **** {
 651              		.loc 1 277 1 is_stmt 1 view -0
 652              		.cfi_startproc
 653              		@ args = 0, pretend = 0, frame = 0
 654              		@ frame_needed = 0, uses_anonymous_args = 0
 278:lr1mac/src/smtc_real/src/smtc_real.c ****     switch( lr1_mac->real->region_type )
 655              		.loc 1 278 5 view .LVU153
 277:lr1mac/src/smtc_real/src/smtc_real.c ****     switch( lr1_mac->real->region_type )
 656              		.loc 1 277 1 is_stmt 0 view .LVU154
 657 0000 10B5     		push	{r4, lr}
 658              		.cfi_def_cfa_offset 8
 659              		.cfi_offset 4, -8
 660              		.cfi_offset 14, -4
 661              		.loc 1 278 5 view .LVU155
 662 0002 0368     		ldr	r3, [r0]
 663 0004 1B79     		ldrb	r3, [r3, #4]
 664 0006 062B     		cmp	r3, #6
ARM GAS  /var/folders/bq/yv49bw8j2kd6w3hsq868qv180000gn/T//ccRnzw9B.s 			page 19


 665 0008 02D1     		bne	.L42
 279:lr1mac/src/smtc_real/src/smtc_real.c ****     {
 280:lr1mac/src/smtc_real/src/smtc_real.c **** #if defined( REGION_WW2G4 )
 281:lr1mac/src/smtc_real/src/smtc_real.c ****     case SMTC_REAL_REGION_WW2G4: {
 282:lr1mac/src/smtc_real/src/smtc_real.c ****         region_ww2g4_cflist_get( lr1_mac );
 666              		.loc 1 282 9 is_stmt 1 view .LVU156
 667 000a FFF7FEFF 		bl	region_ww2g4_cflist_get
 668              	.LVL75:
 283:lr1mac/src/smtc_real/src/smtc_real.c ****         break;
 669              		.loc 1 283 9 view .LVU157
 670              	.L41:
 284:lr1mac/src/smtc_real/src/smtc_real.c ****     }
 285:lr1mac/src/smtc_real/src/smtc_real.c **** #endif
 286:lr1mac/src/smtc_real/src/smtc_real.c **** #if defined( REGION_EU_868 )
 287:lr1mac/src/smtc_real/src/smtc_real.c ****     case SMTC_REAL_REGION_EU_868: {
 288:lr1mac/src/smtc_real/src/smtc_real.c ****         region_eu_868_cflist_get( lr1_mac );
 289:lr1mac/src/smtc_real/src/smtc_real.c ****         break;
 290:lr1mac/src/smtc_real/src/smtc_real.c ****     }
 291:lr1mac/src/smtc_real/src/smtc_real.c **** #endif
 292:lr1mac/src/smtc_real/src/smtc_real.c **** #if defined( REGION_US_915 )
 293:lr1mac/src/smtc_real/src/smtc_real.c ****     case SMTC_REAL_REGION_US_915: {
 294:lr1mac/src/smtc_real/src/smtc_real.c ****         region_us_915_cflist_get( lr1_mac );
 295:lr1mac/src/smtc_real/src/smtc_real.c ****         break;
 296:lr1mac/src/smtc_real/src/smtc_real.c ****     }
 297:lr1mac/src/smtc_real/src/smtc_real.c **** #endif
 298:lr1mac/src/smtc_real/src/smtc_real.c ****     default:
 299:lr1mac/src/smtc_real/src/smtc_real.c ****         BSP_DBG_TRACE_ERROR( "%s unsupported\n", __func__ );
 300:lr1mac/src/smtc_real/src/smtc_real.c ****         bsp_mcu_handle_lr1mac_issue( );
 301:lr1mac/src/smtc_real/src/smtc_real.c ****         break;
 302:lr1mac/src/smtc_real/src/smtc_real.c ****     }
 303:lr1mac/src/smtc_real/src/smtc_real.c **** }
 671              		.loc 1 303 1 is_stmt 0 view .LVU158
 672              		@ sp needed
 673 000e 10BD     		pop	{r4, pc}
 674              	.LVL76:
 675              	.L42:
 299:lr1mac/src/smtc_real/src/smtc_real.c ****         bsp_mcu_handle_lr1mac_issue( );
 676              		.loc 1 299 9 is_stmt 1 view .LVU159
 299:lr1mac/src/smtc_real/src/smtc_real.c ****         bsp_mcu_handle_lr1mac_issue( );
 677              		.loc 1 299 9 view .LVU160
 678 0010 0748     		ldr	r0, .L44
 679              	.LVL77:
 299:lr1mac/src/smtc_real/src/smtc_real.c ****         bsp_mcu_handle_lr1mac_issue( );
 680              		.loc 1 299 9 is_stmt 0 view .LVU161
 681 0012 FFF7FEFF 		bl	bsp_trace_print
 682              	.LVL78:
 299:lr1mac/src/smtc_real/src/smtc_real.c ****         bsp_mcu_handle_lr1mac_issue( );
 683              		.loc 1 299 9 is_stmt 1 view .LVU162
 684 0016 0748     		ldr	r0, .L44+4
 685 0018 FFF7FEFF 		bl	bsp_trace_print
 686              	.LVL79:
 299:lr1mac/src/smtc_real/src/smtc_real.c ****         bsp_mcu_handle_lr1mac_issue( );
 687              		.loc 1 299 9 view .LVU163
 688 001c 0649     		ldr	r1, .L44+8
 689 001e 0748     		ldr	r0, .L44+12
 690 0020 FFF7FEFF 		bl	bsp_trace_print
 691              	.LVL80:
ARM GAS  /var/folders/bq/yv49bw8j2kd6w3hsq868qv180000gn/T//ccRnzw9B.s 			page 20


 299:lr1mac/src/smtc_real/src/smtc_real.c ****         bsp_mcu_handle_lr1mac_issue( );
 692              		.loc 1 299 9 view .LVU164
 693 0024 0648     		ldr	r0, .L44+16
 694 0026 FFF7FEFF 		bl	bsp_trace_print
 695              	.LVL81:
 299:lr1mac/src/smtc_real/src/smtc_real.c ****         bsp_mcu_handle_lr1mac_issue( );
 696              		.loc 1 299 9 view .LVU165
 299:lr1mac/src/smtc_real/src/smtc_real.c ****         bsp_mcu_handle_lr1mac_issue( );
 697              		.loc 1 299 60 view .LVU166
 300:lr1mac/src/smtc_real/src/smtc_real.c ****         break;
 698              		.loc 1 300 9 view .LVU167
 699 002a FFF7FEFF 		bl	bsp_mcu_handle_lr1mac_issue
 700              	.LVL82:
 301:lr1mac/src/smtc_real/src/smtc_real.c ****     }
 701              		.loc 1 301 9 view .LVU168
 702              		.loc 1 303 1 is_stmt 0 view .LVU169
 703 002e EEE7     		b	.L41
 704              	.L45:
 705              		.align	2
 706              	.L44:
 707 0030 00000000 		.word	.LC0
 708 0034 08000000 		.word	.LC2
 709 0038 00000000 		.word	.LANCHOR8
 710 003c 10000000 		.word	.LC5
 711 0040 20000000 		.word	.LC7
 712              		.cfi_endproc
 713              	.LFE17:
 715              		.section	.text.smtc_real_next_channel_get,"ax",%progbits
 716              		.align	1
 717              		.global	smtc_real_next_channel_get
 718              		.syntax unified
 719              		.code	16
 720              		.thumb_func
 721              		.fpu softvfp
 723              	smtc_real_next_channel_get:
 724              	.LVL83:
 725              	.LFB18:
 304:lr1mac/src/smtc_real/src/smtc_real.c **** 
 305:lr1mac/src/smtc_real/src/smtc_real.c **** status_lorawan_t smtc_real_next_channel_get( lr1_stack_mac_t* lr1_mac )
 306:lr1mac/src/smtc_real/src/smtc_real.c **** {
 726              		.loc 1 306 1 is_stmt 1 view -0
 727              		.cfi_startproc
 728              		@ args = 0, pretend = 0, frame = 0
 729              		@ frame_needed = 0, uses_anonymous_args = 0
 307:lr1mac/src/smtc_real/src/smtc_real.c ****     switch( lr1_mac->real->region_type )
 730              		.loc 1 307 5 view .LVU171
 306:lr1mac/src/smtc_real/src/smtc_real.c ****     switch( lr1_mac->real->region_type )
 731              		.loc 1 306 1 is_stmt 0 view .LVU172
 732 0000 10B5     		push	{r4, lr}
 733              		.cfi_def_cfa_offset 8
 734              		.cfi_offset 4, -8
 735              		.cfi_offset 14, -4
 736              		.loc 1 307 5 view .LVU173
 737 0002 0368     		ldr	r3, [r0]
 738 0004 1B79     		ldrb	r3, [r3, #4]
 739 0006 062B     		cmp	r3, #6
 740 0008 02D1     		bne	.L47
ARM GAS  /var/folders/bq/yv49bw8j2kd6w3hsq868qv180000gn/T//ccRnzw9B.s 			page 21


 308:lr1mac/src/smtc_real/src/smtc_real.c ****     {
 309:lr1mac/src/smtc_real/src/smtc_real.c **** #if defined( REGION_WW2G4 )
 310:lr1mac/src/smtc_real/src/smtc_real.c ****     case SMTC_REAL_REGION_WW2G4: {
 311:lr1mac/src/smtc_real/src/smtc_real.c ****         return region_ww2g4_next_channel_get( lr1_mac );
 741              		.loc 1 311 9 is_stmt 1 view .LVU174
 742              		.loc 1 311 16 is_stmt 0 view .LVU175
 743 000a FFF7FEFF 		bl	region_ww2g4_next_channel_get
 744              	.LVL84:
 745              	.L48:
 312:lr1mac/src/smtc_real/src/smtc_real.c ****     }
 313:lr1mac/src/smtc_real/src/smtc_real.c **** #endif
 314:lr1mac/src/smtc_real/src/smtc_real.c **** #if defined( REGION_EU_868 )
 315:lr1mac/src/smtc_real/src/smtc_real.c ****     case SMTC_REAL_REGION_EU_868: {
 316:lr1mac/src/smtc_real/src/smtc_real.c ****         return region_eu_868_next_channel_get( lr1_mac );
 317:lr1mac/src/smtc_real/src/smtc_real.c ****     }
 318:lr1mac/src/smtc_real/src/smtc_real.c **** #endif
 319:lr1mac/src/smtc_real/src/smtc_real.c **** #if defined( REGION_US_915 )
 320:lr1mac/src/smtc_real/src/smtc_real.c ****     case SMTC_REAL_REGION_US_915: {
 321:lr1mac/src/smtc_real/src/smtc_real.c ****         return region_us_915_next_channel_get( lr1_mac );
 322:lr1mac/src/smtc_real/src/smtc_real.c ****     }
 323:lr1mac/src/smtc_real/src/smtc_real.c **** #endif
 324:lr1mac/src/smtc_real/src/smtc_real.c ****     default:
 325:lr1mac/src/smtc_real/src/smtc_real.c ****         BSP_DBG_TRACE_ERROR( "%s unsupported\n", __func__ );
 326:lr1mac/src/smtc_real/src/smtc_real.c ****         bsp_mcu_handle_lr1mac_issue( );
 327:lr1mac/src/smtc_real/src/smtc_real.c ****         break;
 328:lr1mac/src/smtc_real/src/smtc_real.c ****     }
 329:lr1mac/src/smtc_real/src/smtc_real.c ****     return ERRORLORAWAN;  // never reach => avoid warning
 330:lr1mac/src/smtc_real/src/smtc_real.c **** }
 746              		.loc 1 330 1 view .LVU176
 747              		@ sp needed
 748 000e 10BD     		pop	{r4, pc}
 749              	.LVL85:
 750              	.L47:
 325:lr1mac/src/smtc_real/src/smtc_real.c ****         bsp_mcu_handle_lr1mac_issue( );
 751              		.loc 1 325 9 is_stmt 1 view .LVU177
 325:lr1mac/src/smtc_real/src/smtc_real.c ****         bsp_mcu_handle_lr1mac_issue( );
 752              		.loc 1 325 9 view .LVU178
 753 0010 0848     		ldr	r0, .L49
 754              	.LVL86:
 325:lr1mac/src/smtc_real/src/smtc_real.c ****         bsp_mcu_handle_lr1mac_issue( );
 755              		.loc 1 325 9 is_stmt 0 view .LVU179
 756 0012 FFF7FEFF 		bl	bsp_trace_print
 757              	.LVL87:
 325:lr1mac/src/smtc_real/src/smtc_real.c ****         bsp_mcu_handle_lr1mac_issue( );
 758              		.loc 1 325 9 is_stmt 1 view .LVU180
 759 0016 0848     		ldr	r0, .L49+4
 760 0018 FFF7FEFF 		bl	bsp_trace_print
 761              	.LVL88:
 325:lr1mac/src/smtc_real/src/smtc_real.c ****         bsp_mcu_handle_lr1mac_issue( );
 762              		.loc 1 325 9 view .LVU181
 763 001c 0749     		ldr	r1, .L49+8
 764 001e 0848     		ldr	r0, .L49+12
 765 0020 FFF7FEFF 		bl	bsp_trace_print
 766              	.LVL89:
 325:lr1mac/src/smtc_real/src/smtc_real.c ****         bsp_mcu_handle_lr1mac_issue( );
 767              		.loc 1 325 9 view .LVU182
 768 0024 0748     		ldr	r0, .L49+16
ARM GAS  /var/folders/bq/yv49bw8j2kd6w3hsq868qv180000gn/T//ccRnzw9B.s 			page 22


 769 0026 FFF7FEFF 		bl	bsp_trace_print
 770              	.LVL90:
 325:lr1mac/src/smtc_real/src/smtc_real.c ****         bsp_mcu_handle_lr1mac_issue( );
 771              		.loc 1 325 9 view .LVU183
 325:lr1mac/src/smtc_real/src/smtc_real.c ****         bsp_mcu_handle_lr1mac_issue( );
 772              		.loc 1 325 60 view .LVU184
 326:lr1mac/src/smtc_real/src/smtc_real.c ****         break;
 773              		.loc 1 326 9 view .LVU185
 774 002a FFF7FEFF 		bl	bsp_mcu_handle_lr1mac_issue
 775              	.LVL91:
 327:lr1mac/src/smtc_real/src/smtc_real.c ****     }
 776              		.loc 1 327 9 view .LVU186
 329:lr1mac/src/smtc_real/src/smtc_real.c **** }
 777              		.loc 1 329 5 view .LVU187
 329:lr1mac/src/smtc_real/src/smtc_real.c **** }
 778              		.loc 1 329 12 is_stmt 0 view .LVU188
 779 002e 0120     		movs	r0, #1
 780 0030 4042     		rsbs	r0, r0, #0
 781 0032 ECE7     		b	.L48
 782              	.L50:
 783              		.align	2
 784              	.L49:
 785 0034 00000000 		.word	.LC0
 786 0038 08000000 		.word	.LC2
 787 003c 00000000 		.word	.LANCHOR9
 788 0040 10000000 		.word	.LC5
 789 0044 20000000 		.word	.LC7
 790              		.cfi_endproc
 791              	.LFE18:
 793              		.section	.text.smtc_real_join_next_channel_get,"ax",%progbits
 794              		.align	1
 795              		.global	smtc_real_join_next_channel_get
 796              		.syntax unified
 797              		.code	16
 798              		.thumb_func
 799              		.fpu softvfp
 801              	smtc_real_join_next_channel_get:
 802              	.LVL92:
 803              	.LFB19:
 331:lr1mac/src/smtc_real/src/smtc_real.c **** 
 332:lr1mac/src/smtc_real/src/smtc_real.c **** status_lorawan_t smtc_real_join_next_channel_get( lr1_stack_mac_t* lr1_mac )
 333:lr1mac/src/smtc_real/src/smtc_real.c **** {
 804              		.loc 1 333 1 is_stmt 1 view -0
 805              		.cfi_startproc
 806              		@ args = 0, pretend = 0, frame = 0
 807              		@ frame_needed = 0, uses_anonymous_args = 0
 334:lr1mac/src/smtc_real/src/smtc_real.c ****     switch( lr1_mac->real->region_type )
 808              		.loc 1 334 5 view .LVU190
 333:lr1mac/src/smtc_real/src/smtc_real.c ****     switch( lr1_mac->real->region_type )
 809              		.loc 1 333 1 is_stmt 0 view .LVU191
 810 0000 10B5     		push	{r4, lr}
 811              		.cfi_def_cfa_offset 8
 812              		.cfi_offset 4, -8
 813              		.cfi_offset 14, -4
 814              		.loc 1 334 5 view .LVU192
 815 0002 0368     		ldr	r3, [r0]
 816 0004 1B79     		ldrb	r3, [r3, #4]
ARM GAS  /var/folders/bq/yv49bw8j2kd6w3hsq868qv180000gn/T//ccRnzw9B.s 			page 23


 817 0006 062B     		cmp	r3, #6
 818 0008 02D1     		bne	.L52
 335:lr1mac/src/smtc_real/src/smtc_real.c ****     {
 336:lr1mac/src/smtc_real/src/smtc_real.c **** #if defined( REGION_WW2G4 )
 337:lr1mac/src/smtc_real/src/smtc_real.c ****     case SMTC_REAL_REGION_WW2G4: {
 338:lr1mac/src/smtc_real/src/smtc_real.c ****         return region_ww2g4_join_next_channel_get( lr1_mac );
 819              		.loc 1 338 9 is_stmt 1 view .LVU193
 820              		.loc 1 338 16 is_stmt 0 view .LVU194
 821 000a FFF7FEFF 		bl	region_ww2g4_join_next_channel_get
 822              	.LVL93:
 823              	.L53:
 339:lr1mac/src/smtc_real/src/smtc_real.c ****     }
 340:lr1mac/src/smtc_real/src/smtc_real.c **** #endif
 341:lr1mac/src/smtc_real/src/smtc_real.c **** #if defined( REGION_EU_868 )
 342:lr1mac/src/smtc_real/src/smtc_real.c ****     case SMTC_REAL_REGION_EU_868: {
 343:lr1mac/src/smtc_real/src/smtc_real.c ****         return region_eu_868_join_next_channel_get( lr1_mac );
 344:lr1mac/src/smtc_real/src/smtc_real.c ****     }
 345:lr1mac/src/smtc_real/src/smtc_real.c **** #endif
 346:lr1mac/src/smtc_real/src/smtc_real.c **** #if defined( REGION_US_915 )
 347:lr1mac/src/smtc_real/src/smtc_real.c ****     case SMTC_REAL_REGION_US_915: {
 348:lr1mac/src/smtc_real/src/smtc_real.c ****         return region_us_915_join_next_channel_get( lr1_mac );
 349:lr1mac/src/smtc_real/src/smtc_real.c ****     }
 350:lr1mac/src/smtc_real/src/smtc_real.c **** #endif
 351:lr1mac/src/smtc_real/src/smtc_real.c ****     default:
 352:lr1mac/src/smtc_real/src/smtc_real.c ****         BSP_DBG_TRACE_ERROR( "%s unsupported\n", __func__ );
 353:lr1mac/src/smtc_real/src/smtc_real.c ****         bsp_mcu_handle_lr1mac_issue( );
 354:lr1mac/src/smtc_real/src/smtc_real.c ****         break;
 355:lr1mac/src/smtc_real/src/smtc_real.c ****     }
 356:lr1mac/src/smtc_real/src/smtc_real.c ****     return ERRORLORAWAN;  // never reach => avoid warning
 357:lr1mac/src/smtc_real/src/smtc_real.c **** }
 824              		.loc 1 357 1 view .LVU195
 825              		@ sp needed
 826 000e 10BD     		pop	{r4, pc}
 827              	.LVL94:
 828              	.L52:
 352:lr1mac/src/smtc_real/src/smtc_real.c ****         bsp_mcu_handle_lr1mac_issue( );
 829              		.loc 1 352 9 is_stmt 1 view .LVU196
 352:lr1mac/src/smtc_real/src/smtc_real.c ****         bsp_mcu_handle_lr1mac_issue( );
 830              		.loc 1 352 9 view .LVU197
 831 0010 0848     		ldr	r0, .L54
 832              	.LVL95:
 352:lr1mac/src/smtc_real/src/smtc_real.c ****         bsp_mcu_handle_lr1mac_issue( );
 833              		.loc 1 352 9 is_stmt 0 view .LVU198
 834 0012 FFF7FEFF 		bl	bsp_trace_print
 835              	.LVL96:
 352:lr1mac/src/smtc_real/src/smtc_real.c ****         bsp_mcu_handle_lr1mac_issue( );
 836              		.loc 1 352 9 is_stmt 1 view .LVU199
 837 0016 0848     		ldr	r0, .L54+4
 838 0018 FFF7FEFF 		bl	bsp_trace_print
 839              	.LVL97:
 352:lr1mac/src/smtc_real/src/smtc_real.c ****         bsp_mcu_handle_lr1mac_issue( );
 840              		.loc 1 352 9 view .LVU200
 841 001c 0749     		ldr	r1, .L54+8
 842 001e 0848     		ldr	r0, .L54+12
 843 0020 FFF7FEFF 		bl	bsp_trace_print
 844              	.LVL98:
 352:lr1mac/src/smtc_real/src/smtc_real.c ****         bsp_mcu_handle_lr1mac_issue( );
ARM GAS  /var/folders/bq/yv49bw8j2kd6w3hsq868qv180000gn/T//ccRnzw9B.s 			page 24


 845              		.loc 1 352 9 view .LVU201
 846 0024 0748     		ldr	r0, .L54+16
 847 0026 FFF7FEFF 		bl	bsp_trace_print
 848              	.LVL99:
 352:lr1mac/src/smtc_real/src/smtc_real.c ****         bsp_mcu_handle_lr1mac_issue( );
 849              		.loc 1 352 9 view .LVU202
 352:lr1mac/src/smtc_real/src/smtc_real.c ****         bsp_mcu_handle_lr1mac_issue( );
 850              		.loc 1 352 60 view .LVU203
 353:lr1mac/src/smtc_real/src/smtc_real.c ****         break;
 851              		.loc 1 353 9 view .LVU204
 852 002a FFF7FEFF 		bl	bsp_mcu_handle_lr1mac_issue
 853              	.LVL100:
 354:lr1mac/src/smtc_real/src/smtc_real.c ****     }
 854              		.loc 1 354 9 view .LVU205
 356:lr1mac/src/smtc_real/src/smtc_real.c **** }
 855              		.loc 1 356 5 view .LVU206
 356:lr1mac/src/smtc_real/src/smtc_real.c **** }
 856              		.loc 1 356 12 is_stmt 0 view .LVU207
 857 002e 0120     		movs	r0, #1
 858 0030 4042     		rsbs	r0, r0, #0
 859 0032 ECE7     		b	.L53
 860              	.L55:
 861              		.align	2
 862              	.L54:
 863 0034 00000000 		.word	.LC0
 864 0038 08000000 		.word	.LC2
 865 003c 00000000 		.word	.LANCHOR10
 866 0040 10000000 		.word	.LC5
 867 0044 20000000 		.word	.LC7
 868              		.cfi_endproc
 869              	.LFE19:
 871              		.section	.text.smtc_real_rx_config_set,"ax",%progbits
 872              		.align	1
 873              		.global	smtc_real_rx_config_set
 874              		.syntax unified
 875              		.code	16
 876              		.thumb_func
 877              		.fpu softvfp
 879              	smtc_real_rx_config_set:
 880              	.LVL101:
 881              	.LFB20:
 358:lr1mac/src/smtc_real/src/smtc_real.c **** 
 359:lr1mac/src/smtc_real/src/smtc_real.c **** void smtc_real_rx_config_set( lr1_stack_mac_t* lr1_mac, rx_win_type_t type )
 360:lr1mac/src/smtc_real/src/smtc_real.c **** {
 882              		.loc 1 360 1 is_stmt 1 view -0
 883              		.cfi_startproc
 884              		@ args = 0, pretend = 0, frame = 0
 885              		@ frame_needed = 0, uses_anonymous_args = 0
 361:lr1mac/src/smtc_real/src/smtc_real.c ****     switch( lr1_mac->real->region_type )
 886              		.loc 1 361 5 view .LVU209
 360:lr1mac/src/smtc_real/src/smtc_real.c ****     switch( lr1_mac->real->region_type )
 887              		.loc 1 360 1 is_stmt 0 view .LVU210
 888 0000 10B5     		push	{r4, lr}
 889              		.cfi_def_cfa_offset 8
 890              		.cfi_offset 4, -8
 891              		.cfi_offset 14, -4
 892              		.loc 1 361 5 view .LVU211
ARM GAS  /var/folders/bq/yv49bw8j2kd6w3hsq868qv180000gn/T//ccRnzw9B.s 			page 25


 893 0002 0368     		ldr	r3, [r0]
 894 0004 1B79     		ldrb	r3, [r3, #4]
 895 0006 062B     		cmp	r3, #6
 896 0008 02D1     		bne	.L57
 362:lr1mac/src/smtc_real/src/smtc_real.c ****     {
 363:lr1mac/src/smtc_real/src/smtc_real.c **** #if defined( REGION_WW2G4 )
 364:lr1mac/src/smtc_real/src/smtc_real.c ****     case SMTC_REAL_REGION_WW2G4: {
 365:lr1mac/src/smtc_real/src/smtc_real.c ****         region_ww2g4_rx_config_set( lr1_mac, type );
 897              		.loc 1 365 9 is_stmt 1 view .LVU212
 898 000a FFF7FEFF 		bl	region_ww2g4_rx_config_set
 899              	.LVL102:
 366:lr1mac/src/smtc_real/src/smtc_real.c ****         break;
 900              		.loc 1 366 9 view .LVU213
 901              	.L56:
 367:lr1mac/src/smtc_real/src/smtc_real.c ****     }
 368:lr1mac/src/smtc_real/src/smtc_real.c **** #endif
 369:lr1mac/src/smtc_real/src/smtc_real.c **** #if defined( REGION_EU_868 )
 370:lr1mac/src/smtc_real/src/smtc_real.c ****     case SMTC_REAL_REGION_EU_868: {
 371:lr1mac/src/smtc_real/src/smtc_real.c ****         region_eu_868_rx_config_set( lr1_mac, type );
 372:lr1mac/src/smtc_real/src/smtc_real.c ****         break;
 373:lr1mac/src/smtc_real/src/smtc_real.c ****     }
 374:lr1mac/src/smtc_real/src/smtc_real.c **** #endif
 375:lr1mac/src/smtc_real/src/smtc_real.c **** #if defined( REGION_US_915 )
 376:lr1mac/src/smtc_real/src/smtc_real.c ****     case SMTC_REAL_REGION_US_915: {
 377:lr1mac/src/smtc_real/src/smtc_real.c ****         region_us_915_rx_config_set( lr1_mac, type );
 378:lr1mac/src/smtc_real/src/smtc_real.c ****         break;
 379:lr1mac/src/smtc_real/src/smtc_real.c ****     }
 380:lr1mac/src/smtc_real/src/smtc_real.c **** #endif
 381:lr1mac/src/smtc_real/src/smtc_real.c ****     default:
 382:lr1mac/src/smtc_real/src/smtc_real.c ****         BSP_DBG_TRACE_ERROR( "%s unsupported\n", __func__ );
 383:lr1mac/src/smtc_real/src/smtc_real.c ****         bsp_mcu_handle_lr1mac_issue( );
 384:lr1mac/src/smtc_real/src/smtc_real.c ****         break;
 385:lr1mac/src/smtc_real/src/smtc_real.c ****     }
 386:lr1mac/src/smtc_real/src/smtc_real.c **** }
 902              		.loc 1 386 1 is_stmt 0 view .LVU214
 903              		@ sp needed
 904 000e 10BD     		pop	{r4, pc}
 905              	.LVL103:
 906              	.L57:
 382:lr1mac/src/smtc_real/src/smtc_real.c ****         bsp_mcu_handle_lr1mac_issue( );
 907              		.loc 1 382 9 is_stmt 1 view .LVU215
 382:lr1mac/src/smtc_real/src/smtc_real.c ****         bsp_mcu_handle_lr1mac_issue( );
 908              		.loc 1 382 9 view .LVU216
 909 0010 0748     		ldr	r0, .L59
 910              	.LVL104:
 382:lr1mac/src/smtc_real/src/smtc_real.c ****         bsp_mcu_handle_lr1mac_issue( );
 911              		.loc 1 382 9 is_stmt 0 view .LVU217
 912 0012 FFF7FEFF 		bl	bsp_trace_print
 913              	.LVL105:
 382:lr1mac/src/smtc_real/src/smtc_real.c ****         bsp_mcu_handle_lr1mac_issue( );
 914              		.loc 1 382 9 is_stmt 1 view .LVU218
 915 0016 0748     		ldr	r0, .L59+4
 916 0018 FFF7FEFF 		bl	bsp_trace_print
 917              	.LVL106:
 382:lr1mac/src/smtc_real/src/smtc_real.c ****         bsp_mcu_handle_lr1mac_issue( );
 918              		.loc 1 382 9 view .LVU219
 919 001c 0649     		ldr	r1, .L59+8
ARM GAS  /var/folders/bq/yv49bw8j2kd6w3hsq868qv180000gn/T//ccRnzw9B.s 			page 26


 920 001e 0748     		ldr	r0, .L59+12
 921 0020 FFF7FEFF 		bl	bsp_trace_print
 922              	.LVL107:
 382:lr1mac/src/smtc_real/src/smtc_real.c ****         bsp_mcu_handle_lr1mac_issue( );
 923              		.loc 1 382 9 view .LVU220
 924 0024 0648     		ldr	r0, .L59+16
 925 0026 FFF7FEFF 		bl	bsp_trace_print
 926              	.LVL108:
 382:lr1mac/src/smtc_real/src/smtc_real.c ****         bsp_mcu_handle_lr1mac_issue( );
 927              		.loc 1 382 9 view .LVU221
 382:lr1mac/src/smtc_real/src/smtc_real.c ****         bsp_mcu_handle_lr1mac_issue( );
 928              		.loc 1 382 60 view .LVU222
 383:lr1mac/src/smtc_real/src/smtc_real.c ****         break;
 929              		.loc 1 383 9 view .LVU223
 930 002a FFF7FEFF 		bl	bsp_mcu_handle_lr1mac_issue
 931              	.LVL109:
 384:lr1mac/src/smtc_real/src/smtc_real.c ****     }
 932              		.loc 1 384 9 view .LVU224
 933              		.loc 1 386 1 is_stmt 0 view .LVU225
 934 002e EEE7     		b	.L56
 935              	.L60:
 936              		.align	2
 937              	.L59:
 938 0030 00000000 		.word	.LC0
 939 0034 08000000 		.word	.LC2
 940 0038 00000000 		.word	.LANCHOR11
 941 003c 10000000 		.word	.LC5
 942 0040 20000000 		.word	.LC7
 943              		.cfi_endproc
 944              	.LFE20:
 946              		.section	.text.smtc_real_power_set,"ax",%progbits
 947              		.align	1
 948              		.global	smtc_real_power_set
 949              		.syntax unified
 950              		.code	16
 951              		.thumb_func
 952              		.fpu softvfp
 954              	smtc_real_power_set:
 955              	.LVL110:
 956              	.LFB21:
 387:lr1mac/src/smtc_real/src/smtc_real.c **** 
 388:lr1mac/src/smtc_real/src/smtc_real.c **** void smtc_real_power_set( lr1_stack_mac_t* lr1_mac, uint8_t power_cmd )
 389:lr1mac/src/smtc_real/src/smtc_real.c **** {
 957              		.loc 1 389 1 is_stmt 1 view -0
 958              		.cfi_startproc
 959              		@ args = 0, pretend = 0, frame = 0
 960              		@ frame_needed = 0, uses_anonymous_args = 0
 390:lr1mac/src/smtc_real/src/smtc_real.c ****     switch( lr1_mac->real->region_type )
 961              		.loc 1 390 5 view .LVU227
 389:lr1mac/src/smtc_real/src/smtc_real.c ****     switch( lr1_mac->real->region_type )
 962              		.loc 1 389 1 is_stmt 0 view .LVU228
 963 0000 10B5     		push	{r4, lr}
 964              		.cfi_def_cfa_offset 8
 965              		.cfi_offset 4, -8
 966              		.cfi_offset 14, -4
 967              		.loc 1 390 5 view .LVU229
 968 0002 0368     		ldr	r3, [r0]
ARM GAS  /var/folders/bq/yv49bw8j2kd6w3hsq868qv180000gn/T//ccRnzw9B.s 			page 27


 969 0004 1B79     		ldrb	r3, [r3, #4]
 970 0006 062B     		cmp	r3, #6
 971 0008 02D1     		bne	.L62
 391:lr1mac/src/smtc_real/src/smtc_real.c ****     {
 392:lr1mac/src/smtc_real/src/smtc_real.c **** #if defined( REGION_WW2G4 )
 393:lr1mac/src/smtc_real/src/smtc_real.c ****     case SMTC_REAL_REGION_WW2G4: {
 394:lr1mac/src/smtc_real/src/smtc_real.c ****         region_ww2g4_power_set( lr1_mac, power_cmd );
 972              		.loc 1 394 9 is_stmt 1 view .LVU230
 973 000a FFF7FEFF 		bl	region_ww2g4_power_set
 974              	.LVL111:
 395:lr1mac/src/smtc_real/src/smtc_real.c ****         break;
 975              		.loc 1 395 9 view .LVU231
 976              	.L61:
 396:lr1mac/src/smtc_real/src/smtc_real.c ****     }
 397:lr1mac/src/smtc_real/src/smtc_real.c **** #endif
 398:lr1mac/src/smtc_real/src/smtc_real.c **** #if defined( REGION_EU_868 )
 399:lr1mac/src/smtc_real/src/smtc_real.c ****     case SMTC_REAL_REGION_EU_868: {
 400:lr1mac/src/smtc_real/src/smtc_real.c ****         region_eu_868_power_set( lr1_mac, power_cmd );
 401:lr1mac/src/smtc_real/src/smtc_real.c ****         break;
 402:lr1mac/src/smtc_real/src/smtc_real.c ****     }
 403:lr1mac/src/smtc_real/src/smtc_real.c **** #endif
 404:lr1mac/src/smtc_real/src/smtc_real.c **** #if defined( REGION_US_915 )
 405:lr1mac/src/smtc_real/src/smtc_real.c ****     case SMTC_REAL_REGION_US_915: {
 406:lr1mac/src/smtc_real/src/smtc_real.c ****         region_us_915_power_set( lr1_mac, power_cmd );
 407:lr1mac/src/smtc_real/src/smtc_real.c ****         break;
 408:lr1mac/src/smtc_real/src/smtc_real.c ****     }
 409:lr1mac/src/smtc_real/src/smtc_real.c **** #endif
 410:lr1mac/src/smtc_real/src/smtc_real.c ****     default:
 411:lr1mac/src/smtc_real/src/smtc_real.c ****         BSP_DBG_TRACE_ERROR( "%s unsupported\n", __func__ );
 412:lr1mac/src/smtc_real/src/smtc_real.c ****         bsp_mcu_handle_lr1mac_issue( );
 413:lr1mac/src/smtc_real/src/smtc_real.c ****         break;
 414:lr1mac/src/smtc_real/src/smtc_real.c ****     }
 415:lr1mac/src/smtc_real/src/smtc_real.c **** }
 977              		.loc 1 415 1 is_stmt 0 view .LVU232
 978              		@ sp needed
 979 000e 10BD     		pop	{r4, pc}
 980              	.LVL112:
 981              	.L62:
 411:lr1mac/src/smtc_real/src/smtc_real.c ****         bsp_mcu_handle_lr1mac_issue( );
 982              		.loc 1 411 9 is_stmt 1 view .LVU233
 411:lr1mac/src/smtc_real/src/smtc_real.c ****         bsp_mcu_handle_lr1mac_issue( );
 983              		.loc 1 411 9 view .LVU234
 984 0010 0748     		ldr	r0, .L64
 985              	.LVL113:
 411:lr1mac/src/smtc_real/src/smtc_real.c ****         bsp_mcu_handle_lr1mac_issue( );
 986              		.loc 1 411 9 is_stmt 0 view .LVU235
 987 0012 FFF7FEFF 		bl	bsp_trace_print
 988              	.LVL114:
 411:lr1mac/src/smtc_real/src/smtc_real.c ****         bsp_mcu_handle_lr1mac_issue( );
 989              		.loc 1 411 9 is_stmt 1 view .LVU236
 990 0016 0748     		ldr	r0, .L64+4
 991 0018 FFF7FEFF 		bl	bsp_trace_print
 992              	.LVL115:
 411:lr1mac/src/smtc_real/src/smtc_real.c ****         bsp_mcu_handle_lr1mac_issue( );
 993              		.loc 1 411 9 view .LVU237
 994 001c 0649     		ldr	r1, .L64+8
 995 001e 0748     		ldr	r0, .L64+12
ARM GAS  /var/folders/bq/yv49bw8j2kd6w3hsq868qv180000gn/T//ccRnzw9B.s 			page 28


 996 0020 FFF7FEFF 		bl	bsp_trace_print
 997              	.LVL116:
 411:lr1mac/src/smtc_real/src/smtc_real.c ****         bsp_mcu_handle_lr1mac_issue( );
 998              		.loc 1 411 9 view .LVU238
 999 0024 0648     		ldr	r0, .L64+16
 1000 0026 FFF7FEFF 		bl	bsp_trace_print
 1001              	.LVL117:
 411:lr1mac/src/smtc_real/src/smtc_real.c ****         bsp_mcu_handle_lr1mac_issue( );
 1002              		.loc 1 411 9 view .LVU239
 411:lr1mac/src/smtc_real/src/smtc_real.c ****         bsp_mcu_handle_lr1mac_issue( );
 1003              		.loc 1 411 60 view .LVU240
 412:lr1mac/src/smtc_real/src/smtc_real.c ****         break;
 1004              		.loc 1 412 9 view .LVU241
 1005 002a FFF7FEFF 		bl	bsp_mcu_handle_lr1mac_issue
 1006              	.LVL118:
 413:lr1mac/src/smtc_real/src/smtc_real.c ****     }
 1007              		.loc 1 413 9 view .LVU242
 1008              		.loc 1 415 1 is_stmt 0 view .LVU243
 1009 002e EEE7     		b	.L61
 1010              	.L65:
 1011              		.align	2
 1012              	.L64:
 1013 0030 00000000 		.word	.LC0
 1014 0034 08000000 		.word	.LC2
 1015 0038 00000000 		.word	.LANCHOR12
 1016 003c 10000000 		.word	.LC5
 1017 0040 20000000 		.word	.LC7
 1018              		.cfi_endproc
 1019              	.LFE21:
 1021              		.section	.text.smtc_real_default_max_eirp_get,"ax",%progbits
 1022              		.align	1
 1023              		.global	smtc_real_default_max_eirp_get
 1024              		.syntax unified
 1025              		.code	16
 1026              		.thumb_func
 1027              		.fpu softvfp
 1029              	smtc_real_default_max_eirp_get:
 1030              	.LVL119:
 1031              	.LFB22:
 416:lr1mac/src/smtc_real/src/smtc_real.c **** uint8_t smtc_real_default_max_eirp_get( lr1_stack_mac_t* lr1_mac )
 417:lr1mac/src/smtc_real/src/smtc_real.c **** {
 1032              		.loc 1 417 1 is_stmt 1 view -0
 1033              		.cfi_startproc
 1034              		@ args = 0, pretend = 0, frame = 0
 1035              		@ frame_needed = 0, uses_anonymous_args = 0
 418:lr1mac/src/smtc_real/src/smtc_real.c ****     switch( lr1_mac->real->region_type )
 1036              		.loc 1 418 5 view .LVU245
 417:lr1mac/src/smtc_real/src/smtc_real.c ****     switch( lr1_mac->real->region_type )
 1037              		.loc 1 417 1 is_stmt 0 view .LVU246
 1038 0000 10B5     		push	{r4, lr}
 1039              		.cfi_def_cfa_offset 8
 1040              		.cfi_offset 4, -8
 1041              		.cfi_offset 14, -4
 1042              		.loc 1 418 26 view .LVU247
 1043 0002 0368     		ldr	r3, [r0]
 419:lr1mac/src/smtc_real/src/smtc_real.c ****     {
 420:lr1mac/src/smtc_real/src/smtc_real.c **** #if defined( REGION_WW2G4 )
ARM GAS  /var/folders/bq/yv49bw8j2kd6w3hsq868qv180000gn/T//ccRnzw9B.s 			page 29


 421:lr1mac/src/smtc_real/src/smtc_real.c ****     case SMTC_REAL_REGION_WW2G4: {
 422:lr1mac/src/smtc_real/src/smtc_real.c ****         return TX_POWER_WW2G4;
 1044              		.loc 1 422 16 view .LVU248
 1045 0004 0A20     		movs	r0, #10
 1046              	.LVL120:
 418:lr1mac/src/smtc_real/src/smtc_real.c ****     {
 1047              		.loc 1 418 5 view .LVU249
 1048 0006 1B79     		ldrb	r3, [r3, #4]
 1049 0008 062B     		cmp	r3, #6
 1050 000a 0FD0     		beq	.L67
 423:lr1mac/src/smtc_real/src/smtc_real.c ****     }
 424:lr1mac/src/smtc_real/src/smtc_real.c **** #endif
 425:lr1mac/src/smtc_real/src/smtc_real.c **** #if defined( REGION_EU_868 )
 426:lr1mac/src/smtc_real/src/smtc_real.c ****     case SMTC_REAL_REGION_EU_868: {
 427:lr1mac/src/smtc_real/src/smtc_real.c ****         return TX_POWER_EU_868;
 428:lr1mac/src/smtc_real/src/smtc_real.c ****     }
 429:lr1mac/src/smtc_real/src/smtc_real.c **** #endif
 430:lr1mac/src/smtc_real/src/smtc_real.c **** #if defined( REGION_US_915 )
 431:lr1mac/src/smtc_real/src/smtc_real.c ****     case SMTC_REAL_REGION_US_915: {
 432:lr1mac/src/smtc_real/src/smtc_real.c ****         return TX_POWER_US_915;
 433:lr1mac/src/smtc_real/src/smtc_real.c ****     }
 434:lr1mac/src/smtc_real/src/smtc_real.c **** #endif
 435:lr1mac/src/smtc_real/src/smtc_real.c ****     default:
 436:lr1mac/src/smtc_real/src/smtc_real.c ****         BSP_DBG_TRACE_ERROR( "%s unsupported\n", __func__ );
 1051              		.loc 1 436 9 is_stmt 1 view .LVU250
 1052              		.loc 1 436 9 view .LVU251
 1053 000c 0848     		ldr	r0, .L70
 1054 000e FFF7FEFF 		bl	bsp_trace_print
 1055              	.LVL121:
 1056              		.loc 1 436 9 view .LVU252
 1057 0012 0848     		ldr	r0, .L70+4
 1058 0014 FFF7FEFF 		bl	bsp_trace_print
 1059              	.LVL122:
 1060              		.loc 1 436 9 view .LVU253
 1061 0018 0749     		ldr	r1, .L70+8
 1062 001a 0848     		ldr	r0, .L70+12
 1063 001c FFF7FEFF 		bl	bsp_trace_print
 1064              	.LVL123:
 1065              		.loc 1 436 9 view .LVU254
 1066 0020 0748     		ldr	r0, .L70+16
 1067 0022 FFF7FEFF 		bl	bsp_trace_print
 1068              	.LVL124:
 1069              		.loc 1 436 9 view .LVU255
 1070              		.loc 1 436 60 view .LVU256
 437:lr1mac/src/smtc_real/src/smtc_real.c ****         bsp_mcu_handle_lr1mac_issue( );
 1071              		.loc 1 437 9 view .LVU257
 1072 0026 FFF7FEFF 		bl	bsp_mcu_handle_lr1mac_issue
 1073              	.LVL125:
 438:lr1mac/src/smtc_real/src/smtc_real.c ****         break;
 1074              		.loc 1 438 9 view .LVU258
 439:lr1mac/src/smtc_real/src/smtc_real.c ****     }
 440:lr1mac/src/smtc_real/src/smtc_real.c ****     return ERRORLORAWAN;  // never reach => avoid warning
 1075              		.loc 1 440 5 view .LVU259
 1076              		.loc 1 440 12 is_stmt 0 view .LVU260
 1077 002a FF20     		movs	r0, #255
 1078              	.L67:
 441:lr1mac/src/smtc_real/src/smtc_real.c **** }
ARM GAS  /var/folders/bq/yv49bw8j2kd6w3hsq868qv180000gn/T//ccRnzw9B.s 			page 30


 1079              		.loc 1 441 1 view .LVU261
 1080              		@ sp needed
 1081 002c 10BD     		pop	{r4, pc}
 1082              	.L71:
 1083 002e C046     		.align	2
 1084              	.L70:
 1085 0030 00000000 		.word	.LC0
 1086 0034 08000000 		.word	.LC2
 1087 0038 00000000 		.word	.LANCHOR13
 1088 003c 10000000 		.word	.LC5
 1089 0040 20000000 		.word	.LC7
 1090              		.cfi_endproc
 1091              	.LFE22:
 1093              		.section	.text.smtc_real_channel_mask_set,"ax",%progbits
 1094              		.align	1
 1095              		.global	smtc_real_channel_mask_set
 1096              		.syntax unified
 1097              		.code	16
 1098              		.thumb_func
 1099              		.fpu softvfp
 1101              	smtc_real_channel_mask_set:
 1102              	.LVL126:
 1103              	.LFB23:
 442:lr1mac/src/smtc_real/src/smtc_real.c **** 
 443:lr1mac/src/smtc_real/src/smtc_real.c **** void smtc_real_channel_mask_set( lr1_stack_mac_t* lr1_mac )
 444:lr1mac/src/smtc_real/src/smtc_real.c **** {
 1104              		.loc 1 444 1 is_stmt 1 view -0
 1105              		.cfi_startproc
 1106              		@ args = 0, pretend = 0, frame = 0
 1107              		@ frame_needed = 0, uses_anonymous_args = 0
 445:lr1mac/src/smtc_real/src/smtc_real.c ****     switch( lr1_mac->real->region_type )
 1108              		.loc 1 445 5 view .LVU263
 444:lr1mac/src/smtc_real/src/smtc_real.c ****     switch( lr1_mac->real->region_type )
 1109              		.loc 1 444 1 is_stmt 0 view .LVU264
 1110 0000 10B5     		push	{r4, lr}
 1111              		.cfi_def_cfa_offset 8
 1112              		.cfi_offset 4, -8
 1113              		.cfi_offset 14, -4
 1114              		.loc 1 445 5 view .LVU265
 1115 0002 0368     		ldr	r3, [r0]
 1116 0004 1B79     		ldrb	r3, [r3, #4]
 1117 0006 062B     		cmp	r3, #6
 1118 0008 02D1     		bne	.L73
 446:lr1mac/src/smtc_real/src/smtc_real.c ****     {
 447:lr1mac/src/smtc_real/src/smtc_real.c **** #if defined( REGION_WW2G4 )
 448:lr1mac/src/smtc_real/src/smtc_real.c ****     case SMTC_REAL_REGION_WW2G4: {
 449:lr1mac/src/smtc_real/src/smtc_real.c ****         region_ww2g4_channel_mask_set( lr1_mac );
 1119              		.loc 1 449 9 is_stmt 1 view .LVU266
 1120 000a FFF7FEFF 		bl	region_ww2g4_channel_mask_set
 1121              	.LVL127:
 450:lr1mac/src/smtc_real/src/smtc_real.c ****         break;
 1122              		.loc 1 450 9 view .LVU267
 1123              	.L72:
 451:lr1mac/src/smtc_real/src/smtc_real.c ****     }
 452:lr1mac/src/smtc_real/src/smtc_real.c **** #endif
 453:lr1mac/src/smtc_real/src/smtc_real.c **** #if defined( REGION_EU_868 )
 454:lr1mac/src/smtc_real/src/smtc_real.c ****     case SMTC_REAL_REGION_EU_868: {
ARM GAS  /var/folders/bq/yv49bw8j2kd6w3hsq868qv180000gn/T//ccRnzw9B.s 			page 31


 455:lr1mac/src/smtc_real/src/smtc_real.c ****         region_eu_868_channel_mask_set( lr1_mac );
 456:lr1mac/src/smtc_real/src/smtc_real.c ****         break;
 457:lr1mac/src/smtc_real/src/smtc_real.c ****     }
 458:lr1mac/src/smtc_real/src/smtc_real.c **** #endif
 459:lr1mac/src/smtc_real/src/smtc_real.c **** #if defined( REGION_US_915 )
 460:lr1mac/src/smtc_real/src/smtc_real.c ****     case SMTC_REAL_REGION_US_915: {
 461:lr1mac/src/smtc_real/src/smtc_real.c ****         region_us915_channel_mask_set( lr1_mac );
 462:lr1mac/src/smtc_real/src/smtc_real.c ****         break;
 463:lr1mac/src/smtc_real/src/smtc_real.c ****     }
 464:lr1mac/src/smtc_real/src/smtc_real.c **** #endif
 465:lr1mac/src/smtc_real/src/smtc_real.c ****     default:
 466:lr1mac/src/smtc_real/src/smtc_real.c ****         BSP_DBG_TRACE_ERROR( "%s unsupported\n", __func__ );
 467:lr1mac/src/smtc_real/src/smtc_real.c ****         bsp_mcu_handle_lr1mac_issue( );
 468:lr1mac/src/smtc_real/src/smtc_real.c ****         break;
 469:lr1mac/src/smtc_real/src/smtc_real.c ****     }
 470:lr1mac/src/smtc_real/src/smtc_real.c **** }
 1124              		.loc 1 470 1 is_stmt 0 view .LVU268
 1125              		@ sp needed
 1126 000e 10BD     		pop	{r4, pc}
 1127              	.LVL128:
 1128              	.L73:
 466:lr1mac/src/smtc_real/src/smtc_real.c ****         bsp_mcu_handle_lr1mac_issue( );
 1129              		.loc 1 466 9 is_stmt 1 view .LVU269
 466:lr1mac/src/smtc_real/src/smtc_real.c ****         bsp_mcu_handle_lr1mac_issue( );
 1130              		.loc 1 466 9 view .LVU270
 1131 0010 0748     		ldr	r0, .L75
 1132              	.LVL129:
 466:lr1mac/src/smtc_real/src/smtc_real.c ****         bsp_mcu_handle_lr1mac_issue( );
 1133              		.loc 1 466 9 is_stmt 0 view .LVU271
 1134 0012 FFF7FEFF 		bl	bsp_trace_print
 1135              	.LVL130:
 466:lr1mac/src/smtc_real/src/smtc_real.c ****         bsp_mcu_handle_lr1mac_issue( );
 1136              		.loc 1 466 9 is_stmt 1 view .LVU272
 1137 0016 0748     		ldr	r0, .L75+4
 1138 0018 FFF7FEFF 		bl	bsp_trace_print
 1139              	.LVL131:
 466:lr1mac/src/smtc_real/src/smtc_real.c ****         bsp_mcu_handle_lr1mac_issue( );
 1140              		.loc 1 466 9 view .LVU273
 1141 001c 0649     		ldr	r1, .L75+8
 1142 001e 0748     		ldr	r0, .L75+12
 1143 0020 FFF7FEFF 		bl	bsp_trace_print
 1144              	.LVL132:
 466:lr1mac/src/smtc_real/src/smtc_real.c ****         bsp_mcu_handle_lr1mac_issue( );
 1145              		.loc 1 466 9 view .LVU274
 1146 0024 0648     		ldr	r0, .L75+16
 1147 0026 FFF7FEFF 		bl	bsp_trace_print
 1148              	.LVL133:
 466:lr1mac/src/smtc_real/src/smtc_real.c ****         bsp_mcu_handle_lr1mac_issue( );
 1149              		.loc 1 466 9 view .LVU275
 466:lr1mac/src/smtc_real/src/smtc_real.c ****         bsp_mcu_handle_lr1mac_issue( );
 1150              		.loc 1 466 60 view .LVU276
 467:lr1mac/src/smtc_real/src/smtc_real.c ****         break;
 1151              		.loc 1 467 9 view .LVU277
 1152 002a FFF7FEFF 		bl	bsp_mcu_handle_lr1mac_issue
 1153              	.LVL134:
 468:lr1mac/src/smtc_real/src/smtc_real.c ****     }
 1154              		.loc 1 468 9 view .LVU278
ARM GAS  /var/folders/bq/yv49bw8j2kd6w3hsq868qv180000gn/T//ccRnzw9B.s 			page 32


 1155              		.loc 1 470 1 is_stmt 0 view .LVU279
 1156 002e EEE7     		b	.L72
 1157              	.L76:
 1158              		.align	2
 1159              	.L75:
 1160 0030 00000000 		.word	.LC0
 1161 0034 08000000 		.word	.LC2
 1162 0038 00000000 		.word	.LANCHOR14
 1163 003c 10000000 		.word	.LC5
 1164 0040 20000000 		.word	.LC7
 1165              		.cfi_endproc
 1166              	.LFE23:
 1168              		.section	.text.smtc_real_channel_mask_init,"ax",%progbits
 1169              		.align	1
 1170              		.global	smtc_real_channel_mask_init
 1171              		.syntax unified
 1172              		.code	16
 1173              		.thumb_func
 1174              		.fpu softvfp
 1176              	smtc_real_channel_mask_init:
 1177              	.LVL135:
 1178              	.LFB24:
 471:lr1mac/src/smtc_real/src/smtc_real.c **** 
 472:lr1mac/src/smtc_real/src/smtc_real.c **** void smtc_real_channel_mask_init( lr1_stack_mac_t* lr1_mac )
 473:lr1mac/src/smtc_real/src/smtc_real.c **** {
 1179              		.loc 1 473 1 is_stmt 1 view -0
 1180              		.cfi_startproc
 1181              		@ args = 0, pretend = 0, frame = 0
 1182              		@ frame_needed = 0, uses_anonymous_args = 0
 474:lr1mac/src/smtc_real/src/smtc_real.c ****     switch( lr1_mac->real->region_type )
 1183              		.loc 1 474 5 view .LVU281
 473:lr1mac/src/smtc_real/src/smtc_real.c ****     switch( lr1_mac->real->region_type )
 1184              		.loc 1 473 1 is_stmt 0 view .LVU282
 1185 0000 10B5     		push	{r4, lr}
 1186              		.cfi_def_cfa_offset 8
 1187              		.cfi_offset 4, -8
 1188              		.cfi_offset 14, -4
 1189              		.loc 1 474 26 view .LVU283
 1190 0002 0368     		ldr	r3, [r0]
 1191              		.loc 1 474 5 view .LVU284
 1192 0004 1B79     		ldrb	r3, [r3, #4]
 1193 0006 062B     		cmp	r3, #6
 1194 0008 02D1     		bne	.L78
 475:lr1mac/src/smtc_real/src/smtc_real.c ****     {
 476:lr1mac/src/smtc_real/src/smtc_real.c **** #if defined( REGION_WW2G4 )
 477:lr1mac/src/smtc_real/src/smtc_real.c ****     case SMTC_REAL_REGION_WW2G4: {
 478:lr1mac/src/smtc_real/src/smtc_real.c ****         region_ww2g4_channel_mask_init( );
 1195              		.loc 1 478 9 is_stmt 1 view .LVU285
 1196 000a FFF7FEFF 		bl	region_ww2g4_channel_mask_init
 1197              	.LVL136:
 479:lr1mac/src/smtc_real/src/smtc_real.c ****         break;
 1198              		.loc 1 479 9 view .LVU286
 1199              	.L77:
 480:lr1mac/src/smtc_real/src/smtc_real.c ****     }
 481:lr1mac/src/smtc_real/src/smtc_real.c **** #endif
 482:lr1mac/src/smtc_real/src/smtc_real.c **** #if defined( REGION_EU_868 )
 483:lr1mac/src/smtc_real/src/smtc_real.c ****     case SMTC_REAL_REGION_EU_868: {
ARM GAS  /var/folders/bq/yv49bw8j2kd6w3hsq868qv180000gn/T//ccRnzw9B.s 			page 33


 484:lr1mac/src/smtc_real/src/smtc_real.c ****         region_eu_868_channel_mask_init( );
 485:lr1mac/src/smtc_real/src/smtc_real.c ****         break;
 486:lr1mac/src/smtc_real/src/smtc_real.c ****     }
 487:lr1mac/src/smtc_real/src/smtc_real.c **** #endif
 488:lr1mac/src/smtc_real/src/smtc_real.c **** #if defined( REGION_US_915 )
 489:lr1mac/src/smtc_real/src/smtc_real.c ****     case SMTC_REAL_REGION_US_915: {
 490:lr1mac/src/smtc_real/src/smtc_real.c ****         region_us_915_channel_mask_init( );
 491:lr1mac/src/smtc_real/src/smtc_real.c ****         break;
 492:lr1mac/src/smtc_real/src/smtc_real.c ****     }
 493:lr1mac/src/smtc_real/src/smtc_real.c **** #endif
 494:lr1mac/src/smtc_real/src/smtc_real.c ****     default:
 495:lr1mac/src/smtc_real/src/smtc_real.c ****         BSP_DBG_TRACE_ERROR( "%s unsupported\n", __func__ );
 496:lr1mac/src/smtc_real/src/smtc_real.c ****         bsp_mcu_handle_lr1mac_issue( );
 497:lr1mac/src/smtc_real/src/smtc_real.c ****         break;
 498:lr1mac/src/smtc_real/src/smtc_real.c ****     }
 499:lr1mac/src/smtc_real/src/smtc_real.c **** }
 1200              		.loc 1 499 1 is_stmt 0 view .LVU287
 1201              		@ sp needed
 1202 000e 10BD     		pop	{r4, pc}
 1203              	.LVL137:
 1204              	.L78:
 495:lr1mac/src/smtc_real/src/smtc_real.c ****         bsp_mcu_handle_lr1mac_issue( );
 1205              		.loc 1 495 9 is_stmt 1 view .LVU288
 495:lr1mac/src/smtc_real/src/smtc_real.c ****         bsp_mcu_handle_lr1mac_issue( );
 1206              		.loc 1 495 9 view .LVU289
 1207 0010 0748     		ldr	r0, .L80
 1208              	.LVL138:
 495:lr1mac/src/smtc_real/src/smtc_real.c ****         bsp_mcu_handle_lr1mac_issue( );
 1209              		.loc 1 495 9 is_stmt 0 view .LVU290
 1210 0012 FFF7FEFF 		bl	bsp_trace_print
 1211              	.LVL139:
 495:lr1mac/src/smtc_real/src/smtc_real.c ****         bsp_mcu_handle_lr1mac_issue( );
 1212              		.loc 1 495 9 is_stmt 1 view .LVU291
 1213 0016 0748     		ldr	r0, .L80+4
 1214 0018 FFF7FEFF 		bl	bsp_trace_print
 1215              	.LVL140:
 495:lr1mac/src/smtc_real/src/smtc_real.c ****         bsp_mcu_handle_lr1mac_issue( );
 1216              		.loc 1 495 9 view .LVU292
 1217 001c 0649     		ldr	r1, .L80+8
 1218 001e 0748     		ldr	r0, .L80+12
 1219 0020 FFF7FEFF 		bl	bsp_trace_print
 1220              	.LVL141:
 495:lr1mac/src/smtc_real/src/smtc_real.c ****         bsp_mcu_handle_lr1mac_issue( );
 1221              		.loc 1 495 9 view .LVU293
 1222 0024 0648     		ldr	r0, .L80+16
 1223 0026 FFF7FEFF 		bl	bsp_trace_print
 1224              	.LVL142:
 495:lr1mac/src/smtc_real/src/smtc_real.c ****         bsp_mcu_handle_lr1mac_issue( );
 1225              		.loc 1 495 9 view .LVU294
 495:lr1mac/src/smtc_real/src/smtc_real.c ****         bsp_mcu_handle_lr1mac_issue( );
 1226              		.loc 1 495 60 view .LVU295
 496:lr1mac/src/smtc_real/src/smtc_real.c ****         break;
 1227              		.loc 1 496 9 view .LVU296
 1228 002a FFF7FEFF 		bl	bsp_mcu_handle_lr1mac_issue
 1229              	.LVL143:
 497:lr1mac/src/smtc_real/src/smtc_real.c ****     }
 1230              		.loc 1 497 9 view .LVU297
ARM GAS  /var/folders/bq/yv49bw8j2kd6w3hsq868qv180000gn/T//ccRnzw9B.s 			page 34


 1231              		.loc 1 499 1 is_stmt 0 view .LVU298
 1232 002e EEE7     		b	.L77
 1233              	.L81:
 1234              		.align	2
 1235              	.L80:
 1236 0030 00000000 		.word	.LC0
 1237 0034 08000000 		.word	.LC2
 1238 0038 00000000 		.word	.LANCHOR15
 1239 003c 10000000 		.word	.LC5
 1240 0040 20000000 		.word	.LC7
 1241              		.cfi_endproc
 1242              	.LFE24:
 1244              		.section	.text.smtc_real_join_snapshot_channel_mask_init,"ax",%progbits
 1245              		.align	1
 1246              		.global	smtc_real_join_snapshot_channel_mask_init
 1247              		.syntax unified
 1248              		.code	16
 1249              		.thumb_func
 1250              		.fpu softvfp
 1252              	smtc_real_join_snapshot_channel_mask_init:
 1253              	.LVL144:
 1254              	.LFB25:
 500:lr1mac/src/smtc_real/src/smtc_real.c **** 
 501:lr1mac/src/smtc_real/src/smtc_real.c **** void smtc_real_join_snapshot_channel_mask_init( lr1_stack_mac_t* lr1_mac )
 502:lr1mac/src/smtc_real/src/smtc_real.c **** {
 1255              		.loc 1 502 1 is_stmt 1 view -0
 1256              		.cfi_startproc
 1257              		@ args = 0, pretend = 0, frame = 0
 1258              		@ frame_needed = 0, uses_anonymous_args = 0
 503:lr1mac/src/smtc_real/src/smtc_real.c ****     switch( lr1_mac->real->region_type )
 1259              		.loc 1 503 5 view .LVU300
 502:lr1mac/src/smtc_real/src/smtc_real.c ****     switch( lr1_mac->real->region_type )
 1260              		.loc 1 502 1 is_stmt 0 view .LVU301
 1261 0000 10B5     		push	{r4, lr}
 1262              		.cfi_def_cfa_offset 8
 1263              		.cfi_offset 4, -8
 1264              		.cfi_offset 14, -4
 1265              		.loc 1 503 26 view .LVU302
 1266 0002 0368     		ldr	r3, [r0]
 1267              		.loc 1 503 5 view .LVU303
 1268 0004 1B79     		ldrb	r3, [r3, #4]
 1269 0006 062B     		cmp	r3, #6
 1270 0008 02D1     		bne	.L83
 504:lr1mac/src/smtc_real/src/smtc_real.c ****     {
 505:lr1mac/src/smtc_real/src/smtc_real.c **** #if defined( REGION_WW2G4 )
 506:lr1mac/src/smtc_real/src/smtc_real.c ****     case SMTC_REAL_REGION_WW2G4: {
 507:lr1mac/src/smtc_real/src/smtc_real.c ****         region_ww2g4_join_snapshot_channel_mask_init( );
 1271              		.loc 1 507 9 is_stmt 1 view .LVU304
 1272 000a FFF7FEFF 		bl	region_ww2g4_join_snapshot_channel_mask_init
 1273              	.LVL145:
 508:lr1mac/src/smtc_real/src/smtc_real.c ****         break;
 1274              		.loc 1 508 9 view .LVU305
 1275              	.L82:
 509:lr1mac/src/smtc_real/src/smtc_real.c ****     }
 510:lr1mac/src/smtc_real/src/smtc_real.c **** #endif
 511:lr1mac/src/smtc_real/src/smtc_real.c **** #if defined( REGION_EU_868 )
 512:lr1mac/src/smtc_real/src/smtc_real.c ****     case SMTC_REAL_REGION_EU_868: {
ARM GAS  /var/folders/bq/yv49bw8j2kd6w3hsq868qv180000gn/T//ccRnzw9B.s 			page 35


 513:lr1mac/src/smtc_real/src/smtc_real.c ****         region_eu_868_join_snapshot_channel_mask_init( );
 514:lr1mac/src/smtc_real/src/smtc_real.c ****         break;
 515:lr1mac/src/smtc_real/src/smtc_real.c ****     }
 516:lr1mac/src/smtc_real/src/smtc_real.c **** #endif
 517:lr1mac/src/smtc_real/src/smtc_real.c **** #if defined( REGION_US_915 )
 518:lr1mac/src/smtc_real/src/smtc_real.c ****     case SMTC_REAL_REGION_US_915: {
 519:lr1mac/src/smtc_real/src/smtc_real.c ****         region_us_915_join_snapshot_channel_mask_init( );
 520:lr1mac/src/smtc_real/src/smtc_real.c ****         break;
 521:lr1mac/src/smtc_real/src/smtc_real.c ****     }
 522:lr1mac/src/smtc_real/src/smtc_real.c **** #endif
 523:lr1mac/src/smtc_real/src/smtc_real.c ****     default:
 524:lr1mac/src/smtc_real/src/smtc_real.c ****         BSP_DBG_TRACE_ERROR( "%s unsupported\n", __func__ );
 525:lr1mac/src/smtc_real/src/smtc_real.c ****         bsp_mcu_handle_lr1mac_issue( );
 526:lr1mac/src/smtc_real/src/smtc_real.c ****         break;
 527:lr1mac/src/smtc_real/src/smtc_real.c ****     }
 528:lr1mac/src/smtc_real/src/smtc_real.c **** }
 1276              		.loc 1 528 1 is_stmt 0 view .LVU306
 1277              		@ sp needed
 1278 000e 10BD     		pop	{r4, pc}
 1279              	.LVL146:
 1280              	.L83:
 524:lr1mac/src/smtc_real/src/smtc_real.c ****         bsp_mcu_handle_lr1mac_issue( );
 1281              		.loc 1 524 9 is_stmt 1 view .LVU307
 524:lr1mac/src/smtc_real/src/smtc_real.c ****         bsp_mcu_handle_lr1mac_issue( );
 1282              		.loc 1 524 9 view .LVU308
 1283 0010 0748     		ldr	r0, .L85
 1284              	.LVL147:
 524:lr1mac/src/smtc_real/src/smtc_real.c ****         bsp_mcu_handle_lr1mac_issue( );
 1285              		.loc 1 524 9 is_stmt 0 view .LVU309
 1286 0012 FFF7FEFF 		bl	bsp_trace_print
 1287              	.LVL148:
 524:lr1mac/src/smtc_real/src/smtc_real.c ****         bsp_mcu_handle_lr1mac_issue( );
 1288              		.loc 1 524 9 is_stmt 1 view .LVU310
 1289 0016 0748     		ldr	r0, .L85+4
 1290 0018 FFF7FEFF 		bl	bsp_trace_print
 1291              	.LVL149:
 524:lr1mac/src/smtc_real/src/smtc_real.c ****         bsp_mcu_handle_lr1mac_issue( );
 1292              		.loc 1 524 9 view .LVU311
 1293 001c 0649     		ldr	r1, .L85+8
 1294 001e 0748     		ldr	r0, .L85+12
 1295 0020 FFF7FEFF 		bl	bsp_trace_print
 1296              	.LVL150:
 524:lr1mac/src/smtc_real/src/smtc_real.c ****         bsp_mcu_handle_lr1mac_issue( );
 1297              		.loc 1 524 9 view .LVU312
 1298 0024 0648     		ldr	r0, .L85+16
 1299 0026 FFF7FEFF 		bl	bsp_trace_print
 1300              	.LVL151:
 524:lr1mac/src/smtc_real/src/smtc_real.c ****         bsp_mcu_handle_lr1mac_issue( );
 1301              		.loc 1 524 9 view .LVU313
 524:lr1mac/src/smtc_real/src/smtc_real.c ****         bsp_mcu_handle_lr1mac_issue( );
 1302              		.loc 1 524 60 view .LVU314
 525:lr1mac/src/smtc_real/src/smtc_real.c ****         break;
 1303              		.loc 1 525 9 view .LVU315
 1304 002a FFF7FEFF 		bl	bsp_mcu_handle_lr1mac_issue
 1305              	.LVL152:
 526:lr1mac/src/smtc_real/src/smtc_real.c ****     }
 1306              		.loc 1 526 9 view .LVU316
ARM GAS  /var/folders/bq/yv49bw8j2kd6w3hsq868qv180000gn/T//ccRnzw9B.s 			page 36


 1307              		.loc 1 528 1 is_stmt 0 view .LVU317
 1308 002e EEE7     		b	.L82
 1309              	.L86:
 1310              		.align	2
 1311              	.L85:
 1312 0030 00000000 		.word	.LC0
 1313 0034 08000000 		.word	.LC2
 1314 0038 00000000 		.word	.LANCHOR16
 1315 003c 10000000 		.word	.LC5
 1316 0040 20000000 		.word	.LC7
 1317              		.cfi_endproc
 1318              	.LFE25:
 1320              		.section	.text.smtc_real_channel_mask_build,"ax",%progbits
 1321              		.align	1
 1322              		.global	smtc_real_channel_mask_build
 1323              		.syntax unified
 1324              		.code	16
 1325              		.thumb_func
 1326              		.fpu softvfp
 1328              	smtc_real_channel_mask_build:
 1329              	.LVL153:
 1330              	.LFB26:
 529:lr1mac/src/smtc_real/src/smtc_real.c **** 
 530:lr1mac/src/smtc_real/src/smtc_real.c **** status_channel_t smtc_real_channel_mask_build( lr1_stack_mac_t* lr1_mac, uint8_t ChMaskCntl, uint16
 531:lr1mac/src/smtc_real/src/smtc_real.c **** {
 1331              		.loc 1 531 1 is_stmt 1 view -0
 1332              		.cfi_startproc
 1333              		@ args = 0, pretend = 0, frame = 0
 1334              		@ frame_needed = 0, uses_anonymous_args = 0
 532:lr1mac/src/smtc_real/src/smtc_real.c ****     switch( lr1_mac->real->region_type )
 1335              		.loc 1 532 5 view .LVU319
 531:lr1mac/src/smtc_real/src/smtc_real.c ****     switch( lr1_mac->real->region_type )
 1336              		.loc 1 531 1 is_stmt 0 view .LVU320
 1337 0000 0300     		movs	r3, r0
 1338 0002 10B5     		push	{r4, lr}
 1339              		.cfi_def_cfa_offset 8
 1340              		.cfi_offset 4, -8
 1341              		.cfi_offset 14, -4
 1342              		.loc 1 532 26 view .LVU321
 1343 0004 1B68     		ldr	r3, [r3]
 531:lr1mac/src/smtc_real/src/smtc_real.c ****     switch( lr1_mac->real->region_type )
 1344              		.loc 1 531 1 view .LVU322
 1345 0006 0800     		movs	r0, r1
 1346              	.LVL154:
 1347              		.loc 1 532 5 view .LVU323
 1348 0008 1B79     		ldrb	r3, [r3, #4]
 531:lr1mac/src/smtc_real/src/smtc_real.c ****     switch( lr1_mac->real->region_type )
 1349              		.loc 1 531 1 view .LVU324
 1350 000a 1100     		movs	r1, r2
 1351              	.LVL155:
 1352              		.loc 1 532 5 view .LVU325
 1353 000c 062B     		cmp	r3, #6
 1354 000e 02D1     		bne	.L88
 533:lr1mac/src/smtc_real/src/smtc_real.c ****     {
 534:lr1mac/src/smtc_real/src/smtc_real.c **** #if defined( REGION_WW2G4 )
 535:lr1mac/src/smtc_real/src/smtc_real.c ****     case SMTC_REAL_REGION_WW2G4: {
 536:lr1mac/src/smtc_real/src/smtc_real.c ****         return region_ww2g4_channel_mask_build( ChMaskCntl, ChMask );
ARM GAS  /var/folders/bq/yv49bw8j2kd6w3hsq868qv180000gn/T//ccRnzw9B.s 			page 37


 1355              		.loc 1 536 9 is_stmt 1 view .LVU326
 1356              		.loc 1 536 16 is_stmt 0 view .LVU327
 1357 0010 FFF7FEFF 		bl	region_ww2g4_channel_mask_build
 1358              	.LVL156:
 1359              	.L89:
 537:lr1mac/src/smtc_real/src/smtc_real.c ****     }
 538:lr1mac/src/smtc_real/src/smtc_real.c **** #endif
 539:lr1mac/src/smtc_real/src/smtc_real.c **** #if defined( REGION_EU_868 )
 540:lr1mac/src/smtc_real/src/smtc_real.c ****     case SMTC_REAL_REGION_EU_868: {
 541:lr1mac/src/smtc_real/src/smtc_real.c ****         return region_eu_868_channel_mask_build( ChMaskCntl, ChMask );
 542:lr1mac/src/smtc_real/src/smtc_real.c ****     }
 543:lr1mac/src/smtc_real/src/smtc_real.c **** #endif
 544:lr1mac/src/smtc_real/src/smtc_real.c **** #if defined( REGION_US_915 )
 545:lr1mac/src/smtc_real/src/smtc_real.c ****     case SMTC_REAL_REGION_US_915: {
 546:lr1mac/src/smtc_real/src/smtc_real.c ****         return region_us_915_channel_mask_build( ChMaskCntl, ChMask );
 547:lr1mac/src/smtc_real/src/smtc_real.c ****     }
 548:lr1mac/src/smtc_real/src/smtc_real.c **** #endif
 549:lr1mac/src/smtc_real/src/smtc_real.c ****     default:
 550:lr1mac/src/smtc_real/src/smtc_real.c ****         BSP_DBG_TRACE_ERROR( "%s unsupported\n", __func__ );
 551:lr1mac/src/smtc_real/src/smtc_real.c ****         bsp_mcu_handle_lr1mac_issue( );
 552:lr1mac/src/smtc_real/src/smtc_real.c ****         break;
 553:lr1mac/src/smtc_real/src/smtc_real.c ****     }
 554:lr1mac/src/smtc_real/src/smtc_real.c ****     return ERRORLORAWAN;  // never reach => avoid warning
 555:lr1mac/src/smtc_real/src/smtc_real.c **** }
 1360              		.loc 1 555 1 view .LVU328
 1361              		@ sp needed
 1362 0014 10BD     		pop	{r4, pc}
 1363              	.LVL157:
 1364              	.L88:
 550:lr1mac/src/smtc_real/src/smtc_real.c ****         bsp_mcu_handle_lr1mac_issue( );
 1365              		.loc 1 550 9 is_stmt 1 view .LVU329
 550:lr1mac/src/smtc_real/src/smtc_real.c ****         bsp_mcu_handle_lr1mac_issue( );
 1366              		.loc 1 550 9 view .LVU330
 1367 0016 0948     		ldr	r0, .L90
 1368 0018 FFF7FEFF 		bl	bsp_trace_print
 1369              	.LVL158:
 550:lr1mac/src/smtc_real/src/smtc_real.c ****         bsp_mcu_handle_lr1mac_issue( );
 1370              		.loc 1 550 9 view .LVU331
 1371 001c 0848     		ldr	r0, .L90+4
 1372 001e FFF7FEFF 		bl	bsp_trace_print
 1373              	.LVL159:
 550:lr1mac/src/smtc_real/src/smtc_real.c ****         bsp_mcu_handle_lr1mac_issue( );
 1374              		.loc 1 550 9 view .LVU332
 1375 0022 0849     		ldr	r1, .L90+8
 1376 0024 0848     		ldr	r0, .L90+12
 1377 0026 FFF7FEFF 		bl	bsp_trace_print
 1378              	.LVL160:
 550:lr1mac/src/smtc_real/src/smtc_real.c ****         bsp_mcu_handle_lr1mac_issue( );
 1379              		.loc 1 550 9 view .LVU333
 1380 002a 0848     		ldr	r0, .L90+16
 1381 002c FFF7FEFF 		bl	bsp_trace_print
 1382              	.LVL161:
 550:lr1mac/src/smtc_real/src/smtc_real.c ****         bsp_mcu_handle_lr1mac_issue( );
 1383              		.loc 1 550 9 view .LVU334
 550:lr1mac/src/smtc_real/src/smtc_real.c ****         bsp_mcu_handle_lr1mac_issue( );
 1384              		.loc 1 550 60 view .LVU335
 551:lr1mac/src/smtc_real/src/smtc_real.c ****         break;
ARM GAS  /var/folders/bq/yv49bw8j2kd6w3hsq868qv180000gn/T//ccRnzw9B.s 			page 38


 1385              		.loc 1 551 9 view .LVU336
 1386 0030 FFF7FEFF 		bl	bsp_mcu_handle_lr1mac_issue
 1387              	.LVL162:
 552:lr1mac/src/smtc_real/src/smtc_real.c ****     }
 1388              		.loc 1 552 9 view .LVU337
 554:lr1mac/src/smtc_real/src/smtc_real.c **** }
 1389              		.loc 1 554 5 view .LVU338
 554:lr1mac/src/smtc_real/src/smtc_real.c **** }
 1390              		.loc 1 554 12 is_stmt 0 view .LVU339
 1391 0034 0120     		movs	r0, #1
 1392 0036 4042     		rsbs	r0, r0, #0
 1393 0038 ECE7     		b	.L89
 1394              	.L91:
 1395 003a C046     		.align	2
 1396              	.L90:
 1397 003c 00000000 		.word	.LC0
 1398 0040 08000000 		.word	.LC2
 1399 0044 00000000 		.word	.LANCHOR17
 1400 0048 10000000 		.word	.LC5
 1401 004c 20000000 		.word	.LC7
 1402              		.cfi_endproc
 1403              	.LFE26:
 1405              		.section	.text.smtc_real_dr_decrement,"ax",%progbits
 1406              		.align	1
 1407              		.global	smtc_real_dr_decrement
 1408              		.syntax unified
 1409              		.code	16
 1410              		.thumb_func
 1411              		.fpu softvfp
 1413              	smtc_real_dr_decrement:
 1414              	.LVL163:
 1415              	.LFB27:
 556:lr1mac/src/smtc_real/src/smtc_real.c **** 
 557:lr1mac/src/smtc_real/src/smtc_real.c **** void smtc_real_dr_decrement( lr1_stack_mac_t* lr1_mac )
 558:lr1mac/src/smtc_real/src/smtc_real.c **** {
 1416              		.loc 1 558 1 is_stmt 1 view -0
 1417              		.cfi_startproc
 1418              		@ args = 0, pretend = 0, frame = 0
 1419              		@ frame_needed = 0, uses_anonymous_args = 0
 559:lr1mac/src/smtc_real/src/smtc_real.c ****     switch( lr1_mac->real->region_type )
 1420              		.loc 1 559 5 view .LVU341
 558:lr1mac/src/smtc_real/src/smtc_real.c ****     switch( lr1_mac->real->region_type )
 1421              		.loc 1 558 1 is_stmt 0 view .LVU342
 1422 0000 10B5     		push	{r4, lr}
 1423              		.cfi_def_cfa_offset 8
 1424              		.cfi_offset 4, -8
 1425              		.cfi_offset 14, -4
 1426              		.loc 1 559 5 view .LVU343
 1427 0002 0368     		ldr	r3, [r0]
 1428 0004 1B79     		ldrb	r3, [r3, #4]
 1429 0006 062B     		cmp	r3, #6
 1430 0008 02D1     		bne	.L93
 560:lr1mac/src/smtc_real/src/smtc_real.c ****     {
 561:lr1mac/src/smtc_real/src/smtc_real.c **** #if defined( REGION_WW2G4 )
 562:lr1mac/src/smtc_real/src/smtc_real.c ****     case SMTC_REAL_REGION_WW2G4: {
 563:lr1mac/src/smtc_real/src/smtc_real.c ****         region_ww2g4_dr_decrement( lr1_mac );
 1431              		.loc 1 563 9 is_stmt 1 view .LVU344
ARM GAS  /var/folders/bq/yv49bw8j2kd6w3hsq868qv180000gn/T//ccRnzw9B.s 			page 39


 1432 000a FFF7FEFF 		bl	region_ww2g4_dr_decrement
 1433              	.LVL164:
 564:lr1mac/src/smtc_real/src/smtc_real.c ****         break;
 1434              		.loc 1 564 9 view .LVU345
 1435              	.L92:
 565:lr1mac/src/smtc_real/src/smtc_real.c ****     }
 566:lr1mac/src/smtc_real/src/smtc_real.c **** #endif
 567:lr1mac/src/smtc_real/src/smtc_real.c **** #if defined( REGION_EU_868 )
 568:lr1mac/src/smtc_real/src/smtc_real.c ****     case SMTC_REAL_REGION_EU_868: {
 569:lr1mac/src/smtc_real/src/smtc_real.c ****         region_eu_868_dr_decrement( lr1_mac );
 570:lr1mac/src/smtc_real/src/smtc_real.c ****         break;
 571:lr1mac/src/smtc_real/src/smtc_real.c ****     }
 572:lr1mac/src/smtc_real/src/smtc_real.c **** #endif
 573:lr1mac/src/smtc_real/src/smtc_real.c **** #if defined( REGION_US_915 )
 574:lr1mac/src/smtc_real/src/smtc_real.c ****     case SMTC_REAL_REGION_US_915: {
 575:lr1mac/src/smtc_real/src/smtc_real.c ****         region_us_915_dr_decrement( lr1_mac );
 576:lr1mac/src/smtc_real/src/smtc_real.c ****         break;
 577:lr1mac/src/smtc_real/src/smtc_real.c ****     }
 578:lr1mac/src/smtc_real/src/smtc_real.c **** #endif
 579:lr1mac/src/smtc_real/src/smtc_real.c ****     default:
 580:lr1mac/src/smtc_real/src/smtc_real.c ****         BSP_DBG_TRACE_ERROR( "%s unsupported\n", __func__ );
 581:lr1mac/src/smtc_real/src/smtc_real.c ****         bsp_mcu_handle_lr1mac_issue( );
 582:lr1mac/src/smtc_real/src/smtc_real.c ****         break;
 583:lr1mac/src/smtc_real/src/smtc_real.c ****     }
 584:lr1mac/src/smtc_real/src/smtc_real.c **** }
 1436              		.loc 1 584 1 is_stmt 0 view .LVU346
 1437              		@ sp needed
 1438 000e 10BD     		pop	{r4, pc}
 1439              	.LVL165:
 1440              	.L93:
 580:lr1mac/src/smtc_real/src/smtc_real.c ****         bsp_mcu_handle_lr1mac_issue( );
 1441              		.loc 1 580 9 is_stmt 1 view .LVU347
 580:lr1mac/src/smtc_real/src/smtc_real.c ****         bsp_mcu_handle_lr1mac_issue( );
 1442              		.loc 1 580 9 view .LVU348
 1443 0010 0748     		ldr	r0, .L95
 1444              	.LVL166:
 580:lr1mac/src/smtc_real/src/smtc_real.c ****         bsp_mcu_handle_lr1mac_issue( );
 1445              		.loc 1 580 9 is_stmt 0 view .LVU349
 1446 0012 FFF7FEFF 		bl	bsp_trace_print
 1447              	.LVL167:
 580:lr1mac/src/smtc_real/src/smtc_real.c ****         bsp_mcu_handle_lr1mac_issue( );
 1448              		.loc 1 580 9 is_stmt 1 view .LVU350
 1449 0016 0748     		ldr	r0, .L95+4
 1450 0018 FFF7FEFF 		bl	bsp_trace_print
 1451              	.LVL168:
 580:lr1mac/src/smtc_real/src/smtc_real.c ****         bsp_mcu_handle_lr1mac_issue( );
 1452              		.loc 1 580 9 view .LVU351
 1453 001c 0649     		ldr	r1, .L95+8
 1454 001e 0748     		ldr	r0, .L95+12
 1455 0020 FFF7FEFF 		bl	bsp_trace_print
 1456              	.LVL169:
 580:lr1mac/src/smtc_real/src/smtc_real.c ****         bsp_mcu_handle_lr1mac_issue( );
 1457              		.loc 1 580 9 view .LVU352
 1458 0024 0648     		ldr	r0, .L95+16
 1459 0026 FFF7FEFF 		bl	bsp_trace_print
 1460              	.LVL170:
 580:lr1mac/src/smtc_real/src/smtc_real.c ****         bsp_mcu_handle_lr1mac_issue( );
ARM GAS  /var/folders/bq/yv49bw8j2kd6w3hsq868qv180000gn/T//ccRnzw9B.s 			page 40


 1461              		.loc 1 580 9 view .LVU353
 580:lr1mac/src/smtc_real/src/smtc_real.c ****         bsp_mcu_handle_lr1mac_issue( );
 1462              		.loc 1 580 60 view .LVU354
 581:lr1mac/src/smtc_real/src/smtc_real.c ****         break;
 1463              		.loc 1 581 9 view .LVU355
 1464 002a FFF7FEFF 		bl	bsp_mcu_handle_lr1mac_issue
 1465              	.LVL171:
 582:lr1mac/src/smtc_real/src/smtc_real.c ****     }
 1466              		.loc 1 582 9 view .LVU356
 1467              		.loc 1 584 1 is_stmt 0 view .LVU357
 1468 002e EEE7     		b	.L92
 1469              	.L96:
 1470              		.align	2
 1471              	.L95:
 1472 0030 00000000 		.word	.LC0
 1473 0034 08000000 		.word	.LC2
 1474 0038 00000000 		.word	.LANCHOR18
 1475 003c 10000000 		.word	.LC5
 1476 0040 20000000 		.word	.LC7
 1477              		.cfi_endproc
 1478              	.LFE27:
 1480              		.section	.text.smtc_real_adr_ack_delay_get,"ax",%progbits
 1481              		.align	1
 1482              		.global	smtc_real_adr_ack_delay_get
 1483              		.syntax unified
 1484              		.code	16
 1485              		.thumb_func
 1486              		.fpu softvfp
 1488              	smtc_real_adr_ack_delay_get:
 1489              	.LVL172:
 1490              	.LFB28:
 585:lr1mac/src/smtc_real/src/smtc_real.c **** 
 586:lr1mac/src/smtc_real/src/smtc_real.c **** uint8_t smtc_real_adr_ack_delay_get( lr1_stack_mac_t* lr1_mac )
 587:lr1mac/src/smtc_real/src/smtc_real.c **** {
 1491              		.loc 1 587 1 is_stmt 1 view -0
 1492              		.cfi_startproc
 1493              		@ args = 0, pretend = 0, frame = 0
 1494              		@ frame_needed = 0, uses_anonymous_args = 0
 588:lr1mac/src/smtc_real/src/smtc_real.c ****     switch( lr1_mac->real->region_type )
 1495              		.loc 1 588 5 view .LVU359
 587:lr1mac/src/smtc_real/src/smtc_real.c ****     switch( lr1_mac->real->region_type )
 1496              		.loc 1 587 1 is_stmt 0 view .LVU360
 1497 0000 10B5     		push	{r4, lr}
 1498              		.cfi_def_cfa_offset 8
 1499              		.cfi_offset 4, -8
 1500              		.cfi_offset 14, -4
 1501              		.loc 1 588 26 view .LVU361
 1502 0002 0368     		ldr	r3, [r0]
 1503              		.loc 1 588 5 view .LVU362
 1504 0004 1B79     		ldrb	r3, [r3, #4]
 1505 0006 062B     		cmp	r3, #6
 1506 0008 02D1     		bne	.L98
 589:lr1mac/src/smtc_real/src/smtc_real.c ****     {
 590:lr1mac/src/smtc_real/src/smtc_real.c **** #if defined( REGION_WW2G4 )
 591:lr1mac/src/smtc_real/src/smtc_real.c ****     case SMTC_REAL_REGION_WW2G4: {
 592:lr1mac/src/smtc_real/src/smtc_real.c ****         return region_ww2g4_adr_ack_delay_get( );
 1507              		.loc 1 592 9 is_stmt 1 view .LVU363
ARM GAS  /var/folders/bq/yv49bw8j2kd6w3hsq868qv180000gn/T//ccRnzw9B.s 			page 41


 1508              		.loc 1 592 16 is_stmt 0 view .LVU364
 1509 000a FFF7FEFF 		bl	region_ww2g4_adr_ack_delay_get
 1510              	.LVL173:
 1511              	.L99:
 593:lr1mac/src/smtc_real/src/smtc_real.c ****     }
 594:lr1mac/src/smtc_real/src/smtc_real.c **** #endif
 595:lr1mac/src/smtc_real/src/smtc_real.c **** #if defined( REGION_EU_868 )
 596:lr1mac/src/smtc_real/src/smtc_real.c ****     case SMTC_REAL_REGION_EU_868: {
 597:lr1mac/src/smtc_real/src/smtc_real.c ****         return region_eu_868_adr_ack_delay_get( );
 598:lr1mac/src/smtc_real/src/smtc_real.c ****     }
 599:lr1mac/src/smtc_real/src/smtc_real.c **** #endif
 600:lr1mac/src/smtc_real/src/smtc_real.c **** #if defined( REGION_US_915 )
 601:lr1mac/src/smtc_real/src/smtc_real.c ****     case SMTC_REAL_REGION_US_915: {
 602:lr1mac/src/smtc_real/src/smtc_real.c ****         return region_us_915_adr_ack_delay_get( );
 603:lr1mac/src/smtc_real/src/smtc_real.c ****     }
 604:lr1mac/src/smtc_real/src/smtc_real.c **** #endif
 605:lr1mac/src/smtc_real/src/smtc_real.c ****     default:
 606:lr1mac/src/smtc_real/src/smtc_real.c ****         BSP_DBG_TRACE_ERROR( "%s unsupported\n", __func__ );
 607:lr1mac/src/smtc_real/src/smtc_real.c ****         bsp_mcu_handle_lr1mac_issue( );
 608:lr1mac/src/smtc_real/src/smtc_real.c ****         break;
 609:lr1mac/src/smtc_real/src/smtc_real.c ****     }
 610:lr1mac/src/smtc_real/src/smtc_real.c ****     return ERRORLORAWAN;  // never reach => avoid warning
 611:lr1mac/src/smtc_real/src/smtc_real.c **** }
 1512              		.loc 1 611 1 view .LVU365
 1513              		@ sp needed
 1514 000e 10BD     		pop	{r4, pc}
 1515              	.LVL174:
 1516              	.L98:
 606:lr1mac/src/smtc_real/src/smtc_real.c ****         bsp_mcu_handle_lr1mac_issue( );
 1517              		.loc 1 606 9 is_stmt 1 view .LVU366
 606:lr1mac/src/smtc_real/src/smtc_real.c ****         bsp_mcu_handle_lr1mac_issue( );
 1518              		.loc 1 606 9 view .LVU367
 1519 0010 0848     		ldr	r0, .L100
 1520              	.LVL175:
 606:lr1mac/src/smtc_real/src/smtc_real.c ****         bsp_mcu_handle_lr1mac_issue( );
 1521              		.loc 1 606 9 is_stmt 0 view .LVU368
 1522 0012 FFF7FEFF 		bl	bsp_trace_print
 1523              	.LVL176:
 606:lr1mac/src/smtc_real/src/smtc_real.c ****         bsp_mcu_handle_lr1mac_issue( );
 1524              		.loc 1 606 9 is_stmt 1 view .LVU369
 1525 0016 0848     		ldr	r0, .L100+4
 1526 0018 FFF7FEFF 		bl	bsp_trace_print
 1527              	.LVL177:
 606:lr1mac/src/smtc_real/src/smtc_real.c ****         bsp_mcu_handle_lr1mac_issue( );
 1528              		.loc 1 606 9 view .LVU370
 1529 001c 0749     		ldr	r1, .L100+8
 1530 001e 0848     		ldr	r0, .L100+12
 1531 0020 FFF7FEFF 		bl	bsp_trace_print
 1532              	.LVL178:
 606:lr1mac/src/smtc_real/src/smtc_real.c ****         bsp_mcu_handle_lr1mac_issue( );
 1533              		.loc 1 606 9 view .LVU371
 1534 0024 0748     		ldr	r0, .L100+16
 1535 0026 FFF7FEFF 		bl	bsp_trace_print
 1536              	.LVL179:
 606:lr1mac/src/smtc_real/src/smtc_real.c ****         bsp_mcu_handle_lr1mac_issue( );
 1537              		.loc 1 606 9 view .LVU372
 606:lr1mac/src/smtc_real/src/smtc_real.c ****         bsp_mcu_handle_lr1mac_issue( );
ARM GAS  /var/folders/bq/yv49bw8j2kd6w3hsq868qv180000gn/T//ccRnzw9B.s 			page 42


 1538              		.loc 1 606 60 view .LVU373
 607:lr1mac/src/smtc_real/src/smtc_real.c ****         break;
 1539              		.loc 1 607 9 view .LVU374
 1540 002a FFF7FEFF 		bl	bsp_mcu_handle_lr1mac_issue
 1541              	.LVL180:
 608:lr1mac/src/smtc_real/src/smtc_real.c ****     }
 1542              		.loc 1 608 9 view .LVU375
 610:lr1mac/src/smtc_real/src/smtc_real.c **** }
 1543              		.loc 1 610 5 view .LVU376
 610:lr1mac/src/smtc_real/src/smtc_real.c **** }
 1544              		.loc 1 610 12 is_stmt 0 view .LVU377
 1545 002e FF20     		movs	r0, #255
 1546 0030 EDE7     		b	.L99
 1547              	.L101:
 1548 0032 C046     		.align	2
 1549              	.L100:
 1550 0034 00000000 		.word	.LC0
 1551 0038 08000000 		.word	.LC2
 1552 003c 00000000 		.word	.LANCHOR19
 1553 0040 10000000 		.word	.LC5
 1554 0044 20000000 		.word	.LC7
 1555              		.cfi_endproc
 1556              	.LFE28:
 1558              		.section	.text.smtc_real_adr_ack_limit_get,"ax",%progbits
 1559              		.align	1
 1560              		.global	smtc_real_adr_ack_limit_get
 1561              		.syntax unified
 1562              		.code	16
 1563              		.thumb_func
 1564              		.fpu softvfp
 1566              	smtc_real_adr_ack_limit_get:
 1567              	.LVL181:
 1568              	.LFB29:
 612:lr1mac/src/smtc_real/src/smtc_real.c **** 
 613:lr1mac/src/smtc_real/src/smtc_real.c **** uint8_t smtc_real_adr_ack_limit_get( lr1_stack_mac_t* lr1_mac )
 614:lr1mac/src/smtc_real/src/smtc_real.c **** {
 1569              		.loc 1 614 1 is_stmt 1 view -0
 1570              		.cfi_startproc
 1571              		@ args = 0, pretend = 0, frame = 0
 1572              		@ frame_needed = 0, uses_anonymous_args = 0
 615:lr1mac/src/smtc_real/src/smtc_real.c ****     switch( lr1_mac->real->region_type )
 1573              		.loc 1 615 5 view .LVU379
 614:lr1mac/src/smtc_real/src/smtc_real.c ****     switch( lr1_mac->real->region_type )
 1574              		.loc 1 614 1 is_stmt 0 view .LVU380
 1575 0000 10B5     		push	{r4, lr}
 1576              		.cfi_def_cfa_offset 8
 1577              		.cfi_offset 4, -8
 1578              		.cfi_offset 14, -4
 1579              		.loc 1 615 26 view .LVU381
 1580 0002 0368     		ldr	r3, [r0]
 1581              		.loc 1 615 5 view .LVU382
 1582 0004 1B79     		ldrb	r3, [r3, #4]
 1583 0006 062B     		cmp	r3, #6
 1584 0008 02D1     		bne	.L103
 616:lr1mac/src/smtc_real/src/smtc_real.c ****     {
 617:lr1mac/src/smtc_real/src/smtc_real.c **** #if defined( REGION_WW2G4 )
 618:lr1mac/src/smtc_real/src/smtc_real.c ****     case SMTC_REAL_REGION_WW2G4: {
ARM GAS  /var/folders/bq/yv49bw8j2kd6w3hsq868qv180000gn/T//ccRnzw9B.s 			page 43


 619:lr1mac/src/smtc_real/src/smtc_real.c ****         return region_ww2g4_adr_ack_limit_get( );
 1585              		.loc 1 619 9 is_stmt 1 view .LVU383
 1586              		.loc 1 619 16 is_stmt 0 view .LVU384
 1587 000a FFF7FEFF 		bl	region_ww2g4_adr_ack_limit_get
 1588              	.LVL182:
 1589              	.L104:
 620:lr1mac/src/smtc_real/src/smtc_real.c ****     }
 621:lr1mac/src/smtc_real/src/smtc_real.c **** #endif
 622:lr1mac/src/smtc_real/src/smtc_real.c **** #if defined( REGION_EU_868 )
 623:lr1mac/src/smtc_real/src/smtc_real.c ****     case SMTC_REAL_REGION_EU_868: {
 624:lr1mac/src/smtc_real/src/smtc_real.c ****         return region_eu_868_adr_ack_limit_get( );
 625:lr1mac/src/smtc_real/src/smtc_real.c ****     }
 626:lr1mac/src/smtc_real/src/smtc_real.c **** #endif
 627:lr1mac/src/smtc_real/src/smtc_real.c **** #if defined( REGION_US_915 )
 628:lr1mac/src/smtc_real/src/smtc_real.c ****     case SMTC_REAL_REGION_US_915: {
 629:lr1mac/src/smtc_real/src/smtc_real.c ****         return region_us_915_adr_ack_limit_get( );
 630:lr1mac/src/smtc_real/src/smtc_real.c ****     }
 631:lr1mac/src/smtc_real/src/smtc_real.c **** #endif
 632:lr1mac/src/smtc_real/src/smtc_real.c ****     default:
 633:lr1mac/src/smtc_real/src/smtc_real.c ****         BSP_DBG_TRACE_ERROR( "%s unsupported\n", __func__ );
 634:lr1mac/src/smtc_real/src/smtc_real.c ****         bsp_mcu_handle_lr1mac_issue( );
 635:lr1mac/src/smtc_real/src/smtc_real.c ****         break;
 636:lr1mac/src/smtc_real/src/smtc_real.c ****     }
 637:lr1mac/src/smtc_real/src/smtc_real.c ****     return ERRORLORAWAN;  // never reach => avoid warning
 638:lr1mac/src/smtc_real/src/smtc_real.c **** }
 1590              		.loc 1 638 1 view .LVU385
 1591              		@ sp needed
 1592 000e 10BD     		pop	{r4, pc}
 1593              	.LVL183:
 1594              	.L103:
 633:lr1mac/src/smtc_real/src/smtc_real.c ****         bsp_mcu_handle_lr1mac_issue( );
 1595              		.loc 1 633 9 is_stmt 1 view .LVU386
 633:lr1mac/src/smtc_real/src/smtc_real.c ****         bsp_mcu_handle_lr1mac_issue( );
 1596              		.loc 1 633 9 view .LVU387
 1597 0010 0848     		ldr	r0, .L105
 1598              	.LVL184:
 633:lr1mac/src/smtc_real/src/smtc_real.c ****         bsp_mcu_handle_lr1mac_issue( );
 1599              		.loc 1 633 9 is_stmt 0 view .LVU388
 1600 0012 FFF7FEFF 		bl	bsp_trace_print
 1601              	.LVL185:
 633:lr1mac/src/smtc_real/src/smtc_real.c ****         bsp_mcu_handle_lr1mac_issue( );
 1602              		.loc 1 633 9 is_stmt 1 view .LVU389
 1603 0016 0848     		ldr	r0, .L105+4
 1604 0018 FFF7FEFF 		bl	bsp_trace_print
 1605              	.LVL186:
 633:lr1mac/src/smtc_real/src/smtc_real.c ****         bsp_mcu_handle_lr1mac_issue( );
 1606              		.loc 1 633 9 view .LVU390
 1607 001c 0749     		ldr	r1, .L105+8
 1608 001e 0848     		ldr	r0, .L105+12
 1609 0020 FFF7FEFF 		bl	bsp_trace_print
 1610              	.LVL187:
 633:lr1mac/src/smtc_real/src/smtc_real.c ****         bsp_mcu_handle_lr1mac_issue( );
 1611              		.loc 1 633 9 view .LVU391
 1612 0024 0748     		ldr	r0, .L105+16
 1613 0026 FFF7FEFF 		bl	bsp_trace_print
 1614              	.LVL188:
 633:lr1mac/src/smtc_real/src/smtc_real.c ****         bsp_mcu_handle_lr1mac_issue( );
ARM GAS  /var/folders/bq/yv49bw8j2kd6w3hsq868qv180000gn/T//ccRnzw9B.s 			page 44


 1615              		.loc 1 633 9 view .LVU392
 633:lr1mac/src/smtc_real/src/smtc_real.c ****         bsp_mcu_handle_lr1mac_issue( );
 1616              		.loc 1 633 60 view .LVU393
 634:lr1mac/src/smtc_real/src/smtc_real.c ****         break;
 1617              		.loc 1 634 9 view .LVU394
 1618 002a FFF7FEFF 		bl	bsp_mcu_handle_lr1mac_issue
 1619              	.LVL189:
 635:lr1mac/src/smtc_real/src/smtc_real.c ****     }
 1620              		.loc 1 635 9 view .LVU395
 637:lr1mac/src/smtc_real/src/smtc_real.c **** }
 1621              		.loc 1 637 5 view .LVU396
 637:lr1mac/src/smtc_real/src/smtc_real.c **** }
 1622              		.loc 1 637 12 is_stmt 0 view .LVU397
 1623 002e FF20     		movs	r0, #255
 1624 0030 EDE7     		b	.L104
 1625              	.L106:
 1626 0032 C046     		.align	2
 1627              	.L105:
 1628 0034 00000000 		.word	.LC0
 1629 0038 08000000 		.word	.LC2
 1630 003c 00000000 		.word	.LANCHOR20
 1631 0040 10000000 		.word	.LC5
 1632 0044 20000000 		.word	.LC7
 1633              		.cfi_endproc
 1634              	.LFE29:
 1636              		.section	.text.smtc_real_sync_word_get,"ax",%progbits
 1637              		.align	1
 1638              		.global	smtc_real_sync_word_get
 1639              		.syntax unified
 1640              		.code	16
 1641              		.thumb_func
 1642              		.fpu softvfp
 1644              	smtc_real_sync_word_get:
 1645              	.LVL190:
 1646              	.LFB30:
 639:lr1mac/src/smtc_real/src/smtc_real.c **** 
 640:lr1mac/src/smtc_real/src/smtc_real.c **** uint8_t smtc_real_sync_word_get( lr1_stack_mac_t* lr1_mac )
 641:lr1mac/src/smtc_real/src/smtc_real.c **** {
 1647              		.loc 1 641 1 is_stmt 1 view -0
 1648              		.cfi_startproc
 1649              		@ args = 0, pretend = 0, frame = 0
 1650              		@ frame_needed = 0, uses_anonymous_args = 0
 642:lr1mac/src/smtc_real/src/smtc_real.c ****     switch( lr1_mac->real->region_type )
 1651              		.loc 1 642 5 view .LVU399
 641:lr1mac/src/smtc_real/src/smtc_real.c ****     switch( lr1_mac->real->region_type )
 1652              		.loc 1 641 1 is_stmt 0 view .LVU400
 1653 0000 10B5     		push	{r4, lr}
 1654              		.cfi_def_cfa_offset 8
 1655              		.cfi_offset 4, -8
 1656              		.cfi_offset 14, -4
 1657              		.loc 1 642 26 view .LVU401
 1658 0002 0368     		ldr	r3, [r0]
 1659              		.loc 1 642 5 view .LVU402
 1660 0004 1B79     		ldrb	r3, [r3, #4]
 1661 0006 062B     		cmp	r3, #6
 1662 0008 02D1     		bne	.L108
 643:lr1mac/src/smtc_real/src/smtc_real.c ****     {
ARM GAS  /var/folders/bq/yv49bw8j2kd6w3hsq868qv180000gn/T//ccRnzw9B.s 			page 45


 644:lr1mac/src/smtc_real/src/smtc_real.c **** #if defined( REGION_WW2G4 )
 645:lr1mac/src/smtc_real/src/smtc_real.c ****     case SMTC_REAL_REGION_WW2G4: {
 646:lr1mac/src/smtc_real/src/smtc_real.c ****         return region_ww2g4_sync_word_get( );
 1663              		.loc 1 646 9 is_stmt 1 view .LVU403
 1664              		.loc 1 646 16 is_stmt 0 view .LVU404
 1665 000a FFF7FEFF 		bl	region_ww2g4_sync_word_get
 1666              	.LVL191:
 1667              	.L109:
 647:lr1mac/src/smtc_real/src/smtc_real.c ****     }
 648:lr1mac/src/smtc_real/src/smtc_real.c **** #endif
 649:lr1mac/src/smtc_real/src/smtc_real.c **** #if defined( REGION_EU_868 )
 650:lr1mac/src/smtc_real/src/smtc_real.c ****     case SMTC_REAL_REGION_EU_868: {
 651:lr1mac/src/smtc_real/src/smtc_real.c ****         return region_eu_868_sync_word_get( );
 652:lr1mac/src/smtc_real/src/smtc_real.c ****     }
 653:lr1mac/src/smtc_real/src/smtc_real.c **** #endif
 654:lr1mac/src/smtc_real/src/smtc_real.c **** #if defined( REGION_US_915 )
 655:lr1mac/src/smtc_real/src/smtc_real.c ****     case SMTC_REAL_REGION_US_915: {
 656:lr1mac/src/smtc_real/src/smtc_real.c ****         return region_us_915_sync_word_get( );
 657:lr1mac/src/smtc_real/src/smtc_real.c ****     }
 658:lr1mac/src/smtc_real/src/smtc_real.c **** #endif
 659:lr1mac/src/smtc_real/src/smtc_real.c ****     default:
 660:lr1mac/src/smtc_real/src/smtc_real.c ****         BSP_DBG_TRACE_ERROR( "%s unsupported\n", __func__ );
 661:lr1mac/src/smtc_real/src/smtc_real.c ****         bsp_mcu_handle_lr1mac_issue( );
 662:lr1mac/src/smtc_real/src/smtc_real.c ****         break;
 663:lr1mac/src/smtc_real/src/smtc_real.c ****     }
 664:lr1mac/src/smtc_real/src/smtc_real.c ****     return ERRORLORAWAN;  // never reach => avoid warning
 665:lr1mac/src/smtc_real/src/smtc_real.c **** }
 1668              		.loc 1 665 1 view .LVU405
 1669              		@ sp needed
 1670 000e 10BD     		pop	{r4, pc}
 1671              	.LVL192:
 1672              	.L108:
 660:lr1mac/src/smtc_real/src/smtc_real.c ****         bsp_mcu_handle_lr1mac_issue( );
 1673              		.loc 1 660 9 is_stmt 1 view .LVU406
 660:lr1mac/src/smtc_real/src/smtc_real.c ****         bsp_mcu_handle_lr1mac_issue( );
 1674              		.loc 1 660 9 view .LVU407
 1675 0010 0848     		ldr	r0, .L110
 1676              	.LVL193:
 660:lr1mac/src/smtc_real/src/smtc_real.c ****         bsp_mcu_handle_lr1mac_issue( );
 1677              		.loc 1 660 9 is_stmt 0 view .LVU408
 1678 0012 FFF7FEFF 		bl	bsp_trace_print
 1679              	.LVL194:
 660:lr1mac/src/smtc_real/src/smtc_real.c ****         bsp_mcu_handle_lr1mac_issue( );
 1680              		.loc 1 660 9 is_stmt 1 view .LVU409
 1681 0016 0848     		ldr	r0, .L110+4
 1682 0018 FFF7FEFF 		bl	bsp_trace_print
 1683              	.LVL195:
 660:lr1mac/src/smtc_real/src/smtc_real.c ****         bsp_mcu_handle_lr1mac_issue( );
 1684              		.loc 1 660 9 view .LVU410
 1685 001c 0749     		ldr	r1, .L110+8
 1686 001e 0848     		ldr	r0, .L110+12
 1687 0020 FFF7FEFF 		bl	bsp_trace_print
 1688              	.LVL196:
 660:lr1mac/src/smtc_real/src/smtc_real.c ****         bsp_mcu_handle_lr1mac_issue( );
 1689              		.loc 1 660 9 view .LVU411
 1690 0024 0748     		ldr	r0, .L110+16
 1691 0026 FFF7FEFF 		bl	bsp_trace_print
ARM GAS  /var/folders/bq/yv49bw8j2kd6w3hsq868qv180000gn/T//ccRnzw9B.s 			page 46


 1692              	.LVL197:
 660:lr1mac/src/smtc_real/src/smtc_real.c ****         bsp_mcu_handle_lr1mac_issue( );
 1693              		.loc 1 660 9 view .LVU412
 660:lr1mac/src/smtc_real/src/smtc_real.c ****         bsp_mcu_handle_lr1mac_issue( );
 1694              		.loc 1 660 60 view .LVU413
 661:lr1mac/src/smtc_real/src/smtc_real.c ****         break;
 1695              		.loc 1 661 9 view .LVU414
 1696 002a FFF7FEFF 		bl	bsp_mcu_handle_lr1mac_issue
 1697              	.LVL198:
 662:lr1mac/src/smtc_real/src/smtc_real.c ****     }
 1698              		.loc 1 662 9 view .LVU415
 664:lr1mac/src/smtc_real/src/smtc_real.c **** }
 1699              		.loc 1 664 5 view .LVU416
 664:lr1mac/src/smtc_real/src/smtc_real.c **** }
 1700              		.loc 1 664 12 is_stmt 0 view .LVU417
 1701 002e FF20     		movs	r0, #255
 1702 0030 EDE7     		b	.L109
 1703              	.L111:
 1704 0032 C046     		.align	2
 1705              	.L110:
 1706 0034 00000000 		.word	.LC0
 1707 0038 08000000 		.word	.LC2
 1708 003c 00000000 		.word	.LANCHOR21
 1709 0040 10000000 		.word	.LC5
 1710 0044 20000000 		.word	.LC7
 1711              		.cfi_endproc
 1712              	.LFE30:
 1714              		.section	.text.smtc_real_gfsk_sync_word_get,"ax",%progbits
 1715              		.align	1
 1716              		.global	smtc_real_gfsk_sync_word_get
 1717              		.syntax unified
 1718              		.code	16
 1719              		.thumb_func
 1720              		.fpu softvfp
 1722              	smtc_real_gfsk_sync_word_get:
 1723              	.LVL199:
 1724              	.LFB31:
 666:lr1mac/src/smtc_real/src/smtc_real.c **** 
 667:lr1mac/src/smtc_real/src/smtc_real.c **** uint8_t* smtc_real_gfsk_sync_word_get( lr1_stack_mac_t* lr1_mac )
 668:lr1mac/src/smtc_real/src/smtc_real.c **** {
 1725              		.loc 1 668 1 is_stmt 1 view -0
 1726              		.cfi_startproc
 1727              		@ args = 0, pretend = 0, frame = 0
 1728              		@ frame_needed = 0, uses_anonymous_args = 0
 669:lr1mac/src/smtc_real/src/smtc_real.c ****     switch( lr1_mac->real->region_type )
 1729              		.loc 1 669 5 view .LVU419
 670:lr1mac/src/smtc_real/src/smtc_real.c ****     {
 671:lr1mac/src/smtc_real/src/smtc_real.c **** #if defined( REGION_EU_868 )
 672:lr1mac/src/smtc_real/src/smtc_real.c ****     case SMTC_REAL_REGION_EU_868: {
 673:lr1mac/src/smtc_real/src/smtc_real.c ****         return region_eu_868_gfsk_sync_word_get( );
 674:lr1mac/src/smtc_real/src/smtc_real.c ****     }
 675:lr1mac/src/smtc_real/src/smtc_real.c **** #endif
 676:lr1mac/src/smtc_real/src/smtc_real.c ****     default:
 677:lr1mac/src/smtc_real/src/smtc_real.c ****         BSP_DBG_TRACE_ERROR( "%s unsupported\n", __func__ );
 1730              		.loc 1 677 9 view .LVU420
 1731              		.loc 1 677 9 view .LVU421
 668:lr1mac/src/smtc_real/src/smtc_real.c ****     switch( lr1_mac->real->region_type )
ARM GAS  /var/folders/bq/yv49bw8j2kd6w3hsq868qv180000gn/T//ccRnzw9B.s 			page 47


 1732              		.loc 1 668 1 is_stmt 0 view .LVU422
 1733 0000 10B5     		push	{r4, lr}
 1734              		.cfi_def_cfa_offset 8
 1735              		.cfi_offset 4, -8
 1736              		.cfi_offset 14, -4
 1737              		.loc 1 677 9 view .LVU423
 1738 0002 0848     		ldr	r0, .L113
 1739              	.LVL200:
 1740              		.loc 1 677 9 view .LVU424
 1741 0004 FFF7FEFF 		bl	bsp_trace_print
 1742              	.LVL201:
 1743              		.loc 1 677 9 is_stmt 1 view .LVU425
 1744 0008 0748     		ldr	r0, .L113+4
 1745 000a FFF7FEFF 		bl	bsp_trace_print
 1746              	.LVL202:
 1747              		.loc 1 677 9 view .LVU426
 1748 000e 0749     		ldr	r1, .L113+8
 1749 0010 0748     		ldr	r0, .L113+12
 1750 0012 FFF7FEFF 		bl	bsp_trace_print
 1751              	.LVL203:
 1752              		.loc 1 677 9 view .LVU427
 1753 0016 0748     		ldr	r0, .L113+16
 1754 0018 FFF7FEFF 		bl	bsp_trace_print
 1755              	.LVL204:
 1756              		.loc 1 677 9 view .LVU428
 1757              		.loc 1 677 60 view .LVU429
 678:lr1mac/src/smtc_real/src/smtc_real.c ****         bsp_mcu_handle_lr1mac_issue( );
 1758              		.loc 1 678 9 view .LVU430
 679:lr1mac/src/smtc_real/src/smtc_real.c ****         break;
 680:lr1mac/src/smtc_real/src/smtc_real.c ****     }
 681:lr1mac/src/smtc_real/src/smtc_real.c ****     return 0;  // never reach => avoid warning
 682:lr1mac/src/smtc_real/src/smtc_real.c **** }
 1759              		.loc 1 682 1 is_stmt 0 view .LVU431
 1760              		@ sp needed
 678:lr1mac/src/smtc_real/src/smtc_real.c ****         bsp_mcu_handle_lr1mac_issue( );
 1761              		.loc 1 678 9 view .LVU432
 1762 001c FFF7FEFF 		bl	bsp_mcu_handle_lr1mac_issue
 1763              	.LVL205:
 679:lr1mac/src/smtc_real/src/smtc_real.c ****         break;
 1764              		.loc 1 679 9 is_stmt 1 view .LVU433
 681:lr1mac/src/smtc_real/src/smtc_real.c **** }
 1765              		.loc 1 681 5 view .LVU434
 1766              		.loc 1 682 1 is_stmt 0 view .LVU435
 1767 0020 0020     		movs	r0, #0
 1768 0022 10BD     		pop	{r4, pc}
 1769              	.L114:
 1770              		.align	2
 1771              	.L113:
 1772 0024 00000000 		.word	.LC0
 1773 0028 08000000 		.word	.LC2
 1774 002c 00000000 		.word	.LANCHOR22
 1775 0030 10000000 		.word	.LC5
 1776 0034 20000000 		.word	.LC7
 1777              		.cfi_endproc
 1778              	.LFE31:
 1780              		.section	.text.smtc_real_is_valid_rx1_dr_offset,"ax",%progbits
 1781              		.align	1
ARM GAS  /var/folders/bq/yv49bw8j2kd6w3hsq868qv180000gn/T//ccRnzw9B.s 			page 48


 1782              		.global	smtc_real_is_valid_rx1_dr_offset
 1783              		.syntax unified
 1784              		.code	16
 1785              		.thumb_func
 1786              		.fpu softvfp
 1788              	smtc_real_is_valid_rx1_dr_offset:
 1789              	.LVL206:
 1790              	.LFB32:
 683:lr1mac/src/smtc_real/src/smtc_real.c **** 
 684:lr1mac/src/smtc_real/src/smtc_real.c **** status_lorawan_t smtc_real_is_valid_rx1_dr_offset( lr1_stack_mac_t* lr1_mac, uint8_t rx1_dr_offset 
 685:lr1mac/src/smtc_real/src/smtc_real.c **** {
 1791              		.loc 1 685 1 is_stmt 1 view -0
 1792              		.cfi_startproc
 1793              		@ args = 0, pretend = 0, frame = 0
 1794              		@ frame_needed = 0, uses_anonymous_args = 0
 686:lr1mac/src/smtc_real/src/smtc_real.c ****     switch( lr1_mac->real->region_type )
 1795              		.loc 1 686 5 view .LVU437
 685:lr1mac/src/smtc_real/src/smtc_real.c ****     switch( lr1_mac->real->region_type )
 1796              		.loc 1 685 1 is_stmt 0 view .LVU438
 1797 0000 10B5     		push	{r4, lr}
 1798              		.cfi_def_cfa_offset 8
 1799              		.cfi_offset 4, -8
 1800              		.cfi_offset 14, -4
 1801              		.loc 1 686 26 view .LVU439
 1802 0002 0368     		ldr	r3, [r0]
 1803              		.loc 1 686 5 view .LVU440
 1804 0004 1B79     		ldrb	r3, [r3, #4]
 1805 0006 062B     		cmp	r3, #6
 1806 0008 03D1     		bne	.L116
 687:lr1mac/src/smtc_real/src/smtc_real.c ****     {
 688:lr1mac/src/smtc_real/src/smtc_real.c **** #if defined( REGION_WW2G4 )
 689:lr1mac/src/smtc_real/src/smtc_real.c ****     case SMTC_REAL_REGION_WW2G4: {
 690:lr1mac/src/smtc_real/src/smtc_real.c ****         return region_ww2g4_is_valid_rx1_dr_offset( rx1_dr_offset );
 1807              		.loc 1 690 9 is_stmt 1 view .LVU441
 1808              		.loc 1 690 16 is_stmt 0 view .LVU442
 1809 000a 0800     		movs	r0, r1
 1810              	.LVL207:
 1811              		.loc 1 690 16 view .LVU443
 1812 000c FFF7FEFF 		bl	region_ww2g4_is_valid_rx1_dr_offset
 1813              	.LVL208:
 1814              	.L117:
 691:lr1mac/src/smtc_real/src/smtc_real.c ****     }
 692:lr1mac/src/smtc_real/src/smtc_real.c **** #endif
 693:lr1mac/src/smtc_real/src/smtc_real.c **** #if defined( REGION_EU_868 )
 694:lr1mac/src/smtc_real/src/smtc_real.c ****     case SMTC_REAL_REGION_EU_868: {
 695:lr1mac/src/smtc_real/src/smtc_real.c ****         return region_eu_868_is_valid_rx1_dr_offset( rx1_dr_offset );
 696:lr1mac/src/smtc_real/src/smtc_real.c ****     }
 697:lr1mac/src/smtc_real/src/smtc_real.c **** #endif
 698:lr1mac/src/smtc_real/src/smtc_real.c **** #if defined( REGION_US_915 )
 699:lr1mac/src/smtc_real/src/smtc_real.c ****     case SMTC_REAL_REGION_US_915: {
 700:lr1mac/src/smtc_real/src/smtc_real.c ****         return region_us_915_is_valid_rx1_dr_offset( rx1_dr_offset );
 701:lr1mac/src/smtc_real/src/smtc_real.c ****     }
 702:lr1mac/src/smtc_real/src/smtc_real.c **** #endif
 703:lr1mac/src/smtc_real/src/smtc_real.c ****     default:
 704:lr1mac/src/smtc_real/src/smtc_real.c ****         BSP_DBG_TRACE_ERROR( "%s unsupported\n", __func__ );
 705:lr1mac/src/smtc_real/src/smtc_real.c ****         bsp_mcu_handle_lr1mac_issue( );
 706:lr1mac/src/smtc_real/src/smtc_real.c ****         break;
ARM GAS  /var/folders/bq/yv49bw8j2kd6w3hsq868qv180000gn/T//ccRnzw9B.s 			page 49


 707:lr1mac/src/smtc_real/src/smtc_real.c ****     }
 708:lr1mac/src/smtc_real/src/smtc_real.c ****     return ERRORLORAWAN;  // never reach => avoid warning
 709:lr1mac/src/smtc_real/src/smtc_real.c **** }
 1815              		.loc 1 709 1 view .LVU444
 1816              		@ sp needed
 1817 0010 10BD     		pop	{r4, pc}
 1818              	.LVL209:
 1819              	.L116:
 704:lr1mac/src/smtc_real/src/smtc_real.c ****         bsp_mcu_handle_lr1mac_issue( );
 1820              		.loc 1 704 9 is_stmt 1 view .LVU445
 704:lr1mac/src/smtc_real/src/smtc_real.c ****         bsp_mcu_handle_lr1mac_issue( );
 1821              		.loc 1 704 9 view .LVU446
 1822 0012 0948     		ldr	r0, .L118
 1823              	.LVL210:
 704:lr1mac/src/smtc_real/src/smtc_real.c ****         bsp_mcu_handle_lr1mac_issue( );
 1824              		.loc 1 704 9 is_stmt 0 view .LVU447
 1825 0014 FFF7FEFF 		bl	bsp_trace_print
 1826              	.LVL211:
 704:lr1mac/src/smtc_real/src/smtc_real.c ****         bsp_mcu_handle_lr1mac_issue( );
 1827              		.loc 1 704 9 is_stmt 1 view .LVU448
 1828 0018 0848     		ldr	r0, .L118+4
 1829 001a FFF7FEFF 		bl	bsp_trace_print
 1830              	.LVL212:
 704:lr1mac/src/smtc_real/src/smtc_real.c ****         bsp_mcu_handle_lr1mac_issue( );
 1831              		.loc 1 704 9 view .LVU449
 1832 001e 0849     		ldr	r1, .L118+8
 1833 0020 0848     		ldr	r0, .L118+12
 1834 0022 FFF7FEFF 		bl	bsp_trace_print
 1835              	.LVL213:
 704:lr1mac/src/smtc_real/src/smtc_real.c ****         bsp_mcu_handle_lr1mac_issue( );
 1836              		.loc 1 704 9 view .LVU450
 1837 0026 0848     		ldr	r0, .L118+16
 1838 0028 FFF7FEFF 		bl	bsp_trace_print
 1839              	.LVL214:
 704:lr1mac/src/smtc_real/src/smtc_real.c ****         bsp_mcu_handle_lr1mac_issue( );
 1840              		.loc 1 704 9 view .LVU451
 704:lr1mac/src/smtc_real/src/smtc_real.c ****         bsp_mcu_handle_lr1mac_issue( );
 1841              		.loc 1 704 60 view .LVU452
 705:lr1mac/src/smtc_real/src/smtc_real.c ****         break;
 1842              		.loc 1 705 9 view .LVU453
 1843 002c FFF7FEFF 		bl	bsp_mcu_handle_lr1mac_issue
 1844              	.LVL215:
 706:lr1mac/src/smtc_real/src/smtc_real.c ****     }
 1845              		.loc 1 706 9 view .LVU454
 708:lr1mac/src/smtc_real/src/smtc_real.c **** }
 1846              		.loc 1 708 5 view .LVU455
 708:lr1mac/src/smtc_real/src/smtc_real.c **** }
 1847              		.loc 1 708 12 is_stmt 0 view .LVU456
 1848 0030 0120     		movs	r0, #1
 1849 0032 4042     		rsbs	r0, r0, #0
 1850 0034 ECE7     		b	.L117
 1851              	.L119:
 1852 0036 C046     		.align	2
 1853              	.L118:
 1854 0038 00000000 		.word	.LC0
 1855 003c 08000000 		.word	.LC2
 1856 0040 00000000 		.word	.LANCHOR23
ARM GAS  /var/folders/bq/yv49bw8j2kd6w3hsq868qv180000gn/T//ccRnzw9B.s 			page 50


 1857 0044 10000000 		.word	.LC5
 1858 0048 20000000 		.word	.LC7
 1859              		.cfi_endproc
 1860              	.LFE32:
 1862              		.section	.text.smtc_real_is_valid_dr,"ax",%progbits
 1863              		.align	1
 1864              		.global	smtc_real_is_valid_dr
 1865              		.syntax unified
 1866              		.code	16
 1867              		.thumb_func
 1868              		.fpu softvfp
 1870              	smtc_real_is_valid_dr:
 1871              	.LVL216:
 1872              	.LFB33:
 710:lr1mac/src/smtc_real/src/smtc_real.c **** 
 711:lr1mac/src/smtc_real/src/smtc_real.c **** status_lorawan_t smtc_real_is_valid_dr( lr1_stack_mac_t* lr1_mac, uint8_t dr )
 712:lr1mac/src/smtc_real/src/smtc_real.c **** {
 1873              		.loc 1 712 1 is_stmt 1 view -0
 1874              		.cfi_startproc
 1875              		@ args = 0, pretend = 0, frame = 0
 1876              		@ frame_needed = 0, uses_anonymous_args = 0
 713:lr1mac/src/smtc_real/src/smtc_real.c ****     switch( lr1_mac->real->region_type )
 1877              		.loc 1 713 5 view .LVU458
 712:lr1mac/src/smtc_real/src/smtc_real.c ****     switch( lr1_mac->real->region_type )
 1878              		.loc 1 712 1 is_stmt 0 view .LVU459
 1879 0000 10B5     		push	{r4, lr}
 1880              		.cfi_def_cfa_offset 8
 1881              		.cfi_offset 4, -8
 1882              		.cfi_offset 14, -4
 1883              		.loc 1 713 26 view .LVU460
 1884 0002 0368     		ldr	r3, [r0]
 1885              		.loc 1 713 5 view .LVU461
 1886 0004 1B79     		ldrb	r3, [r3, #4]
 1887 0006 062B     		cmp	r3, #6
 1888 0008 03D1     		bne	.L121
 714:lr1mac/src/smtc_real/src/smtc_real.c ****     {
 715:lr1mac/src/smtc_real/src/smtc_real.c **** #if defined( REGION_WW2G4 )
 716:lr1mac/src/smtc_real/src/smtc_real.c ****     case SMTC_REAL_REGION_WW2G4: {
 717:lr1mac/src/smtc_real/src/smtc_real.c ****         return region_ww2g4_is_valid_dr( dr );
 1889              		.loc 1 717 9 is_stmt 1 view .LVU462
 1890              		.loc 1 717 16 is_stmt 0 view .LVU463
 1891 000a 0800     		movs	r0, r1
 1892              	.LVL217:
 1893              		.loc 1 717 16 view .LVU464
 1894 000c FFF7FEFF 		bl	region_ww2g4_is_valid_dr
 1895              	.LVL218:
 1896              	.L122:
 718:lr1mac/src/smtc_real/src/smtc_real.c ****     }
 719:lr1mac/src/smtc_real/src/smtc_real.c **** #endif
 720:lr1mac/src/smtc_real/src/smtc_real.c **** #if defined( REGION_EU_868 )
 721:lr1mac/src/smtc_real/src/smtc_real.c ****     case SMTC_REAL_REGION_EU_868: {
 722:lr1mac/src/smtc_real/src/smtc_real.c ****         return region_eu_868_is_valid_dr( dr );
 723:lr1mac/src/smtc_real/src/smtc_real.c ****     }
 724:lr1mac/src/smtc_real/src/smtc_real.c **** #endif
 725:lr1mac/src/smtc_real/src/smtc_real.c **** #if defined( REGION_US_915 )
 726:lr1mac/src/smtc_real/src/smtc_real.c ****     case SMTC_REAL_REGION_US_915: {
 727:lr1mac/src/smtc_real/src/smtc_real.c ****         return region_us_915_is_valid_dr( dr );
ARM GAS  /var/folders/bq/yv49bw8j2kd6w3hsq868qv180000gn/T//ccRnzw9B.s 			page 51


 728:lr1mac/src/smtc_real/src/smtc_real.c ****     }
 729:lr1mac/src/smtc_real/src/smtc_real.c **** #endif
 730:lr1mac/src/smtc_real/src/smtc_real.c ****     default:
 731:lr1mac/src/smtc_real/src/smtc_real.c ****         BSP_DBG_TRACE_ERROR( "%s unsupported\n", __func__ );
 732:lr1mac/src/smtc_real/src/smtc_real.c ****         bsp_mcu_handle_lr1mac_issue( );
 733:lr1mac/src/smtc_real/src/smtc_real.c ****         break;
 734:lr1mac/src/smtc_real/src/smtc_real.c ****     }
 735:lr1mac/src/smtc_real/src/smtc_real.c ****     return ERRORLORAWAN;  // never reach => avoid warning
 736:lr1mac/src/smtc_real/src/smtc_real.c **** }
 1897              		.loc 1 736 1 view .LVU465
 1898              		@ sp needed
 1899 0010 10BD     		pop	{r4, pc}
 1900              	.LVL219:
 1901              	.L121:
 731:lr1mac/src/smtc_real/src/smtc_real.c ****         bsp_mcu_handle_lr1mac_issue( );
 1902              		.loc 1 731 9 is_stmt 1 view .LVU466
 731:lr1mac/src/smtc_real/src/smtc_real.c ****         bsp_mcu_handle_lr1mac_issue( );
 1903              		.loc 1 731 9 view .LVU467
 1904 0012 0948     		ldr	r0, .L123
 1905              	.LVL220:
 731:lr1mac/src/smtc_real/src/smtc_real.c ****         bsp_mcu_handle_lr1mac_issue( );
 1906              		.loc 1 731 9 is_stmt 0 view .LVU468
 1907 0014 FFF7FEFF 		bl	bsp_trace_print
 1908              	.LVL221:
 731:lr1mac/src/smtc_real/src/smtc_real.c ****         bsp_mcu_handle_lr1mac_issue( );
 1909              		.loc 1 731 9 is_stmt 1 view .LVU469
 1910 0018 0848     		ldr	r0, .L123+4
 1911 001a FFF7FEFF 		bl	bsp_trace_print
 1912              	.LVL222:
 731:lr1mac/src/smtc_real/src/smtc_real.c ****         bsp_mcu_handle_lr1mac_issue( );
 1913              		.loc 1 731 9 view .LVU470
 1914 001e 0849     		ldr	r1, .L123+8
 1915 0020 0848     		ldr	r0, .L123+12
 1916 0022 FFF7FEFF 		bl	bsp_trace_print
 1917              	.LVL223:
 731:lr1mac/src/smtc_real/src/smtc_real.c ****         bsp_mcu_handle_lr1mac_issue( );
 1918              		.loc 1 731 9 view .LVU471
 1919 0026 0848     		ldr	r0, .L123+16
 1920 0028 FFF7FEFF 		bl	bsp_trace_print
 1921              	.LVL224:
 731:lr1mac/src/smtc_real/src/smtc_real.c ****         bsp_mcu_handle_lr1mac_issue( );
 1922              		.loc 1 731 9 view .LVU472
 731:lr1mac/src/smtc_real/src/smtc_real.c ****         bsp_mcu_handle_lr1mac_issue( );
 1923              		.loc 1 731 60 view .LVU473
 732:lr1mac/src/smtc_real/src/smtc_real.c ****         break;
 1924              		.loc 1 732 9 view .LVU474
 1925 002c FFF7FEFF 		bl	bsp_mcu_handle_lr1mac_issue
 1926              	.LVL225:
 733:lr1mac/src/smtc_real/src/smtc_real.c ****     }
 1927              		.loc 1 733 9 view .LVU475
 735:lr1mac/src/smtc_real/src/smtc_real.c **** }
 1928              		.loc 1 735 5 view .LVU476
 735:lr1mac/src/smtc_real/src/smtc_real.c **** }
 1929              		.loc 1 735 12 is_stmt 0 view .LVU477
 1930 0030 0120     		movs	r0, #1
 1931 0032 4042     		rsbs	r0, r0, #0
 1932 0034 ECE7     		b	.L122
ARM GAS  /var/folders/bq/yv49bw8j2kd6w3hsq868qv180000gn/T//ccRnzw9B.s 			page 52


 1933              	.L124:
 1934 0036 C046     		.align	2
 1935              	.L123:
 1936 0038 00000000 		.word	.LC0
 1937 003c 08000000 		.word	.LC2
 1938 0040 00000000 		.word	.LANCHOR24
 1939 0044 10000000 		.word	.LC5
 1940 0048 20000000 		.word	.LC7
 1941              		.cfi_endproc
 1942              	.LFE33:
 1944              		.section	.text.smtc_real_is_acceptable_dr,"ax",%progbits
 1945              		.align	1
 1946              		.global	smtc_real_is_acceptable_dr
 1947              		.syntax unified
 1948              		.code	16
 1949              		.thumb_func
 1950              		.fpu softvfp
 1952              	smtc_real_is_acceptable_dr:
 1953              	.LVL226:
 1954              	.LFB34:
 737:lr1mac/src/smtc_real/src/smtc_real.c **** 
 738:lr1mac/src/smtc_real/src/smtc_real.c **** status_lorawan_t smtc_real_is_acceptable_dr( lr1_stack_mac_t* lr1_mac, uint8_t dr )
 739:lr1mac/src/smtc_real/src/smtc_real.c **** {
 1955              		.loc 1 739 1 is_stmt 1 view -0
 1956              		.cfi_startproc
 1957              		@ args = 0, pretend = 0, frame = 0
 1958              		@ frame_needed = 0, uses_anonymous_args = 0
 740:lr1mac/src/smtc_real/src/smtc_real.c ****     switch( lr1_mac->real->region_type )
 1959              		.loc 1 740 5 view .LVU479
 739:lr1mac/src/smtc_real/src/smtc_real.c ****     switch( lr1_mac->real->region_type )
 1960              		.loc 1 739 1 is_stmt 0 view .LVU480
 1961 0000 10B5     		push	{r4, lr}
 1962              		.cfi_def_cfa_offset 8
 1963              		.cfi_offset 4, -8
 1964              		.cfi_offset 14, -4
 1965              		.loc 1 740 26 view .LVU481
 1966 0002 0368     		ldr	r3, [r0]
 1967              		.loc 1 740 5 view .LVU482
 1968 0004 1B79     		ldrb	r3, [r3, #4]
 1969 0006 062B     		cmp	r3, #6
 1970 0008 03D1     		bne	.L126
 741:lr1mac/src/smtc_real/src/smtc_real.c ****     {
 742:lr1mac/src/smtc_real/src/smtc_real.c **** #if defined( REGION_WW2G4 )
 743:lr1mac/src/smtc_real/src/smtc_real.c ****     case SMTC_REAL_REGION_WW2G4: {
 744:lr1mac/src/smtc_real/src/smtc_real.c ****         return region_ww2g4_is_acceptable_dr( dr );
 1971              		.loc 1 744 9 is_stmt 1 view .LVU483
 1972              		.loc 1 744 16 is_stmt 0 view .LVU484
 1973 000a 0800     		movs	r0, r1
 1974              	.LVL227:
 1975              		.loc 1 744 16 view .LVU485
 1976 000c FFF7FEFF 		bl	region_ww2g4_is_acceptable_dr
 1977              	.LVL228:
 1978              	.L127:
 745:lr1mac/src/smtc_real/src/smtc_real.c ****     }
 746:lr1mac/src/smtc_real/src/smtc_real.c **** #endif
 747:lr1mac/src/smtc_real/src/smtc_real.c **** #if defined( REGION_EU_868 )
 748:lr1mac/src/smtc_real/src/smtc_real.c ****     case SMTC_REAL_REGION_EU_868: {
ARM GAS  /var/folders/bq/yv49bw8j2kd6w3hsq868qv180000gn/T//ccRnzw9B.s 			page 53


 749:lr1mac/src/smtc_real/src/smtc_real.c ****         return region_eu_868_is_acceptable_dr( dr );
 750:lr1mac/src/smtc_real/src/smtc_real.c ****     }
 751:lr1mac/src/smtc_real/src/smtc_real.c **** #endif
 752:lr1mac/src/smtc_real/src/smtc_real.c **** #if defined( REGION_US_915 )
 753:lr1mac/src/smtc_real/src/smtc_real.c ****     case SMTC_REAL_REGION_US_915: {
 754:lr1mac/src/smtc_real/src/smtc_real.c ****         return region_us_915_is_acceptable_dr( dr );
 755:lr1mac/src/smtc_real/src/smtc_real.c ****     }
 756:lr1mac/src/smtc_real/src/smtc_real.c **** #endif
 757:lr1mac/src/smtc_real/src/smtc_real.c ****     default:
 758:lr1mac/src/smtc_real/src/smtc_real.c ****         BSP_DBG_TRACE_ERROR( "%s unsupported\n", __func__ );
 759:lr1mac/src/smtc_real/src/smtc_real.c ****         bsp_mcu_handle_lr1mac_issue( );
 760:lr1mac/src/smtc_real/src/smtc_real.c ****         break;
 761:lr1mac/src/smtc_real/src/smtc_real.c ****     }
 762:lr1mac/src/smtc_real/src/smtc_real.c ****     return ERRORLORAWAN;  // never reach => avoid warning
 763:lr1mac/src/smtc_real/src/smtc_real.c **** }
 1979              		.loc 1 763 1 view .LVU486
 1980              		@ sp needed
 1981 0010 10BD     		pop	{r4, pc}
 1982              	.LVL229:
 1983              	.L126:
 758:lr1mac/src/smtc_real/src/smtc_real.c ****         bsp_mcu_handle_lr1mac_issue( );
 1984              		.loc 1 758 9 is_stmt 1 view .LVU487
 758:lr1mac/src/smtc_real/src/smtc_real.c ****         bsp_mcu_handle_lr1mac_issue( );
 1985              		.loc 1 758 9 view .LVU488
 1986 0012 0948     		ldr	r0, .L128
 1987              	.LVL230:
 758:lr1mac/src/smtc_real/src/smtc_real.c ****         bsp_mcu_handle_lr1mac_issue( );
 1988              		.loc 1 758 9 is_stmt 0 view .LVU489
 1989 0014 FFF7FEFF 		bl	bsp_trace_print
 1990              	.LVL231:
 758:lr1mac/src/smtc_real/src/smtc_real.c ****         bsp_mcu_handle_lr1mac_issue( );
 1991              		.loc 1 758 9 is_stmt 1 view .LVU490
 1992 0018 0848     		ldr	r0, .L128+4
 1993 001a FFF7FEFF 		bl	bsp_trace_print
 1994              	.LVL232:
 758:lr1mac/src/smtc_real/src/smtc_real.c ****         bsp_mcu_handle_lr1mac_issue( );
 1995              		.loc 1 758 9 view .LVU491
 1996 001e 0849     		ldr	r1, .L128+8
 1997 0020 0848     		ldr	r0, .L128+12
 1998 0022 FFF7FEFF 		bl	bsp_trace_print
 1999              	.LVL233:
 758:lr1mac/src/smtc_real/src/smtc_real.c ****         bsp_mcu_handle_lr1mac_issue( );
 2000              		.loc 1 758 9 view .LVU492
 2001 0026 0848     		ldr	r0, .L128+16
 2002 0028 FFF7FEFF 		bl	bsp_trace_print
 2003              	.LVL234:
 758:lr1mac/src/smtc_real/src/smtc_real.c ****         bsp_mcu_handle_lr1mac_issue( );
 2004              		.loc 1 758 9 view .LVU493
 758:lr1mac/src/smtc_real/src/smtc_real.c ****         bsp_mcu_handle_lr1mac_issue( );
 2005              		.loc 1 758 60 view .LVU494
 759:lr1mac/src/smtc_real/src/smtc_real.c ****         break;
 2006              		.loc 1 759 9 view .LVU495
 2007 002c FFF7FEFF 		bl	bsp_mcu_handle_lr1mac_issue
 2008              	.LVL235:
 760:lr1mac/src/smtc_real/src/smtc_real.c ****     }
 2009              		.loc 1 760 9 view .LVU496
 762:lr1mac/src/smtc_real/src/smtc_real.c **** }
ARM GAS  /var/folders/bq/yv49bw8j2kd6w3hsq868qv180000gn/T//ccRnzw9B.s 			page 54


 2010              		.loc 1 762 5 view .LVU497
 762:lr1mac/src/smtc_real/src/smtc_real.c **** }
 2011              		.loc 1 762 12 is_stmt 0 view .LVU498
 2012 0030 0120     		movs	r0, #1
 2013 0032 4042     		rsbs	r0, r0, #0
 2014 0034 ECE7     		b	.L127
 2015              	.L129:
 2016 0036 C046     		.align	2
 2017              	.L128:
 2018 0038 00000000 		.word	.LC0
 2019 003c 08000000 		.word	.LC2
 2020 0040 00000000 		.word	.LANCHOR25
 2021 0044 10000000 		.word	.LC5
 2022 0048 20000000 		.word	.LC7
 2023              		.cfi_endproc
 2024              	.LFE34:
 2026              		.section	.text.smtc_real_is_valid_tx_frequency,"ax",%progbits
 2027              		.align	1
 2028              		.global	smtc_real_is_valid_tx_frequency
 2029              		.syntax unified
 2030              		.code	16
 2031              		.thumb_func
 2032              		.fpu softvfp
 2034              	smtc_real_is_valid_tx_frequency:
 2035              	.LVL236:
 2036              	.LFB35:
 764:lr1mac/src/smtc_real/src/smtc_real.c **** 
 765:lr1mac/src/smtc_real/src/smtc_real.c **** status_lorawan_t smtc_real_is_valid_tx_frequency( lr1_stack_mac_t* lr1_mac, uint32_t frequency )
 766:lr1mac/src/smtc_real/src/smtc_real.c **** {
 2037              		.loc 1 766 1 is_stmt 1 view -0
 2038              		.cfi_startproc
 2039              		@ args = 0, pretend = 0, frame = 0
 2040              		@ frame_needed = 0, uses_anonymous_args = 0
 767:lr1mac/src/smtc_real/src/smtc_real.c ****     switch( lr1_mac->real->region_type )
 2041              		.loc 1 767 5 view .LVU500
 766:lr1mac/src/smtc_real/src/smtc_real.c ****     switch( lr1_mac->real->region_type )
 2042              		.loc 1 766 1 is_stmt 0 view .LVU501
 2043 0000 10B5     		push	{r4, lr}
 2044              		.cfi_def_cfa_offset 8
 2045              		.cfi_offset 4, -8
 2046              		.cfi_offset 14, -4
 2047              		.loc 1 767 26 view .LVU502
 2048 0002 0368     		ldr	r3, [r0]
 2049              		.loc 1 767 5 view .LVU503
 2050 0004 1B79     		ldrb	r3, [r3, #4]
 2051 0006 062B     		cmp	r3, #6
 2052 0008 03D1     		bne	.L131
 768:lr1mac/src/smtc_real/src/smtc_real.c ****     {
 769:lr1mac/src/smtc_real/src/smtc_real.c **** #if defined( REGION_WW2G4 )
 770:lr1mac/src/smtc_real/src/smtc_real.c ****     case SMTC_REAL_REGION_WW2G4: {
 771:lr1mac/src/smtc_real/src/smtc_real.c ****         return region_ww2g4_is_valid_tx_frequency( frequency );
 2053              		.loc 1 771 9 is_stmt 1 view .LVU504
 2054              		.loc 1 771 16 is_stmt 0 view .LVU505
 2055 000a 0800     		movs	r0, r1
 2056              	.LVL237:
 2057              		.loc 1 771 16 view .LVU506
 2058 000c FFF7FEFF 		bl	region_ww2g4_is_valid_tx_frequency
ARM GAS  /var/folders/bq/yv49bw8j2kd6w3hsq868qv180000gn/T//ccRnzw9B.s 			page 55


 2059              	.LVL238:
 2060              	.L132:
 772:lr1mac/src/smtc_real/src/smtc_real.c ****     }
 773:lr1mac/src/smtc_real/src/smtc_real.c **** #endif
 774:lr1mac/src/smtc_real/src/smtc_real.c **** #if defined( REGION_EU_868 )
 775:lr1mac/src/smtc_real/src/smtc_real.c ****     case SMTC_REAL_REGION_EU_868: {
 776:lr1mac/src/smtc_real/src/smtc_real.c ****         return region_eu_868_is_valid_tx_frequency( frequency );
 777:lr1mac/src/smtc_real/src/smtc_real.c ****     }
 778:lr1mac/src/smtc_real/src/smtc_real.c **** #endif
 779:lr1mac/src/smtc_real/src/smtc_real.c **** #if defined( REGION_US_915 )
 780:lr1mac/src/smtc_real/src/smtc_real.c ****     case SMTC_REAL_REGION_US_915: {
 781:lr1mac/src/smtc_real/src/smtc_real.c ****         return region_us_915_is_valid_tx_frequency( frequency );
 782:lr1mac/src/smtc_real/src/smtc_real.c ****     }
 783:lr1mac/src/smtc_real/src/smtc_real.c **** #endif
 784:lr1mac/src/smtc_real/src/smtc_real.c ****     default:
 785:lr1mac/src/smtc_real/src/smtc_real.c ****         BSP_DBG_TRACE_ERROR( "%s unsupported\n", __func__ );
 786:lr1mac/src/smtc_real/src/smtc_real.c ****         bsp_mcu_handle_lr1mac_issue( );
 787:lr1mac/src/smtc_real/src/smtc_real.c ****         break;
 788:lr1mac/src/smtc_real/src/smtc_real.c ****     }
 789:lr1mac/src/smtc_real/src/smtc_real.c ****     return ERRORLORAWAN;  // never reach => avoid warning
 790:lr1mac/src/smtc_real/src/smtc_real.c **** }
 2061              		.loc 1 790 1 view .LVU507
 2062              		@ sp needed
 2063 0010 10BD     		pop	{r4, pc}
 2064              	.LVL239:
 2065              	.L131:
 785:lr1mac/src/smtc_real/src/smtc_real.c ****         bsp_mcu_handle_lr1mac_issue( );
 2066              		.loc 1 785 9 is_stmt 1 view .LVU508
 785:lr1mac/src/smtc_real/src/smtc_real.c ****         bsp_mcu_handle_lr1mac_issue( );
 2067              		.loc 1 785 9 view .LVU509
 2068 0012 0948     		ldr	r0, .L133
 2069              	.LVL240:
 785:lr1mac/src/smtc_real/src/smtc_real.c ****         bsp_mcu_handle_lr1mac_issue( );
 2070              		.loc 1 785 9 is_stmt 0 view .LVU510
 2071 0014 FFF7FEFF 		bl	bsp_trace_print
 2072              	.LVL241:
 785:lr1mac/src/smtc_real/src/smtc_real.c ****         bsp_mcu_handle_lr1mac_issue( );
 2073              		.loc 1 785 9 is_stmt 1 view .LVU511
 2074 0018 0848     		ldr	r0, .L133+4
 2075 001a FFF7FEFF 		bl	bsp_trace_print
 2076              	.LVL242:
 785:lr1mac/src/smtc_real/src/smtc_real.c ****         bsp_mcu_handle_lr1mac_issue( );
 2077              		.loc 1 785 9 view .LVU512
 2078 001e 0849     		ldr	r1, .L133+8
 2079 0020 0848     		ldr	r0, .L133+12
 2080 0022 FFF7FEFF 		bl	bsp_trace_print
 2081              	.LVL243:
 785:lr1mac/src/smtc_real/src/smtc_real.c ****         bsp_mcu_handle_lr1mac_issue( );
 2082              		.loc 1 785 9 view .LVU513
 2083 0026 0848     		ldr	r0, .L133+16
 2084 0028 FFF7FEFF 		bl	bsp_trace_print
 2085              	.LVL244:
 785:lr1mac/src/smtc_real/src/smtc_real.c ****         bsp_mcu_handle_lr1mac_issue( );
 2086              		.loc 1 785 9 view .LVU514
 785:lr1mac/src/smtc_real/src/smtc_real.c ****         bsp_mcu_handle_lr1mac_issue( );
 2087              		.loc 1 785 60 view .LVU515
 786:lr1mac/src/smtc_real/src/smtc_real.c ****         break;
ARM GAS  /var/folders/bq/yv49bw8j2kd6w3hsq868qv180000gn/T//ccRnzw9B.s 			page 56


 2088              		.loc 1 786 9 view .LVU516
 2089 002c FFF7FEFF 		bl	bsp_mcu_handle_lr1mac_issue
 2090              	.LVL245:
 787:lr1mac/src/smtc_real/src/smtc_real.c ****     }
 2091              		.loc 1 787 9 view .LVU517
 789:lr1mac/src/smtc_real/src/smtc_real.c **** }
 2092              		.loc 1 789 5 view .LVU518
 789:lr1mac/src/smtc_real/src/smtc_real.c **** }
 2093              		.loc 1 789 12 is_stmt 0 view .LVU519
 2094 0030 0120     		movs	r0, #1
 2095 0032 4042     		rsbs	r0, r0, #0
 2096 0034 ECE7     		b	.L132
 2097              	.L134:
 2098 0036 C046     		.align	2
 2099              	.L133:
 2100 0038 00000000 		.word	.LC0
 2101 003c 08000000 		.word	.LC2
 2102 0040 00000000 		.word	.LANCHOR26
 2103 0044 10000000 		.word	.LC5
 2104 0048 20000000 		.word	.LC7
 2105              		.cfi_endproc
 2106              	.LFE35:
 2108              		.section	.text.smtc_real_is_valid_rx_frequency,"ax",%progbits
 2109              		.align	1
 2110              		.global	smtc_real_is_valid_rx_frequency
 2111              		.syntax unified
 2112              		.code	16
 2113              		.thumb_func
 2114              		.fpu softvfp
 2116              	smtc_real_is_valid_rx_frequency:
 2117              	.LVL246:
 2118              	.LFB36:
 791:lr1mac/src/smtc_real/src/smtc_real.c **** 
 792:lr1mac/src/smtc_real/src/smtc_real.c **** status_lorawan_t smtc_real_is_valid_rx_frequency( lr1_stack_mac_t* lr1_mac, uint32_t frequency )
 793:lr1mac/src/smtc_real/src/smtc_real.c **** {
 2119              		.loc 1 793 1 is_stmt 1 view -0
 2120              		.cfi_startproc
 2121              		@ args = 0, pretend = 0, frame = 0
 2122              		@ frame_needed = 0, uses_anonymous_args = 0
 794:lr1mac/src/smtc_real/src/smtc_real.c ****     switch( lr1_mac->real->region_type )
 2123              		.loc 1 794 5 view .LVU521
 793:lr1mac/src/smtc_real/src/smtc_real.c ****     switch( lr1_mac->real->region_type )
 2124              		.loc 1 793 1 is_stmt 0 view .LVU522
 2125 0000 10B5     		push	{r4, lr}
 2126              		.cfi_def_cfa_offset 8
 2127              		.cfi_offset 4, -8
 2128              		.cfi_offset 14, -4
 2129              		.loc 1 794 26 view .LVU523
 2130 0002 0368     		ldr	r3, [r0]
 2131              		.loc 1 794 5 view .LVU524
 2132 0004 1B79     		ldrb	r3, [r3, #4]
 2133 0006 062B     		cmp	r3, #6
 2134 0008 03D1     		bne	.L136
 795:lr1mac/src/smtc_real/src/smtc_real.c ****     {
 796:lr1mac/src/smtc_real/src/smtc_real.c **** #if defined( REGION_WW2G4 )
 797:lr1mac/src/smtc_real/src/smtc_real.c ****     case SMTC_REAL_REGION_WW2G4: {
 798:lr1mac/src/smtc_real/src/smtc_real.c ****         return region_ww2g4_is_valid_rx_frequency( frequency );
ARM GAS  /var/folders/bq/yv49bw8j2kd6w3hsq868qv180000gn/T//ccRnzw9B.s 			page 57


 2135              		.loc 1 798 9 is_stmt 1 view .LVU525
 2136              		.loc 1 798 16 is_stmt 0 view .LVU526
 2137 000a 0800     		movs	r0, r1
 2138              	.LVL247:
 2139              		.loc 1 798 16 view .LVU527
 2140 000c FFF7FEFF 		bl	region_ww2g4_is_valid_rx_frequency
 2141              	.LVL248:
 2142              	.L137:
 799:lr1mac/src/smtc_real/src/smtc_real.c ****     }
 800:lr1mac/src/smtc_real/src/smtc_real.c **** #endif
 801:lr1mac/src/smtc_real/src/smtc_real.c **** #if defined( REGION_EU_868 )
 802:lr1mac/src/smtc_real/src/smtc_real.c ****     case SMTC_REAL_REGION_EU_868: {
 803:lr1mac/src/smtc_real/src/smtc_real.c ****         return region_eu_868_is_valid_rx_frequency( frequency );
 804:lr1mac/src/smtc_real/src/smtc_real.c ****     }
 805:lr1mac/src/smtc_real/src/smtc_real.c **** #endif
 806:lr1mac/src/smtc_real/src/smtc_real.c **** #if defined( REGION_US_915 )
 807:lr1mac/src/smtc_real/src/smtc_real.c ****     case SMTC_REAL_REGION_US_915: {
 808:lr1mac/src/smtc_real/src/smtc_real.c ****         return region_us_915_is_valid_rx_frequency( frequency );
 809:lr1mac/src/smtc_real/src/smtc_real.c ****     }
 810:lr1mac/src/smtc_real/src/smtc_real.c **** #endif
 811:lr1mac/src/smtc_real/src/smtc_real.c ****     default:
 812:lr1mac/src/smtc_real/src/smtc_real.c ****         BSP_DBG_TRACE_ERROR( "%s unsupported\n", __func__ );
 813:lr1mac/src/smtc_real/src/smtc_real.c ****         bsp_mcu_handle_lr1mac_issue( );
 814:lr1mac/src/smtc_real/src/smtc_real.c ****         break;
 815:lr1mac/src/smtc_real/src/smtc_real.c ****     }
 816:lr1mac/src/smtc_real/src/smtc_real.c ****     return ERRORLORAWAN;  // never reach => avoid warning
 817:lr1mac/src/smtc_real/src/smtc_real.c **** }
 2143              		.loc 1 817 1 view .LVU528
 2144              		@ sp needed
 2145 0010 10BD     		pop	{r4, pc}
 2146              	.LVL249:
 2147              	.L136:
 812:lr1mac/src/smtc_real/src/smtc_real.c ****         bsp_mcu_handle_lr1mac_issue( );
 2148              		.loc 1 812 9 is_stmt 1 view .LVU529
 812:lr1mac/src/smtc_real/src/smtc_real.c ****         bsp_mcu_handle_lr1mac_issue( );
 2149              		.loc 1 812 9 view .LVU530
 2150 0012 0948     		ldr	r0, .L138
 2151              	.LVL250:
 812:lr1mac/src/smtc_real/src/smtc_real.c ****         bsp_mcu_handle_lr1mac_issue( );
 2152              		.loc 1 812 9 is_stmt 0 view .LVU531
 2153 0014 FFF7FEFF 		bl	bsp_trace_print
 2154              	.LVL251:
 812:lr1mac/src/smtc_real/src/smtc_real.c ****         bsp_mcu_handle_lr1mac_issue( );
 2155              		.loc 1 812 9 is_stmt 1 view .LVU532
 2156 0018 0848     		ldr	r0, .L138+4
 2157 001a FFF7FEFF 		bl	bsp_trace_print
 2158              	.LVL252:
 812:lr1mac/src/smtc_real/src/smtc_real.c ****         bsp_mcu_handle_lr1mac_issue( );
 2159              		.loc 1 812 9 view .LVU533
 2160 001e 0849     		ldr	r1, .L138+8
 2161 0020 0848     		ldr	r0, .L138+12
 2162 0022 FFF7FEFF 		bl	bsp_trace_print
 2163              	.LVL253:
 812:lr1mac/src/smtc_real/src/smtc_real.c ****         bsp_mcu_handle_lr1mac_issue( );
 2164              		.loc 1 812 9 view .LVU534
 2165 0026 0848     		ldr	r0, .L138+16
 2166 0028 FFF7FEFF 		bl	bsp_trace_print
ARM GAS  /var/folders/bq/yv49bw8j2kd6w3hsq868qv180000gn/T//ccRnzw9B.s 			page 58


 2167              	.LVL254:
 812:lr1mac/src/smtc_real/src/smtc_real.c ****         bsp_mcu_handle_lr1mac_issue( );
 2168              		.loc 1 812 9 view .LVU535
 812:lr1mac/src/smtc_real/src/smtc_real.c ****         bsp_mcu_handle_lr1mac_issue( );
 2169              		.loc 1 812 60 view .LVU536
 813:lr1mac/src/smtc_real/src/smtc_real.c ****         break;
 2170              		.loc 1 813 9 view .LVU537
 2171 002c FFF7FEFF 		bl	bsp_mcu_handle_lr1mac_issue
 2172              	.LVL255:
 814:lr1mac/src/smtc_real/src/smtc_real.c ****     }
 2173              		.loc 1 814 9 view .LVU538
 816:lr1mac/src/smtc_real/src/smtc_real.c **** }
 2174              		.loc 1 816 5 view .LVU539
 816:lr1mac/src/smtc_real/src/smtc_real.c **** }
 2175              		.loc 1 816 12 is_stmt 0 view .LVU540
 2176 0030 0120     		movs	r0, #1
 2177 0032 4042     		rsbs	r0, r0, #0
 2178 0034 ECE7     		b	.L137
 2179              	.L139:
 2180 0036 C046     		.align	2
 2181              	.L138:
 2182 0038 00000000 		.word	.LC0
 2183 003c 08000000 		.word	.LC2
 2184 0040 00000000 		.word	.LANCHOR27
 2185 0044 10000000 		.word	.LC5
 2186 0048 20000000 		.word	.LC7
 2187              		.cfi_endproc
 2188              	.LFE36:
 2190              		.section	.text.smtc_real_is_valid_tx_power,"ax",%progbits
 2191              		.align	1
 2192              		.global	smtc_real_is_valid_tx_power
 2193              		.syntax unified
 2194              		.code	16
 2195              		.thumb_func
 2196              		.fpu softvfp
 2198              	smtc_real_is_valid_tx_power:
 2199              	.LVL256:
 2200              	.LFB37:
 818:lr1mac/src/smtc_real/src/smtc_real.c **** 
 819:lr1mac/src/smtc_real/src/smtc_real.c **** status_lorawan_t smtc_real_is_valid_tx_power( lr1_stack_mac_t* lr1_mac, uint8_t power )
 820:lr1mac/src/smtc_real/src/smtc_real.c **** {
 2201              		.loc 1 820 1 is_stmt 1 view -0
 2202              		.cfi_startproc
 2203              		@ args = 0, pretend = 0, frame = 0
 2204              		@ frame_needed = 0, uses_anonymous_args = 0
 821:lr1mac/src/smtc_real/src/smtc_real.c ****     switch( lr1_mac->real->region_type )
 2205              		.loc 1 821 5 view .LVU542
 820:lr1mac/src/smtc_real/src/smtc_real.c ****     switch( lr1_mac->real->region_type )
 2206              		.loc 1 820 1 is_stmt 0 view .LVU543
 2207 0000 10B5     		push	{r4, lr}
 2208              		.cfi_def_cfa_offset 8
 2209              		.cfi_offset 4, -8
 2210              		.cfi_offset 14, -4
 2211              		.loc 1 821 26 view .LVU544
 2212 0002 0368     		ldr	r3, [r0]
 2213              		.loc 1 821 5 view .LVU545
 2214 0004 1B79     		ldrb	r3, [r3, #4]
ARM GAS  /var/folders/bq/yv49bw8j2kd6w3hsq868qv180000gn/T//ccRnzw9B.s 			page 59


 2215 0006 062B     		cmp	r3, #6
 2216 0008 03D1     		bne	.L141
 822:lr1mac/src/smtc_real/src/smtc_real.c ****     {
 823:lr1mac/src/smtc_real/src/smtc_real.c **** #if defined( REGION_WW2G4 )
 824:lr1mac/src/smtc_real/src/smtc_real.c ****     case SMTC_REAL_REGION_WW2G4: {
 825:lr1mac/src/smtc_real/src/smtc_real.c ****         return region_ww2g4_is_valid_tx_power( power );
 2217              		.loc 1 825 9 is_stmt 1 view .LVU546
 2218              		.loc 1 825 16 is_stmt 0 view .LVU547
 2219 000a 0800     		movs	r0, r1
 2220              	.LVL257:
 2221              		.loc 1 825 16 view .LVU548
 2222 000c FFF7FEFF 		bl	region_ww2g4_is_valid_tx_power
 2223              	.LVL258:
 2224              	.L142:
 826:lr1mac/src/smtc_real/src/smtc_real.c ****     }
 827:lr1mac/src/smtc_real/src/smtc_real.c **** #endif
 828:lr1mac/src/smtc_real/src/smtc_real.c **** #if defined( REGION_EU_868 )
 829:lr1mac/src/smtc_real/src/smtc_real.c ****     case SMTC_REAL_REGION_EU_868: {
 830:lr1mac/src/smtc_real/src/smtc_real.c ****         return region_eu_868_is_valid_tx_power( power );
 831:lr1mac/src/smtc_real/src/smtc_real.c ****     }
 832:lr1mac/src/smtc_real/src/smtc_real.c **** #endif
 833:lr1mac/src/smtc_real/src/smtc_real.c **** #if defined( REGION_US_915 )
 834:lr1mac/src/smtc_real/src/smtc_real.c ****     case SMTC_REAL_REGION_US_915: {
 835:lr1mac/src/smtc_real/src/smtc_real.c ****         return region_us_915_is_valid_tx_power( power );
 836:lr1mac/src/smtc_real/src/smtc_real.c ****     }
 837:lr1mac/src/smtc_real/src/smtc_real.c **** #endif
 838:lr1mac/src/smtc_real/src/smtc_real.c ****     default:
 839:lr1mac/src/smtc_real/src/smtc_real.c ****         BSP_DBG_TRACE_ERROR( "%s unsupported\n", __func__ );
 840:lr1mac/src/smtc_real/src/smtc_real.c ****         bsp_mcu_handle_lr1mac_issue( );
 841:lr1mac/src/smtc_real/src/smtc_real.c ****         break;
 842:lr1mac/src/smtc_real/src/smtc_real.c ****     }
 843:lr1mac/src/smtc_real/src/smtc_real.c ****     return ERRORLORAWAN;  // never reach => avoid warning
 844:lr1mac/src/smtc_real/src/smtc_real.c **** }
 2225              		.loc 1 844 1 view .LVU549
 2226              		@ sp needed
 2227 0010 10BD     		pop	{r4, pc}
 2228              	.LVL259:
 2229              	.L141:
 839:lr1mac/src/smtc_real/src/smtc_real.c ****         bsp_mcu_handle_lr1mac_issue( );
 2230              		.loc 1 839 9 is_stmt 1 view .LVU550
 839:lr1mac/src/smtc_real/src/smtc_real.c ****         bsp_mcu_handle_lr1mac_issue( );
 2231              		.loc 1 839 9 view .LVU551
 2232 0012 0948     		ldr	r0, .L143
 2233              	.LVL260:
 839:lr1mac/src/smtc_real/src/smtc_real.c ****         bsp_mcu_handle_lr1mac_issue( );
 2234              		.loc 1 839 9 is_stmt 0 view .LVU552
 2235 0014 FFF7FEFF 		bl	bsp_trace_print
 2236              	.LVL261:
 839:lr1mac/src/smtc_real/src/smtc_real.c ****         bsp_mcu_handle_lr1mac_issue( );
 2237              		.loc 1 839 9 is_stmt 1 view .LVU553
 2238 0018 0848     		ldr	r0, .L143+4
 2239 001a FFF7FEFF 		bl	bsp_trace_print
 2240              	.LVL262:
 839:lr1mac/src/smtc_real/src/smtc_real.c ****         bsp_mcu_handle_lr1mac_issue( );
 2241              		.loc 1 839 9 view .LVU554
 2242 001e 0849     		ldr	r1, .L143+8
 2243 0020 0848     		ldr	r0, .L143+12
ARM GAS  /var/folders/bq/yv49bw8j2kd6w3hsq868qv180000gn/T//ccRnzw9B.s 			page 60


 2244 0022 FFF7FEFF 		bl	bsp_trace_print
 2245              	.LVL263:
 839:lr1mac/src/smtc_real/src/smtc_real.c ****         bsp_mcu_handle_lr1mac_issue( );
 2246              		.loc 1 839 9 view .LVU555
 2247 0026 0848     		ldr	r0, .L143+16
 2248 0028 FFF7FEFF 		bl	bsp_trace_print
 2249              	.LVL264:
 839:lr1mac/src/smtc_real/src/smtc_real.c ****         bsp_mcu_handle_lr1mac_issue( );
 2250              		.loc 1 839 9 view .LVU556
 839:lr1mac/src/smtc_real/src/smtc_real.c ****         bsp_mcu_handle_lr1mac_issue( );
 2251              		.loc 1 839 60 view .LVU557
 840:lr1mac/src/smtc_real/src/smtc_real.c ****         break;
 2252              		.loc 1 840 9 view .LVU558
 2253 002c FFF7FEFF 		bl	bsp_mcu_handle_lr1mac_issue
 2254              	.LVL265:
 841:lr1mac/src/smtc_real/src/smtc_real.c ****     }
 2255              		.loc 1 841 9 view .LVU559
 843:lr1mac/src/smtc_real/src/smtc_real.c **** }
 2256              		.loc 1 843 5 view .LVU560
 843:lr1mac/src/smtc_real/src/smtc_real.c **** }
 2257              		.loc 1 843 12 is_stmt 0 view .LVU561
 2258 0030 0120     		movs	r0, #1
 2259 0032 4042     		rsbs	r0, r0, #0
 2260 0034 ECE7     		b	.L142
 2261              	.L144:
 2262 0036 C046     		.align	2
 2263              	.L143:
 2264 0038 00000000 		.word	.LC0
 2265 003c 08000000 		.word	.LC2
 2266 0040 00000000 		.word	.LANCHOR28
 2267 0044 10000000 		.word	.LC5
 2268 0048 20000000 		.word	.LC7
 2269              		.cfi_endproc
 2270              	.LFE37:
 2272              		.section	.text.smtc_real_is_valid_channel_index,"ax",%progbits
 2273              		.align	1
 2274              		.global	smtc_real_is_valid_channel_index
 2275              		.syntax unified
 2276              		.code	16
 2277              		.thumb_func
 2278              		.fpu softvfp
 2280              	smtc_real_is_valid_channel_index:
 2281              	.LVL266:
 2282              	.LFB38:
 845:lr1mac/src/smtc_real/src/smtc_real.c **** 
 846:lr1mac/src/smtc_real/src/smtc_real.c **** status_lorawan_t smtc_real_is_valid_channel_index( lr1_stack_mac_t* lr1_mac, uint8_t channel_index 
 847:lr1mac/src/smtc_real/src/smtc_real.c **** {
 2283              		.loc 1 847 1 is_stmt 1 view -0
 2284              		.cfi_startproc
 2285              		@ args = 0, pretend = 0, frame = 0
 2286              		@ frame_needed = 0, uses_anonymous_args = 0
 848:lr1mac/src/smtc_real/src/smtc_real.c ****     switch( lr1_mac->real->region_type )
 2287              		.loc 1 848 5 view .LVU563
 847:lr1mac/src/smtc_real/src/smtc_real.c ****     switch( lr1_mac->real->region_type )
 2288              		.loc 1 847 1 is_stmt 0 view .LVU564
 2289 0000 10B5     		push	{r4, lr}
 2290              		.cfi_def_cfa_offset 8
ARM GAS  /var/folders/bq/yv49bw8j2kd6w3hsq868qv180000gn/T//ccRnzw9B.s 			page 61


 2291              		.cfi_offset 4, -8
 2292              		.cfi_offset 14, -4
 2293              		.loc 1 848 26 view .LVU565
 2294 0002 0368     		ldr	r3, [r0]
 2295              		.loc 1 848 5 view .LVU566
 2296 0004 1B79     		ldrb	r3, [r3, #4]
 2297 0006 062B     		cmp	r3, #6
 2298 0008 03D1     		bne	.L146
 849:lr1mac/src/smtc_real/src/smtc_real.c ****     {
 850:lr1mac/src/smtc_real/src/smtc_real.c **** #if defined( REGION_WW2G4 )
 851:lr1mac/src/smtc_real/src/smtc_real.c ****     case SMTC_REAL_REGION_WW2G4: {
 852:lr1mac/src/smtc_real/src/smtc_real.c ****         return region_ww2g4_is_valid_channel_index( channel_index );
 2299              		.loc 1 852 9 is_stmt 1 view .LVU567
 2300              		.loc 1 852 16 is_stmt 0 view .LVU568
 2301 000a 0800     		movs	r0, r1
 2302              	.LVL267:
 2303              		.loc 1 852 16 view .LVU569
 2304 000c FFF7FEFF 		bl	region_ww2g4_is_valid_channel_index
 2305              	.LVL268:
 2306              	.L147:
 853:lr1mac/src/smtc_real/src/smtc_real.c ****     }
 854:lr1mac/src/smtc_real/src/smtc_real.c **** #endif
 855:lr1mac/src/smtc_real/src/smtc_real.c **** #if defined( REGION_EU_868 )
 856:lr1mac/src/smtc_real/src/smtc_real.c ****     case SMTC_REAL_REGION_EU_868: {
 857:lr1mac/src/smtc_real/src/smtc_real.c ****         return region_eu_868_is_valid_channel_index( channel_index );
 858:lr1mac/src/smtc_real/src/smtc_real.c ****     }
 859:lr1mac/src/smtc_real/src/smtc_real.c **** #endif
 860:lr1mac/src/smtc_real/src/smtc_real.c **** #if defined( REGION_US_915 )
 861:lr1mac/src/smtc_real/src/smtc_real.c ****     case SMTC_REAL_REGION_US_915: {
 862:lr1mac/src/smtc_real/src/smtc_real.c ****         return region_us_915_is_valid_channel_index( channel_index );
 863:lr1mac/src/smtc_real/src/smtc_real.c ****     }
 864:lr1mac/src/smtc_real/src/smtc_real.c **** #endif
 865:lr1mac/src/smtc_real/src/smtc_real.c ****     default:
 866:lr1mac/src/smtc_real/src/smtc_real.c ****         BSP_DBG_TRACE_ERROR( "%s unsupported\n", __func__ );
 867:lr1mac/src/smtc_real/src/smtc_real.c ****         bsp_mcu_handle_lr1mac_issue( );
 868:lr1mac/src/smtc_real/src/smtc_real.c ****         break;
 869:lr1mac/src/smtc_real/src/smtc_real.c ****     }
 870:lr1mac/src/smtc_real/src/smtc_real.c ****     return ERRORLORAWAN;  // never reach => avoid warning
 871:lr1mac/src/smtc_real/src/smtc_real.c **** }
 2307              		.loc 1 871 1 view .LVU570
 2308              		@ sp needed
 2309 0010 10BD     		pop	{r4, pc}
 2310              	.LVL269:
 2311              	.L146:
 866:lr1mac/src/smtc_real/src/smtc_real.c ****         bsp_mcu_handle_lr1mac_issue( );
 2312              		.loc 1 866 9 is_stmt 1 view .LVU571
 866:lr1mac/src/smtc_real/src/smtc_real.c ****         bsp_mcu_handle_lr1mac_issue( );
 2313              		.loc 1 866 9 view .LVU572
 2314 0012 0948     		ldr	r0, .L148
 2315              	.LVL270:
 866:lr1mac/src/smtc_real/src/smtc_real.c ****         bsp_mcu_handle_lr1mac_issue( );
 2316              		.loc 1 866 9 is_stmt 0 view .LVU573
 2317 0014 FFF7FEFF 		bl	bsp_trace_print
 2318              	.LVL271:
 866:lr1mac/src/smtc_real/src/smtc_real.c ****         bsp_mcu_handle_lr1mac_issue( );
 2319              		.loc 1 866 9 is_stmt 1 view .LVU574
 2320 0018 0848     		ldr	r0, .L148+4
ARM GAS  /var/folders/bq/yv49bw8j2kd6w3hsq868qv180000gn/T//ccRnzw9B.s 			page 62


 2321 001a FFF7FEFF 		bl	bsp_trace_print
 2322              	.LVL272:
 866:lr1mac/src/smtc_real/src/smtc_real.c ****         bsp_mcu_handle_lr1mac_issue( );
 2323              		.loc 1 866 9 view .LVU575
 2324 001e 0849     		ldr	r1, .L148+8
 2325 0020 0848     		ldr	r0, .L148+12
 2326 0022 FFF7FEFF 		bl	bsp_trace_print
 2327              	.LVL273:
 866:lr1mac/src/smtc_real/src/smtc_real.c ****         bsp_mcu_handle_lr1mac_issue( );
 2328              		.loc 1 866 9 view .LVU576
 2329 0026 0848     		ldr	r0, .L148+16
 2330 0028 FFF7FEFF 		bl	bsp_trace_print
 2331              	.LVL274:
 866:lr1mac/src/smtc_real/src/smtc_real.c ****         bsp_mcu_handle_lr1mac_issue( );
 2332              		.loc 1 866 9 view .LVU577
 866:lr1mac/src/smtc_real/src/smtc_real.c ****         bsp_mcu_handle_lr1mac_issue( );
 2333              		.loc 1 866 60 view .LVU578
 867:lr1mac/src/smtc_real/src/smtc_real.c ****         break;
 2334              		.loc 1 867 9 view .LVU579
 2335 002c FFF7FEFF 		bl	bsp_mcu_handle_lr1mac_issue
 2336              	.LVL275:
 868:lr1mac/src/smtc_real/src/smtc_real.c ****     }
 2337              		.loc 1 868 9 view .LVU580
 870:lr1mac/src/smtc_real/src/smtc_real.c **** }
 2338              		.loc 1 870 5 view .LVU581
 870:lr1mac/src/smtc_real/src/smtc_real.c **** }
 2339              		.loc 1 870 12 is_stmt 0 view .LVU582
 2340 0030 0120     		movs	r0, #1
 2341 0032 4042     		rsbs	r0, r0, #0
 2342 0034 ECE7     		b	.L147
 2343              	.L149:
 2344 0036 C046     		.align	2
 2345              	.L148:
 2346 0038 00000000 		.word	.LC0
 2347 003c 08000000 		.word	.LC2
 2348 0040 00000000 		.word	.LANCHOR29
 2349 0044 10000000 		.word	.LC5
 2350 0048 20000000 		.word	.LC7
 2351              		.cfi_endproc
 2352              	.LFE38:
 2354              		.section	.text.smtc_real_is_valid_size,"ax",%progbits
 2355              		.align	1
 2356              		.global	smtc_real_is_valid_size
 2357              		.syntax unified
 2358              		.code	16
 2359              		.thumb_func
 2360              		.fpu softvfp
 2362              	smtc_real_is_valid_size:
 2363              	.LVL276:
 2364              	.LFB39:
 872:lr1mac/src/smtc_real/src/smtc_real.c **** 
 873:lr1mac/src/smtc_real/src/smtc_real.c **** status_lorawan_t smtc_real_is_valid_size( lr1_stack_mac_t* lr1_mac, uint8_t dr, uint8_t size )
 874:lr1mac/src/smtc_real/src/smtc_real.c **** {
 2365              		.loc 1 874 1 is_stmt 1 view -0
 2366              		.cfi_startproc
 2367              		@ args = 0, pretend = 0, frame = 0
 2368              		@ frame_needed = 0, uses_anonymous_args = 0
ARM GAS  /var/folders/bq/yv49bw8j2kd6w3hsq868qv180000gn/T//ccRnzw9B.s 			page 63


 875:lr1mac/src/smtc_real/src/smtc_real.c ****     switch( lr1_mac->real->region_type )
 2369              		.loc 1 875 5 view .LVU584
 874:lr1mac/src/smtc_real/src/smtc_real.c ****     switch( lr1_mac->real->region_type )
 2370              		.loc 1 874 1 is_stmt 0 view .LVU585
 2371 0000 10B5     		push	{r4, lr}
 2372              		.cfi_def_cfa_offset 8
 2373              		.cfi_offset 4, -8
 2374              		.cfi_offset 14, -4
 2375              		.loc 1 875 5 view .LVU586
 2376 0002 0368     		ldr	r3, [r0]
 2377 0004 1B79     		ldrb	r3, [r3, #4]
 2378 0006 062B     		cmp	r3, #6
 2379 0008 02D1     		bne	.L151
 876:lr1mac/src/smtc_real/src/smtc_real.c ****     {
 877:lr1mac/src/smtc_real/src/smtc_real.c **** #if defined( REGION_WW2G4 )
 878:lr1mac/src/smtc_real/src/smtc_real.c ****     case SMTC_REAL_REGION_WW2G4: {
 879:lr1mac/src/smtc_real/src/smtc_real.c ****         return region_ww2g4_is_valid_size( lr1_mac, dr, size );
 2380              		.loc 1 879 9 is_stmt 1 view .LVU587
 2381              		.loc 1 879 16 is_stmt 0 view .LVU588
 2382 000a FFF7FEFF 		bl	region_ww2g4_is_valid_size
 2383              	.LVL277:
 2384              	.L152:
 880:lr1mac/src/smtc_real/src/smtc_real.c ****     }
 881:lr1mac/src/smtc_real/src/smtc_real.c **** #endif
 882:lr1mac/src/smtc_real/src/smtc_real.c **** #if defined( REGION_EU_868 )
 883:lr1mac/src/smtc_real/src/smtc_real.c ****     case SMTC_REAL_REGION_EU_868: {
 884:lr1mac/src/smtc_real/src/smtc_real.c ****         return region_eu_868_is_valid_size( lr1_mac, dr, size );
 885:lr1mac/src/smtc_real/src/smtc_real.c ****     }
 886:lr1mac/src/smtc_real/src/smtc_real.c **** #endif
 887:lr1mac/src/smtc_real/src/smtc_real.c **** #if defined( REGION_US_915 )
 888:lr1mac/src/smtc_real/src/smtc_real.c ****     case SMTC_REAL_REGION_US_915: {
 889:lr1mac/src/smtc_real/src/smtc_real.c ****         return region_us_915_is_valid_size( lr1_mac, dr, size );
 890:lr1mac/src/smtc_real/src/smtc_real.c ****     }
 891:lr1mac/src/smtc_real/src/smtc_real.c **** #endif
 892:lr1mac/src/smtc_real/src/smtc_real.c ****     default:
 893:lr1mac/src/smtc_real/src/smtc_real.c ****         BSP_DBG_TRACE_ERROR( "%s unsupported\n", __func__ );
 894:lr1mac/src/smtc_real/src/smtc_real.c ****         bsp_mcu_handle_lr1mac_issue( );
 895:lr1mac/src/smtc_real/src/smtc_real.c ****         break;
 896:lr1mac/src/smtc_real/src/smtc_real.c ****     }
 897:lr1mac/src/smtc_real/src/smtc_real.c ****     return ERRORLORAWAN;  // never reach => avoid warning
 898:lr1mac/src/smtc_real/src/smtc_real.c **** }
 2385              		.loc 1 898 1 view .LVU589
 2386              		@ sp needed
 2387 000e 10BD     		pop	{r4, pc}
 2388              	.LVL278:
 2389              	.L151:
 893:lr1mac/src/smtc_real/src/smtc_real.c ****         bsp_mcu_handle_lr1mac_issue( );
 2390              		.loc 1 893 9 is_stmt 1 view .LVU590
 893:lr1mac/src/smtc_real/src/smtc_real.c ****         bsp_mcu_handle_lr1mac_issue( );
 2391              		.loc 1 893 9 view .LVU591
 2392 0010 0848     		ldr	r0, .L153
 2393              	.LVL279:
 893:lr1mac/src/smtc_real/src/smtc_real.c ****         bsp_mcu_handle_lr1mac_issue( );
 2394              		.loc 1 893 9 is_stmt 0 view .LVU592
 2395 0012 FFF7FEFF 		bl	bsp_trace_print
 2396              	.LVL280:
 893:lr1mac/src/smtc_real/src/smtc_real.c ****         bsp_mcu_handle_lr1mac_issue( );
ARM GAS  /var/folders/bq/yv49bw8j2kd6w3hsq868qv180000gn/T//ccRnzw9B.s 			page 64


 2397              		.loc 1 893 9 is_stmt 1 view .LVU593
 2398 0016 0848     		ldr	r0, .L153+4
 2399 0018 FFF7FEFF 		bl	bsp_trace_print
 2400              	.LVL281:
 893:lr1mac/src/smtc_real/src/smtc_real.c ****         bsp_mcu_handle_lr1mac_issue( );
 2401              		.loc 1 893 9 view .LVU594
 2402 001c 0749     		ldr	r1, .L153+8
 2403 001e 0848     		ldr	r0, .L153+12
 2404 0020 FFF7FEFF 		bl	bsp_trace_print
 2405              	.LVL282:
 893:lr1mac/src/smtc_real/src/smtc_real.c ****         bsp_mcu_handle_lr1mac_issue( );
 2406              		.loc 1 893 9 view .LVU595
 2407 0024 0748     		ldr	r0, .L153+16
 2408 0026 FFF7FEFF 		bl	bsp_trace_print
 2409              	.LVL283:
 893:lr1mac/src/smtc_real/src/smtc_real.c ****         bsp_mcu_handle_lr1mac_issue( );
 2410              		.loc 1 893 9 view .LVU596
 893:lr1mac/src/smtc_real/src/smtc_real.c ****         bsp_mcu_handle_lr1mac_issue( );
 2411              		.loc 1 893 60 view .LVU597
 894:lr1mac/src/smtc_real/src/smtc_real.c ****         break;
 2412              		.loc 1 894 9 view .LVU598
 2413 002a FFF7FEFF 		bl	bsp_mcu_handle_lr1mac_issue
 2414              	.LVL284:
 895:lr1mac/src/smtc_real/src/smtc_real.c ****     }
 2415              		.loc 1 895 9 view .LVU599
 897:lr1mac/src/smtc_real/src/smtc_real.c **** }
 2416              		.loc 1 897 5 view .LVU600
 897:lr1mac/src/smtc_real/src/smtc_real.c **** }
 2417              		.loc 1 897 12 is_stmt 0 view .LVU601
 2418 002e 0120     		movs	r0, #1
 2419 0030 4042     		rsbs	r0, r0, #0
 2420 0032 ECE7     		b	.L152
 2421              	.L154:
 2422              		.align	2
 2423              	.L153:
 2424 0034 00000000 		.word	.LC0
 2425 0038 08000000 		.word	.LC2
 2426 003c 00000000 		.word	.LANCHOR30
 2427 0040 10000000 		.word	.LC5
 2428 0044 20000000 		.word	.LC7
 2429              		.cfi_endproc
 2430              	.LFE39:
 2432              		.section	.text.smtc_real_tx_frequency_channel_set,"ax",%progbits
 2433              		.align	1
 2434              		.global	smtc_real_tx_frequency_channel_set
 2435              		.syntax unified
 2436              		.code	16
 2437              		.thumb_func
 2438              		.fpu softvfp
 2440              	smtc_real_tx_frequency_channel_set:
 2441              	.LVL285:
 2442              	.LFB40:
 899:lr1mac/src/smtc_real/src/smtc_real.c **** 
 900:lr1mac/src/smtc_real/src/smtc_real.c **** void smtc_real_tx_frequency_channel_set( lr1_stack_mac_t* lr1_mac, uint32_t tx_freq, uint8_t index 
 901:lr1mac/src/smtc_real/src/smtc_real.c **** {
 2443              		.loc 1 901 1 is_stmt 1 view -0
 2444              		.cfi_startproc
ARM GAS  /var/folders/bq/yv49bw8j2kd6w3hsq868qv180000gn/T//ccRnzw9B.s 			page 65


 2445              		@ args = 0, pretend = 0, frame = 0
 2446              		@ frame_needed = 0, uses_anonymous_args = 0
 902:lr1mac/src/smtc_real/src/smtc_real.c ****     switch( lr1_mac->real->region_type )
 2447              		.loc 1 902 5 view .LVU603
 901:lr1mac/src/smtc_real/src/smtc_real.c ****     switch( lr1_mac->real->region_type )
 2448              		.loc 1 901 1 is_stmt 0 view .LVU604
 2449 0000 0300     		movs	r3, r0
 2450 0002 10B5     		push	{r4, lr}
 2451              		.cfi_def_cfa_offset 8
 2452              		.cfi_offset 4, -8
 2453              		.cfi_offset 14, -4
 2454              		.loc 1 902 26 view .LVU605
 2455 0004 1B68     		ldr	r3, [r3]
 901:lr1mac/src/smtc_real/src/smtc_real.c ****     switch( lr1_mac->real->region_type )
 2456              		.loc 1 901 1 view .LVU606
 2457 0006 0800     		movs	r0, r1
 2458              	.LVL286:
 2459              		.loc 1 902 5 view .LVU607
 2460 0008 1B79     		ldrb	r3, [r3, #4]
 901:lr1mac/src/smtc_real/src/smtc_real.c ****     switch( lr1_mac->real->region_type )
 2461              		.loc 1 901 1 view .LVU608
 2462 000a 1100     		movs	r1, r2
 2463              	.LVL287:
 2464              		.loc 1 902 5 view .LVU609
 2465 000c 062B     		cmp	r3, #6
 2466 000e 02D1     		bne	.L156
 903:lr1mac/src/smtc_real/src/smtc_real.c ****     {
 904:lr1mac/src/smtc_real/src/smtc_real.c **** #if defined( REGION_WW2G4 )
 905:lr1mac/src/smtc_real/src/smtc_real.c ****     case SMTC_REAL_REGION_WW2G4: {
 906:lr1mac/src/smtc_real/src/smtc_real.c ****         region_ww2g4_tx_frequency_channel_set( tx_freq, index );
 2467              		.loc 1 906 9 is_stmt 1 view .LVU610
 2468 0010 FFF7FEFF 		bl	region_ww2g4_tx_frequency_channel_set
 2469              	.LVL288:
 907:lr1mac/src/smtc_real/src/smtc_real.c ****         break;
 2470              		.loc 1 907 9 view .LVU611
 2471              	.L155:
 908:lr1mac/src/smtc_real/src/smtc_real.c ****     }
 909:lr1mac/src/smtc_real/src/smtc_real.c **** #endif
 910:lr1mac/src/smtc_real/src/smtc_real.c **** #if defined( REGION_EU_868 )
 911:lr1mac/src/smtc_real/src/smtc_real.c ****     case SMTC_REAL_REGION_EU_868: {
 912:lr1mac/src/smtc_real/src/smtc_real.c ****         region_eu_868_tx_frequency_channel_set( tx_freq, index );
 913:lr1mac/src/smtc_real/src/smtc_real.c ****         break;
 914:lr1mac/src/smtc_real/src/smtc_real.c ****     }
 915:lr1mac/src/smtc_real/src/smtc_real.c **** #endif
 916:lr1mac/src/smtc_real/src/smtc_real.c **** #if defined( REGION_US_915 )
 917:lr1mac/src/smtc_real/src/smtc_real.c ****     case SMTC_REAL_REGION_US_915: {
 918:lr1mac/src/smtc_real/src/smtc_real.c ****         region_us_915_tx_frequency_channel_set( tx_freq, index );
 919:lr1mac/src/smtc_real/src/smtc_real.c ****         break;
 920:lr1mac/src/smtc_real/src/smtc_real.c ****     }
 921:lr1mac/src/smtc_real/src/smtc_real.c **** #endif
 922:lr1mac/src/smtc_real/src/smtc_real.c ****     default:
 923:lr1mac/src/smtc_real/src/smtc_real.c ****         BSP_DBG_TRACE_ERROR( "%s unsupported\n", __func__ );
 924:lr1mac/src/smtc_real/src/smtc_real.c ****         bsp_mcu_handle_lr1mac_issue( );
 925:lr1mac/src/smtc_real/src/smtc_real.c ****         break;
 926:lr1mac/src/smtc_real/src/smtc_real.c ****     }
 927:lr1mac/src/smtc_real/src/smtc_real.c **** }
 2472              		.loc 1 927 1 is_stmt 0 view .LVU612
ARM GAS  /var/folders/bq/yv49bw8j2kd6w3hsq868qv180000gn/T//ccRnzw9B.s 			page 66


 2473              		@ sp needed
 2474 0014 10BD     		pop	{r4, pc}
 2475              	.LVL289:
 2476              	.L156:
 923:lr1mac/src/smtc_real/src/smtc_real.c ****         bsp_mcu_handle_lr1mac_issue( );
 2477              		.loc 1 923 9 is_stmt 1 view .LVU613
 923:lr1mac/src/smtc_real/src/smtc_real.c ****         bsp_mcu_handle_lr1mac_issue( );
 2478              		.loc 1 923 9 view .LVU614
 2479 0016 0848     		ldr	r0, .L158
 2480              	.LVL290:
 923:lr1mac/src/smtc_real/src/smtc_real.c ****         bsp_mcu_handle_lr1mac_issue( );
 2481              		.loc 1 923 9 is_stmt 0 view .LVU615
 2482 0018 FFF7FEFF 		bl	bsp_trace_print
 2483              	.LVL291:
 923:lr1mac/src/smtc_real/src/smtc_real.c ****         bsp_mcu_handle_lr1mac_issue( );
 2484              		.loc 1 923 9 is_stmt 1 view .LVU616
 2485 001c 0748     		ldr	r0, .L158+4
 2486 001e FFF7FEFF 		bl	bsp_trace_print
 2487              	.LVL292:
 923:lr1mac/src/smtc_real/src/smtc_real.c ****         bsp_mcu_handle_lr1mac_issue( );
 2488              		.loc 1 923 9 view .LVU617
 2489 0022 0749     		ldr	r1, .L158+8
 2490 0024 0748     		ldr	r0, .L158+12
 2491 0026 FFF7FEFF 		bl	bsp_trace_print
 2492              	.LVL293:
 923:lr1mac/src/smtc_real/src/smtc_real.c ****         bsp_mcu_handle_lr1mac_issue( );
 2493              		.loc 1 923 9 view .LVU618
 2494 002a 0748     		ldr	r0, .L158+16
 2495 002c FFF7FEFF 		bl	bsp_trace_print
 2496              	.LVL294:
 923:lr1mac/src/smtc_real/src/smtc_real.c ****         bsp_mcu_handle_lr1mac_issue( );
 2497              		.loc 1 923 9 view .LVU619
 923:lr1mac/src/smtc_real/src/smtc_real.c ****         bsp_mcu_handle_lr1mac_issue( );
 2498              		.loc 1 923 60 view .LVU620
 924:lr1mac/src/smtc_real/src/smtc_real.c ****         break;
 2499              		.loc 1 924 9 view .LVU621
 2500 0030 FFF7FEFF 		bl	bsp_mcu_handle_lr1mac_issue
 2501              	.LVL295:
 925:lr1mac/src/smtc_real/src/smtc_real.c ****     }
 2502              		.loc 1 925 9 view .LVU622
 2503              		.loc 1 927 1 is_stmt 0 view .LVU623
 2504 0034 EEE7     		b	.L155
 2505              	.L159:
 2506 0036 C046     		.align	2
 2507              	.L158:
 2508 0038 00000000 		.word	.LC0
 2509 003c 08000000 		.word	.LC2
 2510 0040 00000000 		.word	.LANCHOR31
 2511 0044 10000000 		.word	.LC5
 2512 0048 20000000 		.word	.LC7
 2513              		.cfi_endproc
 2514              	.LFE40:
 2516              		.section	.text.smtc_real_rx1_frequency_channel_set,"ax",%progbits
 2517              		.align	1
 2518              		.global	smtc_real_rx1_frequency_channel_set
 2519              		.syntax unified
 2520              		.code	16
ARM GAS  /var/folders/bq/yv49bw8j2kd6w3hsq868qv180000gn/T//ccRnzw9B.s 			page 67


 2521              		.thumb_func
 2522              		.fpu softvfp
 2524              	smtc_real_rx1_frequency_channel_set:
 2525              	.LVL296:
 2526              	.LFB41:
 928:lr1mac/src/smtc_real/src/smtc_real.c **** 
 929:lr1mac/src/smtc_real/src/smtc_real.c **** void smtc_real_rx1_frequency_channel_set( lr1_stack_mac_t* lr1_mac, uint32_t rx_freq, uint8_t index
 930:lr1mac/src/smtc_real/src/smtc_real.c **** {
 2527              		.loc 1 930 1 is_stmt 1 view -0
 2528              		.cfi_startproc
 2529              		@ args = 0, pretend = 0, frame = 0
 2530              		@ frame_needed = 0, uses_anonymous_args = 0
 931:lr1mac/src/smtc_real/src/smtc_real.c ****     switch( lr1_mac->real->region_type )
 2531              		.loc 1 931 5 view .LVU625
 930:lr1mac/src/smtc_real/src/smtc_real.c ****     switch( lr1_mac->real->region_type )
 2532              		.loc 1 930 1 is_stmt 0 view .LVU626
 2533 0000 0300     		movs	r3, r0
 2534 0002 10B5     		push	{r4, lr}
 2535              		.cfi_def_cfa_offset 8
 2536              		.cfi_offset 4, -8
 2537              		.cfi_offset 14, -4
 2538              		.loc 1 931 26 view .LVU627
 2539 0004 1B68     		ldr	r3, [r3]
 930:lr1mac/src/smtc_real/src/smtc_real.c ****     switch( lr1_mac->real->region_type )
 2540              		.loc 1 930 1 view .LVU628
 2541 0006 0800     		movs	r0, r1
 2542              	.LVL297:
 2543              		.loc 1 931 5 view .LVU629
 2544 0008 1B79     		ldrb	r3, [r3, #4]
 930:lr1mac/src/smtc_real/src/smtc_real.c ****     switch( lr1_mac->real->region_type )
 2545              		.loc 1 930 1 view .LVU630
 2546 000a 1100     		movs	r1, r2
 2547              	.LVL298:
 2548              		.loc 1 931 5 view .LVU631
 2549 000c 062B     		cmp	r3, #6
 2550 000e 02D1     		bne	.L161
 932:lr1mac/src/smtc_real/src/smtc_real.c ****     {
 933:lr1mac/src/smtc_real/src/smtc_real.c **** #if defined( REGION_WW2G4 )
 934:lr1mac/src/smtc_real/src/smtc_real.c ****     case SMTC_REAL_REGION_WW2G4: {
 935:lr1mac/src/smtc_real/src/smtc_real.c ****         region_ww2g4_rx1_frequency_channel_set( rx_freq, index );
 2551              		.loc 1 935 9 is_stmt 1 view .LVU632
 2552 0010 FFF7FEFF 		bl	region_ww2g4_rx1_frequency_channel_set
 2553              	.LVL299:
 936:lr1mac/src/smtc_real/src/smtc_real.c ****         break;
 2554              		.loc 1 936 9 view .LVU633
 2555              	.L160:
 937:lr1mac/src/smtc_real/src/smtc_real.c ****     }
 938:lr1mac/src/smtc_real/src/smtc_real.c **** #endif
 939:lr1mac/src/smtc_real/src/smtc_real.c **** #if defined( REGION_EU_868 )
 940:lr1mac/src/smtc_real/src/smtc_real.c ****     case SMTC_REAL_REGION_EU_868: {
 941:lr1mac/src/smtc_real/src/smtc_real.c ****         region_eu_868_rx1_frequency_channel_set( rx_freq, index );
 942:lr1mac/src/smtc_real/src/smtc_real.c ****         break;
 943:lr1mac/src/smtc_real/src/smtc_real.c ****     }
 944:lr1mac/src/smtc_real/src/smtc_real.c **** #endif
 945:lr1mac/src/smtc_real/src/smtc_real.c **** #if defined( REGION_US_915 )
 946:lr1mac/src/smtc_real/src/smtc_real.c ****     case SMTC_REAL_REGION_US_915: {
 947:lr1mac/src/smtc_real/src/smtc_real.c ****         region_us_915_rx1_frequency_channel_set( rx_freq, index );
ARM GAS  /var/folders/bq/yv49bw8j2kd6w3hsq868qv180000gn/T//ccRnzw9B.s 			page 68


 948:lr1mac/src/smtc_real/src/smtc_real.c ****         break;
 949:lr1mac/src/smtc_real/src/smtc_real.c ****     }
 950:lr1mac/src/smtc_real/src/smtc_real.c **** #endif
 951:lr1mac/src/smtc_real/src/smtc_real.c ****     default:
 952:lr1mac/src/smtc_real/src/smtc_real.c ****         BSP_DBG_TRACE_ERROR( "%s unsupported\n", __func__ );
 953:lr1mac/src/smtc_real/src/smtc_real.c ****         bsp_mcu_handle_lr1mac_issue( );
 954:lr1mac/src/smtc_real/src/smtc_real.c ****         break;
 955:lr1mac/src/smtc_real/src/smtc_real.c ****     }
 956:lr1mac/src/smtc_real/src/smtc_real.c **** }
 2556              		.loc 1 956 1 is_stmt 0 view .LVU634
 2557              		@ sp needed
 2558 0014 10BD     		pop	{r4, pc}
 2559              	.LVL300:
 2560              	.L161:
 952:lr1mac/src/smtc_real/src/smtc_real.c ****         bsp_mcu_handle_lr1mac_issue( );
 2561              		.loc 1 952 9 is_stmt 1 view .LVU635
 952:lr1mac/src/smtc_real/src/smtc_real.c ****         bsp_mcu_handle_lr1mac_issue( );
 2562              		.loc 1 952 9 view .LVU636
 2563 0016 0848     		ldr	r0, .L163
 2564              	.LVL301:
 952:lr1mac/src/smtc_real/src/smtc_real.c ****         bsp_mcu_handle_lr1mac_issue( );
 2565              		.loc 1 952 9 is_stmt 0 view .LVU637
 2566 0018 FFF7FEFF 		bl	bsp_trace_print
 2567              	.LVL302:
 952:lr1mac/src/smtc_real/src/smtc_real.c ****         bsp_mcu_handle_lr1mac_issue( );
 2568              		.loc 1 952 9 is_stmt 1 view .LVU638
 2569 001c 0748     		ldr	r0, .L163+4
 2570 001e FFF7FEFF 		bl	bsp_trace_print
 2571              	.LVL303:
 952:lr1mac/src/smtc_real/src/smtc_real.c ****         bsp_mcu_handle_lr1mac_issue( );
 2572              		.loc 1 952 9 view .LVU639
 2573 0022 0749     		ldr	r1, .L163+8
 2574 0024 0748     		ldr	r0, .L163+12
 2575 0026 FFF7FEFF 		bl	bsp_trace_print
 2576              	.LVL304:
 952:lr1mac/src/smtc_real/src/smtc_real.c ****         bsp_mcu_handle_lr1mac_issue( );
 2577              		.loc 1 952 9 view .LVU640
 2578 002a 0748     		ldr	r0, .L163+16
 2579 002c FFF7FEFF 		bl	bsp_trace_print
 2580              	.LVL305:
 952:lr1mac/src/smtc_real/src/smtc_real.c ****         bsp_mcu_handle_lr1mac_issue( );
 2581              		.loc 1 952 9 view .LVU641
 952:lr1mac/src/smtc_real/src/smtc_real.c ****         bsp_mcu_handle_lr1mac_issue( );
 2582              		.loc 1 952 60 view .LVU642
 953:lr1mac/src/smtc_real/src/smtc_real.c ****         break;
 2583              		.loc 1 953 9 view .LVU643
 2584 0030 FFF7FEFF 		bl	bsp_mcu_handle_lr1mac_issue
 2585              	.LVL306:
 954:lr1mac/src/smtc_real/src/smtc_real.c ****     }
 2586              		.loc 1 954 9 view .LVU644
 2587              		.loc 1 956 1 is_stmt 0 view .LVU645
 2588 0034 EEE7     		b	.L160
 2589              	.L164:
 2590 0036 C046     		.align	2
 2591              	.L163:
 2592 0038 00000000 		.word	.LC0
 2593 003c 08000000 		.word	.LC2
ARM GAS  /var/folders/bq/yv49bw8j2kd6w3hsq868qv180000gn/T//ccRnzw9B.s 			page 69


 2594 0040 00000000 		.word	.LANCHOR32
 2595 0044 10000000 		.word	.LC5
 2596 0048 20000000 		.word	.LC7
 2597              		.cfi_endproc
 2598              	.LFE41:
 2600              		.section	.text.smtc_real_min_dr_channel_set,"ax",%progbits
 2601              		.align	1
 2602              		.global	smtc_real_min_dr_channel_set
 2603              		.syntax unified
 2604              		.code	16
 2605              		.thumb_func
 2606              		.fpu softvfp
 2608              	smtc_real_min_dr_channel_set:
 2609              	.LVL307:
 2610              	.LFB42:
 957:lr1mac/src/smtc_real/src/smtc_real.c **** 
 958:lr1mac/src/smtc_real/src/smtc_real.c **** void smtc_real_min_dr_channel_set( lr1_stack_mac_t* lr1_mac, uint8_t dr, uint8_t index )
 959:lr1mac/src/smtc_real/src/smtc_real.c **** {
 2611              		.loc 1 959 1 is_stmt 1 view -0
 2612              		.cfi_startproc
 2613              		@ args = 0, pretend = 0, frame = 0
 2614              		@ frame_needed = 0, uses_anonymous_args = 0
 960:lr1mac/src/smtc_real/src/smtc_real.c ****     switch( lr1_mac->real->region_type )
 2615              		.loc 1 960 5 view .LVU647
 959:lr1mac/src/smtc_real/src/smtc_real.c ****     switch( lr1_mac->real->region_type )
 2616              		.loc 1 959 1 is_stmt 0 view .LVU648
 2617 0000 0300     		movs	r3, r0
 2618 0002 10B5     		push	{r4, lr}
 2619              		.cfi_def_cfa_offset 8
 2620              		.cfi_offset 4, -8
 2621              		.cfi_offset 14, -4
 2622              		.loc 1 960 26 view .LVU649
 2623 0004 1B68     		ldr	r3, [r3]
 959:lr1mac/src/smtc_real/src/smtc_real.c ****     switch( lr1_mac->real->region_type )
 2624              		.loc 1 959 1 view .LVU650
 2625 0006 0800     		movs	r0, r1
 2626              	.LVL308:
 2627              		.loc 1 960 5 view .LVU651
 2628 0008 1B79     		ldrb	r3, [r3, #4]
 959:lr1mac/src/smtc_real/src/smtc_real.c ****     switch( lr1_mac->real->region_type )
 2629              		.loc 1 959 1 view .LVU652
 2630 000a 1100     		movs	r1, r2
 2631              	.LVL309:
 2632              		.loc 1 960 5 view .LVU653
 2633 000c 062B     		cmp	r3, #6
 2634 000e 02D1     		bne	.L166
 961:lr1mac/src/smtc_real/src/smtc_real.c ****     {
 962:lr1mac/src/smtc_real/src/smtc_real.c **** #if defined( REGION_WW2G4 )
 963:lr1mac/src/smtc_real/src/smtc_real.c ****     case SMTC_REAL_REGION_WW2G4: {
 964:lr1mac/src/smtc_real/src/smtc_real.c ****         region_ww2g4_min_dr_channel_set( dr, index );
 2635              		.loc 1 964 9 is_stmt 1 view .LVU654
 2636 0010 FFF7FEFF 		bl	region_ww2g4_min_dr_channel_set
 2637              	.LVL310:
 965:lr1mac/src/smtc_real/src/smtc_real.c ****         break;
 2638              		.loc 1 965 9 view .LVU655
 2639              	.L165:
 966:lr1mac/src/smtc_real/src/smtc_real.c ****     }
ARM GAS  /var/folders/bq/yv49bw8j2kd6w3hsq868qv180000gn/T//ccRnzw9B.s 			page 70


 967:lr1mac/src/smtc_real/src/smtc_real.c **** #endif
 968:lr1mac/src/smtc_real/src/smtc_real.c **** #if defined( REGION_EU_868 )
 969:lr1mac/src/smtc_real/src/smtc_real.c ****     case SMTC_REAL_REGION_EU_868: {
 970:lr1mac/src/smtc_real/src/smtc_real.c ****         region_eu_868_min_dr_channel_set( dr, index );
 971:lr1mac/src/smtc_real/src/smtc_real.c ****         break;
 972:lr1mac/src/smtc_real/src/smtc_real.c ****     }
 973:lr1mac/src/smtc_real/src/smtc_real.c **** #endif
 974:lr1mac/src/smtc_real/src/smtc_real.c **** #if defined( REGION_US_915 )
 975:lr1mac/src/smtc_real/src/smtc_real.c ****     case SMTC_REAL_REGION_US_915: {
 976:lr1mac/src/smtc_real/src/smtc_real.c ****         region_us_915_min_dr_channel_set( dr, index );
 977:lr1mac/src/smtc_real/src/smtc_real.c ****         break;
 978:lr1mac/src/smtc_real/src/smtc_real.c ****     }
 979:lr1mac/src/smtc_real/src/smtc_real.c **** #endif
 980:lr1mac/src/smtc_real/src/smtc_real.c ****     default:
 981:lr1mac/src/smtc_real/src/smtc_real.c ****         BSP_DBG_TRACE_ERROR( "%s unsupported\n", __func__ );
 982:lr1mac/src/smtc_real/src/smtc_real.c ****         bsp_mcu_handle_lr1mac_issue( );
 983:lr1mac/src/smtc_real/src/smtc_real.c ****         break;
 984:lr1mac/src/smtc_real/src/smtc_real.c ****     }
 985:lr1mac/src/smtc_real/src/smtc_real.c **** }
 2640              		.loc 1 985 1 is_stmt 0 view .LVU656
 2641              		@ sp needed
 2642 0014 10BD     		pop	{r4, pc}
 2643              	.LVL311:
 2644              	.L166:
 981:lr1mac/src/smtc_real/src/smtc_real.c ****         bsp_mcu_handle_lr1mac_issue( );
 2645              		.loc 1 981 9 is_stmt 1 view .LVU657
 981:lr1mac/src/smtc_real/src/smtc_real.c ****         bsp_mcu_handle_lr1mac_issue( );
 2646              		.loc 1 981 9 view .LVU658
 2647 0016 0848     		ldr	r0, .L168
 2648 0018 FFF7FEFF 		bl	bsp_trace_print
 2649              	.LVL312:
 981:lr1mac/src/smtc_real/src/smtc_real.c ****         bsp_mcu_handle_lr1mac_issue( );
 2650              		.loc 1 981 9 view .LVU659
 2651 001c 0748     		ldr	r0, .L168+4
 2652 001e FFF7FEFF 		bl	bsp_trace_print
 2653              	.LVL313:
 981:lr1mac/src/smtc_real/src/smtc_real.c ****         bsp_mcu_handle_lr1mac_issue( );
 2654              		.loc 1 981 9 view .LVU660
 2655 0022 0749     		ldr	r1, .L168+8
 2656 0024 0748     		ldr	r0, .L168+12
 2657 0026 FFF7FEFF 		bl	bsp_trace_print
 2658              	.LVL314:
 981:lr1mac/src/smtc_real/src/smtc_real.c ****         bsp_mcu_handle_lr1mac_issue( );
 2659              		.loc 1 981 9 view .LVU661
 2660 002a 0748     		ldr	r0, .L168+16
 2661 002c FFF7FEFF 		bl	bsp_trace_print
 2662              	.LVL315:
 981:lr1mac/src/smtc_real/src/smtc_real.c ****         bsp_mcu_handle_lr1mac_issue( );
 2663              		.loc 1 981 9 view .LVU662
 981:lr1mac/src/smtc_real/src/smtc_real.c ****         bsp_mcu_handle_lr1mac_issue( );
 2664              		.loc 1 981 60 view .LVU663
 982:lr1mac/src/smtc_real/src/smtc_real.c ****         break;
 2665              		.loc 1 982 9 view .LVU664
 2666 0030 FFF7FEFF 		bl	bsp_mcu_handle_lr1mac_issue
 2667              	.LVL316:
 983:lr1mac/src/smtc_real/src/smtc_real.c ****     }
 2668              		.loc 1 983 9 view .LVU665
ARM GAS  /var/folders/bq/yv49bw8j2kd6w3hsq868qv180000gn/T//ccRnzw9B.s 			page 71


 2669              		.loc 1 985 1 is_stmt 0 view .LVU666
 2670 0034 EEE7     		b	.L165
 2671              	.L169:
 2672 0036 C046     		.align	2
 2673              	.L168:
 2674 0038 00000000 		.word	.LC0
 2675 003c 08000000 		.word	.LC2
 2676 0040 00000000 		.word	.LANCHOR33
 2677 0044 10000000 		.word	.LC5
 2678 0048 20000000 		.word	.LC7
 2679              		.cfi_endproc
 2680              	.LFE42:
 2682              		.section	.text.smtc_real_max_dr_channel_set,"ax",%progbits
 2683              		.align	1
 2684              		.global	smtc_real_max_dr_channel_set
 2685              		.syntax unified
 2686              		.code	16
 2687              		.thumb_func
 2688              		.fpu softvfp
 2690              	smtc_real_max_dr_channel_set:
 2691              	.LVL317:
 2692              	.LFB43:
 986:lr1mac/src/smtc_real/src/smtc_real.c **** 
 987:lr1mac/src/smtc_real/src/smtc_real.c **** void smtc_real_max_dr_channel_set( lr1_stack_mac_t* lr1_mac, uint8_t dr, uint8_t index )
 988:lr1mac/src/smtc_real/src/smtc_real.c **** {
 2693              		.loc 1 988 1 is_stmt 1 view -0
 2694              		.cfi_startproc
 2695              		@ args = 0, pretend = 0, frame = 0
 2696              		@ frame_needed = 0, uses_anonymous_args = 0
 989:lr1mac/src/smtc_real/src/smtc_real.c ****     switch( lr1_mac->real->region_type )
 2697              		.loc 1 989 5 view .LVU668
 988:lr1mac/src/smtc_real/src/smtc_real.c ****     switch( lr1_mac->real->region_type )
 2698              		.loc 1 988 1 is_stmt 0 view .LVU669
 2699 0000 0300     		movs	r3, r0
 2700 0002 10B5     		push	{r4, lr}
 2701              		.cfi_def_cfa_offset 8
 2702              		.cfi_offset 4, -8
 2703              		.cfi_offset 14, -4
 2704              		.loc 1 989 26 view .LVU670
 2705 0004 1B68     		ldr	r3, [r3]
 988:lr1mac/src/smtc_real/src/smtc_real.c ****     switch( lr1_mac->real->region_type )
 2706              		.loc 1 988 1 view .LVU671
 2707 0006 0800     		movs	r0, r1
 2708              	.LVL318:
 2709              		.loc 1 989 5 view .LVU672
 2710 0008 1B79     		ldrb	r3, [r3, #4]
 988:lr1mac/src/smtc_real/src/smtc_real.c ****     switch( lr1_mac->real->region_type )
 2711              		.loc 1 988 1 view .LVU673
 2712 000a 1100     		movs	r1, r2
 2713              	.LVL319:
 2714              		.loc 1 989 5 view .LVU674
 2715 000c 062B     		cmp	r3, #6
 2716 000e 02D1     		bne	.L171
 990:lr1mac/src/smtc_real/src/smtc_real.c ****     {
 991:lr1mac/src/smtc_real/src/smtc_real.c **** #if defined( REGION_WW2G4 )
 992:lr1mac/src/smtc_real/src/smtc_real.c ****     case SMTC_REAL_REGION_WW2G4: {
 993:lr1mac/src/smtc_real/src/smtc_real.c ****         region_ww2g4_max_dr_channel_set( dr, index );
ARM GAS  /var/folders/bq/yv49bw8j2kd6w3hsq868qv180000gn/T//ccRnzw9B.s 			page 72


 2717              		.loc 1 993 9 is_stmt 1 view .LVU675
 2718 0010 FFF7FEFF 		bl	region_ww2g4_max_dr_channel_set
 2719              	.LVL320:
 994:lr1mac/src/smtc_real/src/smtc_real.c ****         break;
 2720              		.loc 1 994 9 view .LVU676
 2721              	.L170:
 995:lr1mac/src/smtc_real/src/smtc_real.c ****     }
 996:lr1mac/src/smtc_real/src/smtc_real.c **** #endif
 997:lr1mac/src/smtc_real/src/smtc_real.c **** #if defined( REGION_EU_868 )
 998:lr1mac/src/smtc_real/src/smtc_real.c ****     case SMTC_REAL_REGION_EU_868: {
 999:lr1mac/src/smtc_real/src/smtc_real.c ****         region_eu_868_max_dr_channel_set( dr, index );
1000:lr1mac/src/smtc_real/src/smtc_real.c ****         break;
1001:lr1mac/src/smtc_real/src/smtc_real.c ****     }
1002:lr1mac/src/smtc_real/src/smtc_real.c **** #endif
1003:lr1mac/src/smtc_real/src/smtc_real.c **** #if defined( REGION_US_915 )
1004:lr1mac/src/smtc_real/src/smtc_real.c ****     case SMTC_REAL_REGION_US_915: {
1005:lr1mac/src/smtc_real/src/smtc_real.c ****         region_us_915_max_dr_channel_set( dr, index );
1006:lr1mac/src/smtc_real/src/smtc_real.c ****         break;
1007:lr1mac/src/smtc_real/src/smtc_real.c ****     }
1008:lr1mac/src/smtc_real/src/smtc_real.c **** #endif
1009:lr1mac/src/smtc_real/src/smtc_real.c ****     default:
1010:lr1mac/src/smtc_real/src/smtc_real.c ****         BSP_DBG_TRACE_ERROR( "%s unsupported\n", __func__ );
1011:lr1mac/src/smtc_real/src/smtc_real.c ****         bsp_mcu_handle_lr1mac_issue( );
1012:lr1mac/src/smtc_real/src/smtc_real.c ****         break;
1013:lr1mac/src/smtc_real/src/smtc_real.c ****     }
1014:lr1mac/src/smtc_real/src/smtc_real.c **** }
 2722              		.loc 1 1014 1 is_stmt 0 view .LVU677
 2723              		@ sp needed
 2724 0014 10BD     		pop	{r4, pc}
 2725              	.LVL321:
 2726              	.L171:
1010:lr1mac/src/smtc_real/src/smtc_real.c ****         bsp_mcu_handle_lr1mac_issue( );
 2727              		.loc 1 1010 9 is_stmt 1 view .LVU678
1010:lr1mac/src/smtc_real/src/smtc_real.c ****         bsp_mcu_handle_lr1mac_issue( );
 2728              		.loc 1 1010 9 view .LVU679
 2729 0016 0848     		ldr	r0, .L173
 2730 0018 FFF7FEFF 		bl	bsp_trace_print
 2731              	.LVL322:
1010:lr1mac/src/smtc_real/src/smtc_real.c ****         bsp_mcu_handle_lr1mac_issue( );
 2732              		.loc 1 1010 9 view .LVU680
 2733 001c 0748     		ldr	r0, .L173+4
 2734 001e FFF7FEFF 		bl	bsp_trace_print
 2735              	.LVL323:
1010:lr1mac/src/smtc_real/src/smtc_real.c ****         bsp_mcu_handle_lr1mac_issue( );
 2736              		.loc 1 1010 9 view .LVU681
 2737 0022 0749     		ldr	r1, .L173+8
 2738 0024 0748     		ldr	r0, .L173+12
 2739 0026 FFF7FEFF 		bl	bsp_trace_print
 2740              	.LVL324:
1010:lr1mac/src/smtc_real/src/smtc_real.c ****         bsp_mcu_handle_lr1mac_issue( );
 2741              		.loc 1 1010 9 view .LVU682
 2742 002a 0748     		ldr	r0, .L173+16
 2743 002c FFF7FEFF 		bl	bsp_trace_print
 2744              	.LVL325:
1010:lr1mac/src/smtc_real/src/smtc_real.c ****         bsp_mcu_handle_lr1mac_issue( );
 2745              		.loc 1 1010 9 view .LVU683
1010:lr1mac/src/smtc_real/src/smtc_real.c ****         bsp_mcu_handle_lr1mac_issue( );
ARM GAS  /var/folders/bq/yv49bw8j2kd6w3hsq868qv180000gn/T//ccRnzw9B.s 			page 73


 2746              		.loc 1 1010 60 view .LVU684
1011:lr1mac/src/smtc_real/src/smtc_real.c ****         break;
 2747              		.loc 1 1011 9 view .LVU685
 2748 0030 FFF7FEFF 		bl	bsp_mcu_handle_lr1mac_issue
 2749              	.LVL326:
1012:lr1mac/src/smtc_real/src/smtc_real.c ****     }
 2750              		.loc 1 1012 9 view .LVU686
 2751              		.loc 1 1014 1 is_stmt 0 view .LVU687
 2752 0034 EEE7     		b	.L170
 2753              	.L174:
 2754 0036 C046     		.align	2
 2755              	.L173:
 2756 0038 00000000 		.word	.LC0
 2757 003c 08000000 		.word	.LC2
 2758 0040 00000000 		.word	.LANCHOR34
 2759 0044 10000000 		.word	.LC5
 2760 0048 20000000 		.word	.LC7
 2761              		.cfi_endproc
 2762              	.LFE43:
 2764              		.section	.text.smtc_real_channel_enabled_set,"ax",%progbits
 2765              		.align	1
 2766              		.global	smtc_real_channel_enabled_set
 2767              		.syntax unified
 2768              		.code	16
 2769              		.thumb_func
 2770              		.fpu softvfp
 2772              	smtc_real_channel_enabled_set:
 2773              	.LVL327:
 2774              	.LFB44:
1015:lr1mac/src/smtc_real/src/smtc_real.c **** 
1016:lr1mac/src/smtc_real/src/smtc_real.c **** void smtc_real_channel_enabled_set( lr1_stack_mac_t* lr1_mac, uint8_t enable, uint8_t index )
1017:lr1mac/src/smtc_real/src/smtc_real.c **** {
 2775              		.loc 1 1017 1 is_stmt 1 view -0
 2776              		.cfi_startproc
 2777              		@ args = 0, pretend = 0, frame = 0
 2778              		@ frame_needed = 0, uses_anonymous_args = 0
1018:lr1mac/src/smtc_real/src/smtc_real.c ****     switch( lr1_mac->real->region_type )
 2779              		.loc 1 1018 5 view .LVU689
1017:lr1mac/src/smtc_real/src/smtc_real.c ****     switch( lr1_mac->real->region_type )
 2780              		.loc 1 1017 1 is_stmt 0 view .LVU690
 2781 0000 0300     		movs	r3, r0
 2782 0002 10B5     		push	{r4, lr}
 2783              		.cfi_def_cfa_offset 8
 2784              		.cfi_offset 4, -8
 2785              		.cfi_offset 14, -4
 2786              		.loc 1 1018 26 view .LVU691
 2787 0004 1B68     		ldr	r3, [r3]
1017:lr1mac/src/smtc_real/src/smtc_real.c ****     switch( lr1_mac->real->region_type )
 2788              		.loc 1 1017 1 view .LVU692
 2789 0006 0800     		movs	r0, r1
 2790              	.LVL328:
 2791              		.loc 1 1018 5 view .LVU693
 2792 0008 1B79     		ldrb	r3, [r3, #4]
1017:lr1mac/src/smtc_real/src/smtc_real.c ****     switch( lr1_mac->real->region_type )
 2793              		.loc 1 1017 1 view .LVU694
 2794 000a 1100     		movs	r1, r2
 2795              	.LVL329:
ARM GAS  /var/folders/bq/yv49bw8j2kd6w3hsq868qv180000gn/T//ccRnzw9B.s 			page 74


 2796              		.loc 1 1018 5 view .LVU695
 2797 000c 062B     		cmp	r3, #6
 2798 000e 02D1     		bne	.L176
1019:lr1mac/src/smtc_real/src/smtc_real.c ****     {
1020:lr1mac/src/smtc_real/src/smtc_real.c **** #if defined( REGION_WW2G4 )
1021:lr1mac/src/smtc_real/src/smtc_real.c ****     case SMTC_REAL_REGION_WW2G4: {
1022:lr1mac/src/smtc_real/src/smtc_real.c ****         region_ww2g4_channel_enabled_set( enable, index );
 2799              		.loc 1 1022 9 is_stmt 1 view .LVU696
 2800 0010 FFF7FEFF 		bl	region_ww2g4_channel_enabled_set
 2801              	.LVL330:
1023:lr1mac/src/smtc_real/src/smtc_real.c ****         break;
 2802              		.loc 1 1023 9 view .LVU697
 2803              	.L175:
1024:lr1mac/src/smtc_real/src/smtc_real.c ****     }
1025:lr1mac/src/smtc_real/src/smtc_real.c **** #endif
1026:lr1mac/src/smtc_real/src/smtc_real.c **** #if defined( REGION_EU_868 )
1027:lr1mac/src/smtc_real/src/smtc_real.c ****     case SMTC_REAL_REGION_EU_868: {
1028:lr1mac/src/smtc_real/src/smtc_real.c ****         region_eu_868_channel_enabled_set( enable, index );
1029:lr1mac/src/smtc_real/src/smtc_real.c ****         break;
1030:lr1mac/src/smtc_real/src/smtc_real.c ****     }
1031:lr1mac/src/smtc_real/src/smtc_real.c **** #endif
1032:lr1mac/src/smtc_real/src/smtc_real.c **** #if defined( REGION_US_915 )
1033:lr1mac/src/smtc_real/src/smtc_real.c ****     case SMTC_REAL_REGION_US_915: {
1034:lr1mac/src/smtc_real/src/smtc_real.c ****         region_us_915_channel_enabled_set( enable, index );
1035:lr1mac/src/smtc_real/src/smtc_real.c ****         break;
1036:lr1mac/src/smtc_real/src/smtc_real.c ****     }
1037:lr1mac/src/smtc_real/src/smtc_real.c **** #endif
1038:lr1mac/src/smtc_real/src/smtc_real.c ****     default:
1039:lr1mac/src/smtc_real/src/smtc_real.c ****         BSP_DBG_TRACE_ERROR( "%s unsupported\n", __func__ );
1040:lr1mac/src/smtc_real/src/smtc_real.c ****         bsp_mcu_handle_lr1mac_issue( );
1041:lr1mac/src/smtc_real/src/smtc_real.c ****         break;
1042:lr1mac/src/smtc_real/src/smtc_real.c ****     }
1043:lr1mac/src/smtc_real/src/smtc_real.c **** }
 2804              		.loc 1 1043 1 is_stmt 0 view .LVU698
 2805              		@ sp needed
 2806 0014 10BD     		pop	{r4, pc}
 2807              	.LVL331:
 2808              	.L176:
1039:lr1mac/src/smtc_real/src/smtc_real.c ****         bsp_mcu_handle_lr1mac_issue( );
 2809              		.loc 1 1039 9 is_stmt 1 view .LVU699
1039:lr1mac/src/smtc_real/src/smtc_real.c ****         bsp_mcu_handle_lr1mac_issue( );
 2810              		.loc 1 1039 9 view .LVU700
 2811 0016 0848     		ldr	r0, .L178
 2812 0018 FFF7FEFF 		bl	bsp_trace_print
 2813              	.LVL332:
1039:lr1mac/src/smtc_real/src/smtc_real.c ****         bsp_mcu_handle_lr1mac_issue( );
 2814              		.loc 1 1039 9 view .LVU701
 2815 001c 0748     		ldr	r0, .L178+4
 2816 001e FFF7FEFF 		bl	bsp_trace_print
 2817              	.LVL333:
1039:lr1mac/src/smtc_real/src/smtc_real.c ****         bsp_mcu_handle_lr1mac_issue( );
 2818              		.loc 1 1039 9 view .LVU702
 2819 0022 0749     		ldr	r1, .L178+8
 2820 0024 0748     		ldr	r0, .L178+12
 2821 0026 FFF7FEFF 		bl	bsp_trace_print
 2822              	.LVL334:
1039:lr1mac/src/smtc_real/src/smtc_real.c ****         bsp_mcu_handle_lr1mac_issue( );
ARM GAS  /var/folders/bq/yv49bw8j2kd6w3hsq868qv180000gn/T//ccRnzw9B.s 			page 75


 2823              		.loc 1 1039 9 view .LVU703
 2824 002a 0748     		ldr	r0, .L178+16
 2825 002c FFF7FEFF 		bl	bsp_trace_print
 2826              	.LVL335:
1039:lr1mac/src/smtc_real/src/smtc_real.c ****         bsp_mcu_handle_lr1mac_issue( );
 2827              		.loc 1 1039 9 view .LVU704
1039:lr1mac/src/smtc_real/src/smtc_real.c ****         bsp_mcu_handle_lr1mac_issue( );
 2828              		.loc 1 1039 60 view .LVU705
1040:lr1mac/src/smtc_real/src/smtc_real.c ****         break;
 2829              		.loc 1 1040 9 view .LVU706
 2830 0030 FFF7FEFF 		bl	bsp_mcu_handle_lr1mac_issue
 2831              	.LVL336:
1041:lr1mac/src/smtc_real/src/smtc_real.c ****     }
 2832              		.loc 1 1041 9 view .LVU707
 2833              		.loc 1 1043 1 is_stmt 0 view .LVU708
 2834 0034 EEE7     		b	.L175
 2835              	.L179:
 2836 0036 C046     		.align	2
 2837              	.L178:
 2838 0038 00000000 		.word	.LC0
 2839 003c 08000000 		.word	.LC2
 2840 0040 00000000 		.word	.LANCHOR35
 2841 0044 10000000 		.word	.LC5
 2842 0048 20000000 		.word	.LC7
 2843              		.cfi_endproc
 2844              	.LFE44:
 2846              		.section	.text.smtc_real_tx_frequency_channel_get,"ax",%progbits
 2847              		.align	1
 2848              		.global	smtc_real_tx_frequency_channel_get
 2849              		.syntax unified
 2850              		.code	16
 2851              		.thumb_func
 2852              		.fpu softvfp
 2854              	smtc_real_tx_frequency_channel_get:
 2855              	.LVL337:
 2856              	.LFB45:
1044:lr1mac/src/smtc_real/src/smtc_real.c **** 
1045:lr1mac/src/smtc_real/src/smtc_real.c **** uint32_t smtc_real_tx_frequency_channel_get( lr1_stack_mac_t* lr1_mac, uint8_t index )
1046:lr1mac/src/smtc_real/src/smtc_real.c **** {
 2857              		.loc 1 1046 1 is_stmt 1 view -0
 2858              		.cfi_startproc
 2859              		@ args = 0, pretend = 0, frame = 0
 2860              		@ frame_needed = 0, uses_anonymous_args = 0
1047:lr1mac/src/smtc_real/src/smtc_real.c ****     switch( lr1_mac->real->region_type )
 2861              		.loc 1 1047 5 view .LVU710
1046:lr1mac/src/smtc_real/src/smtc_real.c ****     switch( lr1_mac->real->region_type )
 2862              		.loc 1 1046 1 is_stmt 0 view .LVU711
 2863 0000 10B5     		push	{r4, lr}
 2864              		.cfi_def_cfa_offset 8
 2865              		.cfi_offset 4, -8
 2866              		.cfi_offset 14, -4
 2867              		.loc 1 1047 26 view .LVU712
 2868 0002 0368     		ldr	r3, [r0]
 2869              		.loc 1 1047 5 view .LVU713
 2870 0004 1B79     		ldrb	r3, [r3, #4]
 2871 0006 062B     		cmp	r3, #6
 2872 0008 03D1     		bne	.L181
ARM GAS  /var/folders/bq/yv49bw8j2kd6w3hsq868qv180000gn/T//ccRnzw9B.s 			page 76


1048:lr1mac/src/smtc_real/src/smtc_real.c ****     {
1049:lr1mac/src/smtc_real/src/smtc_real.c **** #if defined( REGION_WW2G4 )
1050:lr1mac/src/smtc_real/src/smtc_real.c ****     case SMTC_REAL_REGION_WW2G4: {
1051:lr1mac/src/smtc_real/src/smtc_real.c ****         return region_ww2g4_tx_frequency_channel_get( index );
 2873              		.loc 1 1051 9 is_stmt 1 view .LVU714
 2874              		.loc 1 1051 16 is_stmt 0 view .LVU715
 2875 000a 0800     		movs	r0, r1
 2876              	.LVL338:
 2877              		.loc 1 1051 16 view .LVU716
 2878 000c FFF7FEFF 		bl	region_ww2g4_tx_frequency_channel_get
 2879              	.LVL339:
 2880              	.L180:
1052:lr1mac/src/smtc_real/src/smtc_real.c ****     }
1053:lr1mac/src/smtc_real/src/smtc_real.c **** #endif
1054:lr1mac/src/smtc_real/src/smtc_real.c **** #if defined( REGION_EU_868 )
1055:lr1mac/src/smtc_real/src/smtc_real.c ****     case SMTC_REAL_REGION_EU_868: {
1056:lr1mac/src/smtc_real/src/smtc_real.c ****         return region_eu_868_tx_frequency_channel_get( index );
1057:lr1mac/src/smtc_real/src/smtc_real.c ****     }
1058:lr1mac/src/smtc_real/src/smtc_real.c **** #endif
1059:lr1mac/src/smtc_real/src/smtc_real.c **** #if defined( REGION_US_915 )
1060:lr1mac/src/smtc_real/src/smtc_real.c ****     case SMTC_REAL_REGION_US_915: {
1061:lr1mac/src/smtc_real/src/smtc_real.c ****         return region_us_915_tx_frequency_channel_get( index );
1062:lr1mac/src/smtc_real/src/smtc_real.c ****     }
1063:lr1mac/src/smtc_real/src/smtc_real.c **** #endif
1064:lr1mac/src/smtc_real/src/smtc_real.c ****     default:
1065:lr1mac/src/smtc_real/src/smtc_real.c ****         BSP_DBG_TRACE_ERROR( "%s unsupported\n", __func__ );
1066:lr1mac/src/smtc_real/src/smtc_real.c ****         bsp_mcu_handle_lr1mac_issue( );
1067:lr1mac/src/smtc_real/src/smtc_real.c ****         break;
1068:lr1mac/src/smtc_real/src/smtc_real.c ****     }
1069:lr1mac/src/smtc_real/src/smtc_real.c ****     return 0;  // never reach => avoid warning
1070:lr1mac/src/smtc_real/src/smtc_real.c **** }
 2881              		.loc 1 1070 1 view .LVU717
 2882              		@ sp needed
 2883 0010 10BD     		pop	{r4, pc}
 2884              	.LVL340:
 2885              	.L181:
1065:lr1mac/src/smtc_real/src/smtc_real.c ****         bsp_mcu_handle_lr1mac_issue( );
 2886              		.loc 1 1065 9 is_stmt 1 view .LVU718
1065:lr1mac/src/smtc_real/src/smtc_real.c ****         bsp_mcu_handle_lr1mac_issue( );
 2887              		.loc 1 1065 9 view .LVU719
 2888 0012 0848     		ldr	r0, .L183
 2889              	.LVL341:
1065:lr1mac/src/smtc_real/src/smtc_real.c ****         bsp_mcu_handle_lr1mac_issue( );
 2890              		.loc 1 1065 9 is_stmt 0 view .LVU720
 2891 0014 FFF7FEFF 		bl	bsp_trace_print
 2892              	.LVL342:
1065:lr1mac/src/smtc_real/src/smtc_real.c ****         bsp_mcu_handle_lr1mac_issue( );
 2893              		.loc 1 1065 9 is_stmt 1 view .LVU721
 2894 0018 0748     		ldr	r0, .L183+4
 2895 001a FFF7FEFF 		bl	bsp_trace_print
 2896              	.LVL343:
1065:lr1mac/src/smtc_real/src/smtc_real.c ****         bsp_mcu_handle_lr1mac_issue( );
 2897              		.loc 1 1065 9 view .LVU722
 2898 001e 0749     		ldr	r1, .L183+8
 2899 0020 0748     		ldr	r0, .L183+12
 2900 0022 FFF7FEFF 		bl	bsp_trace_print
 2901              	.LVL344:
ARM GAS  /var/folders/bq/yv49bw8j2kd6w3hsq868qv180000gn/T//ccRnzw9B.s 			page 77


1065:lr1mac/src/smtc_real/src/smtc_real.c ****         bsp_mcu_handle_lr1mac_issue( );
 2902              		.loc 1 1065 9 view .LVU723
 2903 0026 0748     		ldr	r0, .L183+16
 2904 0028 FFF7FEFF 		bl	bsp_trace_print
 2905              	.LVL345:
1065:lr1mac/src/smtc_real/src/smtc_real.c ****         bsp_mcu_handle_lr1mac_issue( );
 2906              		.loc 1 1065 9 view .LVU724
1065:lr1mac/src/smtc_real/src/smtc_real.c ****         bsp_mcu_handle_lr1mac_issue( );
 2907              		.loc 1 1065 60 view .LVU725
1066:lr1mac/src/smtc_real/src/smtc_real.c ****         break;
 2908              		.loc 1 1066 9 view .LVU726
 2909 002c FFF7FEFF 		bl	bsp_mcu_handle_lr1mac_issue
 2910              	.LVL346:
1067:lr1mac/src/smtc_real/src/smtc_real.c ****     }
 2911              		.loc 1 1067 9 view .LVU727
1069:lr1mac/src/smtc_real/src/smtc_real.c **** }
 2912              		.loc 1 1069 5 view .LVU728
1069:lr1mac/src/smtc_real/src/smtc_real.c **** }
 2913              		.loc 1 1069 12 is_stmt 0 view .LVU729
 2914 0030 0020     		movs	r0, #0
 2915 0032 EDE7     		b	.L180
 2916              	.L184:
 2917              		.align	2
 2918              	.L183:
 2919 0034 00000000 		.word	.LC0
 2920 0038 08000000 		.word	.LC2
 2921 003c 00000000 		.word	.LANCHOR36
 2922 0040 10000000 		.word	.LC5
 2923 0044 20000000 		.word	.LC7
 2924              		.cfi_endproc
 2925              	.LFE45:
 2927              		.section	.text.smtc_real_rx1_frequency_channel_get,"ax",%progbits
 2928              		.align	1
 2929              		.global	smtc_real_rx1_frequency_channel_get
 2930              		.syntax unified
 2931              		.code	16
 2932              		.thumb_func
 2933              		.fpu softvfp
 2935              	smtc_real_rx1_frequency_channel_get:
 2936              	.LVL347:
 2937              	.LFB46:
1071:lr1mac/src/smtc_real/src/smtc_real.c **** 
1072:lr1mac/src/smtc_real/src/smtc_real.c **** uint32_t smtc_real_rx1_frequency_channel_get( lr1_stack_mac_t* lr1_mac, uint8_t index )
1073:lr1mac/src/smtc_real/src/smtc_real.c **** {
 2938              		.loc 1 1073 1 is_stmt 1 view -0
 2939              		.cfi_startproc
 2940              		@ args = 0, pretend = 0, frame = 0
 2941              		@ frame_needed = 0, uses_anonymous_args = 0
1074:lr1mac/src/smtc_real/src/smtc_real.c ****     switch( lr1_mac->real->region_type )
 2942              		.loc 1 1074 5 view .LVU731
1073:lr1mac/src/smtc_real/src/smtc_real.c ****     switch( lr1_mac->real->region_type )
 2943              		.loc 1 1073 1 is_stmt 0 view .LVU732
 2944 0000 10B5     		push	{r4, lr}
 2945              		.cfi_def_cfa_offset 8
 2946              		.cfi_offset 4, -8
 2947              		.cfi_offset 14, -4
 2948              		.loc 1 1074 26 view .LVU733
ARM GAS  /var/folders/bq/yv49bw8j2kd6w3hsq868qv180000gn/T//ccRnzw9B.s 			page 78


 2949 0002 0368     		ldr	r3, [r0]
 2950              		.loc 1 1074 5 view .LVU734
 2951 0004 1B79     		ldrb	r3, [r3, #4]
 2952 0006 062B     		cmp	r3, #6
 2953 0008 03D1     		bne	.L186
1075:lr1mac/src/smtc_real/src/smtc_real.c ****     {
1076:lr1mac/src/smtc_real/src/smtc_real.c **** #if defined( REGION_WW2G4 )
1077:lr1mac/src/smtc_real/src/smtc_real.c ****     case SMTC_REAL_REGION_WW2G4: {
1078:lr1mac/src/smtc_real/src/smtc_real.c ****         return region_ww2g4_rx1_frequency_channel_get( index );
 2954              		.loc 1 1078 9 is_stmt 1 view .LVU735
 2955              		.loc 1 1078 16 is_stmt 0 view .LVU736
 2956 000a 0800     		movs	r0, r1
 2957              	.LVL348:
 2958              		.loc 1 1078 16 view .LVU737
 2959 000c FFF7FEFF 		bl	region_ww2g4_rx1_frequency_channel_get
 2960              	.LVL349:
 2961              	.L185:
1079:lr1mac/src/smtc_real/src/smtc_real.c ****     }
1080:lr1mac/src/smtc_real/src/smtc_real.c **** #endif
1081:lr1mac/src/smtc_real/src/smtc_real.c **** #if defined( REGION_EU_868 )
1082:lr1mac/src/smtc_real/src/smtc_real.c ****     case SMTC_REAL_REGION_EU_868: {
1083:lr1mac/src/smtc_real/src/smtc_real.c ****         return region_eu_868_rx1_frequency_channel_get( index );
1084:lr1mac/src/smtc_real/src/smtc_real.c ****     }
1085:lr1mac/src/smtc_real/src/smtc_real.c **** #endif
1086:lr1mac/src/smtc_real/src/smtc_real.c **** #if defined( REGION_US_915 )
1087:lr1mac/src/smtc_real/src/smtc_real.c ****     case SMTC_REAL_REGION_US_915: {
1088:lr1mac/src/smtc_real/src/smtc_real.c ****         return region_us_915_rx1_frequency_channel_get( index );
1089:lr1mac/src/smtc_real/src/smtc_real.c ****     }
1090:lr1mac/src/smtc_real/src/smtc_real.c **** #endif
1091:lr1mac/src/smtc_real/src/smtc_real.c ****     default:
1092:lr1mac/src/smtc_real/src/smtc_real.c ****         BSP_DBG_TRACE_ERROR( "%s unsupported\n", __func__ );
1093:lr1mac/src/smtc_real/src/smtc_real.c ****         bsp_mcu_handle_lr1mac_issue( );
1094:lr1mac/src/smtc_real/src/smtc_real.c ****         break;
1095:lr1mac/src/smtc_real/src/smtc_real.c ****     }
1096:lr1mac/src/smtc_real/src/smtc_real.c ****     return 0;  // never reach => avoid warning
1097:lr1mac/src/smtc_real/src/smtc_real.c **** }
 2962              		.loc 1 1097 1 view .LVU738
 2963              		@ sp needed
 2964 0010 10BD     		pop	{r4, pc}
 2965              	.LVL350:
 2966              	.L186:
1092:lr1mac/src/smtc_real/src/smtc_real.c ****         bsp_mcu_handle_lr1mac_issue( );
 2967              		.loc 1 1092 9 is_stmt 1 view .LVU739
1092:lr1mac/src/smtc_real/src/smtc_real.c ****         bsp_mcu_handle_lr1mac_issue( );
 2968              		.loc 1 1092 9 view .LVU740
 2969 0012 0848     		ldr	r0, .L188
 2970              	.LVL351:
1092:lr1mac/src/smtc_real/src/smtc_real.c ****         bsp_mcu_handle_lr1mac_issue( );
 2971              		.loc 1 1092 9 is_stmt 0 view .LVU741
 2972 0014 FFF7FEFF 		bl	bsp_trace_print
 2973              	.LVL352:
1092:lr1mac/src/smtc_real/src/smtc_real.c ****         bsp_mcu_handle_lr1mac_issue( );
 2974              		.loc 1 1092 9 is_stmt 1 view .LVU742
 2975 0018 0748     		ldr	r0, .L188+4
 2976 001a FFF7FEFF 		bl	bsp_trace_print
 2977              	.LVL353:
1092:lr1mac/src/smtc_real/src/smtc_real.c ****         bsp_mcu_handle_lr1mac_issue( );
ARM GAS  /var/folders/bq/yv49bw8j2kd6w3hsq868qv180000gn/T//ccRnzw9B.s 			page 79


 2978              		.loc 1 1092 9 view .LVU743
 2979 001e 0749     		ldr	r1, .L188+8
 2980 0020 0748     		ldr	r0, .L188+12
 2981 0022 FFF7FEFF 		bl	bsp_trace_print
 2982              	.LVL354:
1092:lr1mac/src/smtc_real/src/smtc_real.c ****         bsp_mcu_handle_lr1mac_issue( );
 2983              		.loc 1 1092 9 view .LVU744
 2984 0026 0748     		ldr	r0, .L188+16
 2985 0028 FFF7FEFF 		bl	bsp_trace_print
 2986              	.LVL355:
1092:lr1mac/src/smtc_real/src/smtc_real.c ****         bsp_mcu_handle_lr1mac_issue( );
 2987              		.loc 1 1092 9 view .LVU745
1092:lr1mac/src/smtc_real/src/smtc_real.c ****         bsp_mcu_handle_lr1mac_issue( );
 2988              		.loc 1 1092 60 view .LVU746
1093:lr1mac/src/smtc_real/src/smtc_real.c ****         break;
 2989              		.loc 1 1093 9 view .LVU747
 2990 002c FFF7FEFF 		bl	bsp_mcu_handle_lr1mac_issue
 2991              	.LVL356:
1094:lr1mac/src/smtc_real/src/smtc_real.c ****     }
 2992              		.loc 1 1094 9 view .LVU748
1096:lr1mac/src/smtc_real/src/smtc_real.c **** }
 2993              		.loc 1 1096 5 view .LVU749
1096:lr1mac/src/smtc_real/src/smtc_real.c **** }
 2994              		.loc 1 1096 12 is_stmt 0 view .LVU750
 2995 0030 0020     		movs	r0, #0
 2996 0032 EDE7     		b	.L185
 2997              	.L189:
 2998              		.align	2
 2999              	.L188:
 3000 0034 00000000 		.word	.LC0
 3001 0038 08000000 		.word	.LC2
 3002 003c 00000000 		.word	.LANCHOR37
 3003 0040 10000000 		.word	.LC5
 3004 0044 20000000 		.word	.LC7
 3005              		.cfi_endproc
 3006              	.LFE46:
 3008              		.section	.text.smtc_real_min_dr_channel_get,"ax",%progbits
 3009              		.align	1
 3010              		.global	smtc_real_min_dr_channel_get
 3011              		.syntax unified
 3012              		.code	16
 3013              		.thumb_func
 3014              		.fpu softvfp
 3016              	smtc_real_min_dr_channel_get:
 3017              	.LVL357:
 3018              	.LFB47:
1098:lr1mac/src/smtc_real/src/smtc_real.c **** 
1099:lr1mac/src/smtc_real/src/smtc_real.c **** uint8_t smtc_real_min_dr_channel_get( lr1_stack_mac_t* lr1_mac )
1100:lr1mac/src/smtc_real/src/smtc_real.c **** {
 3019              		.loc 1 1100 1 is_stmt 1 view -0
 3020              		.cfi_startproc
 3021              		@ args = 0, pretend = 0, frame = 0
 3022              		@ frame_needed = 0, uses_anonymous_args = 0
1101:lr1mac/src/smtc_real/src/smtc_real.c ****     switch( lr1_mac->real->region_type )
 3023              		.loc 1 1101 5 view .LVU752
1100:lr1mac/src/smtc_real/src/smtc_real.c ****     switch( lr1_mac->real->region_type )
 3024              		.loc 1 1100 1 is_stmt 0 view .LVU753
ARM GAS  /var/folders/bq/yv49bw8j2kd6w3hsq868qv180000gn/T//ccRnzw9B.s 			page 80


 3025 0000 10B5     		push	{r4, lr}
 3026              		.cfi_def_cfa_offset 8
 3027              		.cfi_offset 4, -8
 3028              		.cfi_offset 14, -4
 3029              		.loc 1 1101 26 view .LVU754
 3030 0002 0368     		ldr	r3, [r0]
 3031              		.loc 1 1101 5 view .LVU755
 3032 0004 1B79     		ldrb	r3, [r3, #4]
 3033 0006 062B     		cmp	r3, #6
 3034 0008 02D1     		bne	.L191
1102:lr1mac/src/smtc_real/src/smtc_real.c ****     {
1103:lr1mac/src/smtc_real/src/smtc_real.c **** #if defined( REGION_WW2G4 )
1104:lr1mac/src/smtc_real/src/smtc_real.c ****     case SMTC_REAL_REGION_WW2G4: {
1105:lr1mac/src/smtc_real/src/smtc_real.c ****         return region_ww2g4_min_dr_channel_get( );
 3035              		.loc 1 1105 9 is_stmt 1 view .LVU756
 3036              		.loc 1 1105 16 is_stmt 0 view .LVU757
 3037 000a FFF7FEFF 		bl	region_ww2g4_min_dr_channel_get
 3038              	.LVL358:
 3039              	.L192:
1106:lr1mac/src/smtc_real/src/smtc_real.c ****     }
1107:lr1mac/src/smtc_real/src/smtc_real.c **** #endif
1108:lr1mac/src/smtc_real/src/smtc_real.c **** #if defined( REGION_EU_868 )
1109:lr1mac/src/smtc_real/src/smtc_real.c ****     case SMTC_REAL_REGION_EU_868: {
1110:lr1mac/src/smtc_real/src/smtc_real.c ****         return region_eu_868_min_dr_channel_get( );
1111:lr1mac/src/smtc_real/src/smtc_real.c ****     }
1112:lr1mac/src/smtc_real/src/smtc_real.c **** #endif
1113:lr1mac/src/smtc_real/src/smtc_real.c **** #if defined( REGION_US_915 )
1114:lr1mac/src/smtc_real/src/smtc_real.c ****     case SMTC_REAL_REGION_US_915: {
1115:lr1mac/src/smtc_real/src/smtc_real.c ****         return region_us_915_min_dr_channel_get( );
1116:lr1mac/src/smtc_real/src/smtc_real.c ****     }
1117:lr1mac/src/smtc_real/src/smtc_real.c **** #endif
1118:lr1mac/src/smtc_real/src/smtc_real.c ****     default:
1119:lr1mac/src/smtc_real/src/smtc_real.c ****         BSP_DBG_TRACE_ERROR( "%s unsupported\n", __func__ );
1120:lr1mac/src/smtc_real/src/smtc_real.c ****         bsp_mcu_handle_lr1mac_issue( );
1121:lr1mac/src/smtc_real/src/smtc_real.c ****         break;
1122:lr1mac/src/smtc_real/src/smtc_real.c ****     }
1123:lr1mac/src/smtc_real/src/smtc_real.c ****     return 0;  // never reach => avoid warning
1124:lr1mac/src/smtc_real/src/smtc_real.c **** }
 3040              		.loc 1 1124 1 view .LVU758
 3041              		@ sp needed
 3042 000e 10BD     		pop	{r4, pc}
 3043              	.LVL359:
 3044              	.L191:
1119:lr1mac/src/smtc_real/src/smtc_real.c ****         bsp_mcu_handle_lr1mac_issue( );
 3045              		.loc 1 1119 9 is_stmt 1 view .LVU759
1119:lr1mac/src/smtc_real/src/smtc_real.c ****         bsp_mcu_handle_lr1mac_issue( );
 3046              		.loc 1 1119 9 view .LVU760
 3047 0010 0848     		ldr	r0, .L193
 3048              	.LVL360:
1119:lr1mac/src/smtc_real/src/smtc_real.c ****         bsp_mcu_handle_lr1mac_issue( );
 3049              		.loc 1 1119 9 is_stmt 0 view .LVU761
 3050 0012 FFF7FEFF 		bl	bsp_trace_print
 3051              	.LVL361:
1119:lr1mac/src/smtc_real/src/smtc_real.c ****         bsp_mcu_handle_lr1mac_issue( );
 3052              		.loc 1 1119 9 is_stmt 1 view .LVU762
 3053 0016 0848     		ldr	r0, .L193+4
 3054 0018 FFF7FEFF 		bl	bsp_trace_print
ARM GAS  /var/folders/bq/yv49bw8j2kd6w3hsq868qv180000gn/T//ccRnzw9B.s 			page 81


 3055              	.LVL362:
1119:lr1mac/src/smtc_real/src/smtc_real.c ****         bsp_mcu_handle_lr1mac_issue( );
 3056              		.loc 1 1119 9 view .LVU763
 3057 001c 0749     		ldr	r1, .L193+8
 3058 001e 0848     		ldr	r0, .L193+12
 3059 0020 FFF7FEFF 		bl	bsp_trace_print
 3060              	.LVL363:
1119:lr1mac/src/smtc_real/src/smtc_real.c ****         bsp_mcu_handle_lr1mac_issue( );
 3061              		.loc 1 1119 9 view .LVU764
 3062 0024 0748     		ldr	r0, .L193+16
 3063 0026 FFF7FEFF 		bl	bsp_trace_print
 3064              	.LVL364:
1119:lr1mac/src/smtc_real/src/smtc_real.c ****         bsp_mcu_handle_lr1mac_issue( );
 3065              		.loc 1 1119 9 view .LVU765
1119:lr1mac/src/smtc_real/src/smtc_real.c ****         bsp_mcu_handle_lr1mac_issue( );
 3066              		.loc 1 1119 60 view .LVU766
1120:lr1mac/src/smtc_real/src/smtc_real.c ****         break;
 3067              		.loc 1 1120 9 view .LVU767
 3068 002a FFF7FEFF 		bl	bsp_mcu_handle_lr1mac_issue
 3069              	.LVL365:
1121:lr1mac/src/smtc_real/src/smtc_real.c ****     }
 3070              		.loc 1 1121 9 view .LVU768
1123:lr1mac/src/smtc_real/src/smtc_real.c **** }
 3071              		.loc 1 1123 5 view .LVU769
1123:lr1mac/src/smtc_real/src/smtc_real.c **** }
 3072              		.loc 1 1123 12 is_stmt 0 view .LVU770
 3073 002e 0020     		movs	r0, #0
 3074 0030 EDE7     		b	.L192
 3075              	.L194:
 3076 0032 C046     		.align	2
 3077              	.L193:
 3078 0034 00000000 		.word	.LC0
 3079 0038 08000000 		.word	.LC2
 3080 003c 00000000 		.word	.LANCHOR38
 3081 0040 10000000 		.word	.LC5
 3082 0044 20000000 		.word	.LC7
 3083              		.cfi_endproc
 3084              	.LFE47:
 3086              		.section	.text.smtc_real_max_dr_channel_get,"ax",%progbits
 3087              		.align	1
 3088              		.global	smtc_real_max_dr_channel_get
 3089              		.syntax unified
 3090              		.code	16
 3091              		.thumb_func
 3092              		.fpu softvfp
 3094              	smtc_real_max_dr_channel_get:
 3095              	.LVL366:
 3096              	.LFB48:
1125:lr1mac/src/smtc_real/src/smtc_real.c **** 
1126:lr1mac/src/smtc_real/src/smtc_real.c **** uint8_t smtc_real_max_dr_channel_get( lr1_stack_mac_t* lr1_mac )
1127:lr1mac/src/smtc_real/src/smtc_real.c **** {
 3097              		.loc 1 1127 1 is_stmt 1 view -0
 3098              		.cfi_startproc
 3099              		@ args = 0, pretend = 0, frame = 0
 3100              		@ frame_needed = 0, uses_anonymous_args = 0
1128:lr1mac/src/smtc_real/src/smtc_real.c ****     switch( lr1_mac->real->region_type )
 3101              		.loc 1 1128 5 view .LVU772
ARM GAS  /var/folders/bq/yv49bw8j2kd6w3hsq868qv180000gn/T//ccRnzw9B.s 			page 82


1127:lr1mac/src/smtc_real/src/smtc_real.c ****     switch( lr1_mac->real->region_type )
 3102              		.loc 1 1127 1 is_stmt 0 view .LVU773
 3103 0000 10B5     		push	{r4, lr}
 3104              		.cfi_def_cfa_offset 8
 3105              		.cfi_offset 4, -8
 3106              		.cfi_offset 14, -4
 3107              		.loc 1 1128 26 view .LVU774
 3108 0002 0368     		ldr	r3, [r0]
 3109              		.loc 1 1128 5 view .LVU775
 3110 0004 1B79     		ldrb	r3, [r3, #4]
 3111 0006 062B     		cmp	r3, #6
 3112 0008 02D1     		bne	.L196
1129:lr1mac/src/smtc_real/src/smtc_real.c ****     {
1130:lr1mac/src/smtc_real/src/smtc_real.c **** #if defined( REGION_WW2G4 )
1131:lr1mac/src/smtc_real/src/smtc_real.c ****     case SMTC_REAL_REGION_WW2G4: {
1132:lr1mac/src/smtc_real/src/smtc_real.c ****         return region_ww2g4_max_dr_channel_get( );
 3113              		.loc 1 1132 9 is_stmt 1 view .LVU776
 3114              		.loc 1 1132 16 is_stmt 0 view .LVU777
 3115 000a FFF7FEFF 		bl	region_ww2g4_max_dr_channel_get
 3116              	.LVL367:
 3117              	.L197:
1133:lr1mac/src/smtc_real/src/smtc_real.c ****     }
1134:lr1mac/src/smtc_real/src/smtc_real.c **** #endif
1135:lr1mac/src/smtc_real/src/smtc_real.c **** #if defined( REGION_EU_868 )
1136:lr1mac/src/smtc_real/src/smtc_real.c ****     case SMTC_REAL_REGION_EU_868: {
1137:lr1mac/src/smtc_real/src/smtc_real.c ****         return region_eu_868_max_dr_channel_get( );
1138:lr1mac/src/smtc_real/src/smtc_real.c ****     }
1139:lr1mac/src/smtc_real/src/smtc_real.c **** #endif
1140:lr1mac/src/smtc_real/src/smtc_real.c **** #if defined( REGION_US_915 )
1141:lr1mac/src/smtc_real/src/smtc_real.c ****     case SMTC_REAL_REGION_US_915: {
1142:lr1mac/src/smtc_real/src/smtc_real.c ****         return region_us_915_max_dr_channel_get( );
1143:lr1mac/src/smtc_real/src/smtc_real.c ****     }
1144:lr1mac/src/smtc_real/src/smtc_real.c **** #endif
1145:lr1mac/src/smtc_real/src/smtc_real.c ****     default:
1146:lr1mac/src/smtc_real/src/smtc_real.c ****         BSP_DBG_TRACE_ERROR( "%s unsupported\n", __func__ );
1147:lr1mac/src/smtc_real/src/smtc_real.c ****         bsp_mcu_handle_lr1mac_issue( );
1148:lr1mac/src/smtc_real/src/smtc_real.c ****         break;
1149:lr1mac/src/smtc_real/src/smtc_real.c ****     }
1150:lr1mac/src/smtc_real/src/smtc_real.c ****     return 0;  // never reach => avoid warning
1151:lr1mac/src/smtc_real/src/smtc_real.c **** }
 3118              		.loc 1 1151 1 view .LVU778
 3119              		@ sp needed
 3120 000e 10BD     		pop	{r4, pc}
 3121              	.LVL368:
 3122              	.L196:
1146:lr1mac/src/smtc_real/src/smtc_real.c ****         bsp_mcu_handle_lr1mac_issue( );
 3123              		.loc 1 1146 9 is_stmt 1 view .LVU779
1146:lr1mac/src/smtc_real/src/smtc_real.c ****         bsp_mcu_handle_lr1mac_issue( );
 3124              		.loc 1 1146 9 view .LVU780
 3125 0010 0848     		ldr	r0, .L198
 3126              	.LVL369:
1146:lr1mac/src/smtc_real/src/smtc_real.c ****         bsp_mcu_handle_lr1mac_issue( );
