ARM GAS  /var/folders/bq/yv49bw8j2kd6w3hsq868qv180000gn/T//ccUNGOs3.s 			page 1


   1              		.cpu cortex-m0plus
   2              		.eabi_attribute 23, 1
   3              		.eabi_attribute 24, 1
   4              		.eabi_attribute 25, 1
   5              		.eabi_attribute 26, 1
   6              		.eabi_attribute 30, 4
   7              		.eabi_attribute 34, 0
   8              		.eabi_attribute 18, 4
   9              		.file	"stm32l0xx_hal_uart_ex.c"
  10              		.text
  11              	.Ltext0:
  12              		.cfi_sections	.debug_frame
  13              		.section	.text.HAL_RS485Ex_Init,"ax",%progbits
  14              		.align	1
  15              		.global	HAL_RS485Ex_Init
  16              		.arch armv6s-m
  17              		.syntax unified
  18              		.code	16
  19              		.thumb_func
  20              		.fpu softvfp
  22              	HAL_RS485Ex_Init:
  23              	.LVL0:
  24              	.LFB47:
  25              		.file 1 "smtc_bsp/arm/stm32/stm32_hal/STM32L0xx_HAL_Driver/Src/stm32l0xx_hal_uart_ex.c"
   1:smtc_bsp/arm/stm32/stm32_hal/STM32L0xx_HAL_Driver/Src/stm32l0xx_hal_uart_ex.c **** /**
   2:smtc_bsp/arm/stm32/stm32_hal/STM32L0xx_HAL_Driver/Src/stm32l0xx_hal_uart_ex.c ****   ******************************************************************************
   3:smtc_bsp/arm/stm32/stm32_hal/STM32L0xx_HAL_Driver/Src/stm32l0xx_hal_uart_ex.c ****   * @file    stm32l0xx_hal_uart_ex.c
   4:smtc_bsp/arm/stm32/stm32_hal/STM32L0xx_HAL_Driver/Src/stm32l0xx_hal_uart_ex.c ****   * @author  MCD Application Team
   5:smtc_bsp/arm/stm32/stm32_hal/STM32L0xx_HAL_Driver/Src/stm32l0xx_hal_uart_ex.c ****   * @brief   Extended UART HAL module driver.
   6:smtc_bsp/arm/stm32/stm32_hal/STM32L0xx_HAL_Driver/Src/stm32l0xx_hal_uart_ex.c ****   *          This file provides firmware functions to manage the following extended
   7:smtc_bsp/arm/stm32/stm32_hal/STM32L0xx_HAL_Driver/Src/stm32l0xx_hal_uart_ex.c ****   *          functionalities of the Universal Asynchronous Receiver Transmitter Peripheral (UART).
   8:smtc_bsp/arm/stm32/stm32_hal/STM32L0xx_HAL_Driver/Src/stm32l0xx_hal_uart_ex.c ****   *           + Initialization and de-initialization functions
   9:smtc_bsp/arm/stm32/stm32_hal/STM32L0xx_HAL_Driver/Src/stm32l0xx_hal_uart_ex.c ****   *           + Peripheral Control functions
  10:smtc_bsp/arm/stm32/stm32_hal/STM32L0xx_HAL_Driver/Src/stm32l0xx_hal_uart_ex.c ****   *
  11:smtc_bsp/arm/stm32/stm32_hal/STM32L0xx_HAL_Driver/Src/stm32l0xx_hal_uart_ex.c ****   *
  12:smtc_bsp/arm/stm32/stm32_hal/STM32L0xx_HAL_Driver/Src/stm32l0xx_hal_uart_ex.c ****   @verbatim
  13:smtc_bsp/arm/stm32/stm32_hal/STM32L0xx_HAL_Driver/Src/stm32l0xx_hal_uart_ex.c ****   ==============================================================================
  14:smtc_bsp/arm/stm32/stm32_hal/STM32L0xx_HAL_Driver/Src/stm32l0xx_hal_uart_ex.c ****                ##### UART peripheral extended features  #####
  15:smtc_bsp/arm/stm32/stm32_hal/STM32L0xx_HAL_Driver/Src/stm32l0xx_hal_uart_ex.c ****   ==============================================================================
  16:smtc_bsp/arm/stm32/stm32_hal/STM32L0xx_HAL_Driver/Src/stm32l0xx_hal_uart_ex.c **** 
  17:smtc_bsp/arm/stm32/stm32_hal/STM32L0xx_HAL_Driver/Src/stm32l0xx_hal_uart_ex.c ****     (#) Declare a UART_HandleTypeDef handle structure.
  18:smtc_bsp/arm/stm32/stm32_hal/STM32L0xx_HAL_Driver/Src/stm32l0xx_hal_uart_ex.c **** 
  19:smtc_bsp/arm/stm32/stm32_hal/STM32L0xx_HAL_Driver/Src/stm32l0xx_hal_uart_ex.c ****     (#) For the UART RS485 Driver Enable mode, initialize the UART registers
  20:smtc_bsp/arm/stm32/stm32_hal/STM32L0xx_HAL_Driver/Src/stm32l0xx_hal_uart_ex.c ****         by calling the HAL_RS485Ex_Init() API.
  21:smtc_bsp/arm/stm32/stm32_hal/STM32L0xx_HAL_Driver/Src/stm32l0xx_hal_uart_ex.c **** 
  22:smtc_bsp/arm/stm32/stm32_hal/STM32L0xx_HAL_Driver/Src/stm32l0xx_hal_uart_ex.c ****   @endverbatim
  23:smtc_bsp/arm/stm32/stm32_hal/STM32L0xx_HAL_Driver/Src/stm32l0xx_hal_uart_ex.c ****   ******************************************************************************
  24:smtc_bsp/arm/stm32/stm32_hal/STM32L0xx_HAL_Driver/Src/stm32l0xx_hal_uart_ex.c ****   * @attention
  25:smtc_bsp/arm/stm32/stm32_hal/STM32L0xx_HAL_Driver/Src/stm32l0xx_hal_uart_ex.c ****   *
  26:smtc_bsp/arm/stm32/stm32_hal/STM32L0xx_HAL_Driver/Src/stm32l0xx_hal_uart_ex.c ****   * <h2><center>&copy; Copyright (c) 2016 STMicroelectronics.
  27:smtc_bsp/arm/stm32/stm32_hal/STM32L0xx_HAL_Driver/Src/stm32l0xx_hal_uart_ex.c ****   * All rights reserved.</center></h2>
  28:smtc_bsp/arm/stm32/stm32_hal/STM32L0xx_HAL_Driver/Src/stm32l0xx_hal_uart_ex.c ****   *
  29:smtc_bsp/arm/stm32/stm32_hal/STM32L0xx_HAL_Driver/Src/stm32l0xx_hal_uart_ex.c ****   * This software component is licensed by ST under BSD 3-Clause license,
  30:smtc_bsp/arm/stm32/stm32_hal/STM32L0xx_HAL_Driver/Src/stm32l0xx_hal_uart_ex.c ****   * the "License"; You may not use this file except in compliance with the
  31:smtc_bsp/arm/stm32/stm32_hal/STM32L0xx_HAL_Driver/Src/stm32l0xx_hal_uart_ex.c ****   * License. You may obtain a copy of the License at:
  32:smtc_bsp/arm/stm32/stm32_hal/STM32L0xx_HAL_Driver/Src/stm32l0xx_hal_uart_ex.c ****   *                        opensource.org/licenses/BSD-3-Clause
  33:smtc_bsp/arm/stm32/stm32_hal/STM32L0xx_HAL_Driver/Src/stm32l0xx_hal_uart_ex.c ****   *
ARM GAS  /var/folders/bq/yv49bw8j2kd6w3hsq868qv180000gn/T//ccUNGOs3.s 			page 2


  34:smtc_bsp/arm/stm32/stm32_hal/STM32L0xx_HAL_Driver/Src/stm32l0xx_hal_uart_ex.c ****   ******************************************************************************
  35:smtc_bsp/arm/stm32/stm32_hal/STM32L0xx_HAL_Driver/Src/stm32l0xx_hal_uart_ex.c ****   */
  36:smtc_bsp/arm/stm32/stm32_hal/STM32L0xx_HAL_Driver/Src/stm32l0xx_hal_uart_ex.c **** 
  37:smtc_bsp/arm/stm32/stm32_hal/STM32L0xx_HAL_Driver/Src/stm32l0xx_hal_uart_ex.c **** /* Includes ------------------------------------------------------------------*/
  38:smtc_bsp/arm/stm32/stm32_hal/STM32L0xx_HAL_Driver/Src/stm32l0xx_hal_uart_ex.c **** #include "stm32l0xx_hal.h"
  39:smtc_bsp/arm/stm32/stm32_hal/STM32L0xx_HAL_Driver/Src/stm32l0xx_hal_uart_ex.c **** 
  40:smtc_bsp/arm/stm32/stm32_hal/STM32L0xx_HAL_Driver/Src/stm32l0xx_hal_uart_ex.c **** /** @addtogroup STM32L0xx_HAL_Driver
  41:smtc_bsp/arm/stm32/stm32_hal/STM32L0xx_HAL_Driver/Src/stm32l0xx_hal_uart_ex.c ****   * @{
  42:smtc_bsp/arm/stm32/stm32_hal/STM32L0xx_HAL_Driver/Src/stm32l0xx_hal_uart_ex.c ****   */
  43:smtc_bsp/arm/stm32/stm32_hal/STM32L0xx_HAL_Driver/Src/stm32l0xx_hal_uart_ex.c **** 
  44:smtc_bsp/arm/stm32/stm32_hal/STM32L0xx_HAL_Driver/Src/stm32l0xx_hal_uart_ex.c **** /** @defgroup UARTEx UARTEx
  45:smtc_bsp/arm/stm32/stm32_hal/STM32L0xx_HAL_Driver/Src/stm32l0xx_hal_uart_ex.c ****   * @brief UART Extended HAL module driver
  46:smtc_bsp/arm/stm32/stm32_hal/STM32L0xx_HAL_Driver/Src/stm32l0xx_hal_uart_ex.c ****   * @{
  47:smtc_bsp/arm/stm32/stm32_hal/STM32L0xx_HAL_Driver/Src/stm32l0xx_hal_uart_ex.c ****   */
  48:smtc_bsp/arm/stm32/stm32_hal/STM32L0xx_HAL_Driver/Src/stm32l0xx_hal_uart_ex.c **** 
  49:smtc_bsp/arm/stm32/stm32_hal/STM32L0xx_HAL_Driver/Src/stm32l0xx_hal_uart_ex.c **** #ifdef HAL_UART_MODULE_ENABLED
  50:smtc_bsp/arm/stm32/stm32_hal/STM32L0xx_HAL_Driver/Src/stm32l0xx_hal_uart_ex.c **** 
  51:smtc_bsp/arm/stm32/stm32_hal/STM32L0xx_HAL_Driver/Src/stm32l0xx_hal_uart_ex.c **** /* Private typedef -----------------------------------------------------------*/
  52:smtc_bsp/arm/stm32/stm32_hal/STM32L0xx_HAL_Driver/Src/stm32l0xx_hal_uart_ex.c **** /* Private define ------------------------------------------------------------*/
  53:smtc_bsp/arm/stm32/stm32_hal/STM32L0xx_HAL_Driver/Src/stm32l0xx_hal_uart_ex.c **** 
  54:smtc_bsp/arm/stm32/stm32_hal/STM32L0xx_HAL_Driver/Src/stm32l0xx_hal_uart_ex.c **** /* Private macros ------------------------------------------------------------*/
  55:smtc_bsp/arm/stm32/stm32_hal/STM32L0xx_HAL_Driver/Src/stm32l0xx_hal_uart_ex.c **** /* Private variables ---------------------------------------------------------*/
  56:smtc_bsp/arm/stm32/stm32_hal/STM32L0xx_HAL_Driver/Src/stm32l0xx_hal_uart_ex.c **** /* Private function prototypes -----------------------------------------------*/
  57:smtc_bsp/arm/stm32/stm32_hal/STM32L0xx_HAL_Driver/Src/stm32l0xx_hal_uart_ex.c **** /** @defgroup UARTEx_Private_Functions UARTEx Private Functions
  58:smtc_bsp/arm/stm32/stm32_hal/STM32L0xx_HAL_Driver/Src/stm32l0xx_hal_uart_ex.c ****   * @{
  59:smtc_bsp/arm/stm32/stm32_hal/STM32L0xx_HAL_Driver/Src/stm32l0xx_hal_uart_ex.c ****   */
  60:smtc_bsp/arm/stm32/stm32_hal/STM32L0xx_HAL_Driver/Src/stm32l0xx_hal_uart_ex.c **** #if (USE_HAL_UART_REGISTER_CALLBACKS == 1)
  61:smtc_bsp/arm/stm32/stm32_hal/STM32L0xx_HAL_Driver/Src/stm32l0xx_hal_uart_ex.c **** extern void UART_InitCallbacksToDefault(UART_HandleTypeDef *huart);
  62:smtc_bsp/arm/stm32/stm32_hal/STM32L0xx_HAL_Driver/Src/stm32l0xx_hal_uart_ex.c **** #endif /* USE_HAL_UART_REGISTER_CALLBACKS */
  63:smtc_bsp/arm/stm32/stm32_hal/STM32L0xx_HAL_Driver/Src/stm32l0xx_hal_uart_ex.c **** static void UARTEx_Wakeup_AddressConfig(UART_HandleTypeDef *huart, UART_WakeUpTypeDef WakeUpSelecti
  64:smtc_bsp/arm/stm32/stm32_hal/STM32L0xx_HAL_Driver/Src/stm32l0xx_hal_uart_ex.c **** /**
  65:smtc_bsp/arm/stm32/stm32_hal/STM32L0xx_HAL_Driver/Src/stm32l0xx_hal_uart_ex.c ****   * @}
  66:smtc_bsp/arm/stm32/stm32_hal/STM32L0xx_HAL_Driver/Src/stm32l0xx_hal_uart_ex.c ****   */
  67:smtc_bsp/arm/stm32/stm32_hal/STM32L0xx_HAL_Driver/Src/stm32l0xx_hal_uart_ex.c **** 
  68:smtc_bsp/arm/stm32/stm32_hal/STM32L0xx_HAL_Driver/Src/stm32l0xx_hal_uart_ex.c **** /* Exported functions --------------------------------------------------------*/
  69:smtc_bsp/arm/stm32/stm32_hal/STM32L0xx_HAL_Driver/Src/stm32l0xx_hal_uart_ex.c **** 
  70:smtc_bsp/arm/stm32/stm32_hal/STM32L0xx_HAL_Driver/Src/stm32l0xx_hal_uart_ex.c **** /** @defgroup UARTEx_Exported_Functions  UARTEx Exported Functions
  71:smtc_bsp/arm/stm32/stm32_hal/STM32L0xx_HAL_Driver/Src/stm32l0xx_hal_uart_ex.c ****   * @{
  72:smtc_bsp/arm/stm32/stm32_hal/STM32L0xx_HAL_Driver/Src/stm32l0xx_hal_uart_ex.c ****   */
  73:smtc_bsp/arm/stm32/stm32_hal/STM32L0xx_HAL_Driver/Src/stm32l0xx_hal_uart_ex.c **** 
  74:smtc_bsp/arm/stm32/stm32_hal/STM32L0xx_HAL_Driver/Src/stm32l0xx_hal_uart_ex.c **** /** @defgroup UARTEx_Exported_Functions_Group1 Initialization and de-initialization functions
  75:smtc_bsp/arm/stm32/stm32_hal/STM32L0xx_HAL_Driver/Src/stm32l0xx_hal_uart_ex.c ****   * @brief    Extended Initialization and Configuration Functions
  76:smtc_bsp/arm/stm32/stm32_hal/STM32L0xx_HAL_Driver/Src/stm32l0xx_hal_uart_ex.c ****   *
  77:smtc_bsp/arm/stm32/stm32_hal/STM32L0xx_HAL_Driver/Src/stm32l0xx_hal_uart_ex.c **** @verbatim
  78:smtc_bsp/arm/stm32/stm32_hal/STM32L0xx_HAL_Driver/Src/stm32l0xx_hal_uart_ex.c **** ===============================================================================
  79:smtc_bsp/arm/stm32/stm32_hal/STM32L0xx_HAL_Driver/Src/stm32l0xx_hal_uart_ex.c ****             ##### Initialization and Configuration functions #####
  80:smtc_bsp/arm/stm32/stm32_hal/STM32L0xx_HAL_Driver/Src/stm32l0xx_hal_uart_ex.c ****  ===============================================================================
  81:smtc_bsp/arm/stm32/stm32_hal/STM32L0xx_HAL_Driver/Src/stm32l0xx_hal_uart_ex.c ****     [..]
  82:smtc_bsp/arm/stm32/stm32_hal/STM32L0xx_HAL_Driver/Src/stm32l0xx_hal_uart_ex.c ****     This subsection provides a set of functions allowing to initialize the USARTx or the UARTy
  83:smtc_bsp/arm/stm32/stm32_hal/STM32L0xx_HAL_Driver/Src/stm32l0xx_hal_uart_ex.c ****     in asynchronous mode.
  84:smtc_bsp/arm/stm32/stm32_hal/STM32L0xx_HAL_Driver/Src/stm32l0xx_hal_uart_ex.c ****       (+) For the asynchronous mode the parameters below can be configured:
  85:smtc_bsp/arm/stm32/stm32_hal/STM32L0xx_HAL_Driver/Src/stm32l0xx_hal_uart_ex.c ****         (++) Baud Rate
  86:smtc_bsp/arm/stm32/stm32_hal/STM32L0xx_HAL_Driver/Src/stm32l0xx_hal_uart_ex.c ****         (++) Word Length
  87:smtc_bsp/arm/stm32/stm32_hal/STM32L0xx_HAL_Driver/Src/stm32l0xx_hal_uart_ex.c ****         (++) Stop Bit
  88:smtc_bsp/arm/stm32/stm32_hal/STM32L0xx_HAL_Driver/Src/stm32l0xx_hal_uart_ex.c ****         (++) Parity: If the parity is enabled, then the MSB bit of the data written
  89:smtc_bsp/arm/stm32/stm32_hal/STM32L0xx_HAL_Driver/Src/stm32l0xx_hal_uart_ex.c ****              in the data register is transmitted but is changed by the parity bit.
  90:smtc_bsp/arm/stm32/stm32_hal/STM32L0xx_HAL_Driver/Src/stm32l0xx_hal_uart_ex.c ****         (++) Hardware flow control
ARM GAS  /var/folders/bq/yv49bw8j2kd6w3hsq868qv180000gn/T//ccUNGOs3.s 			page 3


  91:smtc_bsp/arm/stm32/stm32_hal/STM32L0xx_HAL_Driver/Src/stm32l0xx_hal_uart_ex.c ****         (++) Receiver/transmitter modes
  92:smtc_bsp/arm/stm32/stm32_hal/STM32L0xx_HAL_Driver/Src/stm32l0xx_hal_uart_ex.c ****         (++) Over Sampling Method
  93:smtc_bsp/arm/stm32/stm32_hal/STM32L0xx_HAL_Driver/Src/stm32l0xx_hal_uart_ex.c ****         (++) One-Bit Sampling Method
  94:smtc_bsp/arm/stm32/stm32_hal/STM32L0xx_HAL_Driver/Src/stm32l0xx_hal_uart_ex.c ****       (+) For the asynchronous mode, the following advanced features can be configured as well:
  95:smtc_bsp/arm/stm32/stm32_hal/STM32L0xx_HAL_Driver/Src/stm32l0xx_hal_uart_ex.c ****         (++) TX and/or RX pin level inversion
  96:smtc_bsp/arm/stm32/stm32_hal/STM32L0xx_HAL_Driver/Src/stm32l0xx_hal_uart_ex.c ****         (++) data logical level inversion
  97:smtc_bsp/arm/stm32/stm32_hal/STM32L0xx_HAL_Driver/Src/stm32l0xx_hal_uart_ex.c ****         (++) RX and TX pins swap
  98:smtc_bsp/arm/stm32/stm32_hal/STM32L0xx_HAL_Driver/Src/stm32l0xx_hal_uart_ex.c ****         (++) RX overrun detection disabling
  99:smtc_bsp/arm/stm32/stm32_hal/STM32L0xx_HAL_Driver/Src/stm32l0xx_hal_uart_ex.c ****         (++) DMA disabling on RX error
 100:smtc_bsp/arm/stm32/stm32_hal/STM32L0xx_HAL_Driver/Src/stm32l0xx_hal_uart_ex.c ****         (++) MSB first on communication line
 101:smtc_bsp/arm/stm32/stm32_hal/STM32L0xx_HAL_Driver/Src/stm32l0xx_hal_uart_ex.c ****         (++) auto Baud rate detection
 102:smtc_bsp/arm/stm32/stm32_hal/STM32L0xx_HAL_Driver/Src/stm32l0xx_hal_uart_ex.c ****     [..]
 103:smtc_bsp/arm/stm32/stm32_hal/STM32L0xx_HAL_Driver/Src/stm32l0xx_hal_uart_ex.c ****     The HAL_RS485Ex_Init() API follows the UART RS485 mode configuration
 104:smtc_bsp/arm/stm32/stm32_hal/STM32L0xx_HAL_Driver/Src/stm32l0xx_hal_uart_ex.c ****      procedures (details for the procedures are available in reference manual).
 105:smtc_bsp/arm/stm32/stm32_hal/STM32L0xx_HAL_Driver/Src/stm32l0xx_hal_uart_ex.c **** 
 106:smtc_bsp/arm/stm32/stm32_hal/STM32L0xx_HAL_Driver/Src/stm32l0xx_hal_uart_ex.c **** @endverbatim
 107:smtc_bsp/arm/stm32/stm32_hal/STM32L0xx_HAL_Driver/Src/stm32l0xx_hal_uart_ex.c **** 
 108:smtc_bsp/arm/stm32/stm32_hal/STM32L0xx_HAL_Driver/Src/stm32l0xx_hal_uart_ex.c ****   Depending on the frame length defined by the M1 and M0 bits (7-bit,
 109:smtc_bsp/arm/stm32/stm32_hal/STM32L0xx_HAL_Driver/Src/stm32l0xx_hal_uart_ex.c ****   8-bit or 9-bit), the possible UART formats are listed in the
 110:smtc_bsp/arm/stm32/stm32_hal/STM32L0xx_HAL_Driver/Src/stm32l0xx_hal_uart_ex.c ****   following table.
 111:smtc_bsp/arm/stm32/stm32_hal/STM32L0xx_HAL_Driver/Src/stm32l0xx_hal_uart_ex.c **** 
 112:smtc_bsp/arm/stm32/stm32_hal/STM32L0xx_HAL_Driver/Src/stm32l0xx_hal_uart_ex.c ****     Table 1. UART frame format.
 113:smtc_bsp/arm/stm32/stm32_hal/STM32L0xx_HAL_Driver/Src/stm32l0xx_hal_uart_ex.c ****     +-----------------------------------------------------------------------+
 114:smtc_bsp/arm/stm32/stm32_hal/STM32L0xx_HAL_Driver/Src/stm32l0xx_hal_uart_ex.c ****     |  M1 bit |  M0 bit |  PCE bit  |             UART frame                |
 115:smtc_bsp/arm/stm32/stm32_hal/STM32L0xx_HAL_Driver/Src/stm32l0xx_hal_uart_ex.c ****     |---------|---------|-----------|---------------------------------------|
 116:smtc_bsp/arm/stm32/stm32_hal/STM32L0xx_HAL_Driver/Src/stm32l0xx_hal_uart_ex.c ****     |    0    |    0    |    0      |    | SB |    8 bit data   | STB |     |
 117:smtc_bsp/arm/stm32/stm32_hal/STM32L0xx_HAL_Driver/Src/stm32l0xx_hal_uart_ex.c ****     |---------|---------|-----------|---------------------------------------|
 118:smtc_bsp/arm/stm32/stm32_hal/STM32L0xx_HAL_Driver/Src/stm32l0xx_hal_uart_ex.c ****     |    0    |    0    |    1      |    | SB | 7 bit data | PB | STB |     |
 119:smtc_bsp/arm/stm32/stm32_hal/STM32L0xx_HAL_Driver/Src/stm32l0xx_hal_uart_ex.c ****     |---------|---------|-----------|---------------------------------------|
 120:smtc_bsp/arm/stm32/stm32_hal/STM32L0xx_HAL_Driver/Src/stm32l0xx_hal_uart_ex.c ****     |    0    |    1    |    0      |    | SB |    9 bit data   | STB |     |
 121:smtc_bsp/arm/stm32/stm32_hal/STM32L0xx_HAL_Driver/Src/stm32l0xx_hal_uart_ex.c ****     |---------|---------|-----------|---------------------------------------|
 122:smtc_bsp/arm/stm32/stm32_hal/STM32L0xx_HAL_Driver/Src/stm32l0xx_hal_uart_ex.c ****     |    0    |    1    |    1      |    | SB | 8 bit data | PB | STB |     |
 123:smtc_bsp/arm/stm32/stm32_hal/STM32L0xx_HAL_Driver/Src/stm32l0xx_hal_uart_ex.c ****     |---------|---------|-----------|---------------------------------------|
 124:smtc_bsp/arm/stm32/stm32_hal/STM32L0xx_HAL_Driver/Src/stm32l0xx_hal_uart_ex.c ****     |    1    |    0    |    0      |    | SB |    7 bit data   | STB |     |
 125:smtc_bsp/arm/stm32/stm32_hal/STM32L0xx_HAL_Driver/Src/stm32l0xx_hal_uart_ex.c ****     |---------|---------|-----------|---------------------------------------|
 126:smtc_bsp/arm/stm32/stm32_hal/STM32L0xx_HAL_Driver/Src/stm32l0xx_hal_uart_ex.c ****     |    1    |    0    |    1      |    | SB | 6 bit data | PB | STB |     |
 127:smtc_bsp/arm/stm32/stm32_hal/STM32L0xx_HAL_Driver/Src/stm32l0xx_hal_uart_ex.c ****     +-----------------------------------------------------------------------+
 128:smtc_bsp/arm/stm32/stm32_hal/STM32L0xx_HAL_Driver/Src/stm32l0xx_hal_uart_ex.c **** 
 129:smtc_bsp/arm/stm32/stm32_hal/STM32L0xx_HAL_Driver/Src/stm32l0xx_hal_uart_ex.c ****   * @{
 130:smtc_bsp/arm/stm32/stm32_hal/STM32L0xx_HAL_Driver/Src/stm32l0xx_hal_uart_ex.c ****   */
 131:smtc_bsp/arm/stm32/stm32_hal/STM32L0xx_HAL_Driver/Src/stm32l0xx_hal_uart_ex.c **** 
 132:smtc_bsp/arm/stm32/stm32_hal/STM32L0xx_HAL_Driver/Src/stm32l0xx_hal_uart_ex.c **** /**
 133:smtc_bsp/arm/stm32/stm32_hal/STM32L0xx_HAL_Driver/Src/stm32l0xx_hal_uart_ex.c ****   * @brief Initialize the RS485 Driver enable feature according to the specified
 134:smtc_bsp/arm/stm32/stm32_hal/STM32L0xx_HAL_Driver/Src/stm32l0xx_hal_uart_ex.c ****   *         parameters in the UART_InitTypeDef and creates the associated handle.
 135:smtc_bsp/arm/stm32/stm32_hal/STM32L0xx_HAL_Driver/Src/stm32l0xx_hal_uart_ex.c ****   * @param huart            UART handle.
 136:smtc_bsp/arm/stm32/stm32_hal/STM32L0xx_HAL_Driver/Src/stm32l0xx_hal_uart_ex.c ****   * @param Polarity         Select the driver enable polarity.
 137:smtc_bsp/arm/stm32/stm32_hal/STM32L0xx_HAL_Driver/Src/stm32l0xx_hal_uart_ex.c ****   *          This parameter can be one of the following values:
 138:smtc_bsp/arm/stm32/stm32_hal/STM32L0xx_HAL_Driver/Src/stm32l0xx_hal_uart_ex.c ****   *          @arg @ref UART_DE_POLARITY_HIGH DE signal is active high
 139:smtc_bsp/arm/stm32/stm32_hal/STM32L0xx_HAL_Driver/Src/stm32l0xx_hal_uart_ex.c ****   *          @arg @ref UART_DE_POLARITY_LOW  DE signal is active low
 140:smtc_bsp/arm/stm32/stm32_hal/STM32L0xx_HAL_Driver/Src/stm32l0xx_hal_uart_ex.c ****   * @param AssertionTime    Driver Enable assertion time:
 141:smtc_bsp/arm/stm32/stm32_hal/STM32L0xx_HAL_Driver/Src/stm32l0xx_hal_uart_ex.c ****   *       5-bit value defining the time between the activation of the DE (Driver Enable)
 142:smtc_bsp/arm/stm32/stm32_hal/STM32L0xx_HAL_Driver/Src/stm32l0xx_hal_uart_ex.c ****   *       signal and the beginning of the start bit. It is expressed in sample time
 143:smtc_bsp/arm/stm32/stm32_hal/STM32L0xx_HAL_Driver/Src/stm32l0xx_hal_uart_ex.c ****   *       units (1/8 or 1/16 bit time, depending on the oversampling rate)
 144:smtc_bsp/arm/stm32/stm32_hal/STM32L0xx_HAL_Driver/Src/stm32l0xx_hal_uart_ex.c ****   * @param DeassertionTime  Driver Enable deassertion time:
 145:smtc_bsp/arm/stm32/stm32_hal/STM32L0xx_HAL_Driver/Src/stm32l0xx_hal_uart_ex.c ****   *       5-bit value defining the time between the end of the last stop bit, in a
 146:smtc_bsp/arm/stm32/stm32_hal/STM32L0xx_HAL_Driver/Src/stm32l0xx_hal_uart_ex.c ****   *       transmitted message, and the de-activation of the DE (Driver Enable) signal.
 147:smtc_bsp/arm/stm32/stm32_hal/STM32L0xx_HAL_Driver/Src/stm32l0xx_hal_uart_ex.c ****   *       It is expressed in sample time units (1/8 or 1/16 bit time, depending on the
ARM GAS  /var/folders/bq/yv49bw8j2kd6w3hsq868qv180000gn/T//ccUNGOs3.s 			page 4


 148:smtc_bsp/arm/stm32/stm32_hal/STM32L0xx_HAL_Driver/Src/stm32l0xx_hal_uart_ex.c ****   *       oversampling rate).
 149:smtc_bsp/arm/stm32/stm32_hal/STM32L0xx_HAL_Driver/Src/stm32l0xx_hal_uart_ex.c ****   * @retval HAL status
 150:smtc_bsp/arm/stm32/stm32_hal/STM32L0xx_HAL_Driver/Src/stm32l0xx_hal_uart_ex.c ****   */
 151:smtc_bsp/arm/stm32/stm32_hal/STM32L0xx_HAL_Driver/Src/stm32l0xx_hal_uart_ex.c **** HAL_StatusTypeDef HAL_RS485Ex_Init(UART_HandleTypeDef *huart, uint32_t Polarity, uint32_t Assertion
 152:smtc_bsp/arm/stm32/stm32_hal/STM32L0xx_HAL_Driver/Src/stm32l0xx_hal_uart_ex.c **** {
  26              		.loc 1 152 1 view -0
  27              		.cfi_startproc
  28              		@ args = 0, pretend = 0, frame = 0
  29              		@ frame_needed = 0, uses_anonymous_args = 0
 153:smtc_bsp/arm/stm32/stm32_hal/STM32L0xx_HAL_Driver/Src/stm32l0xx_hal_uart_ex.c ****   uint32_t temp;
  30              		.loc 1 153 3 view .LVU1
 154:smtc_bsp/arm/stm32/stm32_hal/STM32L0xx_HAL_Driver/Src/stm32l0xx_hal_uart_ex.c **** 
 155:smtc_bsp/arm/stm32/stm32_hal/STM32L0xx_HAL_Driver/Src/stm32l0xx_hal_uart_ex.c ****   /* Check the UART handle allocation */
 156:smtc_bsp/arm/stm32/stm32_hal/STM32L0xx_HAL_Driver/Src/stm32l0xx_hal_uart_ex.c ****   if (huart == NULL)
  31              		.loc 1 156 3 view .LVU2
 152:smtc_bsp/arm/stm32/stm32_hal/STM32L0xx_HAL_Driver/Src/stm32l0xx_hal_uart_ex.c ****   uint32_t temp;
  32              		.loc 1 152 1 is_stmt 0 view .LVU3
  33 0000 F8B5     		push	{r3, r4, r5, r6, r7, lr}
  34              		.cfi_def_cfa_offset 24
  35              		.cfi_offset 3, -24
  36              		.cfi_offset 4, -20
  37              		.cfi_offset 5, -16
  38              		.cfi_offset 6, -12
  39              		.cfi_offset 7, -8
  40              		.cfi_offset 14, -4
 152:smtc_bsp/arm/stm32/stm32_hal/STM32L0xx_HAL_Driver/Src/stm32l0xx_hal_uart_ex.c ****   uint32_t temp;
  41              		.loc 1 152 1 view .LVU4
  42 0002 0400     		movs	r4, r0
  43 0004 0F00     		movs	r7, r1
  44 0006 1600     		movs	r6, r2
  45 0008 1D00     		movs	r5, r3
  46              		.loc 1 156 6 view .LVU5
  47 000a 0028     		cmp	r0, #0
  48 000c 01D1     		bne	.L2
  49              	.LVL1:
  50              	.L5:
 157:smtc_bsp/arm/stm32/stm32_hal/STM32L0xx_HAL_Driver/Src/stm32l0xx_hal_uart_ex.c ****   {
 158:smtc_bsp/arm/stm32/stm32_hal/STM32L0xx_HAL_Driver/Src/stm32l0xx_hal_uart_ex.c ****     return HAL_ERROR;
  51              		.loc 1 158 12 view .LVU6
  52 000e 0120     		movs	r0, #1
  53              	.LVL2:
  54              	.L3:
 159:smtc_bsp/arm/stm32/stm32_hal/STM32L0xx_HAL_Driver/Src/stm32l0xx_hal_uart_ex.c ****   }
 160:smtc_bsp/arm/stm32/stm32_hal/STM32L0xx_HAL_Driver/Src/stm32l0xx_hal_uart_ex.c ****   /* Check the Driver Enable UART instance */
 161:smtc_bsp/arm/stm32/stm32_hal/STM32L0xx_HAL_Driver/Src/stm32l0xx_hal_uart_ex.c ****   assert_param(IS_UART_DRIVER_ENABLE_INSTANCE(huart->Instance));
 162:smtc_bsp/arm/stm32/stm32_hal/STM32L0xx_HAL_Driver/Src/stm32l0xx_hal_uart_ex.c **** 
 163:smtc_bsp/arm/stm32/stm32_hal/STM32L0xx_HAL_Driver/Src/stm32l0xx_hal_uart_ex.c ****   /* Check the Driver Enable polarity */
 164:smtc_bsp/arm/stm32/stm32_hal/STM32L0xx_HAL_Driver/Src/stm32l0xx_hal_uart_ex.c ****   assert_param(IS_UART_DE_POLARITY(Polarity));
 165:smtc_bsp/arm/stm32/stm32_hal/STM32L0xx_HAL_Driver/Src/stm32l0xx_hal_uart_ex.c **** 
 166:smtc_bsp/arm/stm32/stm32_hal/STM32L0xx_HAL_Driver/Src/stm32l0xx_hal_uart_ex.c ****   /* Check the Driver Enable assertion time */
 167:smtc_bsp/arm/stm32/stm32_hal/STM32L0xx_HAL_Driver/Src/stm32l0xx_hal_uart_ex.c ****   assert_param(IS_UART_ASSERTIONTIME(AssertionTime));
 168:smtc_bsp/arm/stm32/stm32_hal/STM32L0xx_HAL_Driver/Src/stm32l0xx_hal_uart_ex.c **** 
 169:smtc_bsp/arm/stm32/stm32_hal/STM32L0xx_HAL_Driver/Src/stm32l0xx_hal_uart_ex.c ****   /* Check the Driver Enable deassertion time */
 170:smtc_bsp/arm/stm32/stm32_hal/STM32L0xx_HAL_Driver/Src/stm32l0xx_hal_uart_ex.c ****   assert_param(IS_UART_DEASSERTIONTIME(DeassertionTime));
 171:smtc_bsp/arm/stm32/stm32_hal/STM32L0xx_HAL_Driver/Src/stm32l0xx_hal_uart_ex.c **** 
 172:smtc_bsp/arm/stm32/stm32_hal/STM32L0xx_HAL_Driver/Src/stm32l0xx_hal_uart_ex.c ****   if (huart->gState == HAL_UART_STATE_RESET)
 173:smtc_bsp/arm/stm32/stm32_hal/STM32L0xx_HAL_Driver/Src/stm32l0xx_hal_uart_ex.c ****   {
ARM GAS  /var/folders/bq/yv49bw8j2kd6w3hsq868qv180000gn/T//ccUNGOs3.s 			page 5


 174:smtc_bsp/arm/stm32/stm32_hal/STM32L0xx_HAL_Driver/Src/stm32l0xx_hal_uart_ex.c ****     /* Allocate lock resource and initialize it */
 175:smtc_bsp/arm/stm32/stm32_hal/STM32L0xx_HAL_Driver/Src/stm32l0xx_hal_uart_ex.c ****     huart->Lock = HAL_UNLOCKED;
 176:smtc_bsp/arm/stm32/stm32_hal/STM32L0xx_HAL_Driver/Src/stm32l0xx_hal_uart_ex.c **** 
 177:smtc_bsp/arm/stm32/stm32_hal/STM32L0xx_HAL_Driver/Src/stm32l0xx_hal_uart_ex.c **** #if (USE_HAL_UART_REGISTER_CALLBACKS == 1)
 178:smtc_bsp/arm/stm32/stm32_hal/STM32L0xx_HAL_Driver/Src/stm32l0xx_hal_uart_ex.c ****     UART_InitCallbacksToDefault(huart);
 179:smtc_bsp/arm/stm32/stm32_hal/STM32L0xx_HAL_Driver/Src/stm32l0xx_hal_uart_ex.c **** 
 180:smtc_bsp/arm/stm32/stm32_hal/STM32L0xx_HAL_Driver/Src/stm32l0xx_hal_uart_ex.c ****     if (huart->MspInitCallback == NULL)
 181:smtc_bsp/arm/stm32/stm32_hal/STM32L0xx_HAL_Driver/Src/stm32l0xx_hal_uart_ex.c ****     {
 182:smtc_bsp/arm/stm32/stm32_hal/STM32L0xx_HAL_Driver/Src/stm32l0xx_hal_uart_ex.c ****       huart->MspInitCallback = HAL_UART_MspInit;
 183:smtc_bsp/arm/stm32/stm32_hal/STM32L0xx_HAL_Driver/Src/stm32l0xx_hal_uart_ex.c ****     }
 184:smtc_bsp/arm/stm32/stm32_hal/STM32L0xx_HAL_Driver/Src/stm32l0xx_hal_uart_ex.c **** 
 185:smtc_bsp/arm/stm32/stm32_hal/STM32L0xx_HAL_Driver/Src/stm32l0xx_hal_uart_ex.c ****     /* Init the low level hardware */
 186:smtc_bsp/arm/stm32/stm32_hal/STM32L0xx_HAL_Driver/Src/stm32l0xx_hal_uart_ex.c ****     huart->MspInitCallback(huart);
 187:smtc_bsp/arm/stm32/stm32_hal/STM32L0xx_HAL_Driver/Src/stm32l0xx_hal_uart_ex.c **** #else
 188:smtc_bsp/arm/stm32/stm32_hal/STM32L0xx_HAL_Driver/Src/stm32l0xx_hal_uart_ex.c ****     /* Init the low level hardware : GPIO, CLOCK, CORTEX */
 189:smtc_bsp/arm/stm32/stm32_hal/STM32L0xx_HAL_Driver/Src/stm32l0xx_hal_uart_ex.c ****     HAL_UART_MspInit(huart);
 190:smtc_bsp/arm/stm32/stm32_hal/STM32L0xx_HAL_Driver/Src/stm32l0xx_hal_uart_ex.c **** #endif /* (USE_HAL_UART_REGISTER_CALLBACKS) */
 191:smtc_bsp/arm/stm32/stm32_hal/STM32L0xx_HAL_Driver/Src/stm32l0xx_hal_uart_ex.c ****   }
 192:smtc_bsp/arm/stm32/stm32_hal/STM32L0xx_HAL_Driver/Src/stm32l0xx_hal_uart_ex.c **** 
 193:smtc_bsp/arm/stm32/stm32_hal/STM32L0xx_HAL_Driver/Src/stm32l0xx_hal_uart_ex.c ****   huart->gState = HAL_UART_STATE_BUSY;
 194:smtc_bsp/arm/stm32/stm32_hal/STM32L0xx_HAL_Driver/Src/stm32l0xx_hal_uart_ex.c **** 
 195:smtc_bsp/arm/stm32/stm32_hal/STM32L0xx_HAL_Driver/Src/stm32l0xx_hal_uart_ex.c ****   /* Disable the Peripheral */
 196:smtc_bsp/arm/stm32/stm32_hal/STM32L0xx_HAL_Driver/Src/stm32l0xx_hal_uart_ex.c ****   __HAL_UART_DISABLE(huart);
 197:smtc_bsp/arm/stm32/stm32_hal/STM32L0xx_HAL_Driver/Src/stm32l0xx_hal_uart_ex.c **** 
 198:smtc_bsp/arm/stm32/stm32_hal/STM32L0xx_HAL_Driver/Src/stm32l0xx_hal_uart_ex.c ****   /* Set the UART Communication parameters */
 199:smtc_bsp/arm/stm32/stm32_hal/STM32L0xx_HAL_Driver/Src/stm32l0xx_hal_uart_ex.c ****   if (UART_SetConfig(huart) == HAL_ERROR)
 200:smtc_bsp/arm/stm32/stm32_hal/STM32L0xx_HAL_Driver/Src/stm32l0xx_hal_uart_ex.c ****   {
 201:smtc_bsp/arm/stm32/stm32_hal/STM32L0xx_HAL_Driver/Src/stm32l0xx_hal_uart_ex.c ****     return HAL_ERROR;
 202:smtc_bsp/arm/stm32/stm32_hal/STM32L0xx_HAL_Driver/Src/stm32l0xx_hal_uart_ex.c ****   }
 203:smtc_bsp/arm/stm32/stm32_hal/STM32L0xx_HAL_Driver/Src/stm32l0xx_hal_uart_ex.c **** 
 204:smtc_bsp/arm/stm32/stm32_hal/STM32L0xx_HAL_Driver/Src/stm32l0xx_hal_uart_ex.c ****   if (huart->AdvancedInit.AdvFeatureInit != UART_ADVFEATURE_NO_INIT)
 205:smtc_bsp/arm/stm32/stm32_hal/STM32L0xx_HAL_Driver/Src/stm32l0xx_hal_uart_ex.c ****   {
 206:smtc_bsp/arm/stm32/stm32_hal/STM32L0xx_HAL_Driver/Src/stm32l0xx_hal_uart_ex.c ****     UART_AdvFeatureConfig(huart);
 207:smtc_bsp/arm/stm32/stm32_hal/STM32L0xx_HAL_Driver/Src/stm32l0xx_hal_uart_ex.c ****   }
 208:smtc_bsp/arm/stm32/stm32_hal/STM32L0xx_HAL_Driver/Src/stm32l0xx_hal_uart_ex.c **** 
 209:smtc_bsp/arm/stm32/stm32_hal/STM32L0xx_HAL_Driver/Src/stm32l0xx_hal_uart_ex.c ****   /* Enable the Driver Enable mode by setting the DEM bit in the CR3 register */
 210:smtc_bsp/arm/stm32/stm32_hal/STM32L0xx_HAL_Driver/Src/stm32l0xx_hal_uart_ex.c ****   SET_BIT(huart->Instance->CR3, USART_CR3_DEM);
 211:smtc_bsp/arm/stm32/stm32_hal/STM32L0xx_HAL_Driver/Src/stm32l0xx_hal_uart_ex.c **** 
 212:smtc_bsp/arm/stm32/stm32_hal/STM32L0xx_HAL_Driver/Src/stm32l0xx_hal_uart_ex.c ****   /* Set the Driver Enable polarity */
 213:smtc_bsp/arm/stm32/stm32_hal/STM32L0xx_HAL_Driver/Src/stm32l0xx_hal_uart_ex.c ****   MODIFY_REG(huart->Instance->CR3, USART_CR3_DEP, Polarity);
 214:smtc_bsp/arm/stm32/stm32_hal/STM32L0xx_HAL_Driver/Src/stm32l0xx_hal_uart_ex.c **** 
 215:smtc_bsp/arm/stm32/stm32_hal/STM32L0xx_HAL_Driver/Src/stm32l0xx_hal_uart_ex.c ****   /* Set the Driver Enable assertion and deassertion times */
 216:smtc_bsp/arm/stm32/stm32_hal/STM32L0xx_HAL_Driver/Src/stm32l0xx_hal_uart_ex.c ****   temp = (AssertionTime << UART_CR1_DEAT_ADDRESS_LSB_POS);
 217:smtc_bsp/arm/stm32/stm32_hal/STM32L0xx_HAL_Driver/Src/stm32l0xx_hal_uart_ex.c ****   temp |= (DeassertionTime << UART_CR1_DEDT_ADDRESS_LSB_POS);
 218:smtc_bsp/arm/stm32/stm32_hal/STM32L0xx_HAL_Driver/Src/stm32l0xx_hal_uart_ex.c ****   MODIFY_REG(huart->Instance->CR1, (USART_CR1_DEDT | USART_CR1_DEAT), temp);
 219:smtc_bsp/arm/stm32/stm32_hal/STM32L0xx_HAL_Driver/Src/stm32l0xx_hal_uart_ex.c **** 
 220:smtc_bsp/arm/stm32/stm32_hal/STM32L0xx_HAL_Driver/Src/stm32l0xx_hal_uart_ex.c ****   /* Enable the Peripheral */
 221:smtc_bsp/arm/stm32/stm32_hal/STM32L0xx_HAL_Driver/Src/stm32l0xx_hal_uart_ex.c ****   __HAL_UART_ENABLE(huart);
 222:smtc_bsp/arm/stm32/stm32_hal/STM32L0xx_HAL_Driver/Src/stm32l0xx_hal_uart_ex.c **** 
 223:smtc_bsp/arm/stm32/stm32_hal/STM32L0xx_HAL_Driver/Src/stm32l0xx_hal_uart_ex.c ****   /* TEACK and/or REACK to check before moving huart->gState and huart->RxState to Ready */
 224:smtc_bsp/arm/stm32/stm32_hal/STM32L0xx_HAL_Driver/Src/stm32l0xx_hal_uart_ex.c ****   return (UART_CheckIdleState(huart));
 225:smtc_bsp/arm/stm32/stm32_hal/STM32L0xx_HAL_Driver/Src/stm32l0xx_hal_uart_ex.c **** }
  55              		.loc 1 225 1 view .LVU7
  56              		@ sp needed
  57              	.LVL3:
  58              		.loc 1 225 1 view .LVU8
  59 0010 F8BD     		pop	{r3, r4, r5, r6, r7, pc}
ARM GAS  /var/folders/bq/yv49bw8j2kd6w3hsq868qv180000gn/T//ccUNGOs3.s 			page 6


  60              	.LVL4:
  61              	.L2:
 161:smtc_bsp/arm/stm32/stm32_hal/STM32L0xx_HAL_Driver/Src/stm32l0xx_hal_uart_ex.c **** 
  62              		.loc 1 161 3 is_stmt 1 view .LVU9
 164:smtc_bsp/arm/stm32/stm32_hal/STM32L0xx_HAL_Driver/Src/stm32l0xx_hal_uart_ex.c **** 
  63              		.loc 1 164 3 view .LVU10
 167:smtc_bsp/arm/stm32/stm32_hal/STM32L0xx_HAL_Driver/Src/stm32l0xx_hal_uart_ex.c **** 
  64              		.loc 1 167 3 view .LVU11
 170:smtc_bsp/arm/stm32/stm32_hal/STM32L0xx_HAL_Driver/Src/stm32l0xx_hal_uart_ex.c **** 
  65              		.loc 1 170 3 view .LVU12
 172:smtc_bsp/arm/stm32/stm32_hal/STM32L0xx_HAL_Driver/Src/stm32l0xx_hal_uart_ex.c ****   {
  66              		.loc 1 172 3 view .LVU13
 172:smtc_bsp/arm/stm32/stm32_hal/STM32L0xx_HAL_Driver/Src/stm32l0xx_hal_uart_ex.c ****   {
  67              		.loc 1 172 12 is_stmt 0 view .LVU14
  68 0012 436F     		ldr	r3, [r0, #116]
  69              	.LVL5:
 172:smtc_bsp/arm/stm32/stm32_hal/STM32L0xx_HAL_Driver/Src/stm32l0xx_hal_uart_ex.c ****   {
  70              		.loc 1 172 6 view .LVU15
  71 0014 002B     		cmp	r3, #0
  72 0016 04D1     		bne	.L4
 175:smtc_bsp/arm/stm32/stm32_hal/STM32L0xx_HAL_Driver/Src/stm32l0xx_hal_uart_ex.c **** 
  73              		.loc 1 175 5 is_stmt 1 view .LVU16
 175:smtc_bsp/arm/stm32/stm32_hal/STM32L0xx_HAL_Driver/Src/stm32l0xx_hal_uart_ex.c **** 
  74              		.loc 1 175 17 is_stmt 0 view .LVU17
  75 0018 0200     		movs	r2, r0
  76              	.LVL6:
 175:smtc_bsp/arm/stm32/stm32_hal/STM32L0xx_HAL_Driver/Src/stm32l0xx_hal_uart_ex.c **** 
  77              		.loc 1 175 17 view .LVU18
  78 001a 7032     		adds	r2, r2, #112
  79 001c 1370     		strb	r3, [r2]
 189:smtc_bsp/arm/stm32/stm32_hal/STM32L0xx_HAL_Driver/Src/stm32l0xx_hal_uart_ex.c **** #endif /* (USE_HAL_UART_REGISTER_CALLBACKS) */
  80              		.loc 1 189 5 is_stmt 1 view .LVU19
  81 001e FFF7FEFF 		bl	HAL_UART_MspInit
  82              	.LVL7:
  83              	.L4:
 193:smtc_bsp/arm/stm32/stm32_hal/STM32L0xx_HAL_Driver/Src/stm32l0xx_hal_uart_ex.c **** 
  84              		.loc 1 193 3 view .LVU20
 193:smtc_bsp/arm/stm32/stm32_hal/STM32L0xx_HAL_Driver/Src/stm32l0xx_hal_uart_ex.c **** 
  85              		.loc 1 193 17 is_stmt 0 view .LVU21
  86 0022 2423     		movs	r3, #36
 196:smtc_bsp/arm/stm32/stm32_hal/STM32L0xx_HAL_Driver/Src/stm32l0xx_hal_uart_ex.c **** 
  87              		.loc 1 196 3 view .LVU22
  88 0024 0121     		movs	r1, #1
  89 0026 2268     		ldr	r2, [r4]
 193:smtc_bsp/arm/stm32/stm32_hal/STM32L0xx_HAL_Driver/Src/stm32l0xx_hal_uart_ex.c **** 
  90              		.loc 1 193 17 view .LVU23
  91 0028 6367     		str	r3, [r4, #116]
 196:smtc_bsp/arm/stm32/stm32_hal/STM32L0xx_HAL_Driver/Src/stm32l0xx_hal_uart_ex.c **** 
  92              		.loc 1 196 3 is_stmt 1 view .LVU24
  93 002a 1368     		ldr	r3, [r2]
 199:smtc_bsp/arm/stm32/stm32_hal/STM32L0xx_HAL_Driver/Src/stm32l0xx_hal_uart_ex.c ****   {
  94              		.loc 1 199 7 is_stmt 0 view .LVU25
  95 002c 2000     		movs	r0, r4
 196:smtc_bsp/arm/stm32/stm32_hal/STM32L0xx_HAL_Driver/Src/stm32l0xx_hal_uart_ex.c **** 
  96              		.loc 1 196 3 view .LVU26
  97 002e 8B43     		bics	r3, r1
  98 0030 1360     		str	r3, [r2]
ARM GAS  /var/folders/bq/yv49bw8j2kd6w3hsq868qv180000gn/T//ccUNGOs3.s 			page 7


 199:smtc_bsp/arm/stm32/stm32_hal/STM32L0xx_HAL_Driver/Src/stm32l0xx_hal_uart_ex.c ****   {
  99              		.loc 1 199 3 is_stmt 1 view .LVU27
 199:smtc_bsp/arm/stm32/stm32_hal/STM32L0xx_HAL_Driver/Src/stm32l0xx_hal_uart_ex.c ****   {
 100              		.loc 1 199 7 is_stmt 0 view .LVU28
 101 0032 FFF7FEFF 		bl	UART_SetConfig
 102              	.LVL8:
 199:smtc_bsp/arm/stm32/stm32_hal/STM32L0xx_HAL_Driver/Src/stm32l0xx_hal_uart_ex.c ****   {
 103              		.loc 1 199 6 view .LVU29
 104 0036 0128     		cmp	r0, #1
 105 0038 E9D0     		beq	.L5
 204:smtc_bsp/arm/stm32/stm32_hal/STM32L0xx_HAL_Driver/Src/stm32l0xx_hal_uart_ex.c ****   {
 106              		.loc 1 204 3 is_stmt 1 view .LVU30
 204:smtc_bsp/arm/stm32/stm32_hal/STM32L0xx_HAL_Driver/Src/stm32l0xx_hal_uart_ex.c ****   {
 107              		.loc 1 204 6 is_stmt 0 view .LVU31
 108 003a 636A     		ldr	r3, [r4, #36]
 109 003c 002B     		cmp	r3, #0
 110 003e 02D0     		beq	.L6
 206:smtc_bsp/arm/stm32/stm32_hal/STM32L0xx_HAL_Driver/Src/stm32l0xx_hal_uart_ex.c ****   }
 111              		.loc 1 206 5 is_stmt 1 view .LVU32
 112 0040 2000     		movs	r0, r4
 113 0042 FFF7FEFF 		bl	UART_AdvFeatureConfig
 114              	.LVL9:
 115              	.L6:
 210:smtc_bsp/arm/stm32/stm32_hal/STM32L0xx_HAL_Driver/Src/stm32l0xx_hal_uart_ex.c **** 
 116              		.loc 1 210 3 view .LVU33
 117 0046 8023     		movs	r3, #128
 118 0048 2068     		ldr	r0, [r4]
 119 004a DB01     		lsls	r3, r3, #7
 120 004c 8268     		ldr	r2, [r0, #8]
 216:smtc_bsp/arm/stm32/stm32_hal/STM32L0xx_HAL_Driver/Src/stm32l0xx_hal_uart_ex.c ****   temp |= (DeassertionTime << UART_CR1_DEDT_ADDRESS_LSB_POS);
 121              		.loc 1 216 8 is_stmt 0 view .LVU34
 122 004e 7605     		lsls	r6, r6, #21
 123              	.LVL10:
 210:smtc_bsp/arm/stm32/stm32_hal/STM32L0xx_HAL_Driver/Src/stm32l0xx_hal_uart_ex.c **** 
 124              		.loc 1 210 3 view .LVU35
 125 0050 1343     		orrs	r3, r2
 126 0052 8360     		str	r3, [r0, #8]
 213:smtc_bsp/arm/stm32/stm32_hal/STM32L0xx_HAL_Driver/Src/stm32l0xx_hal_uart_ex.c **** 
 127              		.loc 1 213 3 is_stmt 1 view .LVU36
 128 0054 8168     		ldr	r1, [r0, #8]
 129 0056 094B     		ldr	r3, .L13
 217:smtc_bsp/arm/stm32/stm32_hal/STM32L0xx_HAL_Driver/Src/stm32l0xx_hal_uart_ex.c ****   MODIFY_REG(huart->Instance->CR1, (USART_CR1_DEDT | USART_CR1_DEAT), temp);
 130              		.loc 1 217 28 is_stmt 0 view .LVU37
 131 0058 2D04     		lsls	r5, r5, #16
 132              	.LVL11:
 213:smtc_bsp/arm/stm32/stm32_hal/STM32L0xx_HAL_Driver/Src/stm32l0xx_hal_uart_ex.c **** 
 133              		.loc 1 213 3 view .LVU38
 134 005a 1940     		ands	r1, r3
 221:smtc_bsp/arm/stm32/stm32_hal/STM32L0xx_HAL_Driver/Src/stm32l0xx_hal_uart_ex.c **** 
 135              		.loc 1 221 3 view .LVU39
 136 005c 0123     		movs	r3, #1
 213:smtc_bsp/arm/stm32/stm32_hal/STM32L0xx_HAL_Driver/Src/stm32l0xx_hal_uart_ex.c **** 
 137              		.loc 1 213 3 view .LVU40
 138 005e 0F43     		orrs	r7, r1
 139              	.LVL12:
 213:smtc_bsp/arm/stm32/stm32_hal/STM32L0xx_HAL_Driver/Src/stm32l0xx_hal_uart_ex.c **** 
 140              		.loc 1 213 3 view .LVU41
ARM GAS  /var/folders/bq/yv49bw8j2kd6w3hsq868qv180000gn/T//ccUNGOs3.s 			page 8


 141 0060 8760     		str	r7, [r0, #8]
 216:smtc_bsp/arm/stm32/stm32_hal/STM32L0xx_HAL_Driver/Src/stm32l0xx_hal_uart_ex.c ****   temp |= (DeassertionTime << UART_CR1_DEDT_ADDRESS_LSB_POS);
 142              		.loc 1 216 3 is_stmt 1 view .LVU42
 143              	.LVL13:
 217:smtc_bsp/arm/stm32/stm32_hal/STM32L0xx_HAL_Driver/Src/stm32l0xx_hal_uart_ex.c ****   MODIFY_REG(huart->Instance->CR1, (USART_CR1_DEDT | USART_CR1_DEAT), temp);
 144              		.loc 1 217 3 view .LVU43
 218:smtc_bsp/arm/stm32/stm32_hal/STM32L0xx_HAL_Driver/Src/stm32l0xx_hal_uart_ex.c **** 
 145              		.loc 1 218 3 view .LVU44
 146 0062 0168     		ldr	r1, [r0]
 217:smtc_bsp/arm/stm32/stm32_hal/STM32L0xx_HAL_Driver/Src/stm32l0xx_hal_uart_ex.c ****   MODIFY_REG(huart->Instance->CR1, (USART_CR1_DEDT | USART_CR1_DEAT), temp);
 147              		.loc 1 217 8 is_stmt 0 view .LVU45
 148 0064 3543     		orrs	r5, r6
 218:smtc_bsp/arm/stm32/stm32_hal/STM32L0xx_HAL_Driver/Src/stm32l0xx_hal_uart_ex.c **** 
 149              		.loc 1 218 3 view .LVU46
 150 0066 064E     		ldr	r6, .L13+4
 151 0068 0E40     		ands	r6, r1
 152 006a 3543     		orrs	r5, r6
 153 006c 0560     		str	r5, [r0]
 221:smtc_bsp/arm/stm32/stm32_hal/STM32L0xx_HAL_Driver/Src/stm32l0xx_hal_uart_ex.c **** 
 154              		.loc 1 221 3 is_stmt 1 view .LVU47
 155 006e 0268     		ldr	r2, [r0]
 156 0070 1343     		orrs	r3, r2
 157 0072 0360     		str	r3, [r0]
 224:smtc_bsp/arm/stm32/stm32_hal/STM32L0xx_HAL_Driver/Src/stm32l0xx_hal_uart_ex.c **** }
 158              		.loc 1 224 3 view .LVU48
 224:smtc_bsp/arm/stm32/stm32_hal/STM32L0xx_HAL_Driver/Src/stm32l0xx_hal_uart_ex.c **** }
 159              		.loc 1 224 11 is_stmt 0 view .LVU49
 160 0074 2000     		movs	r0, r4
 161 0076 FFF7FEFF 		bl	UART_CheckIdleState
 162              	.LVL14:
 163 007a C9E7     		b	.L3
 164              	.L14:
 165              		.align	2
 166              	.L13:
 167 007c FF7FFFFF 		.word	-32769
 168 0080 FFFF00FC 		.word	-67043329
 169              		.cfi_endproc
 170              	.LFE47:
 172              		.section	.text.HAL_UARTEx_WakeupCallback,"ax",%progbits
 173              		.align	1
 174              		.weak	HAL_UARTEx_WakeupCallback
 175              		.syntax unified
 176              		.code	16
 177              		.thumb_func
 178              		.fpu softvfp
 180              	HAL_UARTEx_WakeupCallback:
 181              	.LVL15:
 182              	.LFB48:
 226:smtc_bsp/arm/stm32/stm32_hal/STM32L0xx_HAL_Driver/Src/stm32l0xx_hal_uart_ex.c **** 
 227:smtc_bsp/arm/stm32/stm32_hal/STM32L0xx_HAL_Driver/Src/stm32l0xx_hal_uart_ex.c **** /**
 228:smtc_bsp/arm/stm32/stm32_hal/STM32L0xx_HAL_Driver/Src/stm32l0xx_hal_uart_ex.c ****   * @}
 229:smtc_bsp/arm/stm32/stm32_hal/STM32L0xx_HAL_Driver/Src/stm32l0xx_hal_uart_ex.c ****   */
 230:smtc_bsp/arm/stm32/stm32_hal/STM32L0xx_HAL_Driver/Src/stm32l0xx_hal_uart_ex.c **** 
 231:smtc_bsp/arm/stm32/stm32_hal/STM32L0xx_HAL_Driver/Src/stm32l0xx_hal_uart_ex.c **** /** @defgroup UARTEx_Exported_Functions_Group2 IO operation functions
 232:smtc_bsp/arm/stm32/stm32_hal/STM32L0xx_HAL_Driver/Src/stm32l0xx_hal_uart_ex.c ****   *  @brief Extended functions
 233:smtc_bsp/arm/stm32/stm32_hal/STM32L0xx_HAL_Driver/Src/stm32l0xx_hal_uart_ex.c ****   *
 234:smtc_bsp/arm/stm32/stm32_hal/STM32L0xx_HAL_Driver/Src/stm32l0xx_hal_uart_ex.c **** @verbatim
ARM GAS  /var/folders/bq/yv49bw8j2kd6w3hsq868qv180000gn/T//ccUNGOs3.s 			page 9


 235:smtc_bsp/arm/stm32/stm32_hal/STM32L0xx_HAL_Driver/Src/stm32l0xx_hal_uart_ex.c ****  ===============================================================================
 236:smtc_bsp/arm/stm32/stm32_hal/STM32L0xx_HAL_Driver/Src/stm32l0xx_hal_uart_ex.c ****                       ##### IO operation functions #####
 237:smtc_bsp/arm/stm32/stm32_hal/STM32L0xx_HAL_Driver/Src/stm32l0xx_hal_uart_ex.c ****  ===============================================================================
 238:smtc_bsp/arm/stm32/stm32_hal/STM32L0xx_HAL_Driver/Src/stm32l0xx_hal_uart_ex.c ****     This subsection provides a set of Wakeup and FIFO mode related callback functions.
 239:smtc_bsp/arm/stm32/stm32_hal/STM32L0xx_HAL_Driver/Src/stm32l0xx_hal_uart_ex.c **** 
 240:smtc_bsp/arm/stm32/stm32_hal/STM32L0xx_HAL_Driver/Src/stm32l0xx_hal_uart_ex.c ****     (#) Wakeup from Stop mode Callback:
 241:smtc_bsp/arm/stm32/stm32_hal/STM32L0xx_HAL_Driver/Src/stm32l0xx_hal_uart_ex.c ****         (+) HAL_UARTEx_WakeupCallback()
 242:smtc_bsp/arm/stm32/stm32_hal/STM32L0xx_HAL_Driver/Src/stm32l0xx_hal_uart_ex.c **** 
 243:smtc_bsp/arm/stm32/stm32_hal/STM32L0xx_HAL_Driver/Src/stm32l0xx_hal_uart_ex.c **** @endverbatim
 244:smtc_bsp/arm/stm32/stm32_hal/STM32L0xx_HAL_Driver/Src/stm32l0xx_hal_uart_ex.c ****   * @{
 245:smtc_bsp/arm/stm32/stm32_hal/STM32L0xx_HAL_Driver/Src/stm32l0xx_hal_uart_ex.c ****   */
 246:smtc_bsp/arm/stm32/stm32_hal/STM32L0xx_HAL_Driver/Src/stm32l0xx_hal_uart_ex.c **** 
 247:smtc_bsp/arm/stm32/stm32_hal/STM32L0xx_HAL_Driver/Src/stm32l0xx_hal_uart_ex.c **** /**
 248:smtc_bsp/arm/stm32/stm32_hal/STM32L0xx_HAL_Driver/Src/stm32l0xx_hal_uart_ex.c ****   * @brief UART wakeup from Stop mode callback.
 249:smtc_bsp/arm/stm32/stm32_hal/STM32L0xx_HAL_Driver/Src/stm32l0xx_hal_uart_ex.c ****   * @param huart UART handle.
 250:smtc_bsp/arm/stm32/stm32_hal/STM32L0xx_HAL_Driver/Src/stm32l0xx_hal_uart_ex.c ****   * @retval None
 251:smtc_bsp/arm/stm32/stm32_hal/STM32L0xx_HAL_Driver/Src/stm32l0xx_hal_uart_ex.c ****   */
 252:smtc_bsp/arm/stm32/stm32_hal/STM32L0xx_HAL_Driver/Src/stm32l0xx_hal_uart_ex.c **** __weak void HAL_UARTEx_WakeupCallback(UART_HandleTypeDef *huart)
 253:smtc_bsp/arm/stm32/stm32_hal/STM32L0xx_HAL_Driver/Src/stm32l0xx_hal_uart_ex.c **** {
 183              		.loc 1 253 1 is_stmt 1 view -0
 184              		.cfi_startproc
 185              		@ args = 0, pretend = 0, frame = 0
 186              		@ frame_needed = 0, uses_anonymous_args = 0
 187              		@ link register save eliminated.
 254:smtc_bsp/arm/stm32/stm32_hal/STM32L0xx_HAL_Driver/Src/stm32l0xx_hal_uart_ex.c ****   /* Prevent unused argument(s) compilation warning */
 255:smtc_bsp/arm/stm32/stm32_hal/STM32L0xx_HAL_Driver/Src/stm32l0xx_hal_uart_ex.c ****   UNUSED(huart);
 188              		.loc 1 255 3 view .LVU51
 256:smtc_bsp/arm/stm32/stm32_hal/STM32L0xx_HAL_Driver/Src/stm32l0xx_hal_uart_ex.c **** 
 257:smtc_bsp/arm/stm32/stm32_hal/STM32L0xx_HAL_Driver/Src/stm32l0xx_hal_uart_ex.c ****   /* NOTE : This function should not be modified, when the callback is needed,
 258:smtc_bsp/arm/stm32/stm32_hal/STM32L0xx_HAL_Driver/Src/stm32l0xx_hal_uart_ex.c ****             the HAL_UARTEx_WakeupCallback can be implemented in the user file.
 259:smtc_bsp/arm/stm32/stm32_hal/STM32L0xx_HAL_Driver/Src/stm32l0xx_hal_uart_ex.c ****    */
 260:smtc_bsp/arm/stm32/stm32_hal/STM32L0xx_HAL_Driver/Src/stm32l0xx_hal_uart_ex.c **** }
 189              		.loc 1 260 1 is_stmt 0 view .LVU52
 190              		@ sp needed
 191 0000 7047     		bx	lr
 192              		.cfi_endproc
 193              	.LFE48:
 195              		.section	.text.HAL_UARTEx_EnableClockStopMode,"ax",%progbits
 196              		.align	1
 197              		.global	HAL_UARTEx_EnableClockStopMode
 198              		.syntax unified
 199              		.code	16
 200              		.thumb_func
 201              		.fpu softvfp
 203              	HAL_UARTEx_EnableClockStopMode:
 204              	.LVL16:
 205              	.LFB49:
 261:smtc_bsp/arm/stm32/stm32_hal/STM32L0xx_HAL_Driver/Src/stm32l0xx_hal_uart_ex.c **** 
 262:smtc_bsp/arm/stm32/stm32_hal/STM32L0xx_HAL_Driver/Src/stm32l0xx_hal_uart_ex.c **** 
 263:smtc_bsp/arm/stm32/stm32_hal/STM32L0xx_HAL_Driver/Src/stm32l0xx_hal_uart_ex.c **** /**
 264:smtc_bsp/arm/stm32/stm32_hal/STM32L0xx_HAL_Driver/Src/stm32l0xx_hal_uart_ex.c ****   * @}
 265:smtc_bsp/arm/stm32/stm32_hal/STM32L0xx_HAL_Driver/Src/stm32l0xx_hal_uart_ex.c ****   */
 266:smtc_bsp/arm/stm32/stm32_hal/STM32L0xx_HAL_Driver/Src/stm32l0xx_hal_uart_ex.c **** 
 267:smtc_bsp/arm/stm32/stm32_hal/STM32L0xx_HAL_Driver/Src/stm32l0xx_hal_uart_ex.c **** /** @defgroup UARTEx_Exported_Functions_Group3 Peripheral Control functions
 268:smtc_bsp/arm/stm32/stm32_hal/STM32L0xx_HAL_Driver/Src/stm32l0xx_hal_uart_ex.c ****   * @brief    Extended Peripheral Control functions
 269:smtc_bsp/arm/stm32/stm32_hal/STM32L0xx_HAL_Driver/Src/stm32l0xx_hal_uart_ex.c ****  *
 270:smtc_bsp/arm/stm32/stm32_hal/STM32L0xx_HAL_Driver/Src/stm32l0xx_hal_uart_ex.c **** @verbatim
ARM GAS  /var/folders/bq/yv49bw8j2kd6w3hsq868qv180000gn/T//ccUNGOs3.s 			page 10


 271:smtc_bsp/arm/stm32/stm32_hal/STM32L0xx_HAL_Driver/Src/stm32l0xx_hal_uart_ex.c ****  ===============================================================================
 272:smtc_bsp/arm/stm32/stm32_hal/STM32L0xx_HAL_Driver/Src/stm32l0xx_hal_uart_ex.c ****                       ##### Peripheral Control functions #####
 273:smtc_bsp/arm/stm32/stm32_hal/STM32L0xx_HAL_Driver/Src/stm32l0xx_hal_uart_ex.c ****  ===============================================================================
 274:smtc_bsp/arm/stm32/stm32_hal/STM32L0xx_HAL_Driver/Src/stm32l0xx_hal_uart_ex.c ****     [..] This section provides the following functions:
 275:smtc_bsp/arm/stm32/stm32_hal/STM32L0xx_HAL_Driver/Src/stm32l0xx_hal_uart_ex.c ****      (+) HAL_UARTEx_EnableClockStopMode() API enables the UART clock (HSI or LSE only) during stop 
 276:smtc_bsp/arm/stm32/stm32_hal/STM32L0xx_HAL_Driver/Src/stm32l0xx_hal_uart_ex.c ****      (+) HAL_UARTEx_DisableClockStopMode() API disables the above functionality
 277:smtc_bsp/arm/stm32/stm32_hal/STM32L0xx_HAL_Driver/Src/stm32l0xx_hal_uart_ex.c ****      (+) HAL_MultiProcessorEx_AddressLength_Set() API optionally sets the UART node address
 278:smtc_bsp/arm/stm32/stm32_hal/STM32L0xx_HAL_Driver/Src/stm32l0xx_hal_uart_ex.c ****          detection length to more than 4 bits for multiprocessor address mark wake up.
 279:smtc_bsp/arm/stm32/stm32_hal/STM32L0xx_HAL_Driver/Src/stm32l0xx_hal_uart_ex.c ****      (+) HAL_UARTEx_StopModeWakeUpSourceConfig() API defines the wake-up from stop mode
 280:smtc_bsp/arm/stm32/stm32_hal/STM32L0xx_HAL_Driver/Src/stm32l0xx_hal_uart_ex.c ****          trigger: address match, Start Bit detection or RXNE bit status.
 281:smtc_bsp/arm/stm32/stm32_hal/STM32L0xx_HAL_Driver/Src/stm32l0xx_hal_uart_ex.c ****      (+) HAL_UARTEx_EnableStopMode() API enables the UART to wake up the MCU from stop mode
 282:smtc_bsp/arm/stm32/stm32_hal/STM32L0xx_HAL_Driver/Src/stm32l0xx_hal_uart_ex.c ****      (+) HAL_UARTEx_DisableStopMode() API disables the above functionality
 283:smtc_bsp/arm/stm32/stm32_hal/STM32L0xx_HAL_Driver/Src/stm32l0xx_hal_uart_ex.c **** 
 284:smtc_bsp/arm/stm32/stm32_hal/STM32L0xx_HAL_Driver/Src/stm32l0xx_hal_uart_ex.c **** @endverbatim
 285:smtc_bsp/arm/stm32/stm32_hal/STM32L0xx_HAL_Driver/Src/stm32l0xx_hal_uart_ex.c ****   * @{
 286:smtc_bsp/arm/stm32/stm32_hal/STM32L0xx_HAL_Driver/Src/stm32l0xx_hal_uart_ex.c ****   */
 287:smtc_bsp/arm/stm32/stm32_hal/STM32L0xx_HAL_Driver/Src/stm32l0xx_hal_uart_ex.c **** 
 288:smtc_bsp/arm/stm32/stm32_hal/STM32L0xx_HAL_Driver/Src/stm32l0xx_hal_uart_ex.c **** 
 289:smtc_bsp/arm/stm32/stm32_hal/STM32L0xx_HAL_Driver/Src/stm32l0xx_hal_uart_ex.c **** 
 290:smtc_bsp/arm/stm32/stm32_hal/STM32L0xx_HAL_Driver/Src/stm32l0xx_hal_uart_ex.c **** /**
 291:smtc_bsp/arm/stm32/stm32_hal/STM32L0xx_HAL_Driver/Src/stm32l0xx_hal_uart_ex.c ****   * @brief  Keep UART Clock enabled when in Stop Mode.
 292:smtc_bsp/arm/stm32/stm32_hal/STM32L0xx_HAL_Driver/Src/stm32l0xx_hal_uart_ex.c ****   * @note   When the USART clock source is configured to be LSE or HSI, it is possible to keep enab
 293:smtc_bsp/arm/stm32/stm32_hal/STM32L0xx_HAL_Driver/Src/stm32l0xx_hal_uart_ex.c ****   *         this clock during STOP mode by setting the UCESM bit in USART_CR3 control register.
 294:smtc_bsp/arm/stm32/stm32_hal/STM32L0xx_HAL_Driver/Src/stm32l0xx_hal_uart_ex.c ****   * @note   When LPUART is used to wakeup from stop with LSE is selected as LPUART clock source,
 295:smtc_bsp/arm/stm32/stm32_hal/STM32L0xx_HAL_Driver/Src/stm32l0xx_hal_uart_ex.c ****   *         and desired baud rate is 9600 baud, the bit UCESM bit in LPUART_CR3 control register mu
 296:smtc_bsp/arm/stm32/stm32_hal/STM32L0xx_HAL_Driver/Src/stm32l0xx_hal_uart_ex.c ****   * @param  huart UART handle.
 297:smtc_bsp/arm/stm32/stm32_hal/STM32L0xx_HAL_Driver/Src/stm32l0xx_hal_uart_ex.c ****   * @retval HAL status
 298:smtc_bsp/arm/stm32/stm32_hal/STM32L0xx_HAL_Driver/Src/stm32l0xx_hal_uart_ex.c ****   */
 299:smtc_bsp/arm/stm32/stm32_hal/STM32L0xx_HAL_Driver/Src/stm32l0xx_hal_uart_ex.c **** HAL_StatusTypeDef HAL_UARTEx_EnableClockStopMode(UART_HandleTypeDef *huart)
 300:smtc_bsp/arm/stm32/stm32_hal/STM32L0xx_HAL_Driver/Src/stm32l0xx_hal_uart_ex.c **** {
 206              		.loc 1 300 1 is_stmt 1 view -0
 207              		.cfi_startproc
 208              		@ args = 0, pretend = 0, frame = 0
 209              		@ frame_needed = 0, uses_anonymous_args = 0
 210              		@ link register save eliminated.
 301:smtc_bsp/arm/stm32/stm32_hal/STM32L0xx_HAL_Driver/Src/stm32l0xx_hal_uart_ex.c ****   /* Process Locked */
 302:smtc_bsp/arm/stm32/stm32_hal/STM32L0xx_HAL_Driver/Src/stm32l0xx_hal_uart_ex.c ****   __HAL_LOCK(huart);
 211              		.loc 1 302 3 view .LVU54
 212              		.loc 1 302 3 view .LVU55
 213 0000 0200     		movs	r2, r0
 214 0002 7032     		adds	r2, r2, #112
 215 0004 1178     		ldrb	r1, [r2]
 300:smtc_bsp/arm/stm32/stm32_hal/STM32L0xx_HAL_Driver/Src/stm32l0xx_hal_uart_ex.c ****   /* Process Locked */
 216              		.loc 1 300 1 is_stmt 0 view .LVU56
 217 0006 0300     		movs	r3, r0
 218              		.loc 1 302 3 view .LVU57
 219 0008 0220     		movs	r0, #2
 220              	.LVL17:
 221              		.loc 1 302 3 view .LVU58
 222 000a 0129     		cmp	r1, #1
 223 000c 07D0     		beq	.L17
 224              		.loc 1 302 3 is_stmt 1 discriminator 2 view .LVU59
 225              		.loc 1 302 3 discriminator 2 view .LVU60
 303:smtc_bsp/arm/stm32/stm32_hal/STM32L0xx_HAL_Driver/Src/stm32l0xx_hal_uart_ex.c **** 
 304:smtc_bsp/arm/stm32/stm32_hal/STM32L0xx_HAL_Driver/Src/stm32l0xx_hal_uart_ex.c ****   /* Set UCESM bit */
 305:smtc_bsp/arm/stm32/stm32_hal/STM32L0xx_HAL_Driver/Src/stm32l0xx_hal_uart_ex.c ****   SET_BIT(huart->Instance->CR3, USART_CR3_UCESM);
 226              		.loc 1 305 3 discriminator 2 view .LVU61
ARM GAS  /var/folders/bq/yv49bw8j2kd6w3hsq868qv180000gn/T//ccUNGOs3.s 			page 11


 227 000e 1968     		ldr	r1, [r3]
 228 0010 8023     		movs	r3, #128
 229              	.LVL18:
 230              		.loc 1 305 3 is_stmt 0 discriminator 2 view .LVU62
 231 0012 8868     		ldr	r0, [r1, #8]
 232 0014 1B04     		lsls	r3, r3, #16
 233 0016 0343     		orrs	r3, r0
 306:smtc_bsp/arm/stm32/stm32_hal/STM32L0xx_HAL_Driver/Src/stm32l0xx_hal_uart_ex.c **** 
 307:smtc_bsp/arm/stm32/stm32_hal/STM32L0xx_HAL_Driver/Src/stm32l0xx_hal_uart_ex.c ****   /* Process Unlocked */
 308:smtc_bsp/arm/stm32/stm32_hal/STM32L0xx_HAL_Driver/Src/stm32l0xx_hal_uart_ex.c ****   __HAL_UNLOCK(huart);
 234              		.loc 1 308 3 discriminator 2 view .LVU63
 235 0018 0020     		movs	r0, #0
 305:smtc_bsp/arm/stm32/stm32_hal/STM32L0xx_HAL_Driver/Src/stm32l0xx_hal_uart_ex.c **** 
 236              		.loc 1 305 3 discriminator 2 view .LVU64
 237 001a 8B60     		str	r3, [r1, #8]
 238              		.loc 1 308 3 is_stmt 1 discriminator 2 view .LVU65
 239              		.loc 1 308 3 discriminator 2 view .LVU66
 240 001c 1070     		strb	r0, [r2]
 241              		.loc 1 308 3 discriminator 2 view .LVU67
 309:smtc_bsp/arm/stm32/stm32_hal/STM32L0xx_HAL_Driver/Src/stm32l0xx_hal_uart_ex.c **** 
 310:smtc_bsp/arm/stm32/stm32_hal/STM32L0xx_HAL_Driver/Src/stm32l0xx_hal_uart_ex.c ****   return HAL_OK;
 242              		.loc 1 310 3 discriminator 2 view .LVU68
 243              	.L17:
 311:smtc_bsp/arm/stm32/stm32_hal/STM32L0xx_HAL_Driver/Src/stm32l0xx_hal_uart_ex.c **** }
 244              		.loc 1 311 1 is_stmt 0 view .LVU69
 245              		@ sp needed
 246 001e 7047     		bx	lr
 247              		.cfi_endproc
 248              	.LFE49:
 250              		.section	.text.HAL_UARTEx_DisableClockStopMode,"ax",%progbits
 251              		.align	1
 252              		.global	HAL_UARTEx_DisableClockStopMode
 253              		.syntax unified
 254              		.code	16
 255              		.thumb_func
 256              		.fpu softvfp
 258              	HAL_UARTEx_DisableClockStopMode:
 259              	.LVL19:
 260              	.LFB50:
 312:smtc_bsp/arm/stm32/stm32_hal/STM32L0xx_HAL_Driver/Src/stm32l0xx_hal_uart_ex.c **** 
 313:smtc_bsp/arm/stm32/stm32_hal/STM32L0xx_HAL_Driver/Src/stm32l0xx_hal_uart_ex.c **** /**
 314:smtc_bsp/arm/stm32/stm32_hal/STM32L0xx_HAL_Driver/Src/stm32l0xx_hal_uart_ex.c ****   * @brief  Disable UART Clock when in Stop Mode.
 315:smtc_bsp/arm/stm32/stm32_hal/STM32L0xx_HAL_Driver/Src/stm32l0xx_hal_uart_ex.c ****   * @param  huart UART handle.
 316:smtc_bsp/arm/stm32/stm32_hal/STM32L0xx_HAL_Driver/Src/stm32l0xx_hal_uart_ex.c ****   * @retval HAL status
 317:smtc_bsp/arm/stm32/stm32_hal/STM32L0xx_HAL_Driver/Src/stm32l0xx_hal_uart_ex.c ****   */
 318:smtc_bsp/arm/stm32/stm32_hal/STM32L0xx_HAL_Driver/Src/stm32l0xx_hal_uart_ex.c **** HAL_StatusTypeDef HAL_UARTEx_DisableClockStopMode(UART_HandleTypeDef *huart)
 319:smtc_bsp/arm/stm32/stm32_hal/STM32L0xx_HAL_Driver/Src/stm32l0xx_hal_uart_ex.c **** {
 261              		.loc 1 319 1 is_stmt 1 view -0
 262              		.cfi_startproc
 263              		@ args = 0, pretend = 0, frame = 0
 264              		@ frame_needed = 0, uses_anonymous_args = 0
 265              		@ link register save eliminated.
 320:smtc_bsp/arm/stm32/stm32_hal/STM32L0xx_HAL_Driver/Src/stm32l0xx_hal_uart_ex.c ****   /* Process Locked */
 321:smtc_bsp/arm/stm32/stm32_hal/STM32L0xx_HAL_Driver/Src/stm32l0xx_hal_uart_ex.c ****   __HAL_LOCK(huart);
 266              		.loc 1 321 3 view .LVU71
 267              		.loc 1 321 3 view .LVU72
 268 0000 0200     		movs	r2, r0
ARM GAS  /var/folders/bq/yv49bw8j2kd6w3hsq868qv180000gn/T//ccUNGOs3.s 			page 12


 269 0002 7032     		adds	r2, r2, #112
 270 0004 1178     		ldrb	r1, [r2]
 319:smtc_bsp/arm/stm32/stm32_hal/STM32L0xx_HAL_Driver/Src/stm32l0xx_hal_uart_ex.c ****   /* Process Locked */
 271              		.loc 1 319 1 is_stmt 0 view .LVU73
 272 0006 0300     		movs	r3, r0
 273              		.loc 1 321 3 view .LVU74
 274 0008 0220     		movs	r0, #2
 275              	.LVL20:
 276              		.loc 1 321 3 view .LVU75
 277 000a 0129     		cmp	r1, #1
 278 000c 06D0     		beq	.L20
 279              		.loc 1 321 3 is_stmt 1 discriminator 2 view .LVU76
 280              		.loc 1 321 3 discriminator 2 view .LVU77
 322:smtc_bsp/arm/stm32/stm32_hal/STM32L0xx_HAL_Driver/Src/stm32l0xx_hal_uart_ex.c **** 
 323:smtc_bsp/arm/stm32/stm32_hal/STM32L0xx_HAL_Driver/Src/stm32l0xx_hal_uart_ex.c ****   /* Clear UCESM bit */
 324:smtc_bsp/arm/stm32/stm32_hal/STM32L0xx_HAL_Driver/Src/stm32l0xx_hal_uart_ex.c ****   CLEAR_BIT(huart->Instance->CR3, USART_CR3_UCESM);
 281              		.loc 1 324 3 discriminator 2 view .LVU78
 282 000e 1968     		ldr	r1, [r3]
 283 0010 0348     		ldr	r0, .L22
 284 0012 8B68     		ldr	r3, [r1, #8]
 285              	.LVL21:
 286              		.loc 1 324 3 is_stmt 0 discriminator 2 view .LVU79
 287 0014 0340     		ands	r3, r0
 325:smtc_bsp/arm/stm32/stm32_hal/STM32L0xx_HAL_Driver/Src/stm32l0xx_hal_uart_ex.c **** 
 326:smtc_bsp/arm/stm32/stm32_hal/STM32L0xx_HAL_Driver/Src/stm32l0xx_hal_uart_ex.c ****   /* Process Unlocked */
 327:smtc_bsp/arm/stm32/stm32_hal/STM32L0xx_HAL_Driver/Src/stm32l0xx_hal_uart_ex.c ****   __HAL_UNLOCK(huart);
 288              		.loc 1 327 3 discriminator 2 view .LVU80
 289 0016 0020     		movs	r0, #0
 324:smtc_bsp/arm/stm32/stm32_hal/STM32L0xx_HAL_Driver/Src/stm32l0xx_hal_uart_ex.c **** 
 290              		.loc 1 324 3 discriminator 2 view .LVU81
 291 0018 8B60     		str	r3, [r1, #8]
 292              		.loc 1 327 3 is_stmt 1 discriminator 2 view .LVU82
 293              		.loc 1 327 3 discriminator 2 view .LVU83
 294 001a 1070     		strb	r0, [r2]
 295              		.loc 1 327 3 discriminator 2 view .LVU84
 328:smtc_bsp/arm/stm32/stm32_hal/STM32L0xx_HAL_Driver/Src/stm32l0xx_hal_uart_ex.c **** 
 329:smtc_bsp/arm/stm32/stm32_hal/STM32L0xx_HAL_Driver/Src/stm32l0xx_hal_uart_ex.c ****   return HAL_OK;
 296              		.loc 1 329 3 discriminator 2 view .LVU85
 297              	.L20:
 330:smtc_bsp/arm/stm32/stm32_hal/STM32L0xx_HAL_Driver/Src/stm32l0xx_hal_uart_ex.c **** }
 298              		.loc 1 330 1 is_stmt 0 view .LVU86
 299              		@ sp needed
 300 001c 7047     		bx	lr
 301              	.L23:
 302 001e C046     		.align	2
 303              	.L22:
 304 0020 FFFF7FFF 		.word	-8388609
 305              		.cfi_endproc
 306              	.LFE50:
 308              		.section	.text.HAL_MultiProcessorEx_AddressLength_Set,"ax",%progbits
 309              		.align	1
 310              		.global	HAL_MultiProcessorEx_AddressLength_Set
 311              		.syntax unified
 312              		.code	16
 313              		.thumb_func
 314              		.fpu softvfp
 316              	HAL_MultiProcessorEx_AddressLength_Set:
ARM GAS  /var/folders/bq/yv49bw8j2kd6w3hsq868qv180000gn/T//ccUNGOs3.s 			page 13


 317              	.LVL22:
 318              	.LFB51:
 331:smtc_bsp/arm/stm32/stm32_hal/STM32L0xx_HAL_Driver/Src/stm32l0xx_hal_uart_ex.c **** 
 332:smtc_bsp/arm/stm32/stm32_hal/STM32L0xx_HAL_Driver/Src/stm32l0xx_hal_uart_ex.c **** /**
 333:smtc_bsp/arm/stm32/stm32_hal/STM32L0xx_HAL_Driver/Src/stm32l0xx_hal_uart_ex.c ****   * @brief By default in multiprocessor mode, when the wake up method is set
 334:smtc_bsp/arm/stm32/stm32_hal/STM32L0xx_HAL_Driver/Src/stm32l0xx_hal_uart_ex.c ****   *        to address mark, the UART handles only 4-bit long addresses detection;
 335:smtc_bsp/arm/stm32/stm32_hal/STM32L0xx_HAL_Driver/Src/stm32l0xx_hal_uart_ex.c ****   *        this API allows to enable longer addresses detection (6-, 7- or 8-bit
 336:smtc_bsp/arm/stm32/stm32_hal/STM32L0xx_HAL_Driver/Src/stm32l0xx_hal_uart_ex.c ****   *        long).
 337:smtc_bsp/arm/stm32/stm32_hal/STM32L0xx_HAL_Driver/Src/stm32l0xx_hal_uart_ex.c ****   * @note  Addresses detection lengths are: 6-bit address detection in 7-bit data mode,
 338:smtc_bsp/arm/stm32/stm32_hal/STM32L0xx_HAL_Driver/Src/stm32l0xx_hal_uart_ex.c ****   *        7-bit address detection in 8-bit data mode, 8-bit address detection in 9-bit data mode.
 339:smtc_bsp/arm/stm32/stm32_hal/STM32L0xx_HAL_Driver/Src/stm32l0xx_hal_uart_ex.c ****   * @param huart         UART handle.
 340:smtc_bsp/arm/stm32/stm32_hal/STM32L0xx_HAL_Driver/Src/stm32l0xx_hal_uart_ex.c ****   * @param AddressLength This parameter can be one of the following values:
 341:smtc_bsp/arm/stm32/stm32_hal/STM32L0xx_HAL_Driver/Src/stm32l0xx_hal_uart_ex.c ****   *          @arg @ref UART_ADDRESS_DETECT_4B 4-bit long address
 342:smtc_bsp/arm/stm32/stm32_hal/STM32L0xx_HAL_Driver/Src/stm32l0xx_hal_uart_ex.c ****   *          @arg @ref UART_ADDRESS_DETECT_7B 6-, 7- or 8-bit long address
 343:smtc_bsp/arm/stm32/stm32_hal/STM32L0xx_HAL_Driver/Src/stm32l0xx_hal_uart_ex.c ****   * @retval HAL status
 344:smtc_bsp/arm/stm32/stm32_hal/STM32L0xx_HAL_Driver/Src/stm32l0xx_hal_uart_ex.c ****   */
 345:smtc_bsp/arm/stm32/stm32_hal/STM32L0xx_HAL_Driver/Src/stm32l0xx_hal_uart_ex.c **** HAL_StatusTypeDef HAL_MultiProcessorEx_AddressLength_Set(UART_HandleTypeDef *huart, uint32_t Addres
 346:smtc_bsp/arm/stm32/stm32_hal/STM32L0xx_HAL_Driver/Src/stm32l0xx_hal_uart_ex.c **** {
 319              		.loc 1 346 1 is_stmt 1 view -0
 320              		.cfi_startproc
 321              		@ args = 0, pretend = 0, frame = 0
 322              		@ frame_needed = 0, uses_anonymous_args = 0
 347:smtc_bsp/arm/stm32/stm32_hal/STM32L0xx_HAL_Driver/Src/stm32l0xx_hal_uart_ex.c ****   /* Check the UART handle allocation */
 348:smtc_bsp/arm/stm32/stm32_hal/STM32L0xx_HAL_Driver/Src/stm32l0xx_hal_uart_ex.c ****   if (huart == NULL)
 323              		.loc 1 348 3 view .LVU88
 346:smtc_bsp/arm/stm32/stm32_hal/STM32L0xx_HAL_Driver/Src/stm32l0xx_hal_uart_ex.c ****   /* Check the UART handle allocation */
 324              		.loc 1 346 1 is_stmt 0 view .LVU89
 325 0000 70B5     		push	{r4, r5, r6, lr}
 326              		.cfi_def_cfa_offset 16
 327              		.cfi_offset 4, -16
 328              		.cfi_offset 5, -12
 329              		.cfi_offset 6, -8
 330              		.cfi_offset 14, -4
 349:smtc_bsp/arm/stm32/stm32_hal/STM32L0xx_HAL_Driver/Src/stm32l0xx_hal_uart_ex.c ****   {
 350:smtc_bsp/arm/stm32/stm32_hal/STM32L0xx_HAL_Driver/Src/stm32l0xx_hal_uart_ex.c ****     return HAL_ERROR;
 331              		.loc 1 350 12 view .LVU90
 332 0002 0123     		movs	r3, #1
 346:smtc_bsp/arm/stm32/stm32_hal/STM32L0xx_HAL_Driver/Src/stm32l0xx_hal_uart_ex.c ****   /* Check the UART handle allocation */
 333              		.loc 1 346 1 view .LVU91
 334 0004 0C00     		movs	r4, r1
 348:smtc_bsp/arm/stm32/stm32_hal/STM32L0xx_HAL_Driver/Src/stm32l0xx_hal_uart_ex.c ****   {
 335              		.loc 1 348 6 view .LVU92
 336 0006 0028     		cmp	r0, #0
 337 0008 11D0     		beq	.L25
 351:smtc_bsp/arm/stm32/stm32_hal/STM32L0xx_HAL_Driver/Src/stm32l0xx_hal_uart_ex.c ****   }
 352:smtc_bsp/arm/stm32/stm32_hal/STM32L0xx_HAL_Driver/Src/stm32l0xx_hal_uart_ex.c **** 
 353:smtc_bsp/arm/stm32/stm32_hal/STM32L0xx_HAL_Driver/Src/stm32l0xx_hal_uart_ex.c ****   /* Check the address length parameter */
 354:smtc_bsp/arm/stm32/stm32_hal/STM32L0xx_HAL_Driver/Src/stm32l0xx_hal_uart_ex.c ****   assert_param(IS_UART_ADDRESSLENGTH_DETECT(AddressLength));
 338              		.loc 1 354 3 is_stmt 1 view .LVU93
 355:smtc_bsp/arm/stm32/stm32_hal/STM32L0xx_HAL_Driver/Src/stm32l0xx_hal_uart_ex.c **** 
 356:smtc_bsp/arm/stm32/stm32_hal/STM32L0xx_HAL_Driver/Src/stm32l0xx_hal_uart_ex.c ****   huart->gState = HAL_UART_STATE_BUSY;
 339              		.loc 1 356 3 view .LVU94
 357:smtc_bsp/arm/stm32/stm32_hal/STM32L0xx_HAL_Driver/Src/stm32l0xx_hal_uart_ex.c **** 
 358:smtc_bsp/arm/stm32/stm32_hal/STM32L0xx_HAL_Driver/Src/stm32l0xx_hal_uart_ex.c ****   /* Disable the Peripheral */
 359:smtc_bsp/arm/stm32/stm32_hal/STM32L0xx_HAL_Driver/Src/stm32l0xx_hal_uart_ex.c ****   __HAL_UART_DISABLE(huart);
 340              		.loc 1 359 3 is_stmt 0 view .LVU95
 341 000a 0122     		movs	r2, #1
ARM GAS  /var/folders/bq/yv49bw8j2kd6w3hsq868qv180000gn/T//ccUNGOs3.s 			page 14


 360:smtc_bsp/arm/stm32/stm32_hal/STM32L0xx_HAL_Driver/Src/stm32l0xx_hal_uart_ex.c **** 
 361:smtc_bsp/arm/stm32/stm32_hal/STM32L0xx_HAL_Driver/Src/stm32l0xx_hal_uart_ex.c ****   /* Set the address length */
 362:smtc_bsp/arm/stm32/stm32_hal/STM32L0xx_HAL_Driver/Src/stm32l0xx_hal_uart_ex.c ****   MODIFY_REG(huart->Instance->CR2, USART_CR2_ADDM7, AddressLength);
 342              		.loc 1 362 3 view .LVU96
 343 000c 1025     		movs	r5, #16
 356:smtc_bsp/arm/stm32/stm32_hal/STM32L0xx_HAL_Driver/Src/stm32l0xx_hal_uart_ex.c **** 
 344              		.loc 1 356 17 view .LVU97
 345 000e 2333     		adds	r3, r3, #35
 346 0010 4367     		str	r3, [r0, #116]
 359:smtc_bsp/arm/stm32/stm32_hal/STM32L0xx_HAL_Driver/Src/stm32l0xx_hal_uart_ex.c **** 
 347              		.loc 1 359 3 is_stmt 1 view .LVU98
 348 0012 0368     		ldr	r3, [r0]
 349 0014 1968     		ldr	r1, [r3]
 350              	.LVL23:
 359:smtc_bsp/arm/stm32/stm32_hal/STM32L0xx_HAL_Driver/Src/stm32l0xx_hal_uart_ex.c **** 
 351              		.loc 1 359 3 is_stmt 0 view .LVU99
 352 0016 9143     		bics	r1, r2
 353 0018 1960     		str	r1, [r3]
 354              		.loc 1 362 3 is_stmt 1 view .LVU100
 355 001a 5968     		ldr	r1, [r3, #4]
 356 001c A943     		bics	r1, r5
 357 001e 2143     		orrs	r1, r4
 358 0020 5960     		str	r1, [r3, #4]
 363:smtc_bsp/arm/stm32/stm32_hal/STM32L0xx_HAL_Driver/Src/stm32l0xx_hal_uart_ex.c **** 
 364:smtc_bsp/arm/stm32/stm32_hal/STM32L0xx_HAL_Driver/Src/stm32l0xx_hal_uart_ex.c ****   /* Enable the Peripheral */
 365:smtc_bsp/arm/stm32/stm32_hal/STM32L0xx_HAL_Driver/Src/stm32l0xx_hal_uart_ex.c ****   __HAL_UART_ENABLE(huart);
 359              		.loc 1 365 3 view .LVU101
 360 0022 1968     		ldr	r1, [r3]
 361 0024 0A43     		orrs	r2, r1
 362 0026 1A60     		str	r2, [r3]
 366:smtc_bsp/arm/stm32/stm32_hal/STM32L0xx_HAL_Driver/Src/stm32l0xx_hal_uart_ex.c **** 
 367:smtc_bsp/arm/stm32/stm32_hal/STM32L0xx_HAL_Driver/Src/stm32l0xx_hal_uart_ex.c ****   /* TEACK and/or REACK to check before moving huart->gState to Ready */
 368:smtc_bsp/arm/stm32/stm32_hal/STM32L0xx_HAL_Driver/Src/stm32l0xx_hal_uart_ex.c ****   return (UART_CheckIdleState(huart));
 363              		.loc 1 368 3 view .LVU102
 364              		.loc 1 368 11 is_stmt 0 view .LVU103
 365 0028 FFF7FEFF 		bl	UART_CheckIdleState
 366              	.LVL24:
 367              		.loc 1 368 11 view .LVU104
 368 002c 0300     		movs	r3, r0
 369              	.L25:
 369:smtc_bsp/arm/stm32/stm32_hal/STM32L0xx_HAL_Driver/Src/stm32l0xx_hal_uart_ex.c **** }
 370              		.loc 1 369 1 view .LVU105
 371 002e 1800     		movs	r0, r3
 372              		@ sp needed
 373              	.LVL25:
 374              		.loc 1 369 1 view .LVU106
 375 0030 70BD     		pop	{r4, r5, r6, pc}
 376              		.cfi_endproc
 377              	.LFE51:
 379              		.section	.text.HAL_UARTEx_StopModeWakeUpSourceConfig,"ax",%progbits
 380              		.align	1
 381              		.global	HAL_UARTEx_StopModeWakeUpSourceConfig
 382              		.syntax unified
 383              		.code	16
 384              		.thumb_func
 385              		.fpu softvfp
 387              	HAL_UARTEx_StopModeWakeUpSourceConfig:
ARM GAS  /var/folders/bq/yv49bw8j2kd6w3hsq868qv180000gn/T//ccUNGOs3.s 			page 15


 388              	.LVL26:
 389              	.LFB52:
 370:smtc_bsp/arm/stm32/stm32_hal/STM32L0xx_HAL_Driver/Src/stm32l0xx_hal_uart_ex.c **** 
 371:smtc_bsp/arm/stm32/stm32_hal/STM32L0xx_HAL_Driver/Src/stm32l0xx_hal_uart_ex.c **** /**
 372:smtc_bsp/arm/stm32/stm32_hal/STM32L0xx_HAL_Driver/Src/stm32l0xx_hal_uart_ex.c ****   * @brief Set Wakeup from Stop mode interrupt flag selection.
 373:smtc_bsp/arm/stm32/stm32_hal/STM32L0xx_HAL_Driver/Src/stm32l0xx_hal_uart_ex.c ****   * @note It is the application responsibility to enable the interrupt used as
 374:smtc_bsp/arm/stm32/stm32_hal/STM32L0xx_HAL_Driver/Src/stm32l0xx_hal_uart_ex.c ****   *       usart_wkup interrupt source before entering low-power mode.
 375:smtc_bsp/arm/stm32/stm32_hal/STM32L0xx_HAL_Driver/Src/stm32l0xx_hal_uart_ex.c ****   * @param huart           UART handle.
 376:smtc_bsp/arm/stm32/stm32_hal/STM32L0xx_HAL_Driver/Src/stm32l0xx_hal_uart_ex.c ****   * @param WakeUpSelection Address match, Start Bit detection or RXNE/RXFNE bit status.
 377:smtc_bsp/arm/stm32/stm32_hal/STM32L0xx_HAL_Driver/Src/stm32l0xx_hal_uart_ex.c ****   *          This parameter can be one of the following values:
 378:smtc_bsp/arm/stm32/stm32_hal/STM32L0xx_HAL_Driver/Src/stm32l0xx_hal_uart_ex.c ****   *          @arg @ref UART_WAKEUP_ON_ADDRESS
 379:smtc_bsp/arm/stm32/stm32_hal/STM32L0xx_HAL_Driver/Src/stm32l0xx_hal_uart_ex.c ****   *          @arg @ref UART_WAKEUP_ON_STARTBIT
 380:smtc_bsp/arm/stm32/stm32_hal/STM32L0xx_HAL_Driver/Src/stm32l0xx_hal_uart_ex.c ****   *          @arg @ref UART_WAKEUP_ON_READDATA_NONEMPTY
 381:smtc_bsp/arm/stm32/stm32_hal/STM32L0xx_HAL_Driver/Src/stm32l0xx_hal_uart_ex.c ****   * @retval HAL status
 382:smtc_bsp/arm/stm32/stm32_hal/STM32L0xx_HAL_Driver/Src/stm32l0xx_hal_uart_ex.c ****   */
 383:smtc_bsp/arm/stm32/stm32_hal/STM32L0xx_HAL_Driver/Src/stm32l0xx_hal_uart_ex.c **** HAL_StatusTypeDef HAL_UARTEx_StopModeWakeUpSourceConfig(UART_HandleTypeDef *huart, UART_WakeUpTypeD
 384:smtc_bsp/arm/stm32/stm32_hal/STM32L0xx_HAL_Driver/Src/stm32l0xx_hal_uart_ex.c **** {
 390              		.loc 1 384 1 is_stmt 1 view -0
 391              		.cfi_startproc
 392              		@ args = 0, pretend = 0, frame = 8
 393              		@ frame_needed = 0, uses_anonymous_args = 0
 385:smtc_bsp/arm/stm32/stm32_hal/STM32L0xx_HAL_Driver/Src/stm32l0xx_hal_uart_ex.c ****   HAL_StatusTypeDef status = HAL_OK;
 394              		.loc 1 385 3 view .LVU108
 386:smtc_bsp/arm/stm32/stm32_hal/STM32L0xx_HAL_Driver/Src/stm32l0xx_hal_uart_ex.c ****   uint32_t tickstart;
 395              		.loc 1 386 3 view .LVU109
 387:smtc_bsp/arm/stm32/stm32_hal/STM32L0xx_HAL_Driver/Src/stm32l0xx_hal_uart_ex.c **** 
 388:smtc_bsp/arm/stm32/stm32_hal/STM32L0xx_HAL_Driver/Src/stm32l0xx_hal_uart_ex.c ****   /* check the wake-up from stop mode UART instance */
 389:smtc_bsp/arm/stm32/stm32_hal/STM32L0xx_HAL_Driver/Src/stm32l0xx_hal_uart_ex.c ****   assert_param(IS_UART_WAKEUP_FROMSTOP_INSTANCE(huart->Instance));
 396              		.loc 1 389 3 view .LVU110
 390:smtc_bsp/arm/stm32/stm32_hal/STM32L0xx_HAL_Driver/Src/stm32l0xx_hal_uart_ex.c ****   /* check the wake-up selection parameter */
 391:smtc_bsp/arm/stm32/stm32_hal/STM32L0xx_HAL_Driver/Src/stm32l0xx_hal_uart_ex.c ****   assert_param(IS_UART_WAKEUP_SELECTION(WakeUpSelection.WakeUpEvent));
 397              		.loc 1 391 3 view .LVU111
 392:smtc_bsp/arm/stm32/stm32_hal/STM32L0xx_HAL_Driver/Src/stm32l0xx_hal_uart_ex.c **** 
 393:smtc_bsp/arm/stm32/stm32_hal/STM32L0xx_HAL_Driver/Src/stm32l0xx_hal_uart_ex.c ****   /* Process Locked */
 394:smtc_bsp/arm/stm32/stm32_hal/STM32L0xx_HAL_Driver/Src/stm32l0xx_hal_uart_ex.c ****   __HAL_LOCK(huart);
 398              		.loc 1 394 3 view .LVU112
 399              		.loc 1 394 3 view .LVU113
 384:smtc_bsp/arm/stm32/stm32_hal/STM32L0xx_HAL_Driver/Src/stm32l0xx_hal_uart_ex.c ****   HAL_StatusTypeDef status = HAL_OK;
 400              		.loc 1 384 1 is_stmt 0 view .LVU114
 401 0000 7FB5     		push	{r0, r1, r2, r3, r4, r5, r6, lr}
 402              		.cfi_def_cfa_offset 32
 403              		.cfi_offset 0, -32
 404              		.cfi_offset 1, -28
 405              		.cfi_offset 2, -24
 406              		.cfi_offset 3, -20
 407              		.cfi_offset 4, -16
 408              		.cfi_offset 5, -12
 409              		.cfi_offset 6, -8
 410              		.cfi_offset 14, -4
 411              		.loc 1 394 3 view .LVU115
 412 0002 0500     		movs	r5, r0
 384:smtc_bsp/arm/stm32/stm32_hal/STM32L0xx_HAL_Driver/Src/stm32l0xx_hal_uart_ex.c ****   HAL_StatusTypeDef status = HAL_OK;
 413              		.loc 1 384 1 view .LVU116
 414 0004 0291     		str	r1, [sp, #8]
 415 0006 0392     		str	r2, [sp, #12]
 416              		.loc 1 394 3 view .LVU117
 417 0008 7035     		adds	r5, r5, #112
ARM GAS  /var/folders/bq/yv49bw8j2kd6w3hsq868qv180000gn/T//ccUNGOs3.s 			page 16


 418 000a 2B78     		ldrb	r3, [r5]
 384:smtc_bsp/arm/stm32/stm32_hal/STM32L0xx_HAL_Driver/Src/stm32l0xx_hal_uart_ex.c ****   HAL_StatusTypeDef status = HAL_OK;
 419              		.loc 1 384 1 view .LVU118
 420 000c 0400     		movs	r4, r0
 421 000e 02AE     		add	r6, sp, #8
 422              		.loc 1 394 3 view .LVU119
 423 0010 0220     		movs	r0, #2
 424              	.LVL27:
 425              		.loc 1 394 3 view .LVU120
 426 0012 012B     		cmp	r3, #1
 427 0014 30D0     		beq	.L28
 428              		.loc 1 394 3 is_stmt 1 discriminator 2 view .LVU121
 395:smtc_bsp/arm/stm32/stm32_hal/STM32L0xx_HAL_Driver/Src/stm32l0xx_hal_uart_ex.c **** 
 396:smtc_bsp/arm/stm32/stm32_hal/STM32L0xx_HAL_Driver/Src/stm32l0xx_hal_uart_ex.c ****   huart->gState = HAL_UART_STATE_BUSY;
 429              		.loc 1 396 17 is_stmt 0 discriminator 2 view .LVU122
 430 0016 2423     		movs	r3, #36
 394:smtc_bsp/arm/stm32/stm32_hal/STM32L0xx_HAL_Driver/Src/stm32l0xx_hal_uart_ex.c **** 
 431              		.loc 1 394 3 discriminator 2 view .LVU123
 432 0018 0138     		subs	r0, r0, #1
 433 001a 2870     		strb	r0, [r5]
 394:smtc_bsp/arm/stm32/stm32_hal/STM32L0xx_HAL_Driver/Src/stm32l0xx_hal_uart_ex.c **** 
 434              		.loc 1 394 3 is_stmt 1 discriminator 2 view .LVU124
 435              		.loc 1 396 3 discriminator 2 view .LVU125
 436              		.loc 1 396 17 is_stmt 0 discriminator 2 view .LVU126
 437 001c 6367     		str	r3, [r4, #116]
 397:smtc_bsp/arm/stm32/stm32_hal/STM32L0xx_HAL_Driver/Src/stm32l0xx_hal_uart_ex.c **** 
 398:smtc_bsp/arm/stm32/stm32_hal/STM32L0xx_HAL_Driver/Src/stm32l0xx_hal_uart_ex.c ****   /* Disable the Peripheral */
 399:smtc_bsp/arm/stm32/stm32_hal/STM32L0xx_HAL_Driver/Src/stm32l0xx_hal_uart_ex.c ****   __HAL_UART_DISABLE(huart);
 438              		.loc 1 399 3 is_stmt 1 discriminator 2 view .LVU127
 439 001e 2368     		ldr	r3, [r4]
 440 0020 1A68     		ldr	r2, [r3]
 441 0022 8243     		bics	r2, r0
 442 0024 1A60     		str	r2, [r3]
 400:smtc_bsp/arm/stm32/stm32_hal/STM32L0xx_HAL_Driver/Src/stm32l0xx_hal_uart_ex.c **** 
 401:smtc_bsp/arm/stm32/stm32_hal/STM32L0xx_HAL_Driver/Src/stm32l0xx_hal_uart_ex.c ****   /* Set the wake-up selection scheme */
 402:smtc_bsp/arm/stm32/stm32_hal/STM32L0xx_HAL_Driver/Src/stm32l0xx_hal_uart_ex.c ****   MODIFY_REG(huart->Instance->CR3, USART_CR3_WUS, WakeUpSelection.WakeUpEvent);
 443              		.loc 1 402 3 discriminator 2 view .LVU128
 444 0026 9A68     		ldr	r2, [r3, #8]
 445 0028 1548     		ldr	r0, .L33
 446 002a 0240     		ands	r2, r0
 447 002c 0A43     		orrs	r2, r1
 448 002e 9A60     		str	r2, [r3, #8]
 403:smtc_bsp/arm/stm32/stm32_hal/STM32L0xx_HAL_Driver/Src/stm32l0xx_hal_uart_ex.c **** 
 404:smtc_bsp/arm/stm32/stm32_hal/STM32L0xx_HAL_Driver/Src/stm32l0xx_hal_uart_ex.c ****   if (WakeUpSelection.WakeUpEvent == UART_WAKEUP_ON_ADDRESS)
 449              		.loc 1 404 3 discriminator 2 view .LVU129
 450              		.loc 1 404 6 is_stmt 0 discriminator 2 view .LVU130
 451 0030 0029     		cmp	r1, #0
 452 0032 0CD1     		bne	.L29
 405:smtc_bsp/arm/stm32/stm32_hal/STM32L0xx_HAL_Driver/Src/stm32l0xx_hal_uart_ex.c ****   {
 406:smtc_bsp/arm/stm32/stm32_hal/STM32L0xx_HAL_Driver/Src/stm32l0xx_hal_uart_ex.c ****     UARTEx_Wakeup_AddressConfig(huart, WakeUpSelection);
 453              		.loc 1 406 5 is_stmt 1 view .LVU131
 454              	.LBB4:
 455              	.LBB5:
 407:smtc_bsp/arm/stm32/stm32_hal/STM32L0xx_HAL_Driver/Src/stm32l0xx_hal_uart_ex.c ****   }
 408:smtc_bsp/arm/stm32/stm32_hal/STM32L0xx_HAL_Driver/Src/stm32l0xx_hal_uart_ex.c **** 
 409:smtc_bsp/arm/stm32/stm32_hal/STM32L0xx_HAL_Driver/Src/stm32l0xx_hal_uart_ex.c ****   /* Enable the Peripheral */
 410:smtc_bsp/arm/stm32/stm32_hal/STM32L0xx_HAL_Driver/Src/stm32l0xx_hal_uart_ex.c ****   __HAL_UART_ENABLE(huart);
ARM GAS  /var/folders/bq/yv49bw8j2kd6w3hsq868qv180000gn/T//ccUNGOs3.s 			page 17


 411:smtc_bsp/arm/stm32/stm32_hal/STM32L0xx_HAL_Driver/Src/stm32l0xx_hal_uart_ex.c **** 
 412:smtc_bsp/arm/stm32/stm32_hal/STM32L0xx_HAL_Driver/Src/stm32l0xx_hal_uart_ex.c ****   /* Init tickstart for timeout managment*/
 413:smtc_bsp/arm/stm32/stm32_hal/STM32L0xx_HAL_Driver/Src/stm32l0xx_hal_uart_ex.c ****   tickstart = HAL_GetTick();
 414:smtc_bsp/arm/stm32/stm32_hal/STM32L0xx_HAL_Driver/Src/stm32l0xx_hal_uart_ex.c **** 
 415:smtc_bsp/arm/stm32/stm32_hal/STM32L0xx_HAL_Driver/Src/stm32l0xx_hal_uart_ex.c ****   /* Wait until REACK flag is set */
 416:smtc_bsp/arm/stm32/stm32_hal/STM32L0xx_HAL_Driver/Src/stm32l0xx_hal_uart_ex.c ****   if (UART_WaitOnFlagUntilTimeout(huart, USART_ISR_REACK, RESET, tickstart, HAL_UART_TIMEOUT_VALUE)
 417:smtc_bsp/arm/stm32/stm32_hal/STM32L0xx_HAL_Driver/Src/stm32l0xx_hal_uart_ex.c ****   {
 418:smtc_bsp/arm/stm32/stm32_hal/STM32L0xx_HAL_Driver/Src/stm32l0xx_hal_uart_ex.c ****     status = HAL_TIMEOUT;
 419:smtc_bsp/arm/stm32/stm32_hal/STM32L0xx_HAL_Driver/Src/stm32l0xx_hal_uart_ex.c ****   }
 420:smtc_bsp/arm/stm32/stm32_hal/STM32L0xx_HAL_Driver/Src/stm32l0xx_hal_uart_ex.c ****   else
 421:smtc_bsp/arm/stm32/stm32_hal/STM32L0xx_HAL_Driver/Src/stm32l0xx_hal_uart_ex.c ****   {
 422:smtc_bsp/arm/stm32/stm32_hal/STM32L0xx_HAL_Driver/Src/stm32l0xx_hal_uart_ex.c ****     /* Initialize the UART State */
 423:smtc_bsp/arm/stm32/stm32_hal/STM32L0xx_HAL_Driver/Src/stm32l0xx_hal_uart_ex.c ****     huart->gState = HAL_UART_STATE_READY;
 424:smtc_bsp/arm/stm32/stm32_hal/STM32L0xx_HAL_Driver/Src/stm32l0xx_hal_uart_ex.c ****   }
 425:smtc_bsp/arm/stm32/stm32_hal/STM32L0xx_HAL_Driver/Src/stm32l0xx_hal_uart_ex.c **** 
 426:smtc_bsp/arm/stm32/stm32_hal/STM32L0xx_HAL_Driver/Src/stm32l0xx_hal_uart_ex.c ****   /* Process Unlocked */
 427:smtc_bsp/arm/stm32/stm32_hal/STM32L0xx_HAL_Driver/Src/stm32l0xx_hal_uart_ex.c ****   __HAL_UNLOCK(huart);
 428:smtc_bsp/arm/stm32/stm32_hal/STM32L0xx_HAL_Driver/Src/stm32l0xx_hal_uart_ex.c **** 
 429:smtc_bsp/arm/stm32/stm32_hal/STM32L0xx_HAL_Driver/Src/stm32l0xx_hal_uart_ex.c ****   return status;
 430:smtc_bsp/arm/stm32/stm32_hal/STM32L0xx_HAL_Driver/Src/stm32l0xx_hal_uart_ex.c **** }
 431:smtc_bsp/arm/stm32/stm32_hal/STM32L0xx_HAL_Driver/Src/stm32l0xx_hal_uart_ex.c **** 
 432:smtc_bsp/arm/stm32/stm32_hal/STM32L0xx_HAL_Driver/Src/stm32l0xx_hal_uart_ex.c **** /**
 433:smtc_bsp/arm/stm32/stm32_hal/STM32L0xx_HAL_Driver/Src/stm32l0xx_hal_uart_ex.c ****   * @brief Enable UART Stop Mode.
 434:smtc_bsp/arm/stm32/stm32_hal/STM32L0xx_HAL_Driver/Src/stm32l0xx_hal_uart_ex.c ****   * @note The UART is able to wake up the MCU from Stop 1 mode as long as UART clock is HSI or LSE.
 435:smtc_bsp/arm/stm32/stm32_hal/STM32L0xx_HAL_Driver/Src/stm32l0xx_hal_uart_ex.c ****   * @param huart UART handle.
 436:smtc_bsp/arm/stm32/stm32_hal/STM32L0xx_HAL_Driver/Src/stm32l0xx_hal_uart_ex.c ****   * @retval HAL status
 437:smtc_bsp/arm/stm32/stm32_hal/STM32L0xx_HAL_Driver/Src/stm32l0xx_hal_uart_ex.c ****   */
 438:smtc_bsp/arm/stm32/stm32_hal/STM32L0xx_HAL_Driver/Src/stm32l0xx_hal_uart_ex.c **** HAL_StatusTypeDef HAL_UARTEx_EnableStopMode(UART_HandleTypeDef *huart)
 439:smtc_bsp/arm/stm32/stm32_hal/STM32L0xx_HAL_Driver/Src/stm32l0xx_hal_uart_ex.c **** {
 440:smtc_bsp/arm/stm32/stm32_hal/STM32L0xx_HAL_Driver/Src/stm32l0xx_hal_uart_ex.c ****   /* Process Locked */
 441:smtc_bsp/arm/stm32/stm32_hal/STM32L0xx_HAL_Driver/Src/stm32l0xx_hal_uart_ex.c ****   __HAL_LOCK(huart);
 442:smtc_bsp/arm/stm32/stm32_hal/STM32L0xx_HAL_Driver/Src/stm32l0xx_hal_uart_ex.c **** 
 443:smtc_bsp/arm/stm32/stm32_hal/STM32L0xx_HAL_Driver/Src/stm32l0xx_hal_uart_ex.c ****   /* Set UESM bit */
 444:smtc_bsp/arm/stm32/stm32_hal/STM32L0xx_HAL_Driver/Src/stm32l0xx_hal_uart_ex.c ****   SET_BIT(huart->Instance->CR1, USART_CR1_UESM);
 445:smtc_bsp/arm/stm32/stm32_hal/STM32L0xx_HAL_Driver/Src/stm32l0xx_hal_uart_ex.c **** 
 446:smtc_bsp/arm/stm32/stm32_hal/STM32L0xx_HAL_Driver/Src/stm32l0xx_hal_uart_ex.c ****   /* Process Unlocked */
 447:smtc_bsp/arm/stm32/stm32_hal/STM32L0xx_HAL_Driver/Src/stm32l0xx_hal_uart_ex.c ****   __HAL_UNLOCK(huart);
 448:smtc_bsp/arm/stm32/stm32_hal/STM32L0xx_HAL_Driver/Src/stm32l0xx_hal_uart_ex.c **** 
 449:smtc_bsp/arm/stm32/stm32_hal/STM32L0xx_HAL_Driver/Src/stm32l0xx_hal_uart_ex.c ****   return HAL_OK;
 450:smtc_bsp/arm/stm32/stm32_hal/STM32L0xx_HAL_Driver/Src/stm32l0xx_hal_uart_ex.c **** }
 451:smtc_bsp/arm/stm32/stm32_hal/STM32L0xx_HAL_Driver/Src/stm32l0xx_hal_uart_ex.c **** 
 452:smtc_bsp/arm/stm32/stm32_hal/STM32L0xx_HAL_Driver/Src/stm32l0xx_hal_uart_ex.c **** /**
 453:smtc_bsp/arm/stm32/stm32_hal/STM32L0xx_HAL_Driver/Src/stm32l0xx_hal_uart_ex.c ****   * @brief Disable UART Stop Mode.
 454:smtc_bsp/arm/stm32/stm32_hal/STM32L0xx_HAL_Driver/Src/stm32l0xx_hal_uart_ex.c ****   * @param huart UART handle.
 455:smtc_bsp/arm/stm32/stm32_hal/STM32L0xx_HAL_Driver/Src/stm32l0xx_hal_uart_ex.c ****   * @retval HAL status
 456:smtc_bsp/arm/stm32/stm32_hal/STM32L0xx_HAL_Driver/Src/stm32l0xx_hal_uart_ex.c ****   */
 457:smtc_bsp/arm/stm32/stm32_hal/STM32L0xx_HAL_Driver/Src/stm32l0xx_hal_uart_ex.c **** HAL_StatusTypeDef HAL_UARTEx_DisableStopMode(UART_HandleTypeDef *huart)
 458:smtc_bsp/arm/stm32/stm32_hal/STM32L0xx_HAL_Driver/Src/stm32l0xx_hal_uart_ex.c **** {
 459:smtc_bsp/arm/stm32/stm32_hal/STM32L0xx_HAL_Driver/Src/stm32l0xx_hal_uart_ex.c ****   /* Process Locked */
 460:smtc_bsp/arm/stm32/stm32_hal/STM32L0xx_HAL_Driver/Src/stm32l0xx_hal_uart_ex.c ****   __HAL_LOCK(huart);
 461:smtc_bsp/arm/stm32/stm32_hal/STM32L0xx_HAL_Driver/Src/stm32l0xx_hal_uart_ex.c **** 
 462:smtc_bsp/arm/stm32/stm32_hal/STM32L0xx_HAL_Driver/Src/stm32l0xx_hal_uart_ex.c ****   /* Clear UESM bit */
 463:smtc_bsp/arm/stm32/stm32_hal/STM32L0xx_HAL_Driver/Src/stm32l0xx_hal_uart_ex.c ****   CLEAR_BIT(huart->Instance->CR1, USART_CR1_UESM);
 464:smtc_bsp/arm/stm32/stm32_hal/STM32L0xx_HAL_Driver/Src/stm32l0xx_hal_uart_ex.c **** 
 465:smtc_bsp/arm/stm32/stm32_hal/STM32L0xx_HAL_Driver/Src/stm32l0xx_hal_uart_ex.c ****   /* Process Unlocked */
 466:smtc_bsp/arm/stm32/stm32_hal/STM32L0xx_HAL_Driver/Src/stm32l0xx_hal_uart_ex.c ****   __HAL_UNLOCK(huart);
 467:smtc_bsp/arm/stm32/stm32_hal/STM32L0xx_HAL_Driver/Src/stm32l0xx_hal_uart_ex.c **** 
ARM GAS  /var/folders/bq/yv49bw8j2kd6w3hsq868qv180000gn/T//ccUNGOs3.s 			page 18


 468:smtc_bsp/arm/stm32/stm32_hal/STM32L0xx_HAL_Driver/Src/stm32l0xx_hal_uart_ex.c ****   return HAL_OK;
 469:smtc_bsp/arm/stm32/stm32_hal/STM32L0xx_HAL_Driver/Src/stm32l0xx_hal_uart_ex.c **** }
 470:smtc_bsp/arm/stm32/stm32_hal/STM32L0xx_HAL_Driver/Src/stm32l0xx_hal_uart_ex.c **** 
 471:smtc_bsp/arm/stm32/stm32_hal/STM32L0xx_HAL_Driver/Src/stm32l0xx_hal_uart_ex.c **** 
 472:smtc_bsp/arm/stm32/stm32_hal/STM32L0xx_HAL_Driver/Src/stm32l0xx_hal_uart_ex.c **** /**
 473:smtc_bsp/arm/stm32/stm32_hal/STM32L0xx_HAL_Driver/Src/stm32l0xx_hal_uart_ex.c ****   * @}
 474:smtc_bsp/arm/stm32/stm32_hal/STM32L0xx_HAL_Driver/Src/stm32l0xx_hal_uart_ex.c ****   */
 475:smtc_bsp/arm/stm32/stm32_hal/STM32L0xx_HAL_Driver/Src/stm32l0xx_hal_uart_ex.c **** 
 476:smtc_bsp/arm/stm32/stm32_hal/STM32L0xx_HAL_Driver/Src/stm32l0xx_hal_uart_ex.c **** /**
 477:smtc_bsp/arm/stm32/stm32_hal/STM32L0xx_HAL_Driver/Src/stm32l0xx_hal_uart_ex.c ****   * @}
 478:smtc_bsp/arm/stm32/stm32_hal/STM32L0xx_HAL_Driver/Src/stm32l0xx_hal_uart_ex.c ****   */
 479:smtc_bsp/arm/stm32/stm32_hal/STM32L0xx_HAL_Driver/Src/stm32l0xx_hal_uart_ex.c **** 
 480:smtc_bsp/arm/stm32/stm32_hal/STM32L0xx_HAL_Driver/Src/stm32l0xx_hal_uart_ex.c **** /** @addtogroup UARTEx_Private_Functions
 481:smtc_bsp/arm/stm32/stm32_hal/STM32L0xx_HAL_Driver/Src/stm32l0xx_hal_uart_ex.c ****   * @{
 482:smtc_bsp/arm/stm32/stm32_hal/STM32L0xx_HAL_Driver/Src/stm32l0xx_hal_uart_ex.c ****   */
 483:smtc_bsp/arm/stm32/stm32_hal/STM32L0xx_HAL_Driver/Src/stm32l0xx_hal_uart_ex.c **** 
 484:smtc_bsp/arm/stm32/stm32_hal/STM32L0xx_HAL_Driver/Src/stm32l0xx_hal_uart_ex.c **** /**
 485:smtc_bsp/arm/stm32/stm32_hal/STM32L0xx_HAL_Driver/Src/stm32l0xx_hal_uart_ex.c ****   * @brief Initialize the UART wake-up from stop mode parameters when triggered by address detectio
 486:smtc_bsp/arm/stm32/stm32_hal/STM32L0xx_HAL_Driver/Src/stm32l0xx_hal_uart_ex.c ****   * @param huart           UART handle.
 487:smtc_bsp/arm/stm32/stm32_hal/STM32L0xx_HAL_Driver/Src/stm32l0xx_hal_uart_ex.c ****   * @param WakeUpSelection UART wake up from stop mode parameters.
 488:smtc_bsp/arm/stm32/stm32_hal/STM32L0xx_HAL_Driver/Src/stm32l0xx_hal_uart_ex.c ****   * @retval None
 489:smtc_bsp/arm/stm32/stm32_hal/STM32L0xx_HAL_Driver/Src/stm32l0xx_hal_uart_ex.c ****   */
 490:smtc_bsp/arm/stm32/stm32_hal/STM32L0xx_HAL_Driver/Src/stm32l0xx_hal_uart_ex.c **** static void UARTEx_Wakeup_AddressConfig(UART_HandleTypeDef *huart, UART_WakeUpTypeDef WakeUpSelecti
 491:smtc_bsp/arm/stm32/stm32_hal/STM32L0xx_HAL_Driver/Src/stm32l0xx_hal_uart_ex.c **** {
 492:smtc_bsp/arm/stm32/stm32_hal/STM32L0xx_HAL_Driver/Src/stm32l0xx_hal_uart_ex.c ****   assert_param(IS_UART_ADDRESSLENGTH_DETECT(WakeUpSelection.AddressLength));
 493:smtc_bsp/arm/stm32/stm32_hal/STM32L0xx_HAL_Driver/Src/stm32l0xx_hal_uart_ex.c **** 
 494:smtc_bsp/arm/stm32/stm32_hal/STM32L0xx_HAL_Driver/Src/stm32l0xx_hal_uart_ex.c ****   /* Set the USART address length */
 495:smtc_bsp/arm/stm32/stm32_hal/STM32L0xx_HAL_Driver/Src/stm32l0xx_hal_uart_ex.c ****   MODIFY_REG(huart->Instance->CR2, USART_CR2_ADDM7, WakeUpSelection.AddressLength);
 456              		.loc 1 495 3 is_stmt 0 view .LVU132
 457 0034 1022     		movs	r2, #16
 458 0036 5968     		ldr	r1, [r3, #4]
 459              	.LVL28:
 460              		.loc 1 495 3 view .LVU133
 461              	.LBE5:
 462              	.LBE4:
 406:smtc_bsp/arm/stm32/stm32_hal/STM32L0xx_HAL_Driver/Src/stm32l0xx_hal_uart_ex.c ****   }
 463              		.loc 1 406 5 view .LVU134
 464 0038 B079     		ldrb	r0, [r6, #6]
 465              	.LVL29:
 466              	.LBB7:
 467              	.LBI4:
 490:smtc_bsp/arm/stm32/stm32_hal/STM32L0xx_HAL_Driver/Src/stm32l0xx_hal_uart_ex.c **** {
 468              		.loc 1 490 13 is_stmt 1 view .LVU135
 469              	.LBB6:
 492:smtc_bsp/arm/stm32/stm32_hal/STM32L0xx_HAL_Driver/Src/stm32l0xx_hal_uart_ex.c **** 
 470              		.loc 1 492 3 view .LVU136
 471              		.loc 1 495 3 view .LVU137
 472 003a 9143     		bics	r1, r2
 473 003c B288     		ldrh	r2, [r6, #4]
 496:smtc_bsp/arm/stm32/stm32_hal/STM32L0xx_HAL_Driver/Src/stm32l0xx_hal_uart_ex.c **** 
 497:smtc_bsp/arm/stm32/stm32_hal/STM32L0xx_HAL_Driver/Src/stm32l0xx_hal_uart_ex.c ****   /* Set the USART address node */
 498:smtc_bsp/arm/stm32/stm32_hal/STM32L0xx_HAL_Driver/Src/stm32l0xx_hal_uart_ex.c ****   MODIFY_REG(huart->Instance->CR2, USART_CR2_ADD, ((uint32_t)WakeUpSelection.Address << UART_CR2_AD
 474              		.loc 1 498 3 is_stmt 0 view .LVU138
 475 003e 0006     		lsls	r0, r0, #24
 495:smtc_bsp/arm/stm32/stm32_hal/STM32L0xx_HAL_Driver/Src/stm32l0xx_hal_uart_ex.c **** 
 476              		.loc 1 495 3 view .LVU139
 477 0040 1143     		orrs	r1, r2
ARM GAS  /var/folders/bq/yv49bw8j2kd6w3hsq868qv180000gn/T//ccUNGOs3.s 			page 19


 478 0042 5960     		str	r1, [r3, #4]
 479              		.loc 1 498 3 is_stmt 1 view .LVU140
 480 0044 5A68     		ldr	r2, [r3, #4]
 481 0046 1202     		lsls	r2, r2, #8
 482 0048 120A     		lsrs	r2, r2, #8
 483 004a 0243     		orrs	r2, r0
 484 004c 5A60     		str	r2, [r3, #4]
 485              	.LVL30:
 486              	.L29:
 487              		.loc 1 498 3 is_stmt 0 view .LVU141
 488              	.LBE6:
 489              	.LBE7:
 410:smtc_bsp/arm/stm32/stm32_hal/STM32L0xx_HAL_Driver/Src/stm32l0xx_hal_uart_ex.c **** 
 490              		.loc 1 410 3 is_stmt 1 view .LVU142
 491 004e 0122     		movs	r2, #1
 492 0050 1968     		ldr	r1, [r3]
 493 0052 0A43     		orrs	r2, r1
 494 0054 1A60     		str	r2, [r3]
 413:smtc_bsp/arm/stm32/stm32_hal/STM32L0xx_HAL_Driver/Src/stm32l0xx_hal_uart_ex.c **** 
 495              		.loc 1 413 3 view .LVU143
 413:smtc_bsp/arm/stm32/stm32_hal/STM32L0xx_HAL_Driver/Src/stm32l0xx_hal_uart_ex.c **** 
 496              		.loc 1 413 15 is_stmt 0 view .LVU144
 497 0056 FFF7FEFF 		bl	HAL_GetTick
 498              	.LVL31:
 416:smtc_bsp/arm/stm32/stm32_hal/STM32L0xx_HAL_Driver/Src/stm32l0xx_hal_uart_ex.c ****   {
 499              		.loc 1 416 7 view .LVU145
 500 005a 8021     		movs	r1, #128
 501 005c 094A     		ldr	r2, .L33+4
 413:smtc_bsp/arm/stm32/stm32_hal/STM32L0xx_HAL_Driver/Src/stm32l0xx_hal_uart_ex.c **** 
 502              		.loc 1 413 15 view .LVU146
 503 005e 0300     		movs	r3, r0
 504              	.LVL32:
 416:smtc_bsp/arm/stm32/stm32_hal/STM32L0xx_HAL_Driver/Src/stm32l0xx_hal_uart_ex.c ****   {
 505              		.loc 1 416 3 is_stmt 1 view .LVU147
 416:smtc_bsp/arm/stm32/stm32_hal/STM32L0xx_HAL_Driver/Src/stm32l0xx_hal_uart_ex.c ****   {
 506              		.loc 1 416 7 is_stmt 0 view .LVU148
 507 0060 0092     		str	r2, [sp]
 508 0062 2000     		movs	r0, r4
 509              	.LVL33:
 416:smtc_bsp/arm/stm32/stm32_hal/STM32L0xx_HAL_Driver/Src/stm32l0xx_hal_uart_ex.c ****   {
 510              		.loc 1 416 7 view .LVU149
 511 0064 0022     		movs	r2, #0
 512 0066 C903     		lsls	r1, r1, #15
 513 0068 FFF7FEFF 		bl	UART_WaitOnFlagUntilTimeout
 514              	.LVL34:
 416:smtc_bsp/arm/stm32/stm32_hal/STM32L0xx_HAL_Driver/Src/stm32l0xx_hal_uart_ex.c ****   {
 515              		.loc 1 416 6 view .LVU150
 516 006c 0028     		cmp	r0, #0
 517 006e 05D1     		bne	.L32
 423:smtc_bsp/arm/stm32/stm32_hal/STM32L0xx_HAL_Driver/Src/stm32l0xx_hal_uart_ex.c ****   }
 518              		.loc 1 423 5 is_stmt 1 view .LVU151
 423:smtc_bsp/arm/stm32/stm32_hal/STM32L0xx_HAL_Driver/Src/stm32l0xx_hal_uart_ex.c ****   }
 519              		.loc 1 423 19 is_stmt 0 view .LVU152
 520 0070 2023     		movs	r3, #32
 521 0072 6367     		str	r3, [r4, #116]
 522              	.L30:
 523              	.LVL35:
ARM GAS  /var/folders/bq/yv49bw8j2kd6w3hsq868qv180000gn/T//ccUNGOs3.s 			page 20


 427:smtc_bsp/arm/stm32/stm32_hal/STM32L0xx_HAL_Driver/Src/stm32l0xx_hal_uart_ex.c **** 
 524              		.loc 1 427 3 is_stmt 1 view .LVU153
 427:smtc_bsp/arm/stm32/stm32_hal/STM32L0xx_HAL_Driver/Src/stm32l0xx_hal_uart_ex.c **** 
 525              		.loc 1 427 3 view .LVU154
 526 0074 0023     		movs	r3, #0
 527 0076 2B70     		strb	r3, [r5]
 427:smtc_bsp/arm/stm32/stm32_hal/STM32L0xx_HAL_Driver/Src/stm32l0xx_hal_uart_ex.c **** 
 528              		.loc 1 427 3 view .LVU155
 429:smtc_bsp/arm/stm32/stm32_hal/STM32L0xx_HAL_Driver/Src/stm32l0xx_hal_uart_ex.c **** }
 529              		.loc 1 429 3 view .LVU156
 530              	.LVL36:
 531              	.L28:
 430:smtc_bsp/arm/stm32/stm32_hal/STM32L0xx_HAL_Driver/Src/stm32l0xx_hal_uart_ex.c **** 
 532              		.loc 1 430 1 is_stmt 0 view .LVU157
 533 0078 04B0     		add	sp, sp, #16
 534              		@ sp needed
 535              	.LVL37:
 536              	.LVL38:
 537              	.LVL39:
 430:smtc_bsp/arm/stm32/stm32_hal/STM32L0xx_HAL_Driver/Src/stm32l0xx_hal_uart_ex.c **** 
 538              		.loc 1 430 1 view .LVU158
 539 007a 70BD     		pop	{r4, r5, r6, pc}
 540              	.LVL40:
 541              	.L32:
 418:smtc_bsp/arm/stm32/stm32_hal/STM32L0xx_HAL_Driver/Src/stm32l0xx_hal_uart_ex.c ****   }
 542              		.loc 1 418 12 view .LVU159
 543 007c 0320     		movs	r0, #3
 544 007e F9E7     		b	.L30
 545              	.L34:
 546              		.align	2
 547              	.L33:
 548 0080 FFFFCFFF 		.word	-3145729
 549 0084 FFFFFF01 		.word	33554431
 550              		.cfi_endproc
 551              	.LFE52:
 553              		.section	.text.HAL_UARTEx_EnableStopMode,"ax",%progbits
 554              		.align	1
 555              		.global	HAL_UARTEx_EnableStopMode
 556              		.syntax unified
 557              		.code	16
 558              		.thumb_func
 559              		.fpu softvfp
 561              	HAL_UARTEx_EnableStopMode:
 562              	.LVL41:
 563              	.LFB53:
 439:smtc_bsp/arm/stm32/stm32_hal/STM32L0xx_HAL_Driver/Src/stm32l0xx_hal_uart_ex.c ****   /* Process Locked */
 564              		.loc 1 439 1 is_stmt 1 view -0
 565              		.cfi_startproc
 566              		@ args = 0, pretend = 0, frame = 0
 567              		@ frame_needed = 0, uses_anonymous_args = 0
 441:smtc_bsp/arm/stm32/stm32_hal/STM32L0xx_HAL_Driver/Src/stm32l0xx_hal_uart_ex.c **** 
 568              		.loc 1 441 3 view .LVU161
 441:smtc_bsp/arm/stm32/stm32_hal/STM32L0xx_HAL_Driver/Src/stm32l0xx_hal_uart_ex.c **** 
 569              		.loc 1 441 3 view .LVU162
 570 0000 0100     		movs	r1, r0
 571 0002 0223     		movs	r3, #2
 439:smtc_bsp/arm/stm32/stm32_hal/STM32L0xx_HAL_Driver/Src/stm32l0xx_hal_uart_ex.c ****   /* Process Locked */
ARM GAS  /var/folders/bq/yv49bw8j2kd6w3hsq868qv180000gn/T//ccUNGOs3.s 			page 21


 572              		.loc 1 439 1 is_stmt 0 view .LVU163
 573 0004 10B5     		push	{r4, lr}
 574              		.cfi_def_cfa_offset 8
 575              		.cfi_offset 4, -8
 576              		.cfi_offset 14, -4
 441:smtc_bsp/arm/stm32/stm32_hal/STM32L0xx_HAL_Driver/Src/stm32l0xx_hal_uart_ex.c **** 
 577              		.loc 1 441 3 view .LVU164
 578 0006 7031     		adds	r1, r1, #112
 579 0008 0C78     		ldrb	r4, [r1]
 439:smtc_bsp/arm/stm32/stm32_hal/STM32L0xx_HAL_Driver/Src/stm32l0xx_hal_uart_ex.c ****   /* Process Locked */
 580              		.loc 1 439 1 view .LVU165
 581 000a 0200     		movs	r2, r0
 441:smtc_bsp/arm/stm32/stm32_hal/STM32L0xx_HAL_Driver/Src/stm32l0xx_hal_uart_ex.c **** 
 582              		.loc 1 441 3 view .LVU166
 583 000c 1800     		movs	r0, r3
 584              	.LVL42:
 441:smtc_bsp/arm/stm32/stm32_hal/STM32L0xx_HAL_Driver/Src/stm32l0xx_hal_uart_ex.c **** 
 585              		.loc 1 441 3 view .LVU167
 586 000e 012C     		cmp	r4, #1
 587 0010 05D0     		beq	.L36
 441:smtc_bsp/arm/stm32/stm32_hal/STM32L0xx_HAL_Driver/Src/stm32l0xx_hal_uart_ex.c **** 
 588              		.loc 1 441 3 is_stmt 1 discriminator 2 view .LVU168
 441:smtc_bsp/arm/stm32/stm32_hal/STM32L0xx_HAL_Driver/Src/stm32l0xx_hal_uart_ex.c **** 
 589              		.loc 1 441 3 discriminator 2 view .LVU169
 444:smtc_bsp/arm/stm32/stm32_hal/STM32L0xx_HAL_Driver/Src/stm32l0xx_hal_uart_ex.c **** 
 590              		.loc 1 444 3 discriminator 2 view .LVU170
 591 0012 1268     		ldr	r2, [r2]
 592              	.LVL43:
 444:smtc_bsp/arm/stm32/stm32_hal/STM32L0xx_HAL_Driver/Src/stm32l0xx_hal_uart_ex.c **** 
 593              		.loc 1 444 3 is_stmt 0 discriminator 2 view .LVU171
 594 0014 1068     		ldr	r0, [r2]
 595 0016 0343     		orrs	r3, r0
 447:smtc_bsp/arm/stm32/stm32_hal/STM32L0xx_HAL_Driver/Src/stm32l0xx_hal_uart_ex.c **** 
 596              		.loc 1 447 3 discriminator 2 view .LVU172
 597 0018 0020     		movs	r0, #0
 444:smtc_bsp/arm/stm32/stm32_hal/STM32L0xx_HAL_Driver/Src/stm32l0xx_hal_uart_ex.c **** 
 598              		.loc 1 444 3 discriminator 2 view .LVU173
 599 001a 1360     		str	r3, [r2]
 447:smtc_bsp/arm/stm32/stm32_hal/STM32L0xx_HAL_Driver/Src/stm32l0xx_hal_uart_ex.c **** 
 600              		.loc 1 447 3 is_stmt 1 discriminator 2 view .LVU174
 447:smtc_bsp/arm/stm32/stm32_hal/STM32L0xx_HAL_Driver/Src/stm32l0xx_hal_uart_ex.c **** 
 601              		.loc 1 447 3 discriminator 2 view .LVU175
 602 001c 0870     		strb	r0, [r1]
 447:smtc_bsp/arm/stm32/stm32_hal/STM32L0xx_HAL_Driver/Src/stm32l0xx_hal_uart_ex.c **** 
 603              		.loc 1 447 3 discriminator 2 view .LVU176
 449:smtc_bsp/arm/stm32/stm32_hal/STM32L0xx_HAL_Driver/Src/stm32l0xx_hal_uart_ex.c **** }
 604              		.loc 1 449 3 discriminator 2 view .LVU177
 605              	.L36:
 450:smtc_bsp/arm/stm32/stm32_hal/STM32L0xx_HAL_Driver/Src/stm32l0xx_hal_uart_ex.c **** 
 606              		.loc 1 450 1 is_stmt 0 view .LVU178
 607              		@ sp needed
 608 001e 10BD     		pop	{r4, pc}
 609              		.cfi_endproc
 610              	.LFE53:
 612              		.section	.text.HAL_UARTEx_DisableStopMode,"ax",%progbits
 613              		.align	1
 614              		.global	HAL_UARTEx_DisableStopMode
ARM GAS  /var/folders/bq/yv49bw8j2kd6w3hsq868qv180000gn/T//ccUNGOs3.s 			page 22


 615              		.syntax unified
 616              		.code	16
 617              		.thumb_func
 618              		.fpu softvfp
 620              	HAL_UARTEx_DisableStopMode:
 621              	.LVL44:
 622              	.LFB54:
 458:smtc_bsp/arm/stm32/stm32_hal/STM32L0xx_HAL_Driver/Src/stm32l0xx_hal_uart_ex.c ****   /* Process Locked */
 623              		.loc 1 458 1 is_stmt 1 view -0
 624              		.cfi_startproc
 625              		@ args = 0, pretend = 0, frame = 0
 626              		@ frame_needed = 0, uses_anonymous_args = 0
 460:smtc_bsp/arm/stm32/stm32_hal/STM32L0xx_HAL_Driver/Src/stm32l0xx_hal_uart_ex.c **** 
 627              		.loc 1 460 3 view .LVU180
 460:smtc_bsp/arm/stm32/stm32_hal/STM32L0xx_HAL_Driver/Src/stm32l0xx_hal_uart_ex.c **** 
 628              		.loc 1 460 3 view .LVU181
 629 0000 0200     		movs	r2, r0
 458:smtc_bsp/arm/stm32/stm32_hal/STM32L0xx_HAL_Driver/Src/stm32l0xx_hal_uart_ex.c ****   /* Process Locked */
 630              		.loc 1 458 1 is_stmt 0 view .LVU182
 631 0002 10B5     		push	{r4, lr}
 632              		.cfi_def_cfa_offset 8
 633              		.cfi_offset 4, -8
 634              		.cfi_offset 14, -4
 635 0004 0224     		movs	r4, #2
 460:smtc_bsp/arm/stm32/stm32_hal/STM32L0xx_HAL_Driver/Src/stm32l0xx_hal_uart_ex.c **** 
 636              		.loc 1 460 3 view .LVU183
 637 0006 7032     		adds	r2, r2, #112
 638 0008 1178     		ldrb	r1, [r2]
 458:smtc_bsp/arm/stm32/stm32_hal/STM32L0xx_HAL_Driver/Src/stm32l0xx_hal_uart_ex.c ****   /* Process Locked */
 639              		.loc 1 458 1 view .LVU184
 640 000a 0300     		movs	r3, r0
 460:smtc_bsp/arm/stm32/stm32_hal/STM32L0xx_HAL_Driver/Src/stm32l0xx_hal_uart_ex.c **** 
 641              		.loc 1 460 3 view .LVU185
 642 000c 2000     		movs	r0, r4
 643              	.LVL45:
 460:smtc_bsp/arm/stm32/stm32_hal/STM32L0xx_HAL_Driver/Src/stm32l0xx_hal_uart_ex.c **** 
 644              		.loc 1 460 3 view .LVU186
 645 000e 0129     		cmp	r1, #1
 646 0010 05D0     		beq	.L39
 460:smtc_bsp/arm/stm32/stm32_hal/STM32L0xx_HAL_Driver/Src/stm32l0xx_hal_uart_ex.c **** 
 647              		.loc 1 460 3 is_stmt 1 discriminator 2 view .LVU187
 460:smtc_bsp/arm/stm32/stm32_hal/STM32L0xx_HAL_Driver/Src/stm32l0xx_hal_uart_ex.c **** 
 648              		.loc 1 460 3 discriminator 2 view .LVU188
 463:smtc_bsp/arm/stm32/stm32_hal/STM32L0xx_HAL_Driver/Src/stm32l0xx_hal_uart_ex.c **** 
 649              		.loc 1 463 3 discriminator 2 view .LVU189
 466:smtc_bsp/arm/stm32/stm32_hal/STM32L0xx_HAL_Driver/Src/stm32l0xx_hal_uart_ex.c **** 
 650              		.loc 1 466 3 is_stmt 0 discriminator 2 view .LVU190
 651 0012 0020     		movs	r0, #0
 463:smtc_bsp/arm/stm32/stm32_hal/STM32L0xx_HAL_Driver/Src/stm32l0xx_hal_uart_ex.c **** 
 652              		.loc 1 463 3 discriminator 2 view .LVU191
 653 0014 1968     		ldr	r1, [r3]
 654 0016 0B68     		ldr	r3, [r1]
 655              	.LVL46:
 463:smtc_bsp/arm/stm32/stm32_hal/STM32L0xx_HAL_Driver/Src/stm32l0xx_hal_uart_ex.c **** 
 656              		.loc 1 463 3 discriminator 2 view .LVU192
 657 0018 A343     		bics	r3, r4
 658 001a 0B60     		str	r3, [r1]
ARM GAS  /var/folders/bq/yv49bw8j2kd6w3hsq868qv180000gn/T//ccUNGOs3.s 			page 23


 466:smtc_bsp/arm/stm32/stm32_hal/STM32L0xx_HAL_Driver/Src/stm32l0xx_hal_uart_ex.c **** 
 659              		.loc 1 466 3 is_stmt 1 discriminator 2 view .LVU193
 466:smtc_bsp/arm/stm32/stm32_hal/STM32L0xx_HAL_Driver/Src/stm32l0xx_hal_uart_ex.c **** 
 660              		.loc 1 466 3 discriminator 2 view .LVU194
 661 001c 1070     		strb	r0, [r2]
 466:smtc_bsp/arm/stm32/stm32_hal/STM32L0xx_HAL_Driver/Src/stm32l0xx_hal_uart_ex.c **** 
 662              		.loc 1 466 3 discriminator 2 view .LVU195
 468:smtc_bsp/arm/stm32/stm32_hal/STM32L0xx_HAL_Driver/Src/stm32l0xx_hal_uart_ex.c **** }
 663              		.loc 1 468 3 discriminator 2 view .LVU196
 664              	.L39:
 469:smtc_bsp/arm/stm32/stm32_hal/STM32L0xx_HAL_Driver/Src/stm32l0xx_hal_uart_ex.c **** 
 665              		.loc 1 469 1 is_stmt 0 view .LVU197
 666              		@ sp needed
 667 001e 10BD     		pop	{r4, pc}
 668              		.cfi_endproc
 669              	.LFE54:
 671              		.text
 672              	.Letext0:
 673              		.file 2 "/Applications/STM32CubeIDE.app/Contents/Eclipse/plugins/com.st.stm32cube.ide.mcu.external
 674              		.file 3 "/Applications/STM32CubeIDE.app/Contents/Eclipse/plugins/com.st.stm32cube.ide.mcu.external
 675              		.file 4 "user_app/mcu_core/system_stm32l0xx.h"
 676              		.file 5 "user_app/mcu_core/stm32l073xx.h"
 677              		.file 6 "user_app/mcu_core/stm32l0xx.h"
 678              		.file 7 "smtc_bsp/arm/stm32/stm32_hal/STM32L0xx_HAL_Driver/Inc/stm32l0xx_hal_def.h"
 679              		.file 8 "smtc_bsp/arm/stm32/stm32_hal/STM32L0xx_HAL_Driver/Inc/stm32l0xx_hal_dma.h"
 680              		.file 9 "smtc_bsp/arm/stm32/stm32_hal/STM32L0xx_HAL_Driver/Inc/stm32l0xx_hal_uart.h"
 681              		.file 10 "smtc_bsp/arm/stm32/stm32_hal/STM32L0xx_HAL_Driver/Inc/stm32l0xx_hal_uart_ex.h"
 682              		.file 11 "smtc_bsp/arm/stm32/stm32_hal/STM32L0xx_HAL_Driver/Inc/stm32l0xx_hal.h"
ARM GAS  /var/folders/bq/yv49bw8j2kd6w3hsq868qv180000gn/T//ccUNGOs3.s 			page 24

