ARM GAS  /var/folders/bq/yv49bw8j2kd6w3hsq868qv180000gn/T//ccQg3V4x.s 			page 1


   1              		.cpu cortex-m0plus
   2              		.eabi_attribute 23, 1
   3              		.eabi_attribute 24, 1
   4              		.eabi_attribute 25, 1
   5              		.eabi_attribute 26, 1
   6              		.eabi_attribute 30, 4
   7              		.eabi_attribute 34, 0
   8              		.eabi_attribute 18, 4
   9              		.file	"stm32l0xx_hal_lptim.c"
  10              		.text
  11              	.Ltext0:
  12              		.cfi_sections	.debug_frame
  13              		.section	.text.HAL_LPTIM_MspInit,"ax",%progbits
  14              		.align	1
  15              		.weak	HAL_LPTIM_MspInit
  16              		.arch armv6s-m
  17              		.syntax unified
  18              		.code	16
  19              		.thumb_func
  20              		.fpu softvfp
  22              	HAL_LPTIM_MspInit:
  23              	.LVL0:
  24              	.LFB49:
  25              		.file 1 "smtc_bsp/arm/stm32/stm32_hal/STM32L0xx_HAL_Driver/Src/stm32l0xx_hal_lptim.c"
   1:smtc_bsp/arm/stm32/stm32_hal/STM32L0xx_HAL_Driver/Src/stm32l0xx_hal_lptim.c **** /**
   2:smtc_bsp/arm/stm32/stm32_hal/STM32L0xx_HAL_Driver/Src/stm32l0xx_hal_lptim.c ****   ******************************************************************************
   3:smtc_bsp/arm/stm32/stm32_hal/STM32L0xx_HAL_Driver/Src/stm32l0xx_hal_lptim.c ****   * @file    stm32l0xx_hal_lptim.c
   4:smtc_bsp/arm/stm32/stm32_hal/STM32L0xx_HAL_Driver/Src/stm32l0xx_hal_lptim.c ****   * @author  MCD Application Team
   5:smtc_bsp/arm/stm32/stm32_hal/STM32L0xx_HAL_Driver/Src/stm32l0xx_hal_lptim.c ****   * @brief   LPTIM HAL module driver.
   6:smtc_bsp/arm/stm32/stm32_hal/STM32L0xx_HAL_Driver/Src/stm32l0xx_hal_lptim.c ****   *          This file provides firmware functions to manage the following
   7:smtc_bsp/arm/stm32/stm32_hal/STM32L0xx_HAL_Driver/Src/stm32l0xx_hal_lptim.c ****   *          functionalities of the Low Power Timer (LPTIM) peripheral:
   8:smtc_bsp/arm/stm32/stm32_hal/STM32L0xx_HAL_Driver/Src/stm32l0xx_hal_lptim.c ****   *           + Initialization and de-initialization functions.
   9:smtc_bsp/arm/stm32/stm32_hal/STM32L0xx_HAL_Driver/Src/stm32l0xx_hal_lptim.c ****   *           + Start/Stop operation functions in polling mode.
  10:smtc_bsp/arm/stm32/stm32_hal/STM32L0xx_HAL_Driver/Src/stm32l0xx_hal_lptim.c ****   *           + Start/Stop operation functions in interrupt mode.
  11:smtc_bsp/arm/stm32/stm32_hal/STM32L0xx_HAL_Driver/Src/stm32l0xx_hal_lptim.c ****   *           + Reading operation functions.
  12:smtc_bsp/arm/stm32/stm32_hal/STM32L0xx_HAL_Driver/Src/stm32l0xx_hal_lptim.c ****   *           + Peripheral State functions.
  13:smtc_bsp/arm/stm32/stm32_hal/STM32L0xx_HAL_Driver/Src/stm32l0xx_hal_lptim.c ****   *
  14:smtc_bsp/arm/stm32/stm32_hal/STM32L0xx_HAL_Driver/Src/stm32l0xx_hal_lptim.c ****   @verbatim
  15:smtc_bsp/arm/stm32/stm32_hal/STM32L0xx_HAL_Driver/Src/stm32l0xx_hal_lptim.c ****   ==============================================================================
  16:smtc_bsp/arm/stm32/stm32_hal/STM32L0xx_HAL_Driver/Src/stm32l0xx_hal_lptim.c ****                      ##### How to use this driver #####
  17:smtc_bsp/arm/stm32/stm32_hal/STM32L0xx_HAL_Driver/Src/stm32l0xx_hal_lptim.c ****   ==============================================================================
  18:smtc_bsp/arm/stm32/stm32_hal/STM32L0xx_HAL_Driver/Src/stm32l0xx_hal_lptim.c ****     [..]
  19:smtc_bsp/arm/stm32/stm32_hal/STM32L0xx_HAL_Driver/Src/stm32l0xx_hal_lptim.c ****       The LPTIM HAL driver can be used as follows:
  20:smtc_bsp/arm/stm32/stm32_hal/STM32L0xx_HAL_Driver/Src/stm32l0xx_hal_lptim.c **** 
  21:smtc_bsp/arm/stm32/stm32_hal/STM32L0xx_HAL_Driver/Src/stm32l0xx_hal_lptim.c ****       (#)Initialize the LPTIM low level resources by implementing the
  22:smtc_bsp/arm/stm32/stm32_hal/STM32L0xx_HAL_Driver/Src/stm32l0xx_hal_lptim.c ****         HAL_LPTIM_MspInit():
  23:smtc_bsp/arm/stm32/stm32_hal/STM32L0xx_HAL_Driver/Src/stm32l0xx_hal_lptim.c ****          (++) Enable the LPTIM interface clock using __HAL_RCC_LPTIMx_CLK_ENABLE().
  24:smtc_bsp/arm/stm32/stm32_hal/STM32L0xx_HAL_Driver/Src/stm32l0xx_hal_lptim.c ****          (++) In case of using interrupts (e.g. HAL_LPTIM_PWM_Start_IT()):
  25:smtc_bsp/arm/stm32/stm32_hal/STM32L0xx_HAL_Driver/Src/stm32l0xx_hal_lptim.c ****              (+++) Configure the LPTIM interrupt priority using HAL_NVIC_SetPriority().
  26:smtc_bsp/arm/stm32/stm32_hal/STM32L0xx_HAL_Driver/Src/stm32l0xx_hal_lptim.c ****              (+++) Enable the LPTIM IRQ handler using HAL_NVIC_EnableIRQ().
  27:smtc_bsp/arm/stm32/stm32_hal/STM32L0xx_HAL_Driver/Src/stm32l0xx_hal_lptim.c ****              (+++) In LPTIM IRQ handler, call HAL_LPTIM_IRQHandler().
  28:smtc_bsp/arm/stm32/stm32_hal/STM32L0xx_HAL_Driver/Src/stm32l0xx_hal_lptim.c **** 
  29:smtc_bsp/arm/stm32/stm32_hal/STM32L0xx_HAL_Driver/Src/stm32l0xx_hal_lptim.c ****       (#)Initialize the LPTIM HAL using HAL_LPTIM_Init(). This function
  30:smtc_bsp/arm/stm32/stm32_hal/STM32L0xx_HAL_Driver/Src/stm32l0xx_hal_lptim.c ****          configures mainly:
  31:smtc_bsp/arm/stm32/stm32_hal/STM32L0xx_HAL_Driver/Src/stm32l0xx_hal_lptim.c ****          (++) The instance: LPTIM1.
  32:smtc_bsp/arm/stm32/stm32_hal/STM32L0xx_HAL_Driver/Src/stm32l0xx_hal_lptim.c ****          (++) Clock: the counter clock.
  33:smtc_bsp/arm/stm32/stm32_hal/STM32L0xx_HAL_Driver/Src/stm32l0xx_hal_lptim.c ****              (+++) Source   : it can be either the ULPTIM input (IN1) or one of
ARM GAS  /var/folders/bq/yv49bw8j2kd6w3hsq868qv180000gn/T//ccQg3V4x.s 			page 2


  34:smtc_bsp/arm/stm32/stm32_hal/STM32L0xx_HAL_Driver/Src/stm32l0xx_hal_lptim.c ****                               the internal clock; (APB, LSE, LSI or MSI).
  35:smtc_bsp/arm/stm32/stm32_hal/STM32L0xx_HAL_Driver/Src/stm32l0xx_hal_lptim.c ****              (+++) Prescaler: select the clock divider.
  36:smtc_bsp/arm/stm32/stm32_hal/STM32L0xx_HAL_Driver/Src/stm32l0xx_hal_lptim.c ****          (++)  UltraLowPowerClock : To be used only if the ULPTIM is selected
  37:smtc_bsp/arm/stm32/stm32_hal/STM32L0xx_HAL_Driver/Src/stm32l0xx_hal_lptim.c ****                as counter clock source.
  38:smtc_bsp/arm/stm32/stm32_hal/STM32L0xx_HAL_Driver/Src/stm32l0xx_hal_lptim.c ****              (+++) Polarity:   polarity of the active edge for the counter unit
  39:smtc_bsp/arm/stm32/stm32_hal/STM32L0xx_HAL_Driver/Src/stm32l0xx_hal_lptim.c ****                                if the ULPTIM input is selected.
  40:smtc_bsp/arm/stm32/stm32_hal/STM32L0xx_HAL_Driver/Src/stm32l0xx_hal_lptim.c ****              (+++) SampleTime: clock sampling time to configure the clock glitch
  41:smtc_bsp/arm/stm32/stm32_hal/STM32L0xx_HAL_Driver/Src/stm32l0xx_hal_lptim.c ****                                filter.
  42:smtc_bsp/arm/stm32/stm32_hal/STM32L0xx_HAL_Driver/Src/stm32l0xx_hal_lptim.c ****          (++) Trigger: How the counter start.
  43:smtc_bsp/arm/stm32/stm32_hal/STM32L0xx_HAL_Driver/Src/stm32l0xx_hal_lptim.c ****              (+++) Source: trigger can be software or one of the hardware triggers.
  44:smtc_bsp/arm/stm32/stm32_hal/STM32L0xx_HAL_Driver/Src/stm32l0xx_hal_lptim.c ****              (+++) ActiveEdge : only for hardware trigger.
  45:smtc_bsp/arm/stm32/stm32_hal/STM32L0xx_HAL_Driver/Src/stm32l0xx_hal_lptim.c ****              (+++) SampleTime : trigger sampling time to configure the trigger
  46:smtc_bsp/arm/stm32/stm32_hal/STM32L0xx_HAL_Driver/Src/stm32l0xx_hal_lptim.c ****                                 glitch filter.
  47:smtc_bsp/arm/stm32/stm32_hal/STM32L0xx_HAL_Driver/Src/stm32l0xx_hal_lptim.c ****          (++) OutputPolarity : 2 opposite polarities are possible.
  48:smtc_bsp/arm/stm32/stm32_hal/STM32L0xx_HAL_Driver/Src/stm32l0xx_hal_lptim.c ****          (++) UpdateMode: specifies whether the update of the autoreload and
  49:smtc_bsp/arm/stm32/stm32_hal/STM32L0xx_HAL_Driver/Src/stm32l0xx_hal_lptim.c ****               the compare values is done immediately or after the end of current
  50:smtc_bsp/arm/stm32/stm32_hal/STM32L0xx_HAL_Driver/Src/stm32l0xx_hal_lptim.c ****               period.
  51:smtc_bsp/arm/stm32/stm32_hal/STM32L0xx_HAL_Driver/Src/stm32l0xx_hal_lptim.c **** 
  52:smtc_bsp/arm/stm32/stm32_hal/STM32L0xx_HAL_Driver/Src/stm32l0xx_hal_lptim.c ****       (#)Six modes are available:
  53:smtc_bsp/arm/stm32/stm32_hal/STM32L0xx_HAL_Driver/Src/stm32l0xx_hal_lptim.c **** 
  54:smtc_bsp/arm/stm32/stm32_hal/STM32L0xx_HAL_Driver/Src/stm32l0xx_hal_lptim.c ****          (++) PWM Mode: To generate a PWM signal with specified period and pulse,
  55:smtc_bsp/arm/stm32/stm32_hal/STM32L0xx_HAL_Driver/Src/stm32l0xx_hal_lptim.c ****          call HAL_LPTIM_PWM_Start() or HAL_LPTIM_PWM_Start_IT() for interruption
  56:smtc_bsp/arm/stm32/stm32_hal/STM32L0xx_HAL_Driver/Src/stm32l0xx_hal_lptim.c ****          mode.
  57:smtc_bsp/arm/stm32/stm32_hal/STM32L0xx_HAL_Driver/Src/stm32l0xx_hal_lptim.c **** 
  58:smtc_bsp/arm/stm32/stm32_hal/STM32L0xx_HAL_Driver/Src/stm32l0xx_hal_lptim.c ****          (++) One Pulse Mode: To generate pulse with specified width in response
  59:smtc_bsp/arm/stm32/stm32_hal/STM32L0xx_HAL_Driver/Src/stm32l0xx_hal_lptim.c ****          to a stimulus, call HAL_LPTIM_OnePulse_Start() or
  60:smtc_bsp/arm/stm32/stm32_hal/STM32L0xx_HAL_Driver/Src/stm32l0xx_hal_lptim.c ****          HAL_LPTIM_OnePulse_Start_IT() for interruption mode.
  61:smtc_bsp/arm/stm32/stm32_hal/STM32L0xx_HAL_Driver/Src/stm32l0xx_hal_lptim.c **** 
  62:smtc_bsp/arm/stm32/stm32_hal/STM32L0xx_HAL_Driver/Src/stm32l0xx_hal_lptim.c ****          (++) Set once Mode: In this mode, the output changes the level (from
  63:smtc_bsp/arm/stm32/stm32_hal/STM32L0xx_HAL_Driver/Src/stm32l0xx_hal_lptim.c ****          low level to high level if the output polarity is configured high, else
  64:smtc_bsp/arm/stm32/stm32_hal/STM32L0xx_HAL_Driver/Src/stm32l0xx_hal_lptim.c ****          the opposite) when a compare match occurs. To start this mode, call
  65:smtc_bsp/arm/stm32/stm32_hal/STM32L0xx_HAL_Driver/Src/stm32l0xx_hal_lptim.c ****          HAL_LPTIM_SetOnce_Start() or HAL_LPTIM_SetOnce_Start_IT() for
  66:smtc_bsp/arm/stm32/stm32_hal/STM32L0xx_HAL_Driver/Src/stm32l0xx_hal_lptim.c ****          interruption mode.
  67:smtc_bsp/arm/stm32/stm32_hal/STM32L0xx_HAL_Driver/Src/stm32l0xx_hal_lptim.c **** 
  68:smtc_bsp/arm/stm32/stm32_hal/STM32L0xx_HAL_Driver/Src/stm32l0xx_hal_lptim.c ****          (++) Encoder Mode: To use the encoder interface call
  69:smtc_bsp/arm/stm32/stm32_hal/STM32L0xx_HAL_Driver/Src/stm32l0xx_hal_lptim.c ****          HAL_LPTIM_Encoder_Start() or HAL_LPTIM_Encoder_Start_IT() for
  70:smtc_bsp/arm/stm32/stm32_hal/STM32L0xx_HAL_Driver/Src/stm32l0xx_hal_lptim.c ****          interruption mode. Only available for LPTIM1 instance.
  71:smtc_bsp/arm/stm32/stm32_hal/STM32L0xx_HAL_Driver/Src/stm32l0xx_hal_lptim.c **** 
  72:smtc_bsp/arm/stm32/stm32_hal/STM32L0xx_HAL_Driver/Src/stm32l0xx_hal_lptim.c ****          (++) Time out Mode: an active edge on one selected trigger input rests
  73:smtc_bsp/arm/stm32/stm32_hal/STM32L0xx_HAL_Driver/Src/stm32l0xx_hal_lptim.c ****          the counter. The first trigger event will start the timer, any
  74:smtc_bsp/arm/stm32/stm32_hal/STM32L0xx_HAL_Driver/Src/stm32l0xx_hal_lptim.c ****          successive trigger event will reset the counter and the timer will
  75:smtc_bsp/arm/stm32/stm32_hal/STM32L0xx_HAL_Driver/Src/stm32l0xx_hal_lptim.c ****          restart. To start this mode call HAL_LPTIM_TimeOut_Start_IT() or
  76:smtc_bsp/arm/stm32/stm32_hal/STM32L0xx_HAL_Driver/Src/stm32l0xx_hal_lptim.c ****          HAL_LPTIM_TimeOut_Start_IT() for interruption mode.
  77:smtc_bsp/arm/stm32/stm32_hal/STM32L0xx_HAL_Driver/Src/stm32l0xx_hal_lptim.c **** 
  78:smtc_bsp/arm/stm32/stm32_hal/STM32L0xx_HAL_Driver/Src/stm32l0xx_hal_lptim.c ****          (++) Counter Mode: counter can be used to count external events on
  79:smtc_bsp/arm/stm32/stm32_hal/STM32L0xx_HAL_Driver/Src/stm32l0xx_hal_lptim.c ****          the LPTIM Input1 or it can be used to count internal clock cycles.
  80:smtc_bsp/arm/stm32/stm32_hal/STM32L0xx_HAL_Driver/Src/stm32l0xx_hal_lptim.c ****          To start this mode, call HAL_LPTIM_Counter_Start() or
  81:smtc_bsp/arm/stm32/stm32_hal/STM32L0xx_HAL_Driver/Src/stm32l0xx_hal_lptim.c ****          HAL_LPTIM_Counter_Start_IT() for interruption mode.
  82:smtc_bsp/arm/stm32/stm32_hal/STM32L0xx_HAL_Driver/Src/stm32l0xx_hal_lptim.c **** 
  83:smtc_bsp/arm/stm32/stm32_hal/STM32L0xx_HAL_Driver/Src/stm32l0xx_hal_lptim.c **** 
  84:smtc_bsp/arm/stm32/stm32_hal/STM32L0xx_HAL_Driver/Src/stm32l0xx_hal_lptim.c ****       (#) User can stop any process by calling the corresponding API:
  85:smtc_bsp/arm/stm32/stm32_hal/STM32L0xx_HAL_Driver/Src/stm32l0xx_hal_lptim.c ****           HAL_LPTIM_Xxx_Stop() or HAL_LPTIM_Xxx_Stop_IT() if the process is
  86:smtc_bsp/arm/stm32/stm32_hal/STM32L0xx_HAL_Driver/Src/stm32l0xx_hal_lptim.c ****           already started in interruption mode.
  87:smtc_bsp/arm/stm32/stm32_hal/STM32L0xx_HAL_Driver/Src/stm32l0xx_hal_lptim.c **** 
  88:smtc_bsp/arm/stm32/stm32_hal/STM32L0xx_HAL_Driver/Src/stm32l0xx_hal_lptim.c ****       (#) De-initialize the LPTIM peripheral using HAL_LPTIM_DeInit().
  89:smtc_bsp/arm/stm32/stm32_hal/STM32L0xx_HAL_Driver/Src/stm32l0xx_hal_lptim.c **** 
  90:smtc_bsp/arm/stm32/stm32_hal/STM32L0xx_HAL_Driver/Src/stm32l0xx_hal_lptim.c ****     *** Callback registration ***
ARM GAS  /var/folders/bq/yv49bw8j2kd6w3hsq868qv180000gn/T//ccQg3V4x.s 			page 3


  91:smtc_bsp/arm/stm32/stm32_hal/STM32L0xx_HAL_Driver/Src/stm32l0xx_hal_lptim.c ****   =============================================
  92:smtc_bsp/arm/stm32/stm32_hal/STM32L0xx_HAL_Driver/Src/stm32l0xx_hal_lptim.c **** 
  93:smtc_bsp/arm/stm32/stm32_hal/STM32L0xx_HAL_Driver/Src/stm32l0xx_hal_lptim.c ****   The compilation define  USE_HAL_LPTIM_REGISTER_CALLBACKS when set to 1
  94:smtc_bsp/arm/stm32/stm32_hal/STM32L0xx_HAL_Driver/Src/stm32l0xx_hal_lptim.c ****   allows the user to configure dynamically the driver callbacks.
  95:smtc_bsp/arm/stm32/stm32_hal/STM32L0xx_HAL_Driver/Src/stm32l0xx_hal_lptim.c **** 
  96:smtc_bsp/arm/stm32/stm32_hal/STM32L0xx_HAL_Driver/Src/stm32l0xx_hal_lptim.c ****   Use Function @ref HAL_LPTIM_RegisterCallback() to register a callback.
  97:smtc_bsp/arm/stm32/stm32_hal/STM32L0xx_HAL_Driver/Src/stm32l0xx_hal_lptim.c ****   @ref HAL_LPTIM_RegisterCallback() takes as parameters the HAL peripheral handle,
  98:smtc_bsp/arm/stm32/stm32_hal/STM32L0xx_HAL_Driver/Src/stm32l0xx_hal_lptim.c ****   the Callback ID and a pointer to the user callback function.
  99:smtc_bsp/arm/stm32/stm32_hal/STM32L0xx_HAL_Driver/Src/stm32l0xx_hal_lptim.c **** 
 100:smtc_bsp/arm/stm32/stm32_hal/STM32L0xx_HAL_Driver/Src/stm32l0xx_hal_lptim.c ****   Use function @ref HAL_LPTIM_UnRegisterCallback() to reset a callback to the
 101:smtc_bsp/arm/stm32/stm32_hal/STM32L0xx_HAL_Driver/Src/stm32l0xx_hal_lptim.c ****   default weak function.
 102:smtc_bsp/arm/stm32/stm32_hal/STM32L0xx_HAL_Driver/Src/stm32l0xx_hal_lptim.c ****   @ref HAL_LPTIM_UnRegisterCallback takes as parameters the HAL peripheral handle,
 103:smtc_bsp/arm/stm32/stm32_hal/STM32L0xx_HAL_Driver/Src/stm32l0xx_hal_lptim.c ****   and the Callback ID.
 104:smtc_bsp/arm/stm32/stm32_hal/STM32L0xx_HAL_Driver/Src/stm32l0xx_hal_lptim.c **** 
 105:smtc_bsp/arm/stm32/stm32_hal/STM32L0xx_HAL_Driver/Src/stm32l0xx_hal_lptim.c ****   These functions allow to register/unregister following callbacks:
 106:smtc_bsp/arm/stm32/stm32_hal/STM32L0xx_HAL_Driver/Src/stm32l0xx_hal_lptim.c **** 
 107:smtc_bsp/arm/stm32/stm32_hal/STM32L0xx_HAL_Driver/Src/stm32l0xx_hal_lptim.c ****     (+) MspInitCallback         : LPTIM Base Msp Init Callback.
 108:smtc_bsp/arm/stm32/stm32_hal/STM32L0xx_HAL_Driver/Src/stm32l0xx_hal_lptim.c ****     (+) MspDeInitCallback       : LPTIM Base Msp DeInit Callback.
 109:smtc_bsp/arm/stm32/stm32_hal/STM32L0xx_HAL_Driver/Src/stm32l0xx_hal_lptim.c ****     (+) CompareMatchCallback    : Compare match Callback.
 110:smtc_bsp/arm/stm32/stm32_hal/STM32L0xx_HAL_Driver/Src/stm32l0xx_hal_lptim.c ****     (+) AutoReloadMatchCallback : Auto-reload match Callback.
 111:smtc_bsp/arm/stm32/stm32_hal/STM32L0xx_HAL_Driver/Src/stm32l0xx_hal_lptim.c ****     (+) TriggerCallback         : External trigger event detection Callback.
 112:smtc_bsp/arm/stm32/stm32_hal/STM32L0xx_HAL_Driver/Src/stm32l0xx_hal_lptim.c ****     (+) CompareWriteCallback    : Compare register write complete Callback.
 113:smtc_bsp/arm/stm32/stm32_hal/STM32L0xx_HAL_Driver/Src/stm32l0xx_hal_lptim.c ****     (+) AutoReloadWriteCallback : Auto-reload register write complete Callback.
 114:smtc_bsp/arm/stm32/stm32_hal/STM32L0xx_HAL_Driver/Src/stm32l0xx_hal_lptim.c ****     (+) DirectionUpCallback     : Up-counting direction change Callback.
 115:smtc_bsp/arm/stm32/stm32_hal/STM32L0xx_HAL_Driver/Src/stm32l0xx_hal_lptim.c ****     (+) DirectionDownCallback   : Down-counting direction change Callback.
 116:smtc_bsp/arm/stm32/stm32_hal/STM32L0xx_HAL_Driver/Src/stm32l0xx_hal_lptim.c **** 
 117:smtc_bsp/arm/stm32/stm32_hal/STM32L0xx_HAL_Driver/Src/stm32l0xx_hal_lptim.c ****   By default, after the Init and when the state is HAL_LPTIM_STATE_RESET
 118:smtc_bsp/arm/stm32/stm32_hal/STM32L0xx_HAL_Driver/Src/stm32l0xx_hal_lptim.c ****   all interrupt callbacks are set to the corresponding weak functions:
 119:smtc_bsp/arm/stm32/stm32_hal/STM32L0xx_HAL_Driver/Src/stm32l0xx_hal_lptim.c ****   examples @ref HAL_LPTIM_TriggerCallback(), @ref HAL_LPTIM_CompareMatchCallback().
 120:smtc_bsp/arm/stm32/stm32_hal/STM32L0xx_HAL_Driver/Src/stm32l0xx_hal_lptim.c **** 
 121:smtc_bsp/arm/stm32/stm32_hal/STM32L0xx_HAL_Driver/Src/stm32l0xx_hal_lptim.c ****   Exception done for MspInit and MspDeInit functions that are reset to the legacy weak
 122:smtc_bsp/arm/stm32/stm32_hal/STM32L0xx_HAL_Driver/Src/stm32l0xx_hal_lptim.c ****   functionalities in the Init/DeInit only when these callbacks are null
 123:smtc_bsp/arm/stm32/stm32_hal/STM32L0xx_HAL_Driver/Src/stm32l0xx_hal_lptim.c ****   (not registered beforehand). If not, MspInit or MspDeInit are not null, the Init/DeInit
 124:smtc_bsp/arm/stm32/stm32_hal/STM32L0xx_HAL_Driver/Src/stm32l0xx_hal_lptim.c ****   keep and use the user MspInit/MspDeInit callbacks (registered beforehand)
 125:smtc_bsp/arm/stm32/stm32_hal/STM32L0xx_HAL_Driver/Src/stm32l0xx_hal_lptim.c **** 
 126:smtc_bsp/arm/stm32/stm32_hal/STM32L0xx_HAL_Driver/Src/stm32l0xx_hal_lptim.c ****   Callbacks can be registered/unregistered in HAL_LPTIM_STATE_READY state only.
 127:smtc_bsp/arm/stm32/stm32_hal/STM32L0xx_HAL_Driver/Src/stm32l0xx_hal_lptim.c ****   Exception done MspInit/MspDeInit that can be registered/unregistered
 128:smtc_bsp/arm/stm32/stm32_hal/STM32L0xx_HAL_Driver/Src/stm32l0xx_hal_lptim.c ****   in HAL_LPTIM_STATE_READY or HAL_LPTIM_STATE_RESET state,
 129:smtc_bsp/arm/stm32/stm32_hal/STM32L0xx_HAL_Driver/Src/stm32l0xx_hal_lptim.c ****   thus registered (user) MspInit/DeInit callbacks can be used during the Init/DeInit.
 130:smtc_bsp/arm/stm32/stm32_hal/STM32L0xx_HAL_Driver/Src/stm32l0xx_hal_lptim.c ****   In that case first register the MspInit/MspDeInit user callbacks
 131:smtc_bsp/arm/stm32/stm32_hal/STM32L0xx_HAL_Driver/Src/stm32l0xx_hal_lptim.c ****   using @ref HAL_LPTIM_RegisterCallback() before calling DeInit or Init function.
 132:smtc_bsp/arm/stm32/stm32_hal/STM32L0xx_HAL_Driver/Src/stm32l0xx_hal_lptim.c **** 
 133:smtc_bsp/arm/stm32/stm32_hal/STM32L0xx_HAL_Driver/Src/stm32l0xx_hal_lptim.c ****   When The compilation define USE_HAL_LPTIM_REGISTER_CALLBACKS is set to 0 or
 134:smtc_bsp/arm/stm32/stm32_hal/STM32L0xx_HAL_Driver/Src/stm32l0xx_hal_lptim.c ****   not defined, the callback registration feature is not available and all callbacks
 135:smtc_bsp/arm/stm32/stm32_hal/STM32L0xx_HAL_Driver/Src/stm32l0xx_hal_lptim.c ****   are set to the corresponding weak functions.
 136:smtc_bsp/arm/stm32/stm32_hal/STM32L0xx_HAL_Driver/Src/stm32l0xx_hal_lptim.c **** 
 137:smtc_bsp/arm/stm32/stm32_hal/STM32L0xx_HAL_Driver/Src/stm32l0xx_hal_lptim.c ****   @endverbatim
 138:smtc_bsp/arm/stm32/stm32_hal/STM32L0xx_HAL_Driver/Src/stm32l0xx_hal_lptim.c ****   ******************************************************************************
 139:smtc_bsp/arm/stm32/stm32_hal/STM32L0xx_HAL_Driver/Src/stm32l0xx_hal_lptim.c ****     * @attention
 140:smtc_bsp/arm/stm32/stm32_hal/STM32L0xx_HAL_Driver/Src/stm32l0xx_hal_lptim.c ****   *
 141:smtc_bsp/arm/stm32/stm32_hal/STM32L0xx_HAL_Driver/Src/stm32l0xx_hal_lptim.c ****   * <h2><center>&copy; Copyright (c) 2016 STMicroelectronics.
 142:smtc_bsp/arm/stm32/stm32_hal/STM32L0xx_HAL_Driver/Src/stm32l0xx_hal_lptim.c ****   * All rights reserved.</center></h2>
 143:smtc_bsp/arm/stm32/stm32_hal/STM32L0xx_HAL_Driver/Src/stm32l0xx_hal_lptim.c ****   *
 144:smtc_bsp/arm/stm32/stm32_hal/STM32L0xx_HAL_Driver/Src/stm32l0xx_hal_lptim.c ****   * This software component is licensed by ST under BSD 3-Clause license,
 145:smtc_bsp/arm/stm32/stm32_hal/STM32L0xx_HAL_Driver/Src/stm32l0xx_hal_lptim.c ****   * the "License"; You may not use this file except in compliance with the
 146:smtc_bsp/arm/stm32/stm32_hal/STM32L0xx_HAL_Driver/Src/stm32l0xx_hal_lptim.c ****   * License. You may obtain a copy of the License at:
 147:smtc_bsp/arm/stm32/stm32_hal/STM32L0xx_HAL_Driver/Src/stm32l0xx_hal_lptim.c ****   *                        opensource.org/licenses/BSD-3-Clause
ARM GAS  /var/folders/bq/yv49bw8j2kd6w3hsq868qv180000gn/T//ccQg3V4x.s 			page 4


 148:smtc_bsp/arm/stm32/stm32_hal/STM32L0xx_HAL_Driver/Src/stm32l0xx_hal_lptim.c ****   *  ******************************************************************************
 149:smtc_bsp/arm/stm32/stm32_hal/STM32L0xx_HAL_Driver/Src/stm32l0xx_hal_lptim.c ****   */
 150:smtc_bsp/arm/stm32/stm32_hal/STM32L0xx_HAL_Driver/Src/stm32l0xx_hal_lptim.c **** 
 151:smtc_bsp/arm/stm32/stm32_hal/STM32L0xx_HAL_Driver/Src/stm32l0xx_hal_lptim.c **** /* Includes ------------------------------------------------------------------*/
 152:smtc_bsp/arm/stm32/stm32_hal/STM32L0xx_HAL_Driver/Src/stm32l0xx_hal_lptim.c **** #include "stm32l0xx_hal.h"
 153:smtc_bsp/arm/stm32/stm32_hal/STM32L0xx_HAL_Driver/Src/stm32l0xx_hal_lptim.c **** 
 154:smtc_bsp/arm/stm32/stm32_hal/STM32L0xx_HAL_Driver/Src/stm32l0xx_hal_lptim.c **** /** @addtogroup STM32L0xx_HAL_Driver
 155:smtc_bsp/arm/stm32/stm32_hal/STM32L0xx_HAL_Driver/Src/stm32l0xx_hal_lptim.c ****   * @{
 156:smtc_bsp/arm/stm32/stm32_hal/STM32L0xx_HAL_Driver/Src/stm32l0xx_hal_lptim.c ****   */
 157:smtc_bsp/arm/stm32/stm32_hal/STM32L0xx_HAL_Driver/Src/stm32l0xx_hal_lptim.c **** 
 158:smtc_bsp/arm/stm32/stm32_hal/STM32L0xx_HAL_Driver/Src/stm32l0xx_hal_lptim.c **** /** @defgroup LPTIM LPTIM
 159:smtc_bsp/arm/stm32/stm32_hal/STM32L0xx_HAL_Driver/Src/stm32l0xx_hal_lptim.c ****   * @brief LPTIM HAL module driver.
 160:smtc_bsp/arm/stm32/stm32_hal/STM32L0xx_HAL_Driver/Src/stm32l0xx_hal_lptim.c ****   * @{
 161:smtc_bsp/arm/stm32/stm32_hal/STM32L0xx_HAL_Driver/Src/stm32l0xx_hal_lptim.c ****   */
 162:smtc_bsp/arm/stm32/stm32_hal/STM32L0xx_HAL_Driver/Src/stm32l0xx_hal_lptim.c **** 
 163:smtc_bsp/arm/stm32/stm32_hal/STM32L0xx_HAL_Driver/Src/stm32l0xx_hal_lptim.c **** #ifdef HAL_LPTIM_MODULE_ENABLED
 164:smtc_bsp/arm/stm32/stm32_hal/STM32L0xx_HAL_Driver/Src/stm32l0xx_hal_lptim.c **** 
 165:smtc_bsp/arm/stm32/stm32_hal/STM32L0xx_HAL_Driver/Src/stm32l0xx_hal_lptim.c **** #if defined (LPTIM1)
 166:smtc_bsp/arm/stm32/stm32_hal/STM32L0xx_HAL_Driver/Src/stm32l0xx_hal_lptim.c **** 
 167:smtc_bsp/arm/stm32/stm32_hal/STM32L0xx_HAL_Driver/Src/stm32l0xx_hal_lptim.c **** /* Private typedef -----------------------------------------------------------*/
 168:smtc_bsp/arm/stm32/stm32_hal/STM32L0xx_HAL_Driver/Src/stm32l0xx_hal_lptim.c **** /* Private define ------------------------------------------------------------*/
 169:smtc_bsp/arm/stm32/stm32_hal/STM32L0xx_HAL_Driver/Src/stm32l0xx_hal_lptim.c **** /* Private macro -------------------------------------------------------------*/
 170:smtc_bsp/arm/stm32/stm32_hal/STM32L0xx_HAL_Driver/Src/stm32l0xx_hal_lptim.c **** #define TIMEOUT                                     1000UL /* Timeout is 1s */
 171:smtc_bsp/arm/stm32/stm32_hal/STM32L0xx_HAL_Driver/Src/stm32l0xx_hal_lptim.c **** /* Private variables ---------------------------------------------------------*/
 172:smtc_bsp/arm/stm32/stm32_hal/STM32L0xx_HAL_Driver/Src/stm32l0xx_hal_lptim.c **** /* Private function prototypes -----------------------------------------------*/
 173:smtc_bsp/arm/stm32/stm32_hal/STM32L0xx_HAL_Driver/Src/stm32l0xx_hal_lptim.c **** #if (USE_HAL_LPTIM_REGISTER_CALLBACKS == 1)
 174:smtc_bsp/arm/stm32/stm32_hal/STM32L0xx_HAL_Driver/Src/stm32l0xx_hal_lptim.c **** static void LPTIM_ResetCallback(LPTIM_HandleTypeDef *lptim);
 175:smtc_bsp/arm/stm32/stm32_hal/STM32L0xx_HAL_Driver/Src/stm32l0xx_hal_lptim.c **** #endif /* USE_HAL_LPTIM_REGISTER_CALLBACKS */
 176:smtc_bsp/arm/stm32/stm32_hal/STM32L0xx_HAL_Driver/Src/stm32l0xx_hal_lptim.c **** 
 177:smtc_bsp/arm/stm32/stm32_hal/STM32L0xx_HAL_Driver/Src/stm32l0xx_hal_lptim.c **** /* Exported functions --------------------------------------------------------*/
 178:smtc_bsp/arm/stm32/stm32_hal/STM32L0xx_HAL_Driver/Src/stm32l0xx_hal_lptim.c **** 
 179:smtc_bsp/arm/stm32/stm32_hal/STM32L0xx_HAL_Driver/Src/stm32l0xx_hal_lptim.c **** /** @defgroup LPTIM_Exported_Functions LPTIM Exported Functions
 180:smtc_bsp/arm/stm32/stm32_hal/STM32L0xx_HAL_Driver/Src/stm32l0xx_hal_lptim.c ****   * @{
 181:smtc_bsp/arm/stm32/stm32_hal/STM32L0xx_HAL_Driver/Src/stm32l0xx_hal_lptim.c ****   */
 182:smtc_bsp/arm/stm32/stm32_hal/STM32L0xx_HAL_Driver/Src/stm32l0xx_hal_lptim.c **** 
 183:smtc_bsp/arm/stm32/stm32_hal/STM32L0xx_HAL_Driver/Src/stm32l0xx_hal_lptim.c **** /** @defgroup LPTIM_Exported_Functions_Group1 Initialization/de-initialization functions
 184:smtc_bsp/arm/stm32/stm32_hal/STM32L0xx_HAL_Driver/Src/stm32l0xx_hal_lptim.c ****  *  @brief    Initialization and Configuration functions.
 185:smtc_bsp/arm/stm32/stm32_hal/STM32L0xx_HAL_Driver/Src/stm32l0xx_hal_lptim.c ****  *
 186:smtc_bsp/arm/stm32/stm32_hal/STM32L0xx_HAL_Driver/Src/stm32l0xx_hal_lptim.c **** @verbatim
 187:smtc_bsp/arm/stm32/stm32_hal/STM32L0xx_HAL_Driver/Src/stm32l0xx_hal_lptim.c ****   ==============================================================================
 188:smtc_bsp/arm/stm32/stm32_hal/STM32L0xx_HAL_Driver/Src/stm32l0xx_hal_lptim.c ****               ##### Initialization and de-initialization functions #####
 189:smtc_bsp/arm/stm32/stm32_hal/STM32L0xx_HAL_Driver/Src/stm32l0xx_hal_lptim.c ****   ==============================================================================
 190:smtc_bsp/arm/stm32/stm32_hal/STM32L0xx_HAL_Driver/Src/stm32l0xx_hal_lptim.c ****     [..]  This section provides functions allowing to:
 191:smtc_bsp/arm/stm32/stm32_hal/STM32L0xx_HAL_Driver/Src/stm32l0xx_hal_lptim.c ****       (+) Initialize the LPTIM according to the specified parameters in the
 192:smtc_bsp/arm/stm32/stm32_hal/STM32L0xx_HAL_Driver/Src/stm32l0xx_hal_lptim.c ****           LPTIM_InitTypeDef and initialize the associated handle.
 193:smtc_bsp/arm/stm32/stm32_hal/STM32L0xx_HAL_Driver/Src/stm32l0xx_hal_lptim.c ****       (+) DeInitialize the LPTIM peripheral.
 194:smtc_bsp/arm/stm32/stm32_hal/STM32L0xx_HAL_Driver/Src/stm32l0xx_hal_lptim.c ****       (+) Initialize the LPTIM MSP.
 195:smtc_bsp/arm/stm32/stm32_hal/STM32L0xx_HAL_Driver/Src/stm32l0xx_hal_lptim.c ****       (+) DeInitialize the LPTIM MSP.
 196:smtc_bsp/arm/stm32/stm32_hal/STM32L0xx_HAL_Driver/Src/stm32l0xx_hal_lptim.c **** 
 197:smtc_bsp/arm/stm32/stm32_hal/STM32L0xx_HAL_Driver/Src/stm32l0xx_hal_lptim.c **** @endverbatim
 198:smtc_bsp/arm/stm32/stm32_hal/STM32L0xx_HAL_Driver/Src/stm32l0xx_hal_lptim.c ****   * @{
 199:smtc_bsp/arm/stm32/stm32_hal/STM32L0xx_HAL_Driver/Src/stm32l0xx_hal_lptim.c ****   */
 200:smtc_bsp/arm/stm32/stm32_hal/STM32L0xx_HAL_Driver/Src/stm32l0xx_hal_lptim.c **** 
 201:smtc_bsp/arm/stm32/stm32_hal/STM32L0xx_HAL_Driver/Src/stm32l0xx_hal_lptim.c **** /**
 202:smtc_bsp/arm/stm32/stm32_hal/STM32L0xx_HAL_Driver/Src/stm32l0xx_hal_lptim.c ****   * @brief  Initialize the LPTIM according to the specified parameters in the
 203:smtc_bsp/arm/stm32/stm32_hal/STM32L0xx_HAL_Driver/Src/stm32l0xx_hal_lptim.c ****   *         LPTIM_InitTypeDef and initialize the associated handle.
 204:smtc_bsp/arm/stm32/stm32_hal/STM32L0xx_HAL_Driver/Src/stm32l0xx_hal_lptim.c ****   * @param  hlptim LPTIM handle
ARM GAS  /var/folders/bq/yv49bw8j2kd6w3hsq868qv180000gn/T//ccQg3V4x.s 			page 5


 205:smtc_bsp/arm/stm32/stm32_hal/STM32L0xx_HAL_Driver/Src/stm32l0xx_hal_lptim.c ****   * @retval HAL status
 206:smtc_bsp/arm/stm32/stm32_hal/STM32L0xx_HAL_Driver/Src/stm32l0xx_hal_lptim.c ****   */
 207:smtc_bsp/arm/stm32/stm32_hal/STM32L0xx_HAL_Driver/Src/stm32l0xx_hal_lptim.c **** HAL_StatusTypeDef HAL_LPTIM_Init(LPTIM_HandleTypeDef *hlptim)
 208:smtc_bsp/arm/stm32/stm32_hal/STM32L0xx_HAL_Driver/Src/stm32l0xx_hal_lptim.c **** {
 209:smtc_bsp/arm/stm32/stm32_hal/STM32L0xx_HAL_Driver/Src/stm32l0xx_hal_lptim.c ****   uint32_t tmpcfgr;
 210:smtc_bsp/arm/stm32/stm32_hal/STM32L0xx_HAL_Driver/Src/stm32l0xx_hal_lptim.c **** 
 211:smtc_bsp/arm/stm32/stm32_hal/STM32L0xx_HAL_Driver/Src/stm32l0xx_hal_lptim.c ****   /* Check the LPTIM handle allocation */
 212:smtc_bsp/arm/stm32/stm32_hal/STM32L0xx_HAL_Driver/Src/stm32l0xx_hal_lptim.c ****   if (hlptim == NULL)
 213:smtc_bsp/arm/stm32/stm32_hal/STM32L0xx_HAL_Driver/Src/stm32l0xx_hal_lptim.c ****   {
 214:smtc_bsp/arm/stm32/stm32_hal/STM32L0xx_HAL_Driver/Src/stm32l0xx_hal_lptim.c ****     return HAL_ERROR;
 215:smtc_bsp/arm/stm32/stm32_hal/STM32L0xx_HAL_Driver/Src/stm32l0xx_hal_lptim.c ****   }
 216:smtc_bsp/arm/stm32/stm32_hal/STM32L0xx_HAL_Driver/Src/stm32l0xx_hal_lptim.c **** 
 217:smtc_bsp/arm/stm32/stm32_hal/STM32L0xx_HAL_Driver/Src/stm32l0xx_hal_lptim.c ****   /* Check the parameters */
 218:smtc_bsp/arm/stm32/stm32_hal/STM32L0xx_HAL_Driver/Src/stm32l0xx_hal_lptim.c ****   assert_param(IS_LPTIM_INSTANCE(hlptim->Instance));
 219:smtc_bsp/arm/stm32/stm32_hal/STM32L0xx_HAL_Driver/Src/stm32l0xx_hal_lptim.c **** 
 220:smtc_bsp/arm/stm32/stm32_hal/STM32L0xx_HAL_Driver/Src/stm32l0xx_hal_lptim.c ****   assert_param(IS_LPTIM_CLOCK_SOURCE(hlptim->Init.Clock.Source));
 221:smtc_bsp/arm/stm32/stm32_hal/STM32L0xx_HAL_Driver/Src/stm32l0xx_hal_lptim.c ****   assert_param(IS_LPTIM_CLOCK_PRESCALER(hlptim->Init.Clock.Prescaler));
 222:smtc_bsp/arm/stm32/stm32_hal/STM32L0xx_HAL_Driver/Src/stm32l0xx_hal_lptim.c ****   if ((hlptim->Init.Clock.Source) == LPTIM_CLOCKSOURCE_ULPTIM)
 223:smtc_bsp/arm/stm32/stm32_hal/STM32L0xx_HAL_Driver/Src/stm32l0xx_hal_lptim.c ****   {
 224:smtc_bsp/arm/stm32/stm32_hal/STM32L0xx_HAL_Driver/Src/stm32l0xx_hal_lptim.c ****     assert_param(IS_LPTIM_CLOCK_POLARITY(hlptim->Init.UltraLowPowerClock.Polarity));
 225:smtc_bsp/arm/stm32/stm32_hal/STM32L0xx_HAL_Driver/Src/stm32l0xx_hal_lptim.c ****     assert_param(IS_LPTIM_CLOCK_SAMPLE_TIME(hlptim->Init.UltraLowPowerClock.SampleTime));
 226:smtc_bsp/arm/stm32/stm32_hal/STM32L0xx_HAL_Driver/Src/stm32l0xx_hal_lptim.c ****   }
 227:smtc_bsp/arm/stm32/stm32_hal/STM32L0xx_HAL_Driver/Src/stm32l0xx_hal_lptim.c ****   assert_param(IS_LPTIM_TRG_SOURCE(hlptim->Init.Trigger.Source));
 228:smtc_bsp/arm/stm32/stm32_hal/STM32L0xx_HAL_Driver/Src/stm32l0xx_hal_lptim.c ****   if ((hlptim->Init.Trigger.Source) != LPTIM_TRIGSOURCE_SOFTWARE)
 229:smtc_bsp/arm/stm32/stm32_hal/STM32L0xx_HAL_Driver/Src/stm32l0xx_hal_lptim.c ****   {
 230:smtc_bsp/arm/stm32/stm32_hal/STM32L0xx_HAL_Driver/Src/stm32l0xx_hal_lptim.c ****     assert_param(IS_LPTIM_TRIG_SAMPLE_TIME(hlptim->Init.Trigger.SampleTime));
 231:smtc_bsp/arm/stm32/stm32_hal/STM32L0xx_HAL_Driver/Src/stm32l0xx_hal_lptim.c ****     assert_param(IS_LPTIM_EXT_TRG_POLARITY(hlptim->Init.Trigger.ActiveEdge));
 232:smtc_bsp/arm/stm32/stm32_hal/STM32L0xx_HAL_Driver/Src/stm32l0xx_hal_lptim.c ****   }
 233:smtc_bsp/arm/stm32/stm32_hal/STM32L0xx_HAL_Driver/Src/stm32l0xx_hal_lptim.c ****   assert_param(IS_LPTIM_OUTPUT_POLARITY(hlptim->Init.OutputPolarity));
 234:smtc_bsp/arm/stm32/stm32_hal/STM32L0xx_HAL_Driver/Src/stm32l0xx_hal_lptim.c ****   assert_param(IS_LPTIM_UPDATE_MODE(hlptim->Init.UpdateMode));
 235:smtc_bsp/arm/stm32/stm32_hal/STM32L0xx_HAL_Driver/Src/stm32l0xx_hal_lptim.c ****   assert_param(IS_LPTIM_COUNTER_SOURCE(hlptim->Init.CounterSource));
 236:smtc_bsp/arm/stm32/stm32_hal/STM32L0xx_HAL_Driver/Src/stm32l0xx_hal_lptim.c **** 
 237:smtc_bsp/arm/stm32/stm32_hal/STM32L0xx_HAL_Driver/Src/stm32l0xx_hal_lptim.c ****   if (hlptim->State == HAL_LPTIM_STATE_RESET)
 238:smtc_bsp/arm/stm32/stm32_hal/STM32L0xx_HAL_Driver/Src/stm32l0xx_hal_lptim.c ****   {
 239:smtc_bsp/arm/stm32/stm32_hal/STM32L0xx_HAL_Driver/Src/stm32l0xx_hal_lptim.c ****     /* Allocate lock resource and initialize it */
 240:smtc_bsp/arm/stm32/stm32_hal/STM32L0xx_HAL_Driver/Src/stm32l0xx_hal_lptim.c ****     hlptim->Lock = HAL_UNLOCKED;
 241:smtc_bsp/arm/stm32/stm32_hal/STM32L0xx_HAL_Driver/Src/stm32l0xx_hal_lptim.c **** 
 242:smtc_bsp/arm/stm32/stm32_hal/STM32L0xx_HAL_Driver/Src/stm32l0xx_hal_lptim.c **** #if (USE_HAL_LPTIM_REGISTER_CALLBACKS == 1)
 243:smtc_bsp/arm/stm32/stm32_hal/STM32L0xx_HAL_Driver/Src/stm32l0xx_hal_lptim.c ****     /* Reset interrupt callbacks to legacy weak callbacks */
 244:smtc_bsp/arm/stm32/stm32_hal/STM32L0xx_HAL_Driver/Src/stm32l0xx_hal_lptim.c ****     LPTIM_ResetCallback(hlptim);
 245:smtc_bsp/arm/stm32/stm32_hal/STM32L0xx_HAL_Driver/Src/stm32l0xx_hal_lptim.c **** 
 246:smtc_bsp/arm/stm32/stm32_hal/STM32L0xx_HAL_Driver/Src/stm32l0xx_hal_lptim.c ****     if (hlptim->MspInitCallback == NULL)
 247:smtc_bsp/arm/stm32/stm32_hal/STM32L0xx_HAL_Driver/Src/stm32l0xx_hal_lptim.c ****     {
 248:smtc_bsp/arm/stm32/stm32_hal/STM32L0xx_HAL_Driver/Src/stm32l0xx_hal_lptim.c ****       hlptim->MspInitCallback = HAL_LPTIM_MspInit;
 249:smtc_bsp/arm/stm32/stm32_hal/STM32L0xx_HAL_Driver/Src/stm32l0xx_hal_lptim.c ****     }
 250:smtc_bsp/arm/stm32/stm32_hal/STM32L0xx_HAL_Driver/Src/stm32l0xx_hal_lptim.c **** 
 251:smtc_bsp/arm/stm32/stm32_hal/STM32L0xx_HAL_Driver/Src/stm32l0xx_hal_lptim.c ****     /* Init the low level hardware : GPIO, CLOCK, NVIC */
 252:smtc_bsp/arm/stm32/stm32_hal/STM32L0xx_HAL_Driver/Src/stm32l0xx_hal_lptim.c ****     hlptim->MspInitCallback(hlptim);
 253:smtc_bsp/arm/stm32/stm32_hal/STM32L0xx_HAL_Driver/Src/stm32l0xx_hal_lptim.c **** #else
 254:smtc_bsp/arm/stm32/stm32_hal/STM32L0xx_HAL_Driver/Src/stm32l0xx_hal_lptim.c ****     /* Init the low level hardware : GPIO, CLOCK, NVIC */
 255:smtc_bsp/arm/stm32/stm32_hal/STM32L0xx_HAL_Driver/Src/stm32l0xx_hal_lptim.c ****     HAL_LPTIM_MspInit(hlptim);
 256:smtc_bsp/arm/stm32/stm32_hal/STM32L0xx_HAL_Driver/Src/stm32l0xx_hal_lptim.c **** #endif /* USE_HAL_LPTIM_REGISTER_CALLBACKS */
 257:smtc_bsp/arm/stm32/stm32_hal/STM32L0xx_HAL_Driver/Src/stm32l0xx_hal_lptim.c ****   }
 258:smtc_bsp/arm/stm32/stm32_hal/STM32L0xx_HAL_Driver/Src/stm32l0xx_hal_lptim.c **** 
 259:smtc_bsp/arm/stm32/stm32_hal/STM32L0xx_HAL_Driver/Src/stm32l0xx_hal_lptim.c ****   /* Change the LPTIM state */
 260:smtc_bsp/arm/stm32/stm32_hal/STM32L0xx_HAL_Driver/Src/stm32l0xx_hal_lptim.c ****   hlptim->State = HAL_LPTIM_STATE_BUSY;
 261:smtc_bsp/arm/stm32/stm32_hal/STM32L0xx_HAL_Driver/Src/stm32l0xx_hal_lptim.c **** 
ARM GAS  /var/folders/bq/yv49bw8j2kd6w3hsq868qv180000gn/T//ccQg3V4x.s 			page 6


 262:smtc_bsp/arm/stm32/stm32_hal/STM32L0xx_HAL_Driver/Src/stm32l0xx_hal_lptim.c ****   /* Get the LPTIMx CFGR value */
 263:smtc_bsp/arm/stm32/stm32_hal/STM32L0xx_HAL_Driver/Src/stm32l0xx_hal_lptim.c ****   tmpcfgr = hlptim->Instance->CFGR;
 264:smtc_bsp/arm/stm32/stm32_hal/STM32L0xx_HAL_Driver/Src/stm32l0xx_hal_lptim.c **** 
 265:smtc_bsp/arm/stm32/stm32_hal/STM32L0xx_HAL_Driver/Src/stm32l0xx_hal_lptim.c ****   if (((hlptim->Init.Clock.Source) == LPTIM_CLOCKSOURCE_ULPTIM) || ((hlptim->Init.CounterSource) ==
 266:smtc_bsp/arm/stm32/stm32_hal/STM32L0xx_HAL_Driver/Src/stm32l0xx_hal_lptim.c ****   {
 267:smtc_bsp/arm/stm32/stm32_hal/STM32L0xx_HAL_Driver/Src/stm32l0xx_hal_lptim.c ****     tmpcfgr &= (uint32_t)(~(LPTIM_CFGR_CKPOL | LPTIM_CFGR_CKFLT));
 268:smtc_bsp/arm/stm32/stm32_hal/STM32L0xx_HAL_Driver/Src/stm32l0xx_hal_lptim.c ****   }
 269:smtc_bsp/arm/stm32/stm32_hal/STM32L0xx_HAL_Driver/Src/stm32l0xx_hal_lptim.c ****   if ((hlptim->Init.Trigger.Source) != LPTIM_TRIGSOURCE_SOFTWARE)
 270:smtc_bsp/arm/stm32/stm32_hal/STM32L0xx_HAL_Driver/Src/stm32l0xx_hal_lptim.c ****   {
 271:smtc_bsp/arm/stm32/stm32_hal/STM32L0xx_HAL_Driver/Src/stm32l0xx_hal_lptim.c ****     tmpcfgr &= (uint32_t)(~(LPTIM_CFGR_TRGFLT | LPTIM_CFGR_TRIGSEL));
 272:smtc_bsp/arm/stm32/stm32_hal/STM32L0xx_HAL_Driver/Src/stm32l0xx_hal_lptim.c ****   }
 273:smtc_bsp/arm/stm32/stm32_hal/STM32L0xx_HAL_Driver/Src/stm32l0xx_hal_lptim.c **** 
 274:smtc_bsp/arm/stm32/stm32_hal/STM32L0xx_HAL_Driver/Src/stm32l0xx_hal_lptim.c ****   /* Clear CKSEL, CKPOL, PRESC, TRIGEN, TRGFLT, WAVPOL, PRELOAD & COUNTMODE bits */
 275:smtc_bsp/arm/stm32/stm32_hal/STM32L0xx_HAL_Driver/Src/stm32l0xx_hal_lptim.c ****   tmpcfgr &= (uint32_t)(~(LPTIM_CFGR_CKSEL | LPTIM_CFGR_CKPOL | LPTIM_CFGR_TRIGEN | LPTIM_CFGR_PREL
 276:smtc_bsp/arm/stm32/stm32_hal/STM32L0xx_HAL_Driver/Src/stm32l0xx_hal_lptim.c ****                           LPTIM_CFGR_WAVPOL | LPTIM_CFGR_PRESC | LPTIM_CFGR_COUNTMODE));
 277:smtc_bsp/arm/stm32/stm32_hal/STM32L0xx_HAL_Driver/Src/stm32l0xx_hal_lptim.c **** 
 278:smtc_bsp/arm/stm32/stm32_hal/STM32L0xx_HAL_Driver/Src/stm32l0xx_hal_lptim.c ****   /* Set initialization parameters */
 279:smtc_bsp/arm/stm32/stm32_hal/STM32L0xx_HAL_Driver/Src/stm32l0xx_hal_lptim.c ****   tmpcfgr |= (hlptim->Init.Clock.Source    |
 280:smtc_bsp/arm/stm32/stm32_hal/STM32L0xx_HAL_Driver/Src/stm32l0xx_hal_lptim.c ****               hlptim->Init.Clock.Prescaler |
 281:smtc_bsp/arm/stm32/stm32_hal/STM32L0xx_HAL_Driver/Src/stm32l0xx_hal_lptim.c ****               hlptim->Init.OutputPolarity  |
 282:smtc_bsp/arm/stm32/stm32_hal/STM32L0xx_HAL_Driver/Src/stm32l0xx_hal_lptim.c ****               hlptim->Init.UpdateMode      |
 283:smtc_bsp/arm/stm32/stm32_hal/STM32L0xx_HAL_Driver/Src/stm32l0xx_hal_lptim.c ****               hlptim->Init.CounterSource);
 284:smtc_bsp/arm/stm32/stm32_hal/STM32L0xx_HAL_Driver/Src/stm32l0xx_hal_lptim.c **** 
 285:smtc_bsp/arm/stm32/stm32_hal/STM32L0xx_HAL_Driver/Src/stm32l0xx_hal_lptim.c ****   if (((hlptim->Init.Clock.Source) == LPTIM_CLOCKSOURCE_ULPTIM) || ((hlptim->Init.CounterSource) ==
 286:smtc_bsp/arm/stm32/stm32_hal/STM32L0xx_HAL_Driver/Src/stm32l0xx_hal_lptim.c ****   {
 287:smtc_bsp/arm/stm32/stm32_hal/STM32L0xx_HAL_Driver/Src/stm32l0xx_hal_lptim.c ****     tmpcfgr |= (hlptim->Init.UltraLowPowerClock.Polarity |
 288:smtc_bsp/arm/stm32/stm32_hal/STM32L0xx_HAL_Driver/Src/stm32l0xx_hal_lptim.c ****                 hlptim->Init.UltraLowPowerClock.SampleTime);
 289:smtc_bsp/arm/stm32/stm32_hal/STM32L0xx_HAL_Driver/Src/stm32l0xx_hal_lptim.c ****   }
 290:smtc_bsp/arm/stm32/stm32_hal/STM32L0xx_HAL_Driver/Src/stm32l0xx_hal_lptim.c **** 
 291:smtc_bsp/arm/stm32/stm32_hal/STM32L0xx_HAL_Driver/Src/stm32l0xx_hal_lptim.c ****   if ((hlptim->Init.Trigger.Source) != LPTIM_TRIGSOURCE_SOFTWARE)
 292:smtc_bsp/arm/stm32/stm32_hal/STM32L0xx_HAL_Driver/Src/stm32l0xx_hal_lptim.c ****   {
 293:smtc_bsp/arm/stm32/stm32_hal/STM32L0xx_HAL_Driver/Src/stm32l0xx_hal_lptim.c ****     /* Enable External trigger and set the trigger source */
 294:smtc_bsp/arm/stm32/stm32_hal/STM32L0xx_HAL_Driver/Src/stm32l0xx_hal_lptim.c ****     tmpcfgr |= (hlptim->Init.Trigger.Source     |
 295:smtc_bsp/arm/stm32/stm32_hal/STM32L0xx_HAL_Driver/Src/stm32l0xx_hal_lptim.c ****                 hlptim->Init.Trigger.ActiveEdge |
 296:smtc_bsp/arm/stm32/stm32_hal/STM32L0xx_HAL_Driver/Src/stm32l0xx_hal_lptim.c ****                 hlptim->Init.Trigger.SampleTime);
 297:smtc_bsp/arm/stm32/stm32_hal/STM32L0xx_HAL_Driver/Src/stm32l0xx_hal_lptim.c ****   }
 298:smtc_bsp/arm/stm32/stm32_hal/STM32L0xx_HAL_Driver/Src/stm32l0xx_hal_lptim.c **** 
 299:smtc_bsp/arm/stm32/stm32_hal/STM32L0xx_HAL_Driver/Src/stm32l0xx_hal_lptim.c ****   /* Write to LPTIMx CFGR */
 300:smtc_bsp/arm/stm32/stm32_hal/STM32L0xx_HAL_Driver/Src/stm32l0xx_hal_lptim.c ****   hlptim->Instance->CFGR = tmpcfgr;
 301:smtc_bsp/arm/stm32/stm32_hal/STM32L0xx_HAL_Driver/Src/stm32l0xx_hal_lptim.c **** 
 302:smtc_bsp/arm/stm32/stm32_hal/STM32L0xx_HAL_Driver/Src/stm32l0xx_hal_lptim.c ****   /* Change the LPTIM state */
 303:smtc_bsp/arm/stm32/stm32_hal/STM32L0xx_HAL_Driver/Src/stm32l0xx_hal_lptim.c ****   hlptim->State = HAL_LPTIM_STATE_READY;
 304:smtc_bsp/arm/stm32/stm32_hal/STM32L0xx_HAL_Driver/Src/stm32l0xx_hal_lptim.c **** 
 305:smtc_bsp/arm/stm32/stm32_hal/STM32L0xx_HAL_Driver/Src/stm32l0xx_hal_lptim.c ****   /* Return function status */
 306:smtc_bsp/arm/stm32/stm32_hal/STM32L0xx_HAL_Driver/Src/stm32l0xx_hal_lptim.c ****   return HAL_OK;
 307:smtc_bsp/arm/stm32/stm32_hal/STM32L0xx_HAL_Driver/Src/stm32l0xx_hal_lptim.c **** }
 308:smtc_bsp/arm/stm32/stm32_hal/STM32L0xx_HAL_Driver/Src/stm32l0xx_hal_lptim.c **** 
 309:smtc_bsp/arm/stm32/stm32_hal/STM32L0xx_HAL_Driver/Src/stm32l0xx_hal_lptim.c **** /**
 310:smtc_bsp/arm/stm32/stm32_hal/STM32L0xx_HAL_Driver/Src/stm32l0xx_hal_lptim.c ****   * @brief  DeInitialize the LPTIM peripheral.
 311:smtc_bsp/arm/stm32/stm32_hal/STM32L0xx_HAL_Driver/Src/stm32l0xx_hal_lptim.c ****   * @param  hlptim LPTIM handle
 312:smtc_bsp/arm/stm32/stm32_hal/STM32L0xx_HAL_Driver/Src/stm32l0xx_hal_lptim.c ****   * @retval HAL status
 313:smtc_bsp/arm/stm32/stm32_hal/STM32L0xx_HAL_Driver/Src/stm32l0xx_hal_lptim.c ****   */
 314:smtc_bsp/arm/stm32/stm32_hal/STM32L0xx_HAL_Driver/Src/stm32l0xx_hal_lptim.c **** HAL_StatusTypeDef HAL_LPTIM_DeInit(LPTIM_HandleTypeDef *hlptim)
 315:smtc_bsp/arm/stm32/stm32_hal/STM32L0xx_HAL_Driver/Src/stm32l0xx_hal_lptim.c **** {
 316:smtc_bsp/arm/stm32/stm32_hal/STM32L0xx_HAL_Driver/Src/stm32l0xx_hal_lptim.c ****   /* Check the LPTIM handle allocation */
 317:smtc_bsp/arm/stm32/stm32_hal/STM32L0xx_HAL_Driver/Src/stm32l0xx_hal_lptim.c ****   if (hlptim == NULL)
 318:smtc_bsp/arm/stm32/stm32_hal/STM32L0xx_HAL_Driver/Src/stm32l0xx_hal_lptim.c ****   {
ARM GAS  /var/folders/bq/yv49bw8j2kd6w3hsq868qv180000gn/T//ccQg3V4x.s 			page 7


 319:smtc_bsp/arm/stm32/stm32_hal/STM32L0xx_HAL_Driver/Src/stm32l0xx_hal_lptim.c ****     return HAL_ERROR;
 320:smtc_bsp/arm/stm32/stm32_hal/STM32L0xx_HAL_Driver/Src/stm32l0xx_hal_lptim.c ****   }
 321:smtc_bsp/arm/stm32/stm32_hal/STM32L0xx_HAL_Driver/Src/stm32l0xx_hal_lptim.c **** 
 322:smtc_bsp/arm/stm32/stm32_hal/STM32L0xx_HAL_Driver/Src/stm32l0xx_hal_lptim.c ****   /* Change the LPTIM state */
 323:smtc_bsp/arm/stm32/stm32_hal/STM32L0xx_HAL_Driver/Src/stm32l0xx_hal_lptim.c ****   hlptim->State = HAL_LPTIM_STATE_BUSY;
 324:smtc_bsp/arm/stm32/stm32_hal/STM32L0xx_HAL_Driver/Src/stm32l0xx_hal_lptim.c **** 
 325:smtc_bsp/arm/stm32/stm32_hal/STM32L0xx_HAL_Driver/Src/stm32l0xx_hal_lptim.c ****   /* Disable the LPTIM Peripheral Clock */
 326:smtc_bsp/arm/stm32/stm32_hal/STM32L0xx_HAL_Driver/Src/stm32l0xx_hal_lptim.c ****   __HAL_LPTIM_DISABLE(hlptim);
 327:smtc_bsp/arm/stm32/stm32_hal/STM32L0xx_HAL_Driver/Src/stm32l0xx_hal_lptim.c **** 
 328:smtc_bsp/arm/stm32/stm32_hal/STM32L0xx_HAL_Driver/Src/stm32l0xx_hal_lptim.c **** #if (USE_HAL_LPTIM_REGISTER_CALLBACKS == 1)
 329:smtc_bsp/arm/stm32/stm32_hal/STM32L0xx_HAL_Driver/Src/stm32l0xx_hal_lptim.c ****   if (hlptim->MspDeInitCallback == NULL)
 330:smtc_bsp/arm/stm32/stm32_hal/STM32L0xx_HAL_Driver/Src/stm32l0xx_hal_lptim.c ****   {
 331:smtc_bsp/arm/stm32/stm32_hal/STM32L0xx_HAL_Driver/Src/stm32l0xx_hal_lptim.c ****     hlptim->MspDeInitCallback = HAL_LPTIM_MspDeInit;
 332:smtc_bsp/arm/stm32/stm32_hal/STM32L0xx_HAL_Driver/Src/stm32l0xx_hal_lptim.c ****   }
 333:smtc_bsp/arm/stm32/stm32_hal/STM32L0xx_HAL_Driver/Src/stm32l0xx_hal_lptim.c **** 
 334:smtc_bsp/arm/stm32/stm32_hal/STM32L0xx_HAL_Driver/Src/stm32l0xx_hal_lptim.c ****   /* DeInit the low level hardware: CLOCK, NVIC.*/
 335:smtc_bsp/arm/stm32/stm32_hal/STM32L0xx_HAL_Driver/Src/stm32l0xx_hal_lptim.c ****   hlptim->MspDeInitCallback(hlptim);
 336:smtc_bsp/arm/stm32/stm32_hal/STM32L0xx_HAL_Driver/Src/stm32l0xx_hal_lptim.c **** #else
 337:smtc_bsp/arm/stm32/stm32_hal/STM32L0xx_HAL_Driver/Src/stm32l0xx_hal_lptim.c ****   /* DeInit the low level hardware: CLOCK, NVIC.*/
 338:smtc_bsp/arm/stm32/stm32_hal/STM32L0xx_HAL_Driver/Src/stm32l0xx_hal_lptim.c ****   HAL_LPTIM_MspDeInit(hlptim);
 339:smtc_bsp/arm/stm32/stm32_hal/STM32L0xx_HAL_Driver/Src/stm32l0xx_hal_lptim.c **** #endif /* USE_HAL_LPTIM_REGISTER_CALLBACKS */
 340:smtc_bsp/arm/stm32/stm32_hal/STM32L0xx_HAL_Driver/Src/stm32l0xx_hal_lptim.c **** 
 341:smtc_bsp/arm/stm32/stm32_hal/STM32L0xx_HAL_Driver/Src/stm32l0xx_hal_lptim.c ****   /* Change the LPTIM state */
 342:smtc_bsp/arm/stm32/stm32_hal/STM32L0xx_HAL_Driver/Src/stm32l0xx_hal_lptim.c ****   hlptim->State = HAL_LPTIM_STATE_RESET;
 343:smtc_bsp/arm/stm32/stm32_hal/STM32L0xx_HAL_Driver/Src/stm32l0xx_hal_lptim.c **** 
 344:smtc_bsp/arm/stm32/stm32_hal/STM32L0xx_HAL_Driver/Src/stm32l0xx_hal_lptim.c ****   /* Release Lock */
 345:smtc_bsp/arm/stm32/stm32_hal/STM32L0xx_HAL_Driver/Src/stm32l0xx_hal_lptim.c ****   __HAL_UNLOCK(hlptim);
 346:smtc_bsp/arm/stm32/stm32_hal/STM32L0xx_HAL_Driver/Src/stm32l0xx_hal_lptim.c **** 
 347:smtc_bsp/arm/stm32/stm32_hal/STM32L0xx_HAL_Driver/Src/stm32l0xx_hal_lptim.c ****   /* Return function status */
 348:smtc_bsp/arm/stm32/stm32_hal/STM32L0xx_HAL_Driver/Src/stm32l0xx_hal_lptim.c ****   return HAL_OK;
 349:smtc_bsp/arm/stm32/stm32_hal/STM32L0xx_HAL_Driver/Src/stm32l0xx_hal_lptim.c **** }
 350:smtc_bsp/arm/stm32/stm32_hal/STM32L0xx_HAL_Driver/Src/stm32l0xx_hal_lptim.c **** 
 351:smtc_bsp/arm/stm32/stm32_hal/STM32L0xx_HAL_Driver/Src/stm32l0xx_hal_lptim.c **** /**
 352:smtc_bsp/arm/stm32/stm32_hal/STM32L0xx_HAL_Driver/Src/stm32l0xx_hal_lptim.c ****   * @brief  Initialize the LPTIM MSP.
 353:smtc_bsp/arm/stm32/stm32_hal/STM32L0xx_HAL_Driver/Src/stm32l0xx_hal_lptim.c ****   * @param  hlptim LPTIM handle
 354:smtc_bsp/arm/stm32/stm32_hal/STM32L0xx_HAL_Driver/Src/stm32l0xx_hal_lptim.c ****   * @retval None
 355:smtc_bsp/arm/stm32/stm32_hal/STM32L0xx_HAL_Driver/Src/stm32l0xx_hal_lptim.c ****   */
 356:smtc_bsp/arm/stm32/stm32_hal/STM32L0xx_HAL_Driver/Src/stm32l0xx_hal_lptim.c **** __weak void HAL_LPTIM_MspInit(LPTIM_HandleTypeDef *hlptim)
 357:smtc_bsp/arm/stm32/stm32_hal/STM32L0xx_HAL_Driver/Src/stm32l0xx_hal_lptim.c **** {
  26              		.loc 1 357 1 view -0
  27              		.cfi_startproc
  28              		@ args = 0, pretend = 0, frame = 0
  29              		@ frame_needed = 0, uses_anonymous_args = 0
  30              		@ link register save eliminated.
 358:smtc_bsp/arm/stm32/stm32_hal/STM32L0xx_HAL_Driver/Src/stm32l0xx_hal_lptim.c ****   /* Prevent unused argument(s) compilation warning */
 359:smtc_bsp/arm/stm32/stm32_hal/STM32L0xx_HAL_Driver/Src/stm32l0xx_hal_lptim.c ****   UNUSED(hlptim);
  31              		.loc 1 359 3 view .LVU1
 360:smtc_bsp/arm/stm32/stm32_hal/STM32L0xx_HAL_Driver/Src/stm32l0xx_hal_lptim.c **** 
 361:smtc_bsp/arm/stm32/stm32_hal/STM32L0xx_HAL_Driver/Src/stm32l0xx_hal_lptim.c ****   /* NOTE : This function should not be modified, when the callback is needed,
 362:smtc_bsp/arm/stm32/stm32_hal/STM32L0xx_HAL_Driver/Src/stm32l0xx_hal_lptim.c ****             the HAL_LPTIM_MspInit could be implemented in the user file
 363:smtc_bsp/arm/stm32/stm32_hal/STM32L0xx_HAL_Driver/Src/stm32l0xx_hal_lptim.c ****    */
 364:smtc_bsp/arm/stm32/stm32_hal/STM32L0xx_HAL_Driver/Src/stm32l0xx_hal_lptim.c **** }
  32              		.loc 1 364 1 is_stmt 0 view .LVU2
  33              		@ sp needed
  34 0000 7047     		bx	lr
  35              		.cfi_endproc
  36              	.LFE49:
ARM GAS  /var/folders/bq/yv49bw8j2kd6w3hsq868qv180000gn/T//ccQg3V4x.s 			page 8


  38              		.section	.text.HAL_LPTIM_Init,"ax",%progbits
  39              		.align	1
  40              		.global	HAL_LPTIM_Init
  41              		.syntax unified
  42              		.code	16
  43              		.thumb_func
  44              		.fpu softvfp
  46              	HAL_LPTIM_Init:
  47              	.LVL1:
  48              	.LFB47:
 208:smtc_bsp/arm/stm32/stm32_hal/STM32L0xx_HAL_Driver/Src/stm32l0xx_hal_lptim.c ****   uint32_t tmpcfgr;
  49              		.loc 1 208 1 is_stmt 1 view -0
  50              		.cfi_startproc
  51              		@ args = 0, pretend = 0, frame = 8
  52              		@ frame_needed = 0, uses_anonymous_args = 0
 209:smtc_bsp/arm/stm32/stm32_hal/STM32L0xx_HAL_Driver/Src/stm32l0xx_hal_lptim.c **** 
  53              		.loc 1 209 3 view .LVU4
 212:smtc_bsp/arm/stm32/stm32_hal/STM32L0xx_HAL_Driver/Src/stm32l0xx_hal_lptim.c ****   {
  54              		.loc 1 212 3 view .LVU5
 208:smtc_bsp/arm/stm32/stm32_hal/STM32L0xx_HAL_Driver/Src/stm32l0xx_hal_lptim.c ****   uint32_t tmpcfgr;
  55              		.loc 1 208 1 is_stmt 0 view .LVU6
  56 0000 F7B5     		push	{r0, r1, r2, r4, r5, r6, r7, lr}
  57              		.cfi_def_cfa_offset 32
  58              		.cfi_offset 0, -32
  59              		.cfi_offset 1, -28
  60              		.cfi_offset 2, -24
  61              		.cfi_offset 4, -20
  62              		.cfi_offset 5, -16
  63              		.cfi_offset 6, -12
  64              		.cfi_offset 7, -8
  65              		.cfi_offset 14, -4
 208:smtc_bsp/arm/stm32/stm32_hal/STM32L0xx_HAL_Driver/Src/stm32l0xx_hal_lptim.c ****   uint32_t tmpcfgr;
  66              		.loc 1 208 1 view .LVU7
  67 0002 0400     		movs	r4, r0
 214:smtc_bsp/arm/stm32/stm32_hal/STM32L0xx_HAL_Driver/Src/stm32l0xx_hal_lptim.c ****   }
  68              		.loc 1 214 12 view .LVU8
  69 0004 0120     		movs	r0, #1
  70              	.LVL2:
 212:smtc_bsp/arm/stm32/stm32_hal/STM32L0xx_HAL_Driver/Src/stm32l0xx_hal_lptim.c ****   {
  71              		.loc 1 212 6 view .LVU9
  72 0006 002C     		cmp	r4, #0
  73 0008 42D0     		beq	.L3
 218:smtc_bsp/arm/stm32/stm32_hal/STM32L0xx_HAL_Driver/Src/stm32l0xx_hal_lptim.c **** 
  74              		.loc 1 218 3 is_stmt 1 view .LVU10
 220:smtc_bsp/arm/stm32/stm32_hal/STM32L0xx_HAL_Driver/Src/stm32l0xx_hal_lptim.c ****   assert_param(IS_LPTIM_CLOCK_PRESCALER(hlptim->Init.Clock.Prescaler));
  75              		.loc 1 220 3 view .LVU11
 221:smtc_bsp/arm/stm32/stm32_hal/STM32L0xx_HAL_Driver/Src/stm32l0xx_hal_lptim.c ****   if ((hlptim->Init.Clock.Source) == LPTIM_CLOCKSOURCE_ULPTIM)
  76              		.loc 1 221 3 view .LVU12
 222:smtc_bsp/arm/stm32/stm32_hal/STM32L0xx_HAL_Driver/Src/stm32l0xx_hal_lptim.c ****   {
  77              		.loc 1 222 3 view .LVU13
 224:smtc_bsp/arm/stm32/stm32_hal/STM32L0xx_HAL_Driver/Src/stm32l0xx_hal_lptim.c ****     assert_param(IS_LPTIM_CLOCK_SAMPLE_TIME(hlptim->Init.UltraLowPowerClock.SampleTime));
  78              		.loc 1 224 5 view .LVU14
 225:smtc_bsp/arm/stm32/stm32_hal/STM32L0xx_HAL_Driver/Src/stm32l0xx_hal_lptim.c ****   }
  79              		.loc 1 225 5 view .LVU15
 227:smtc_bsp/arm/stm32/stm32_hal/STM32L0xx_HAL_Driver/Src/stm32l0xx_hal_lptim.c ****   if ((hlptim->Init.Trigger.Source) != LPTIM_TRIGSOURCE_SOFTWARE)
  80              		.loc 1 227 3 view .LVU16
 228:smtc_bsp/arm/stm32/stm32_hal/STM32L0xx_HAL_Driver/Src/stm32l0xx_hal_lptim.c ****   {
ARM GAS  /var/folders/bq/yv49bw8j2kd6w3hsq868qv180000gn/T//ccQg3V4x.s 			page 9


  81              		.loc 1 228 3 view .LVU17
 230:smtc_bsp/arm/stm32/stm32_hal/STM32L0xx_HAL_Driver/Src/stm32l0xx_hal_lptim.c ****     assert_param(IS_LPTIM_EXT_TRG_POLARITY(hlptim->Init.Trigger.ActiveEdge));
  82              		.loc 1 230 5 view .LVU18
 231:smtc_bsp/arm/stm32/stm32_hal/STM32L0xx_HAL_Driver/Src/stm32l0xx_hal_lptim.c ****   }
  83              		.loc 1 231 5 view .LVU19
 233:smtc_bsp/arm/stm32/stm32_hal/STM32L0xx_HAL_Driver/Src/stm32l0xx_hal_lptim.c ****   assert_param(IS_LPTIM_UPDATE_MODE(hlptim->Init.UpdateMode));
  84              		.loc 1 233 3 view .LVU20
 234:smtc_bsp/arm/stm32/stm32_hal/STM32L0xx_HAL_Driver/Src/stm32l0xx_hal_lptim.c ****   assert_param(IS_LPTIM_COUNTER_SOURCE(hlptim->Init.CounterSource));
  85              		.loc 1 234 3 view .LVU21
 235:smtc_bsp/arm/stm32/stm32_hal/STM32L0xx_HAL_Driver/Src/stm32l0xx_hal_lptim.c **** 
  86              		.loc 1 235 3 view .LVU22
 237:smtc_bsp/arm/stm32/stm32_hal/STM32L0xx_HAL_Driver/Src/stm32l0xx_hal_lptim.c ****   {
  87              		.loc 1 237 3 view .LVU23
 237:smtc_bsp/arm/stm32/stm32_hal/STM32L0xx_HAL_Driver/Src/stm32l0xx_hal_lptim.c ****   {
  88              		.loc 1 237 13 is_stmt 0 view .LVU24
  89 000a 2500     		movs	r5, r4
  90 000c 2E35     		adds	r5, r5, #46
  91 000e 2B78     		ldrb	r3, [r5]
  92 0010 DAB2     		uxtb	r2, r3
 237:smtc_bsp/arm/stm32/stm32_hal/STM32L0xx_HAL_Driver/Src/stm32l0xx_hal_lptim.c ****   {
  93              		.loc 1 237 6 view .LVU25
  94 0012 002B     		cmp	r3, #0
  95 0014 05D1     		bne	.L4
 240:smtc_bsp/arm/stm32/stm32_hal/STM32L0xx_HAL_Driver/Src/stm32l0xx_hal_lptim.c **** 
  96              		.loc 1 240 5 is_stmt 1 view .LVU26
 240:smtc_bsp/arm/stm32/stm32_hal/STM32L0xx_HAL_Driver/Src/stm32l0xx_hal_lptim.c **** 
  97              		.loc 1 240 18 is_stmt 0 view .LVU27
  98 0016 2300     		movs	r3, r4
  99 0018 2D33     		adds	r3, r3, #45
 255:smtc_bsp/arm/stm32/stm32_hal/STM32L0xx_HAL_Driver/Src/stm32l0xx_hal_lptim.c **** #endif /* USE_HAL_LPTIM_REGISTER_CALLBACKS */
 100              		.loc 1 255 5 view .LVU28
 101 001a 2000     		movs	r0, r4
 240:smtc_bsp/arm/stm32/stm32_hal/STM32L0xx_HAL_Driver/Src/stm32l0xx_hal_lptim.c **** 
 102              		.loc 1 240 18 view .LVU29
 103 001c 1A70     		strb	r2, [r3]
 255:smtc_bsp/arm/stm32/stm32_hal/STM32L0xx_HAL_Driver/Src/stm32l0xx_hal_lptim.c **** #endif /* USE_HAL_LPTIM_REGISTER_CALLBACKS */
 104              		.loc 1 255 5 is_stmt 1 view .LVU30
 105 001e FFF7FEFF 		bl	HAL_LPTIM_MspInit
 106              	.LVL3:
 107              	.L4:
 260:smtc_bsp/arm/stm32/stm32_hal/STM32L0xx_HAL_Driver/Src/stm32l0xx_hal_lptim.c **** 
 108              		.loc 1 260 3 view .LVU31
 260:smtc_bsp/arm/stm32/stm32_hal/STM32L0xx_HAL_Driver/Src/stm32l0xx_hal_lptim.c **** 
 109              		.loc 1 260 17 is_stmt 0 view .LVU32
 110 0022 0223     		movs	r3, #2
 111 0024 2B70     		strb	r3, [r5]
 263:smtc_bsp/arm/stm32/stm32_hal/STM32L0xx_HAL_Driver/Src/stm32l0xx_hal_lptim.c **** 
 112              		.loc 1 263 3 is_stmt 1 view .LVU33
 263:smtc_bsp/arm/stm32/stm32_hal/STM32L0xx_HAL_Driver/Src/stm32l0xx_hal_lptim.c **** 
 113              		.loc 1 263 19 is_stmt 0 view .LVU34
 114 0026 2668     		ldr	r6, [r4]
 265:smtc_bsp/arm/stm32/stm32_hal/STM32L0xx_HAL_Driver/Src/stm32l0xx_hal_lptim.c ****   {
 115              		.loc 1 265 27 view .LVU35
 116 0028 6768     		ldr	r7, [r4, #4]
 263:smtc_bsp/arm/stm32/stm32_hal/STM32L0xx_HAL_Driver/Src/stm32l0xx_hal_lptim.c **** 
 117              		.loc 1 263 11 view .LVU36
 118 002a F368     		ldr	r3, [r6, #12]
ARM GAS  /var/folders/bq/yv49bw8j2kd6w3hsq868qv180000gn/T//ccQg3V4x.s 			page 10


 119              	.LVL4:
 265:smtc_bsp/arm/stm32/stm32_hal/STM32L0xx_HAL_Driver/Src/stm32l0xx_hal_lptim.c ****   {
 120              		.loc 1 265 3 is_stmt 1 view .LVU37
 121 002c A06A     		ldr	r0, [r4, #40]
 265:smtc_bsp/arm/stm32/stm32_hal/STM32L0xx_HAL_Driver/Src/stm32l0xx_hal_lptim.c ****   {
 122              		.loc 1 265 6 is_stmt 0 view .LVU38
 123 002e 012F     		cmp	r7, #1
 124 0030 03D0     		beq	.L5
 265:smtc_bsp/arm/stm32/stm32_hal/STM32L0xx_HAL_Driver/Src/stm32l0xx_hal_lptim.c ****   {
 125              		.loc 1 265 65 discriminator 1 view .LVU39
 126 0032 8022     		movs	r2, #128
 127 0034 1204     		lsls	r2, r2, #16
 128 0036 9042     		cmp	r0, r2
 129 0038 01D1     		bne	.L6
 130              	.L5:
 267:smtc_bsp/arm/stm32/stm32_hal/STM32L0xx_HAL_Driver/Src/stm32l0xx_hal_lptim.c ****   }
 131              		.loc 1 267 5 is_stmt 1 view .LVU40
 267:smtc_bsp/arm/stm32/stm32_hal/STM32L0xx_HAL_Driver/Src/stm32l0xx_hal_lptim.c ****   }
 132              		.loc 1 267 13 is_stmt 0 view .LVU41
 133 003a 1E22     		movs	r2, #30
 134 003c 9343     		bics	r3, r2
 135              	.LVL5:
 136              	.L6:
 269:smtc_bsp/arm/stm32/stm32_hal/STM32L0xx_HAL_Driver/Src/stm32l0xx_hal_lptim.c ****   {
 137              		.loc 1 269 3 is_stmt 1 view .LVU42
 269:smtc_bsp/arm/stm32/stm32_hal/STM32L0xx_HAL_Driver/Src/stm32l0xx_hal_lptim.c ****   {
 138              		.loc 1 269 6 is_stmt 0 view .LVU43
 139 003e 1549     		ldr	r1, .L18
 269:smtc_bsp/arm/stm32/stm32_hal/STM32L0xx_HAL_Driver/Src/stm32l0xx_hal_lptim.c ****   {
 140              		.loc 1 269 28 view .LVU44
 141 0040 6269     		ldr	r2, [r4, #20]
 269:smtc_bsp/arm/stm32/stm32_hal/STM32L0xx_HAL_Driver/Src/stm32l0xx_hal_lptim.c ****   {
 142              		.loc 1 269 6 view .LVU45
 143 0042 8C46     		mov	ip, r1
 144 0044 8A42     		cmp	r2, r1
 145 0046 01D0     		beq	.L7
 271:smtc_bsp/arm/stm32/stm32_hal/STM32L0xx_HAL_Driver/Src/stm32l0xx_hal_lptim.c ****   }
 146              		.loc 1 271 5 is_stmt 1 view .LVU46
 271:smtc_bsp/arm/stm32/stm32_hal/STM32L0xx_HAL_Driver/Src/stm32l0xx_hal_lptim.c ****   }
 147              		.loc 1 271 13 is_stmt 0 view .LVU47
 148 0048 1349     		ldr	r1, .L18+4
 149 004a 0B40     		ands	r3, r1
 150              	.LVL6:
 151              	.L7:
 275:smtc_bsp/arm/stm32/stm32_hal/STM32L0xx_HAL_Driver/Src/stm32l0xx_hal_lptim.c ****                           LPTIM_CFGR_WAVPOL | LPTIM_CFGR_PRESC | LPTIM_CFGR_COUNTMODE));
 152              		.loc 1 275 3 is_stmt 1 view .LVU48
 275:smtc_bsp/arm/stm32/stm32_hal/STM32L0xx_HAL_Driver/Src/stm32l0xx_hal_lptim.c ****                           LPTIM_CFGR_WAVPOL | LPTIM_CFGR_PRESC | LPTIM_CFGR_COUNTMODE));
 153              		.loc 1 275 11 is_stmt 0 view .LVU49
 154 004c 1349     		ldr	r1, .L18+8
 155 004e 1940     		ands	r1, r3
 282:smtc_bsp/arm/stm32/stm32_hal/STM32L0xx_HAL_Driver/Src/stm32l0xx_hal_lptim.c ****               hlptim->Init.CounterSource);
 156              		.loc 1 282 44 view .LVU50
 157 0050 3B00     		movs	r3, r7
 158              	.LVL7:
 275:smtc_bsp/arm/stm32/stm32_hal/STM32L0xx_HAL_Driver/Src/stm32l0xx_hal_lptim.c ****                           LPTIM_CFGR_WAVPOL | LPTIM_CFGR_PRESC | LPTIM_CFGR_COUNTMODE));
 159              		.loc 1 275 11 view .LVU51
 160 0052 0191     		str	r1, [sp, #4]
ARM GAS  /var/folders/bq/yv49bw8j2kd6w3hsq868qv180000gn/T//ccQg3V4x.s 			page 11


 161              	.LVL8:
 279:smtc_bsp/arm/stm32/stm32_hal/STM32L0xx_HAL_Driver/Src/stm32l0xx_hal_lptim.c ****               hlptim->Init.Clock.Prescaler |
 162              		.loc 1 279 3 is_stmt 1 view .LVU52
 282:smtc_bsp/arm/stm32/stm32_hal/STM32L0xx_HAL_Driver/Src/stm32l0xx_hal_lptim.c ****               hlptim->Init.CounterSource);
 163              		.loc 1 282 44 is_stmt 0 view .LVU53
 164 0054 A168     		ldr	r1, [r4, #8]
 165              	.LVL9:
 282:smtc_bsp/arm/stm32/stm32_hal/STM32L0xx_HAL_Driver/Src/stm32l0xx_hal_lptim.c ****               hlptim->Init.CounterSource);
 166              		.loc 1 282 44 view .LVU54
 167 0056 0343     		orrs	r3, r0
 168 0058 0B43     		orrs	r3, r1
 169 005a 216A     		ldr	r1, [r4, #32]
 170 005c 0B43     		orrs	r3, r1
 171 005e 616A     		ldr	r1, [r4, #36]
 172 0060 0B43     		orrs	r3, r1
 279:smtc_bsp/arm/stm32/stm32_hal/STM32L0xx_HAL_Driver/Src/stm32l0xx_hal_lptim.c ****               hlptim->Init.Clock.Prescaler |
 173              		.loc 1 279 11 view .LVU55
 174 0062 0199     		ldr	r1, [sp, #4]
 175 0064 0B43     		orrs	r3, r1
 176              	.LVL10:
 285:smtc_bsp/arm/stm32/stm32_hal/STM32L0xx_HAL_Driver/Src/stm32l0xx_hal_lptim.c ****   {
 177              		.loc 1 285 3 is_stmt 1 view .LVU56
 285:smtc_bsp/arm/stm32/stm32_hal/STM32L0xx_HAL_Driver/Src/stm32l0xx_hal_lptim.c ****   {
 178              		.loc 1 285 6 is_stmt 0 view .LVU57
 179 0066 012F     		cmp	r7, #1
 180 0068 03D0     		beq	.L8
 285:smtc_bsp/arm/stm32/stm32_hal/STM32L0xx_HAL_Driver/Src/stm32l0xx_hal_lptim.c ****   {
 181              		.loc 1 285 65 discriminator 1 view .LVU58
 182 006a 8021     		movs	r1, #128
 183 006c 0904     		lsls	r1, r1, #16
 184 006e 8842     		cmp	r0, r1
 185 0070 03D1     		bne	.L9
 186              	.L8:
 287:smtc_bsp/arm/stm32/stm32_hal/STM32L0xx_HAL_Driver/Src/stm32l0xx_hal_lptim.c ****                 hlptim->Init.UltraLowPowerClock.SampleTime);
 187              		.loc 1 287 5 is_stmt 1 view .LVU59
 287:smtc_bsp/arm/stm32/stm32_hal/STM32L0xx_HAL_Driver/Src/stm32l0xx_hal_lptim.c ****                 hlptim->Init.UltraLowPowerClock.SampleTime);
 188              		.loc 1 287 58 is_stmt 0 view .LVU60
 189 0072 E168     		ldr	r1, [r4, #12]
 190 0074 2069     		ldr	r0, [r4, #16]
 191 0076 0143     		orrs	r1, r0
 287:smtc_bsp/arm/stm32/stm32_hal/STM32L0xx_HAL_Driver/Src/stm32l0xx_hal_lptim.c ****                 hlptim->Init.UltraLowPowerClock.SampleTime);
 192              		.loc 1 287 13 view .LVU61
 193 0078 0B43     		orrs	r3, r1
 194              	.LVL11:
 195              	.L9:
 291:smtc_bsp/arm/stm32/stm32_hal/STM32L0xx_HAL_Driver/Src/stm32l0xx_hal_lptim.c ****   {
 196              		.loc 1 291 3 is_stmt 1 view .LVU62
 291:smtc_bsp/arm/stm32/stm32_hal/STM32L0xx_HAL_Driver/Src/stm32l0xx_hal_lptim.c ****   {
 197              		.loc 1 291 6 is_stmt 0 view .LVU63
 198 007a 6245     		cmp	r2, ip
 199 007c 04D0     		beq	.L10
 294:smtc_bsp/arm/stm32/stm32_hal/STM32L0xx_HAL_Driver/Src/stm32l0xx_hal_lptim.c ****                 hlptim->Init.Trigger.ActiveEdge |
 200              		.loc 1 294 5 is_stmt 1 view .LVU64
 294:smtc_bsp/arm/stm32/stm32_hal/STM32L0xx_HAL_Driver/Src/stm32l0xx_hal_lptim.c ****                 hlptim->Init.Trigger.ActiveEdge |
 201              		.loc 1 294 49 is_stmt 0 view .LVU65
 202 007e A169     		ldr	r1, [r4, #24]
 203 0080 0A43     		orrs	r2, r1
ARM GAS  /var/folders/bq/yv49bw8j2kd6w3hsq868qv180000gn/T//ccQg3V4x.s 			page 12


 295:smtc_bsp/arm/stm32/stm32_hal/STM32L0xx_HAL_Driver/Src/stm32l0xx_hal_lptim.c ****                 hlptim->Init.Trigger.SampleTime);
 204              		.loc 1 295 49 view .LVU66
 205 0082 E169     		ldr	r1, [r4, #28]
 206 0084 0A43     		orrs	r2, r1
 294:smtc_bsp/arm/stm32/stm32_hal/STM32L0xx_HAL_Driver/Src/stm32l0xx_hal_lptim.c ****                 hlptim->Init.Trigger.ActiveEdge |
 207              		.loc 1 294 13 view .LVU67
 208 0086 1343     		orrs	r3, r2
 209              	.LVL12:
 210              	.L10:
 300:smtc_bsp/arm/stm32/stm32_hal/STM32L0xx_HAL_Driver/Src/stm32l0xx_hal_lptim.c **** 
 211              		.loc 1 300 3 is_stmt 1 view .LVU68
 300:smtc_bsp/arm/stm32/stm32_hal/STM32L0xx_HAL_Driver/Src/stm32l0xx_hal_lptim.c **** 
 212              		.loc 1 300 26 is_stmt 0 view .LVU69
 213 0088 F360     		str	r3, [r6, #12]
 303:smtc_bsp/arm/stm32/stm32_hal/STM32L0xx_HAL_Driver/Src/stm32l0xx_hal_lptim.c **** 
 214              		.loc 1 303 3 is_stmt 1 view .LVU70
 303:smtc_bsp/arm/stm32/stm32_hal/STM32L0xx_HAL_Driver/Src/stm32l0xx_hal_lptim.c **** 
 215              		.loc 1 303 17 is_stmt 0 view .LVU71
 216 008a 0123     		movs	r3, #1
 217              	.LVL13:
 306:smtc_bsp/arm/stm32/stm32_hal/STM32L0xx_HAL_Driver/Src/stm32l0xx_hal_lptim.c **** }
 218              		.loc 1 306 10 view .LVU72
 219 008c 0020     		movs	r0, #0
 303:smtc_bsp/arm/stm32/stm32_hal/STM32L0xx_HAL_Driver/Src/stm32l0xx_hal_lptim.c **** 
 220              		.loc 1 303 17 view .LVU73
 221 008e 2B70     		strb	r3, [r5]
 222              	.LVL14:
 306:smtc_bsp/arm/stm32/stm32_hal/STM32L0xx_HAL_Driver/Src/stm32l0xx_hal_lptim.c **** }
 223              		.loc 1 306 3 is_stmt 1 view .LVU74
 224              	.L3:
 307:smtc_bsp/arm/stm32/stm32_hal/STM32L0xx_HAL_Driver/Src/stm32l0xx_hal_lptim.c **** 
 225              		.loc 1 307 1 is_stmt 0 view .LVU75
 226              		@ sp needed
 227              	.LVL15:
 307:smtc_bsp/arm/stm32/stm32_hal/STM32L0xx_HAL_Driver/Src/stm32l0xx_hal_lptim.c **** 
 228              		.loc 1 307 1 view .LVU76
 229 0090 FEBD     		pop	{r1, r2, r3, r4, r5, r6, r7, pc}
 230              	.L19:
 231 0092 C046     		.align	2
 232              	.L18:
 233 0094 FFFF0000 		.word	65535
 234 0098 3F1FFFFF 		.word	-57537
 235 009c F8F119FF 		.word	-15076872
 236              		.cfi_endproc
 237              	.LFE47:
 239              		.section	.text.HAL_LPTIM_MspDeInit,"ax",%progbits
 240              		.align	1
 241              		.weak	HAL_LPTIM_MspDeInit
 242              		.syntax unified
 243              		.code	16
 244              		.thumb_func
 245              		.fpu softvfp
 247              	HAL_LPTIM_MspDeInit:
 248              	.LFB89:
 249              		.cfi_startproc
 250              		@ args = 0, pretend = 0, frame = 0
 251              		@ frame_needed = 0, uses_anonymous_args = 0
ARM GAS  /var/folders/bq/yv49bw8j2kd6w3hsq868qv180000gn/T//ccQg3V4x.s 			page 13


 252              		@ link register save eliminated.
 253              		@ sp needed
 254 0000 7047     		bx	lr
 255              		.cfi_endproc
 256              	.LFE89:
 258              		.section	.text.HAL_LPTIM_PWM_Start,"ax",%progbits
 259              		.align	1
 260              		.global	HAL_LPTIM_PWM_Start
 261              		.syntax unified
 262              		.code	16
 263              		.thumb_func
 264              		.fpu softvfp
 266              	HAL_LPTIM_PWM_Start:
 267              	.LVL16:
 268              	.LFB51:
 365:smtc_bsp/arm/stm32/stm32_hal/STM32L0xx_HAL_Driver/Src/stm32l0xx_hal_lptim.c **** 
 366:smtc_bsp/arm/stm32/stm32_hal/STM32L0xx_HAL_Driver/Src/stm32l0xx_hal_lptim.c **** /**
 367:smtc_bsp/arm/stm32/stm32_hal/STM32L0xx_HAL_Driver/Src/stm32l0xx_hal_lptim.c ****   * @brief  DeInitialize LPTIM MSP.
 368:smtc_bsp/arm/stm32/stm32_hal/STM32L0xx_HAL_Driver/Src/stm32l0xx_hal_lptim.c ****   * @param  hlptim LPTIM handle
 369:smtc_bsp/arm/stm32/stm32_hal/STM32L0xx_HAL_Driver/Src/stm32l0xx_hal_lptim.c ****   * @retval None
 370:smtc_bsp/arm/stm32/stm32_hal/STM32L0xx_HAL_Driver/Src/stm32l0xx_hal_lptim.c ****   */
 371:smtc_bsp/arm/stm32/stm32_hal/STM32L0xx_HAL_Driver/Src/stm32l0xx_hal_lptim.c **** __weak void HAL_LPTIM_MspDeInit(LPTIM_HandleTypeDef *hlptim)
 372:smtc_bsp/arm/stm32/stm32_hal/STM32L0xx_HAL_Driver/Src/stm32l0xx_hal_lptim.c **** {
 373:smtc_bsp/arm/stm32/stm32_hal/STM32L0xx_HAL_Driver/Src/stm32l0xx_hal_lptim.c ****   /* Prevent unused argument(s) compilation warning */
 374:smtc_bsp/arm/stm32/stm32_hal/STM32L0xx_HAL_Driver/Src/stm32l0xx_hal_lptim.c ****   UNUSED(hlptim);
 375:smtc_bsp/arm/stm32/stm32_hal/STM32L0xx_HAL_Driver/Src/stm32l0xx_hal_lptim.c **** 
 376:smtc_bsp/arm/stm32/stm32_hal/STM32L0xx_HAL_Driver/Src/stm32l0xx_hal_lptim.c ****   /* NOTE : This function should not be modified, when the callback is needed,
 377:smtc_bsp/arm/stm32/stm32_hal/STM32L0xx_HAL_Driver/Src/stm32l0xx_hal_lptim.c ****             the HAL_LPTIM_MspDeInit could be implemented in the user file
 378:smtc_bsp/arm/stm32/stm32_hal/STM32L0xx_HAL_Driver/Src/stm32l0xx_hal_lptim.c ****    */
 379:smtc_bsp/arm/stm32/stm32_hal/STM32L0xx_HAL_Driver/Src/stm32l0xx_hal_lptim.c **** }
 380:smtc_bsp/arm/stm32/stm32_hal/STM32L0xx_HAL_Driver/Src/stm32l0xx_hal_lptim.c **** 
 381:smtc_bsp/arm/stm32/stm32_hal/STM32L0xx_HAL_Driver/Src/stm32l0xx_hal_lptim.c **** /**
 382:smtc_bsp/arm/stm32/stm32_hal/STM32L0xx_HAL_Driver/Src/stm32l0xx_hal_lptim.c ****   * @}
 383:smtc_bsp/arm/stm32/stm32_hal/STM32L0xx_HAL_Driver/Src/stm32l0xx_hal_lptim.c ****   */
 384:smtc_bsp/arm/stm32/stm32_hal/STM32L0xx_HAL_Driver/Src/stm32l0xx_hal_lptim.c **** 
 385:smtc_bsp/arm/stm32/stm32_hal/STM32L0xx_HAL_Driver/Src/stm32l0xx_hal_lptim.c **** /** @defgroup LPTIM_Exported_Functions_Group2 LPTIM Start-Stop operation functions
 386:smtc_bsp/arm/stm32/stm32_hal/STM32L0xx_HAL_Driver/Src/stm32l0xx_hal_lptim.c ****  *  @brief   Start-Stop operation functions.
 387:smtc_bsp/arm/stm32/stm32_hal/STM32L0xx_HAL_Driver/Src/stm32l0xx_hal_lptim.c ****  *
 388:smtc_bsp/arm/stm32/stm32_hal/STM32L0xx_HAL_Driver/Src/stm32l0xx_hal_lptim.c **** @verbatim
 389:smtc_bsp/arm/stm32/stm32_hal/STM32L0xx_HAL_Driver/Src/stm32l0xx_hal_lptim.c ****   ==============================================================================
 390:smtc_bsp/arm/stm32/stm32_hal/STM32L0xx_HAL_Driver/Src/stm32l0xx_hal_lptim.c ****                 ##### LPTIM Start Stop operation functions #####
 391:smtc_bsp/arm/stm32/stm32_hal/STM32L0xx_HAL_Driver/Src/stm32l0xx_hal_lptim.c ****   ==============================================================================
 392:smtc_bsp/arm/stm32/stm32_hal/STM32L0xx_HAL_Driver/Src/stm32l0xx_hal_lptim.c ****     [..]  This section provides functions allowing to:
 393:smtc_bsp/arm/stm32/stm32_hal/STM32L0xx_HAL_Driver/Src/stm32l0xx_hal_lptim.c ****       (+) Start the PWM mode.
 394:smtc_bsp/arm/stm32/stm32_hal/STM32L0xx_HAL_Driver/Src/stm32l0xx_hal_lptim.c ****       (+) Stop the PWM mode.
 395:smtc_bsp/arm/stm32/stm32_hal/STM32L0xx_HAL_Driver/Src/stm32l0xx_hal_lptim.c ****       (+) Start the One pulse mode.
 396:smtc_bsp/arm/stm32/stm32_hal/STM32L0xx_HAL_Driver/Src/stm32l0xx_hal_lptim.c ****       (+) Stop the One pulse mode.
 397:smtc_bsp/arm/stm32/stm32_hal/STM32L0xx_HAL_Driver/Src/stm32l0xx_hal_lptim.c ****       (+) Start the Set once mode.
 398:smtc_bsp/arm/stm32/stm32_hal/STM32L0xx_HAL_Driver/Src/stm32l0xx_hal_lptim.c ****       (+) Stop the Set once mode.
 399:smtc_bsp/arm/stm32/stm32_hal/STM32L0xx_HAL_Driver/Src/stm32l0xx_hal_lptim.c ****       (+) Start the Encoder mode.
 400:smtc_bsp/arm/stm32/stm32_hal/STM32L0xx_HAL_Driver/Src/stm32l0xx_hal_lptim.c ****       (+) Stop the Encoder mode.
 401:smtc_bsp/arm/stm32/stm32_hal/STM32L0xx_HAL_Driver/Src/stm32l0xx_hal_lptim.c ****       (+) Start the Timeout mode.
 402:smtc_bsp/arm/stm32/stm32_hal/STM32L0xx_HAL_Driver/Src/stm32l0xx_hal_lptim.c ****       (+) Stop the Timeout mode.
 403:smtc_bsp/arm/stm32/stm32_hal/STM32L0xx_HAL_Driver/Src/stm32l0xx_hal_lptim.c ****       (+) Start the Counter mode.
 404:smtc_bsp/arm/stm32/stm32_hal/STM32L0xx_HAL_Driver/Src/stm32l0xx_hal_lptim.c ****       (+) Stop the Counter mode.
 405:smtc_bsp/arm/stm32/stm32_hal/STM32L0xx_HAL_Driver/Src/stm32l0xx_hal_lptim.c **** 
 406:smtc_bsp/arm/stm32/stm32_hal/STM32L0xx_HAL_Driver/Src/stm32l0xx_hal_lptim.c **** 
ARM GAS  /var/folders/bq/yv49bw8j2kd6w3hsq868qv180000gn/T//ccQg3V4x.s 			page 14


 407:smtc_bsp/arm/stm32/stm32_hal/STM32L0xx_HAL_Driver/Src/stm32l0xx_hal_lptim.c **** @endverbatim
 408:smtc_bsp/arm/stm32/stm32_hal/STM32L0xx_HAL_Driver/Src/stm32l0xx_hal_lptim.c ****   * @{
 409:smtc_bsp/arm/stm32/stm32_hal/STM32L0xx_HAL_Driver/Src/stm32l0xx_hal_lptim.c ****   */
 410:smtc_bsp/arm/stm32/stm32_hal/STM32L0xx_HAL_Driver/Src/stm32l0xx_hal_lptim.c **** 
 411:smtc_bsp/arm/stm32/stm32_hal/STM32L0xx_HAL_Driver/Src/stm32l0xx_hal_lptim.c **** /**
 412:smtc_bsp/arm/stm32/stm32_hal/STM32L0xx_HAL_Driver/Src/stm32l0xx_hal_lptim.c ****   * @brief  Start the LPTIM PWM generation.
 413:smtc_bsp/arm/stm32/stm32_hal/STM32L0xx_HAL_Driver/Src/stm32l0xx_hal_lptim.c ****   * @param  hlptim LPTIM handle
 414:smtc_bsp/arm/stm32/stm32_hal/STM32L0xx_HAL_Driver/Src/stm32l0xx_hal_lptim.c ****   * @param  Period Specifies the Autoreload value.
 415:smtc_bsp/arm/stm32/stm32_hal/STM32L0xx_HAL_Driver/Src/stm32l0xx_hal_lptim.c ****   *         This parameter must be a value between 0x0000 and 0xFFFF.
 416:smtc_bsp/arm/stm32/stm32_hal/STM32L0xx_HAL_Driver/Src/stm32l0xx_hal_lptim.c ****   * @param  Pulse Specifies the compare value.
 417:smtc_bsp/arm/stm32/stm32_hal/STM32L0xx_HAL_Driver/Src/stm32l0xx_hal_lptim.c ****   *         This parameter must be a value between 0x0000 and 0xFFFF.
 418:smtc_bsp/arm/stm32/stm32_hal/STM32L0xx_HAL_Driver/Src/stm32l0xx_hal_lptim.c ****   * @retval HAL status
 419:smtc_bsp/arm/stm32/stm32_hal/STM32L0xx_HAL_Driver/Src/stm32l0xx_hal_lptim.c ****   */
 420:smtc_bsp/arm/stm32/stm32_hal/STM32L0xx_HAL_Driver/Src/stm32l0xx_hal_lptim.c **** HAL_StatusTypeDef HAL_LPTIM_PWM_Start(LPTIM_HandleTypeDef *hlptim, uint32_t Period, uint32_t Pulse)
 421:smtc_bsp/arm/stm32/stm32_hal/STM32L0xx_HAL_Driver/Src/stm32l0xx_hal_lptim.c **** {
 269              		.loc 1 421 1 is_stmt 1 view -0
 270              		.cfi_startproc
 271              		@ args = 0, pretend = 0, frame = 0
 272              		@ frame_needed = 0, uses_anonymous_args = 0
 422:smtc_bsp/arm/stm32/stm32_hal/STM32L0xx_HAL_Driver/Src/stm32l0xx_hal_lptim.c ****   /* Check the parameters */
 423:smtc_bsp/arm/stm32/stm32_hal/STM32L0xx_HAL_Driver/Src/stm32l0xx_hal_lptim.c ****   assert_param(IS_LPTIM_INSTANCE(hlptim->Instance));
 273              		.loc 1 423 3 view .LVU78
 424:smtc_bsp/arm/stm32/stm32_hal/STM32L0xx_HAL_Driver/Src/stm32l0xx_hal_lptim.c ****   assert_param(IS_LPTIM_PERIOD(Period));
 274              		.loc 1 424 3 view .LVU79
 425:smtc_bsp/arm/stm32/stm32_hal/STM32L0xx_HAL_Driver/Src/stm32l0xx_hal_lptim.c ****   assert_param(IS_LPTIM_PULSE(Pulse));
 275              		.loc 1 425 3 view .LVU80
 426:smtc_bsp/arm/stm32/stm32_hal/STM32L0xx_HAL_Driver/Src/stm32l0xx_hal_lptim.c **** 
 427:smtc_bsp/arm/stm32/stm32_hal/STM32L0xx_HAL_Driver/Src/stm32l0xx_hal_lptim.c ****   /* Set the LPTIM state */
 428:smtc_bsp/arm/stm32/stm32_hal/STM32L0xx_HAL_Driver/Src/stm32l0xx_hal_lptim.c ****   hlptim->State = HAL_LPTIM_STATE_BUSY;
 276              		.loc 1 428 3 view .LVU81
 421:smtc_bsp/arm/stm32/stm32_hal/STM32L0xx_HAL_Driver/Src/stm32l0xx_hal_lptim.c ****   /* Check the parameters */
 277              		.loc 1 421 1 is_stmt 0 view .LVU82
 278 0000 30B5     		push	{r4, r5, lr}
 279              		.cfi_def_cfa_offset 12
 280              		.cfi_offset 4, -12
 281              		.cfi_offset 5, -8
 282              		.cfi_offset 14, -4
 283              		.loc 1 428 17 view .LVU83
 284 0002 0400     		movs	r4, r0
 285 0004 0223     		movs	r3, #2
 286 0006 2E34     		adds	r4, r4, #46
 287 0008 2370     		strb	r3, [r4]
 429:smtc_bsp/arm/stm32/stm32_hal/STM32L0xx_HAL_Driver/Src/stm32l0xx_hal_lptim.c **** 
 430:smtc_bsp/arm/stm32/stm32_hal/STM32L0xx_HAL_Driver/Src/stm32l0xx_hal_lptim.c ****   /* Reset WAVE bit to set PWM mode */
 431:smtc_bsp/arm/stm32/stm32_hal/STM32L0xx_HAL_Driver/Src/stm32l0xx_hal_lptim.c ****   hlptim->Instance->CFGR &= ~LPTIM_CFGR_WAVE;
 288              		.loc 1 431 3 is_stmt 1 view .LVU84
 289              		.loc 1 431 9 is_stmt 0 view .LVU85
 290 000a 0368     		ldr	r3, [r0]
 291              		.loc 1 431 26 view .LVU86
 292 000c 084D     		ldr	r5, .L22
 293 000e D868     		ldr	r0, [r3, #12]
 294              	.LVL17:
 432:smtc_bsp/arm/stm32/stm32_hal/STM32L0xx_HAL_Driver/Src/stm32l0xx_hal_lptim.c **** 
 433:smtc_bsp/arm/stm32/stm32_hal/STM32L0xx_HAL_Driver/Src/stm32l0xx_hal_lptim.c ****   /* Enable the Peripheral */
 434:smtc_bsp/arm/stm32/stm32_hal/STM32L0xx_HAL_Driver/Src/stm32l0xx_hal_lptim.c ****   __HAL_LPTIM_ENABLE(hlptim);
 435:smtc_bsp/arm/stm32/stm32_hal/STM32L0xx_HAL_Driver/Src/stm32l0xx_hal_lptim.c **** 
 436:smtc_bsp/arm/stm32/stm32_hal/STM32L0xx_HAL_Driver/Src/stm32l0xx_hal_lptim.c ****   /* Load the period value in the autoreload register */
ARM GAS  /var/folders/bq/yv49bw8j2kd6w3hsq868qv180000gn/T//ccQg3V4x.s 			page 15


 437:smtc_bsp/arm/stm32/stm32_hal/STM32L0xx_HAL_Driver/Src/stm32l0xx_hal_lptim.c ****   __HAL_LPTIM_AUTORELOAD_SET(hlptim, Period);
 438:smtc_bsp/arm/stm32/stm32_hal/STM32L0xx_HAL_Driver/Src/stm32l0xx_hal_lptim.c **** 
 439:smtc_bsp/arm/stm32/stm32_hal/STM32L0xx_HAL_Driver/Src/stm32l0xx_hal_lptim.c ****   /* Load the pulse value in the compare register */
 440:smtc_bsp/arm/stm32/stm32_hal/STM32L0xx_HAL_Driver/Src/stm32l0xx_hal_lptim.c ****   __HAL_LPTIM_COMPARE_SET(hlptim, Pulse);
 441:smtc_bsp/arm/stm32/stm32_hal/STM32L0xx_HAL_Driver/Src/stm32l0xx_hal_lptim.c **** 
 442:smtc_bsp/arm/stm32/stm32_hal/STM32L0xx_HAL_Driver/Src/stm32l0xx_hal_lptim.c ****   /* Start timer in continuous mode */
 443:smtc_bsp/arm/stm32/stm32_hal/STM32L0xx_HAL_Driver/Src/stm32l0xx_hal_lptim.c ****   __HAL_LPTIM_START_CONTINUOUS(hlptim);
 444:smtc_bsp/arm/stm32/stm32_hal/STM32L0xx_HAL_Driver/Src/stm32l0xx_hal_lptim.c **** 
 445:smtc_bsp/arm/stm32/stm32_hal/STM32L0xx_HAL_Driver/Src/stm32l0xx_hal_lptim.c ****   /* Change the TIM state*/
 446:smtc_bsp/arm/stm32/stm32_hal/STM32L0xx_HAL_Driver/Src/stm32l0xx_hal_lptim.c ****   hlptim->State = HAL_LPTIM_STATE_READY;
 447:smtc_bsp/arm/stm32/stm32_hal/STM32L0xx_HAL_Driver/Src/stm32l0xx_hal_lptim.c **** 
 448:smtc_bsp/arm/stm32/stm32_hal/STM32L0xx_HAL_Driver/Src/stm32l0xx_hal_lptim.c ****   /* Return function status */
 449:smtc_bsp/arm/stm32/stm32_hal/STM32L0xx_HAL_Driver/Src/stm32l0xx_hal_lptim.c ****   return HAL_OK;
 450:smtc_bsp/arm/stm32/stm32_hal/STM32L0xx_HAL_Driver/Src/stm32l0xx_hal_lptim.c **** }
 295              		.loc 1 450 1 view .LVU87
 296              		@ sp needed
 431:smtc_bsp/arm/stm32/stm32_hal/STM32L0xx_HAL_Driver/Src/stm32l0xx_hal_lptim.c **** 
 297              		.loc 1 431 26 view .LVU88
 298 0010 2840     		ands	r0, r5
 434:smtc_bsp/arm/stm32/stm32_hal/STM32L0xx_HAL_Driver/Src/stm32l0xx_hal_lptim.c **** 
 299              		.loc 1 434 3 view .LVU89
 300 0012 0125     		movs	r5, #1
 431:smtc_bsp/arm/stm32/stm32_hal/STM32L0xx_HAL_Driver/Src/stm32l0xx_hal_lptim.c **** 
 301              		.loc 1 431 26 view .LVU90
 302 0014 D860     		str	r0, [r3, #12]
 434:smtc_bsp/arm/stm32/stm32_hal/STM32L0xx_HAL_Driver/Src/stm32l0xx_hal_lptim.c **** 
 303              		.loc 1 434 3 is_stmt 1 view .LVU91
 304 0016 1869     		ldr	r0, [r3, #16]
 305 0018 2843     		orrs	r0, r5
 306 001a 1861     		str	r0, [r3, #16]
 437:smtc_bsp/arm/stm32/stm32_hal/STM32L0xx_HAL_Driver/Src/stm32l0xx_hal_lptim.c **** 
 307              		.loc 1 437 3 view .LVU92
 308 001c 9961     		str	r1, [r3, #24]
 440:smtc_bsp/arm/stm32/stm32_hal/STM32L0xx_HAL_Driver/Src/stm32l0xx_hal_lptim.c **** 
 309              		.loc 1 440 3 view .LVU93
 310 001e 5A61     		str	r2, [r3, #20]
 443:smtc_bsp/arm/stm32/stm32_hal/STM32L0xx_HAL_Driver/Src/stm32l0xx_hal_lptim.c **** 
 311              		.loc 1 443 3 view .LVU94
 312 0020 0422     		movs	r2, #4
 313              	.LVL18:
 443:smtc_bsp/arm/stm32/stm32_hal/STM32L0xx_HAL_Driver/Src/stm32l0xx_hal_lptim.c **** 
 314              		.loc 1 443 3 is_stmt 0 view .LVU95
 315 0022 1969     		ldr	r1, [r3, #16]
 316              	.LVL19:
 317              		.loc 1 450 1 view .LVU96
 318 0024 0020     		movs	r0, #0
 443:smtc_bsp/arm/stm32/stm32_hal/STM32L0xx_HAL_Driver/Src/stm32l0xx_hal_lptim.c **** 
 319              		.loc 1 443 3 view .LVU97
 320 0026 0A43     		orrs	r2, r1
 321 0028 1A61     		str	r2, [r3, #16]
 322              	.LVL20:
 446:smtc_bsp/arm/stm32/stm32_hal/STM32L0xx_HAL_Driver/Src/stm32l0xx_hal_lptim.c **** 
 323              		.loc 1 446 3 is_stmt 1 view .LVU98
 446:smtc_bsp/arm/stm32/stm32_hal/STM32L0xx_HAL_Driver/Src/stm32l0xx_hal_lptim.c **** 
 324              		.loc 1 446 17 is_stmt 0 view .LVU99
 325 002a 2570     		strb	r5, [r4]
 449:smtc_bsp/arm/stm32/stm32_hal/STM32L0xx_HAL_Driver/Src/stm32l0xx_hal_lptim.c **** }
ARM GAS  /var/folders/bq/yv49bw8j2kd6w3hsq868qv180000gn/T//ccQg3V4x.s 			page 16


 326              		.loc 1 449 3 is_stmt 1 view .LVU100
 327              	.LVL21:
 328              		.loc 1 450 1 is_stmt 0 view .LVU101
 329 002c 30BD     		pop	{r4, r5, pc}
 330              	.L23:
 331 002e C046     		.align	2
 332              	.L22:
 333 0030 FFFFEFFF 		.word	-1048577
 334              		.cfi_endproc
 335              	.LFE51:
 337              		.section	.text.HAL_LPTIM_PWM_Start_IT,"ax",%progbits
 338              		.align	1
 339              		.global	HAL_LPTIM_PWM_Start_IT
 340              		.syntax unified
 341              		.code	16
 342              		.thumb_func
 343              		.fpu softvfp
 345              	HAL_LPTIM_PWM_Start_IT:
 346              	.LVL22:
 347              	.LFB53:
 451:smtc_bsp/arm/stm32/stm32_hal/STM32L0xx_HAL_Driver/Src/stm32l0xx_hal_lptim.c **** 
 452:smtc_bsp/arm/stm32/stm32_hal/STM32L0xx_HAL_Driver/Src/stm32l0xx_hal_lptim.c **** /**
 453:smtc_bsp/arm/stm32/stm32_hal/STM32L0xx_HAL_Driver/Src/stm32l0xx_hal_lptim.c ****   * @brief  Stop the LPTIM PWM generation.
 454:smtc_bsp/arm/stm32/stm32_hal/STM32L0xx_HAL_Driver/Src/stm32l0xx_hal_lptim.c ****   * @param  hlptim LPTIM handle
 455:smtc_bsp/arm/stm32/stm32_hal/STM32L0xx_HAL_Driver/Src/stm32l0xx_hal_lptim.c ****   * @retval HAL status
 456:smtc_bsp/arm/stm32/stm32_hal/STM32L0xx_HAL_Driver/Src/stm32l0xx_hal_lptim.c ****   */
 457:smtc_bsp/arm/stm32/stm32_hal/STM32L0xx_HAL_Driver/Src/stm32l0xx_hal_lptim.c **** HAL_StatusTypeDef HAL_LPTIM_PWM_Stop(LPTIM_HandleTypeDef *hlptim)
 458:smtc_bsp/arm/stm32/stm32_hal/STM32L0xx_HAL_Driver/Src/stm32l0xx_hal_lptim.c **** {
 459:smtc_bsp/arm/stm32/stm32_hal/STM32L0xx_HAL_Driver/Src/stm32l0xx_hal_lptim.c ****   /* Check the parameters */
 460:smtc_bsp/arm/stm32/stm32_hal/STM32L0xx_HAL_Driver/Src/stm32l0xx_hal_lptim.c ****   assert_param(IS_LPTIM_INSTANCE(hlptim->Instance));
 461:smtc_bsp/arm/stm32/stm32_hal/STM32L0xx_HAL_Driver/Src/stm32l0xx_hal_lptim.c **** 
 462:smtc_bsp/arm/stm32/stm32_hal/STM32L0xx_HAL_Driver/Src/stm32l0xx_hal_lptim.c ****   /* Set the LPTIM state */
 463:smtc_bsp/arm/stm32/stm32_hal/STM32L0xx_HAL_Driver/Src/stm32l0xx_hal_lptim.c ****   hlptim->State = HAL_LPTIM_STATE_BUSY;
 464:smtc_bsp/arm/stm32/stm32_hal/STM32L0xx_HAL_Driver/Src/stm32l0xx_hal_lptim.c **** 
 465:smtc_bsp/arm/stm32/stm32_hal/STM32L0xx_HAL_Driver/Src/stm32l0xx_hal_lptim.c ****   /* Disable the Peripheral */
 466:smtc_bsp/arm/stm32/stm32_hal/STM32L0xx_HAL_Driver/Src/stm32l0xx_hal_lptim.c ****   __HAL_LPTIM_DISABLE(hlptim);
 467:smtc_bsp/arm/stm32/stm32_hal/STM32L0xx_HAL_Driver/Src/stm32l0xx_hal_lptim.c **** 
 468:smtc_bsp/arm/stm32/stm32_hal/STM32L0xx_HAL_Driver/Src/stm32l0xx_hal_lptim.c ****   /* Change the TIM state*/
 469:smtc_bsp/arm/stm32/stm32_hal/STM32L0xx_HAL_Driver/Src/stm32l0xx_hal_lptim.c ****   hlptim->State = HAL_LPTIM_STATE_READY;
 470:smtc_bsp/arm/stm32/stm32_hal/STM32L0xx_HAL_Driver/Src/stm32l0xx_hal_lptim.c **** 
 471:smtc_bsp/arm/stm32/stm32_hal/STM32L0xx_HAL_Driver/Src/stm32l0xx_hal_lptim.c ****   /* Return function status */
 472:smtc_bsp/arm/stm32/stm32_hal/STM32L0xx_HAL_Driver/Src/stm32l0xx_hal_lptim.c ****   return HAL_OK;
 473:smtc_bsp/arm/stm32/stm32_hal/STM32L0xx_HAL_Driver/Src/stm32l0xx_hal_lptim.c **** }
 474:smtc_bsp/arm/stm32/stm32_hal/STM32L0xx_HAL_Driver/Src/stm32l0xx_hal_lptim.c **** 
 475:smtc_bsp/arm/stm32/stm32_hal/STM32L0xx_HAL_Driver/Src/stm32l0xx_hal_lptim.c **** /**
 476:smtc_bsp/arm/stm32/stm32_hal/STM32L0xx_HAL_Driver/Src/stm32l0xx_hal_lptim.c ****   * @brief  Start the LPTIM PWM generation in interrupt mode.
 477:smtc_bsp/arm/stm32/stm32_hal/STM32L0xx_HAL_Driver/Src/stm32l0xx_hal_lptim.c ****   * @param  hlptim LPTIM handle
 478:smtc_bsp/arm/stm32/stm32_hal/STM32L0xx_HAL_Driver/Src/stm32l0xx_hal_lptim.c ****   * @param  Period Specifies the Autoreload value.
 479:smtc_bsp/arm/stm32/stm32_hal/STM32L0xx_HAL_Driver/Src/stm32l0xx_hal_lptim.c ****   *         This parameter must be a value between 0x0000 and 0xFFFF
 480:smtc_bsp/arm/stm32/stm32_hal/STM32L0xx_HAL_Driver/Src/stm32l0xx_hal_lptim.c ****   * @param  Pulse Specifies the compare value.
 481:smtc_bsp/arm/stm32/stm32_hal/STM32L0xx_HAL_Driver/Src/stm32l0xx_hal_lptim.c ****   *         This parameter must be a value between 0x0000 and 0xFFFF
 482:smtc_bsp/arm/stm32/stm32_hal/STM32L0xx_HAL_Driver/Src/stm32l0xx_hal_lptim.c ****   * @retval HAL status
 483:smtc_bsp/arm/stm32/stm32_hal/STM32L0xx_HAL_Driver/Src/stm32l0xx_hal_lptim.c ****   */
 484:smtc_bsp/arm/stm32/stm32_hal/STM32L0xx_HAL_Driver/Src/stm32l0xx_hal_lptim.c **** HAL_StatusTypeDef HAL_LPTIM_PWM_Start_IT(LPTIM_HandleTypeDef *hlptim, uint32_t Period, uint32_t Pul
 485:smtc_bsp/arm/stm32/stm32_hal/STM32L0xx_HAL_Driver/Src/stm32l0xx_hal_lptim.c **** {
 348              		.loc 1 485 1 is_stmt 1 view -0
 349              		.cfi_startproc
ARM GAS  /var/folders/bq/yv49bw8j2kd6w3hsq868qv180000gn/T//ccQg3V4x.s 			page 17


 350              		@ args = 0, pretend = 0, frame = 0
 351              		@ frame_needed = 0, uses_anonymous_args = 0
 486:smtc_bsp/arm/stm32/stm32_hal/STM32L0xx_HAL_Driver/Src/stm32l0xx_hal_lptim.c ****   /* Check the parameters */
 487:smtc_bsp/arm/stm32/stm32_hal/STM32L0xx_HAL_Driver/Src/stm32l0xx_hal_lptim.c ****   assert_param(IS_LPTIM_INSTANCE(hlptim->Instance));
 352              		.loc 1 487 3 view .LVU103
 488:smtc_bsp/arm/stm32/stm32_hal/STM32L0xx_HAL_Driver/Src/stm32l0xx_hal_lptim.c ****   assert_param(IS_LPTIM_PERIOD(Period));
 353              		.loc 1 488 3 view .LVU104
 489:smtc_bsp/arm/stm32/stm32_hal/STM32L0xx_HAL_Driver/Src/stm32l0xx_hal_lptim.c ****   assert_param(IS_LPTIM_PULSE(Pulse));
 354              		.loc 1 489 3 view .LVU105
 490:smtc_bsp/arm/stm32/stm32_hal/STM32L0xx_HAL_Driver/Src/stm32l0xx_hal_lptim.c **** 
 491:smtc_bsp/arm/stm32/stm32_hal/STM32L0xx_HAL_Driver/Src/stm32l0xx_hal_lptim.c ****   /* Set the LPTIM state */
 492:smtc_bsp/arm/stm32/stm32_hal/STM32L0xx_HAL_Driver/Src/stm32l0xx_hal_lptim.c ****   hlptim->State = HAL_LPTIM_STATE_BUSY;
 355              		.loc 1 492 3 view .LVU106
 485:smtc_bsp/arm/stm32/stm32_hal/STM32L0xx_HAL_Driver/Src/stm32l0xx_hal_lptim.c ****   /* Check the parameters */
 356              		.loc 1 485 1 is_stmt 0 view .LVU107
 357 0000 F0B5     		push	{r4, r5, r6, r7, lr}
 358              		.cfi_def_cfa_offset 20
 359              		.cfi_offset 4, -20
 360              		.cfi_offset 5, -16
 361              		.cfi_offset 6, -12
 362              		.cfi_offset 7, -8
 363              		.cfi_offset 14, -4
 364              		.loc 1 492 17 view .LVU108
 365 0002 0500     		movs	r5, r0
 366 0004 0224     		movs	r4, #2
 367 0006 2E35     		adds	r5, r5, #46
 368 0008 2C70     		strb	r4, [r5]
 493:smtc_bsp/arm/stm32/stm32_hal/STM32L0xx_HAL_Driver/Src/stm32l0xx_hal_lptim.c **** 
 494:smtc_bsp/arm/stm32/stm32_hal/STM32L0xx_HAL_Driver/Src/stm32l0xx_hal_lptim.c ****   /* Reset WAVE bit to set PWM mode */
 495:smtc_bsp/arm/stm32/stm32_hal/STM32L0xx_HAL_Driver/Src/stm32l0xx_hal_lptim.c ****   hlptim->Instance->CFGR &= ~LPTIM_CFGR_WAVE;
 369              		.loc 1 495 3 is_stmt 1 view .LVU109
 370              		.loc 1 495 9 is_stmt 0 view .LVU110
 371 000a 0368     		ldr	r3, [r0]
 372              		.loc 1 495 26 view .LVU111
 373 000c 134F     		ldr	r7, .L26
 374 000e DE68     		ldr	r6, [r3, #12]
 496:smtc_bsp/arm/stm32/stm32_hal/STM32L0xx_HAL_Driver/Src/stm32l0xx_hal_lptim.c **** 
 497:smtc_bsp/arm/stm32/stm32_hal/STM32L0xx_HAL_Driver/Src/stm32l0xx_hal_lptim.c ****   /* Enable Autoreload write complete interrupt */
 498:smtc_bsp/arm/stm32/stm32_hal/STM32L0xx_HAL_Driver/Src/stm32l0xx_hal_lptim.c ****   __HAL_LPTIM_ENABLE_IT(hlptim, LPTIM_IT_ARROK);
 499:smtc_bsp/arm/stm32/stm32_hal/STM32L0xx_HAL_Driver/Src/stm32l0xx_hal_lptim.c **** 
 500:smtc_bsp/arm/stm32/stm32_hal/STM32L0xx_HAL_Driver/Src/stm32l0xx_hal_lptim.c ****   /* Enable Compare write complete interrupt */
 501:smtc_bsp/arm/stm32/stm32_hal/STM32L0xx_HAL_Driver/Src/stm32l0xx_hal_lptim.c ****   __HAL_LPTIM_ENABLE_IT(hlptim, LPTIM_IT_CMPOK);
 502:smtc_bsp/arm/stm32/stm32_hal/STM32L0xx_HAL_Driver/Src/stm32l0xx_hal_lptim.c **** 
 503:smtc_bsp/arm/stm32/stm32_hal/STM32L0xx_HAL_Driver/Src/stm32l0xx_hal_lptim.c ****   /* Enable Autoreload match interrupt */
 504:smtc_bsp/arm/stm32/stm32_hal/STM32L0xx_HAL_Driver/Src/stm32l0xx_hal_lptim.c ****   __HAL_LPTIM_ENABLE_IT(hlptim, LPTIM_IT_ARRM);
 505:smtc_bsp/arm/stm32/stm32_hal/STM32L0xx_HAL_Driver/Src/stm32l0xx_hal_lptim.c **** 
 506:smtc_bsp/arm/stm32/stm32_hal/STM32L0xx_HAL_Driver/Src/stm32l0xx_hal_lptim.c ****   /* Enable Compare match interrupt */
 507:smtc_bsp/arm/stm32/stm32_hal/STM32L0xx_HAL_Driver/Src/stm32l0xx_hal_lptim.c ****   __HAL_LPTIM_ENABLE_IT(hlptim, LPTIM_IT_CMPM);
 508:smtc_bsp/arm/stm32/stm32_hal/STM32L0xx_HAL_Driver/Src/stm32l0xx_hal_lptim.c **** 
 509:smtc_bsp/arm/stm32/stm32_hal/STM32L0xx_HAL_Driver/Src/stm32l0xx_hal_lptim.c ****   /* If external trigger source is used, then enable external trigger interrupt */
 510:smtc_bsp/arm/stm32/stm32_hal/STM32L0xx_HAL_Driver/Src/stm32l0xx_hal_lptim.c ****   if ((hlptim->Init.Trigger.Source) != LPTIM_TRIGSOURCE_SOFTWARE)
 375              		.loc 1 510 6 view .LVU112
 376 0010 4069     		ldr	r0, [r0, #20]
 377              	.LVL23:
 495:smtc_bsp/arm/stm32/stm32_hal/STM32L0xx_HAL_Driver/Src/stm32l0xx_hal_lptim.c **** 
 378              		.loc 1 495 26 view .LVU113
 379 0012 3E40     		ands	r6, r7
ARM GAS  /var/folders/bq/yv49bw8j2kd6w3hsq868qv180000gn/T//ccQg3V4x.s 			page 18


 380 0014 DE60     		str	r6, [r3, #12]
 498:smtc_bsp/arm/stm32/stm32_hal/STM32L0xx_HAL_Driver/Src/stm32l0xx_hal_lptim.c **** 
 381              		.loc 1 498 3 is_stmt 1 view .LVU114
 382 0016 1026     		movs	r6, #16
 383 0018 9F68     		ldr	r7, [r3, #8]
 384 001a 3E43     		orrs	r6, r7
 385 001c 9E60     		str	r6, [r3, #8]
 501:smtc_bsp/arm/stm32/stm32_hal/STM32L0xx_HAL_Driver/Src/stm32l0xx_hal_lptim.c **** 
 386              		.loc 1 501 3 view .LVU115
 387 001e 0826     		movs	r6, #8
 388 0020 9F68     		ldr	r7, [r3, #8]
 389 0022 3E43     		orrs	r6, r7
 390 0024 9E60     		str	r6, [r3, #8]
 504:smtc_bsp/arm/stm32/stm32_hal/STM32L0xx_HAL_Driver/Src/stm32l0xx_hal_lptim.c **** 
 391              		.loc 1 504 3 view .LVU116
 392 0026 9E68     		ldr	r6, [r3, #8]
 393 0028 3443     		orrs	r4, r6
 394 002a 9C60     		str	r4, [r3, #8]
 507:smtc_bsp/arm/stm32/stm32_hal/STM32L0xx_HAL_Driver/Src/stm32l0xx_hal_lptim.c **** 
 395              		.loc 1 507 3 view .LVU117
 396 002c 0124     		movs	r4, #1
 397 002e 9E68     		ldr	r6, [r3, #8]
 398 0030 3443     		orrs	r4, r6
 399 0032 9C60     		str	r4, [r3, #8]
 400              		.loc 1 510 3 view .LVU118
 401              		.loc 1 510 6 is_stmt 0 view .LVU119
 402 0034 0A4C     		ldr	r4, .L26+4
 403 0036 A042     		cmp	r0, r4
 404 0038 03D0     		beq	.L25
 511:smtc_bsp/arm/stm32/stm32_hal/STM32L0xx_HAL_Driver/Src/stm32l0xx_hal_lptim.c ****   {
 512:smtc_bsp/arm/stm32/stm32_hal/STM32L0xx_HAL_Driver/Src/stm32l0xx_hal_lptim.c ****     /* Enable external trigger interrupt */
 513:smtc_bsp/arm/stm32/stm32_hal/STM32L0xx_HAL_Driver/Src/stm32l0xx_hal_lptim.c ****     __HAL_LPTIM_ENABLE_IT(hlptim, LPTIM_IT_EXTTRIG);
 405              		.loc 1 513 5 is_stmt 1 view .LVU120
 406 003a 0420     		movs	r0, #4
 407 003c 9C68     		ldr	r4, [r3, #8]
 408 003e 2043     		orrs	r0, r4
 409 0040 9860     		str	r0, [r3, #8]
 410              	.L25:
 514:smtc_bsp/arm/stm32/stm32_hal/STM32L0xx_HAL_Driver/Src/stm32l0xx_hal_lptim.c ****   }
 515:smtc_bsp/arm/stm32/stm32_hal/STM32L0xx_HAL_Driver/Src/stm32l0xx_hal_lptim.c **** 
 516:smtc_bsp/arm/stm32/stm32_hal/STM32L0xx_HAL_Driver/Src/stm32l0xx_hal_lptim.c ****   /* Enable the Peripheral */
 517:smtc_bsp/arm/stm32/stm32_hal/STM32L0xx_HAL_Driver/Src/stm32l0xx_hal_lptim.c ****   __HAL_LPTIM_ENABLE(hlptim);
 411              		.loc 1 517 3 view .LVU121
 412 0042 0124     		movs	r4, #1
 413 0044 1869     		ldr	r0, [r3, #16]
 518:smtc_bsp/arm/stm32/stm32_hal/STM32L0xx_HAL_Driver/Src/stm32l0xx_hal_lptim.c **** 
 519:smtc_bsp/arm/stm32/stm32_hal/STM32L0xx_HAL_Driver/Src/stm32l0xx_hal_lptim.c ****   /* Load the period value in the autoreload register */
 520:smtc_bsp/arm/stm32/stm32_hal/STM32L0xx_HAL_Driver/Src/stm32l0xx_hal_lptim.c ****   __HAL_LPTIM_AUTORELOAD_SET(hlptim, Period);
 521:smtc_bsp/arm/stm32/stm32_hal/STM32L0xx_HAL_Driver/Src/stm32l0xx_hal_lptim.c **** 
 522:smtc_bsp/arm/stm32/stm32_hal/STM32L0xx_HAL_Driver/Src/stm32l0xx_hal_lptim.c ****   /* Load the pulse value in the compare register */
 523:smtc_bsp/arm/stm32/stm32_hal/STM32L0xx_HAL_Driver/Src/stm32l0xx_hal_lptim.c ****   __HAL_LPTIM_COMPARE_SET(hlptim, Pulse);
 524:smtc_bsp/arm/stm32/stm32_hal/STM32L0xx_HAL_Driver/Src/stm32l0xx_hal_lptim.c **** 
 525:smtc_bsp/arm/stm32/stm32_hal/STM32L0xx_HAL_Driver/Src/stm32l0xx_hal_lptim.c ****   /* Start timer in continuous mode */
 526:smtc_bsp/arm/stm32/stm32_hal/STM32L0xx_HAL_Driver/Src/stm32l0xx_hal_lptim.c ****   __HAL_LPTIM_START_CONTINUOUS(hlptim);
 527:smtc_bsp/arm/stm32/stm32_hal/STM32L0xx_HAL_Driver/Src/stm32l0xx_hal_lptim.c **** 
 528:smtc_bsp/arm/stm32/stm32_hal/STM32L0xx_HAL_Driver/Src/stm32l0xx_hal_lptim.c ****   /* Change the TIM state*/
 529:smtc_bsp/arm/stm32/stm32_hal/STM32L0xx_HAL_Driver/Src/stm32l0xx_hal_lptim.c ****   hlptim->State = HAL_LPTIM_STATE_READY;
ARM GAS  /var/folders/bq/yv49bw8j2kd6w3hsq868qv180000gn/T//ccQg3V4x.s 			page 19


 530:smtc_bsp/arm/stm32/stm32_hal/STM32L0xx_HAL_Driver/Src/stm32l0xx_hal_lptim.c **** 
 531:smtc_bsp/arm/stm32/stm32_hal/STM32L0xx_HAL_Driver/Src/stm32l0xx_hal_lptim.c ****   /* Return function status */
 532:smtc_bsp/arm/stm32/stm32_hal/STM32L0xx_HAL_Driver/Src/stm32l0xx_hal_lptim.c ****   return HAL_OK;
 533:smtc_bsp/arm/stm32/stm32_hal/STM32L0xx_HAL_Driver/Src/stm32l0xx_hal_lptim.c **** }
 414              		.loc 1 533 1 is_stmt 0 view .LVU122
 415              		@ sp needed
 517:smtc_bsp/arm/stm32/stm32_hal/STM32L0xx_HAL_Driver/Src/stm32l0xx_hal_lptim.c **** 
 416              		.loc 1 517 3 view .LVU123
 417 0046 2043     		orrs	r0, r4
 418 0048 1861     		str	r0, [r3, #16]
 520:smtc_bsp/arm/stm32/stm32_hal/STM32L0xx_HAL_Driver/Src/stm32l0xx_hal_lptim.c **** 
 419              		.loc 1 520 3 is_stmt 1 view .LVU124
 420 004a 9961     		str	r1, [r3, #24]
 523:smtc_bsp/arm/stm32/stm32_hal/STM32L0xx_HAL_Driver/Src/stm32l0xx_hal_lptim.c **** 
 421              		.loc 1 523 3 view .LVU125
 422 004c 5A61     		str	r2, [r3, #20]
 526:smtc_bsp/arm/stm32/stm32_hal/STM32L0xx_HAL_Driver/Src/stm32l0xx_hal_lptim.c **** 
 423              		.loc 1 526 3 view .LVU126
 424 004e 0422     		movs	r2, #4
 425              	.LVL24:
 526:smtc_bsp/arm/stm32/stm32_hal/STM32L0xx_HAL_Driver/Src/stm32l0xx_hal_lptim.c **** 
 426              		.loc 1 526 3 is_stmt 0 view .LVU127
 427 0050 1969     		ldr	r1, [r3, #16]
 428              	.LVL25:
 429              		.loc 1 533 1 view .LVU128
 430 0052 0020     		movs	r0, #0
 526:smtc_bsp/arm/stm32/stm32_hal/STM32L0xx_HAL_Driver/Src/stm32l0xx_hal_lptim.c **** 
 431              		.loc 1 526 3 view .LVU129
 432 0054 0A43     		orrs	r2, r1
 433 0056 1A61     		str	r2, [r3, #16]
 434              	.LVL26:
 529:smtc_bsp/arm/stm32/stm32_hal/STM32L0xx_HAL_Driver/Src/stm32l0xx_hal_lptim.c **** 
 435              		.loc 1 529 3 is_stmt 1 view .LVU130
 529:smtc_bsp/arm/stm32/stm32_hal/STM32L0xx_HAL_Driver/Src/stm32l0xx_hal_lptim.c **** 
 436              		.loc 1 529 17 is_stmt 0 view .LVU131
 437 0058 2C70     		strb	r4, [r5]
 532:smtc_bsp/arm/stm32/stm32_hal/STM32L0xx_HAL_Driver/Src/stm32l0xx_hal_lptim.c **** }
 438              		.loc 1 532 3 is_stmt 1 view .LVU132
 439              	.LVL27:
 440              		.loc 1 533 1 is_stmt 0 view .LVU133
 441 005a F0BD     		pop	{r4, r5, r6, r7, pc}
 442              	.L27:
 443              		.align	2
 444              	.L26:
 445 005c FFFFEFFF 		.word	-1048577
 446 0060 FFFF0000 		.word	65535
 447              		.cfi_endproc
 448              	.LFE53:
 450              		.section	.text.HAL_LPTIM_OnePulse_Start,"ax",%progbits
 451              		.align	1
 452              		.global	HAL_LPTIM_OnePulse_Start
 453              		.syntax unified
 454              		.code	16
 455              		.thumb_func
 456              		.fpu softvfp
 458              	HAL_LPTIM_OnePulse_Start:
 459              	.LVL28:
ARM GAS  /var/folders/bq/yv49bw8j2kd6w3hsq868qv180000gn/T//ccQg3V4x.s 			page 20


 460              	.LFB55:
 534:smtc_bsp/arm/stm32/stm32_hal/STM32L0xx_HAL_Driver/Src/stm32l0xx_hal_lptim.c **** 
 535:smtc_bsp/arm/stm32/stm32_hal/STM32L0xx_HAL_Driver/Src/stm32l0xx_hal_lptim.c **** /**
 536:smtc_bsp/arm/stm32/stm32_hal/STM32L0xx_HAL_Driver/Src/stm32l0xx_hal_lptim.c ****   * @brief  Stop the LPTIM PWM generation in interrupt mode.
 537:smtc_bsp/arm/stm32/stm32_hal/STM32L0xx_HAL_Driver/Src/stm32l0xx_hal_lptim.c ****   * @param  hlptim LPTIM handle
 538:smtc_bsp/arm/stm32/stm32_hal/STM32L0xx_HAL_Driver/Src/stm32l0xx_hal_lptim.c ****   * @retval HAL status
 539:smtc_bsp/arm/stm32/stm32_hal/STM32L0xx_HAL_Driver/Src/stm32l0xx_hal_lptim.c ****   */
 540:smtc_bsp/arm/stm32/stm32_hal/STM32L0xx_HAL_Driver/Src/stm32l0xx_hal_lptim.c **** HAL_StatusTypeDef HAL_LPTIM_PWM_Stop_IT(LPTIM_HandleTypeDef *hlptim)
 541:smtc_bsp/arm/stm32/stm32_hal/STM32L0xx_HAL_Driver/Src/stm32l0xx_hal_lptim.c **** {
 542:smtc_bsp/arm/stm32/stm32_hal/STM32L0xx_HAL_Driver/Src/stm32l0xx_hal_lptim.c ****   /* Check the parameters */
 543:smtc_bsp/arm/stm32/stm32_hal/STM32L0xx_HAL_Driver/Src/stm32l0xx_hal_lptim.c ****   assert_param(IS_LPTIM_INSTANCE(hlptim->Instance));
 544:smtc_bsp/arm/stm32/stm32_hal/STM32L0xx_HAL_Driver/Src/stm32l0xx_hal_lptim.c **** 
 545:smtc_bsp/arm/stm32/stm32_hal/STM32L0xx_HAL_Driver/Src/stm32l0xx_hal_lptim.c ****   /* Set the LPTIM state */
 546:smtc_bsp/arm/stm32/stm32_hal/STM32L0xx_HAL_Driver/Src/stm32l0xx_hal_lptim.c ****   hlptim->State = HAL_LPTIM_STATE_BUSY;
 547:smtc_bsp/arm/stm32/stm32_hal/STM32L0xx_HAL_Driver/Src/stm32l0xx_hal_lptim.c **** 
 548:smtc_bsp/arm/stm32/stm32_hal/STM32L0xx_HAL_Driver/Src/stm32l0xx_hal_lptim.c ****   /* Disable the Peripheral */
 549:smtc_bsp/arm/stm32/stm32_hal/STM32L0xx_HAL_Driver/Src/stm32l0xx_hal_lptim.c ****   __HAL_LPTIM_DISABLE(hlptim);
 550:smtc_bsp/arm/stm32/stm32_hal/STM32L0xx_HAL_Driver/Src/stm32l0xx_hal_lptim.c **** 
 551:smtc_bsp/arm/stm32/stm32_hal/STM32L0xx_HAL_Driver/Src/stm32l0xx_hal_lptim.c ****   /* Disable Autoreload write complete interrupt */
 552:smtc_bsp/arm/stm32/stm32_hal/STM32L0xx_HAL_Driver/Src/stm32l0xx_hal_lptim.c ****   __HAL_LPTIM_DISABLE_IT(hlptim, LPTIM_IT_ARROK);
 553:smtc_bsp/arm/stm32/stm32_hal/STM32L0xx_HAL_Driver/Src/stm32l0xx_hal_lptim.c **** 
 554:smtc_bsp/arm/stm32/stm32_hal/STM32L0xx_HAL_Driver/Src/stm32l0xx_hal_lptim.c ****   /* Disable Compare write complete interrupt */
 555:smtc_bsp/arm/stm32/stm32_hal/STM32L0xx_HAL_Driver/Src/stm32l0xx_hal_lptim.c ****   __HAL_LPTIM_DISABLE_IT(hlptim, LPTIM_IT_CMPOK);
 556:smtc_bsp/arm/stm32/stm32_hal/STM32L0xx_HAL_Driver/Src/stm32l0xx_hal_lptim.c **** 
 557:smtc_bsp/arm/stm32/stm32_hal/STM32L0xx_HAL_Driver/Src/stm32l0xx_hal_lptim.c ****   /* Disable Autoreload match interrupt */
 558:smtc_bsp/arm/stm32/stm32_hal/STM32L0xx_HAL_Driver/Src/stm32l0xx_hal_lptim.c ****   __HAL_LPTIM_DISABLE_IT(hlptim, LPTIM_IT_ARRM);
 559:smtc_bsp/arm/stm32/stm32_hal/STM32L0xx_HAL_Driver/Src/stm32l0xx_hal_lptim.c **** 
 560:smtc_bsp/arm/stm32/stm32_hal/STM32L0xx_HAL_Driver/Src/stm32l0xx_hal_lptim.c ****   /* Disable Compare match interrupt */
 561:smtc_bsp/arm/stm32/stm32_hal/STM32L0xx_HAL_Driver/Src/stm32l0xx_hal_lptim.c ****   __HAL_LPTIM_DISABLE_IT(hlptim, LPTIM_IT_CMPM);
 562:smtc_bsp/arm/stm32/stm32_hal/STM32L0xx_HAL_Driver/Src/stm32l0xx_hal_lptim.c **** 
 563:smtc_bsp/arm/stm32/stm32_hal/STM32L0xx_HAL_Driver/Src/stm32l0xx_hal_lptim.c ****   /* If external trigger source is used, then disable external trigger interrupt */
 564:smtc_bsp/arm/stm32/stm32_hal/STM32L0xx_HAL_Driver/Src/stm32l0xx_hal_lptim.c ****   if ((hlptim->Init.Trigger.Source) != LPTIM_TRIGSOURCE_SOFTWARE)
 565:smtc_bsp/arm/stm32/stm32_hal/STM32L0xx_HAL_Driver/Src/stm32l0xx_hal_lptim.c ****   {
 566:smtc_bsp/arm/stm32/stm32_hal/STM32L0xx_HAL_Driver/Src/stm32l0xx_hal_lptim.c ****     /* Disable external trigger interrupt */
 567:smtc_bsp/arm/stm32/stm32_hal/STM32L0xx_HAL_Driver/Src/stm32l0xx_hal_lptim.c ****     __HAL_LPTIM_DISABLE_IT(hlptim, LPTIM_IT_EXTTRIG);
 568:smtc_bsp/arm/stm32/stm32_hal/STM32L0xx_HAL_Driver/Src/stm32l0xx_hal_lptim.c ****   }
 569:smtc_bsp/arm/stm32/stm32_hal/STM32L0xx_HAL_Driver/Src/stm32l0xx_hal_lptim.c **** 
 570:smtc_bsp/arm/stm32/stm32_hal/STM32L0xx_HAL_Driver/Src/stm32l0xx_hal_lptim.c ****   /* Change the TIM state*/
 571:smtc_bsp/arm/stm32/stm32_hal/STM32L0xx_HAL_Driver/Src/stm32l0xx_hal_lptim.c ****   hlptim->State = HAL_LPTIM_STATE_READY;
 572:smtc_bsp/arm/stm32/stm32_hal/STM32L0xx_HAL_Driver/Src/stm32l0xx_hal_lptim.c **** 
 573:smtc_bsp/arm/stm32/stm32_hal/STM32L0xx_HAL_Driver/Src/stm32l0xx_hal_lptim.c ****   /* Return function status */
 574:smtc_bsp/arm/stm32/stm32_hal/STM32L0xx_HAL_Driver/Src/stm32l0xx_hal_lptim.c ****   return HAL_OK;
 575:smtc_bsp/arm/stm32/stm32_hal/STM32L0xx_HAL_Driver/Src/stm32l0xx_hal_lptim.c **** }
 576:smtc_bsp/arm/stm32/stm32_hal/STM32L0xx_HAL_Driver/Src/stm32l0xx_hal_lptim.c **** 
 577:smtc_bsp/arm/stm32/stm32_hal/STM32L0xx_HAL_Driver/Src/stm32l0xx_hal_lptim.c **** /**
 578:smtc_bsp/arm/stm32/stm32_hal/STM32L0xx_HAL_Driver/Src/stm32l0xx_hal_lptim.c ****   * @brief  Start the LPTIM One pulse generation.
 579:smtc_bsp/arm/stm32/stm32_hal/STM32L0xx_HAL_Driver/Src/stm32l0xx_hal_lptim.c ****   * @param  hlptim LPTIM handle
 580:smtc_bsp/arm/stm32/stm32_hal/STM32L0xx_HAL_Driver/Src/stm32l0xx_hal_lptim.c ****   * @param  Period Specifies the Autoreload value.
 581:smtc_bsp/arm/stm32/stm32_hal/STM32L0xx_HAL_Driver/Src/stm32l0xx_hal_lptim.c ****   *         This parameter must be a value between 0x0000 and 0xFFFF.
 582:smtc_bsp/arm/stm32/stm32_hal/STM32L0xx_HAL_Driver/Src/stm32l0xx_hal_lptim.c ****   * @param  Pulse Specifies the compare value.
 583:smtc_bsp/arm/stm32/stm32_hal/STM32L0xx_HAL_Driver/Src/stm32l0xx_hal_lptim.c ****   *         This parameter must be a value between 0x0000 and 0xFFFF.
 584:smtc_bsp/arm/stm32/stm32_hal/STM32L0xx_HAL_Driver/Src/stm32l0xx_hal_lptim.c ****   * @retval HAL status
 585:smtc_bsp/arm/stm32/stm32_hal/STM32L0xx_HAL_Driver/Src/stm32l0xx_hal_lptim.c ****   */
 586:smtc_bsp/arm/stm32/stm32_hal/STM32L0xx_HAL_Driver/Src/stm32l0xx_hal_lptim.c **** HAL_StatusTypeDef HAL_LPTIM_OnePulse_Start(LPTIM_HandleTypeDef *hlptim, uint32_t Period, uint32_t P
 587:smtc_bsp/arm/stm32/stm32_hal/STM32L0xx_HAL_Driver/Src/stm32l0xx_hal_lptim.c **** {
 461              		.loc 1 587 1 is_stmt 1 view -0
 462              		.cfi_startproc
ARM GAS  /var/folders/bq/yv49bw8j2kd6w3hsq868qv180000gn/T//ccQg3V4x.s 			page 21


 463              		@ args = 0, pretend = 0, frame = 0
 464              		@ frame_needed = 0, uses_anonymous_args = 0
 588:smtc_bsp/arm/stm32/stm32_hal/STM32L0xx_HAL_Driver/Src/stm32l0xx_hal_lptim.c ****   /* Check the parameters */
 589:smtc_bsp/arm/stm32/stm32_hal/STM32L0xx_HAL_Driver/Src/stm32l0xx_hal_lptim.c ****   assert_param(IS_LPTIM_INSTANCE(hlptim->Instance));
 465              		.loc 1 589 3 view .LVU135
 590:smtc_bsp/arm/stm32/stm32_hal/STM32L0xx_HAL_Driver/Src/stm32l0xx_hal_lptim.c ****   assert_param(IS_LPTIM_PERIOD(Period));
 466              		.loc 1 590 3 view .LVU136
 591:smtc_bsp/arm/stm32/stm32_hal/STM32L0xx_HAL_Driver/Src/stm32l0xx_hal_lptim.c ****   assert_param(IS_LPTIM_PULSE(Pulse));
 467              		.loc 1 591 3 view .LVU137
 592:smtc_bsp/arm/stm32/stm32_hal/STM32L0xx_HAL_Driver/Src/stm32l0xx_hal_lptim.c **** 
 593:smtc_bsp/arm/stm32/stm32_hal/STM32L0xx_HAL_Driver/Src/stm32l0xx_hal_lptim.c ****   /* Set the LPTIM state */
 594:smtc_bsp/arm/stm32/stm32_hal/STM32L0xx_HAL_Driver/Src/stm32l0xx_hal_lptim.c ****   hlptim->State = HAL_LPTIM_STATE_BUSY;
 468              		.loc 1 594 3 view .LVU138
 587:smtc_bsp/arm/stm32/stm32_hal/STM32L0xx_HAL_Driver/Src/stm32l0xx_hal_lptim.c ****   /* Check the parameters */
 469              		.loc 1 587 1 is_stmt 0 view .LVU139
 470 0000 70B5     		push	{r4, r5, r6, lr}
 471              		.cfi_def_cfa_offset 16
 472              		.cfi_offset 4, -16
 473              		.cfi_offset 5, -12
 474              		.cfi_offset 6, -8
 475              		.cfi_offset 14, -4
 476              		.loc 1 594 17 view .LVU140
 477 0002 0500     		movs	r5, r0
 478 0004 0224     		movs	r4, #2
 479 0006 2E35     		adds	r5, r5, #46
 480 0008 2C70     		strb	r4, [r5]
 595:smtc_bsp/arm/stm32/stm32_hal/STM32L0xx_HAL_Driver/Src/stm32l0xx_hal_lptim.c **** 
 596:smtc_bsp/arm/stm32/stm32_hal/STM32L0xx_HAL_Driver/Src/stm32l0xx_hal_lptim.c ****   /* Reset WAVE bit to set one pulse mode */
 597:smtc_bsp/arm/stm32/stm32_hal/STM32L0xx_HAL_Driver/Src/stm32l0xx_hal_lptim.c ****   hlptim->Instance->CFGR &= ~LPTIM_CFGR_WAVE;
 481              		.loc 1 597 3 is_stmt 1 view .LVU141
 482              		.loc 1 597 9 is_stmt 0 view .LVU142
 483 000a 0368     		ldr	r3, [r0]
 484              		.loc 1 597 26 view .LVU143
 485 000c 074E     		ldr	r6, .L29
 486 000e D868     		ldr	r0, [r3, #12]
 487              	.LVL29:
 598:smtc_bsp/arm/stm32/stm32_hal/STM32L0xx_HAL_Driver/Src/stm32l0xx_hal_lptim.c **** 
 599:smtc_bsp/arm/stm32/stm32_hal/STM32L0xx_HAL_Driver/Src/stm32l0xx_hal_lptim.c ****   /* Enable the Peripheral */
 600:smtc_bsp/arm/stm32/stm32_hal/STM32L0xx_HAL_Driver/Src/stm32l0xx_hal_lptim.c ****   __HAL_LPTIM_ENABLE(hlptim);
 601:smtc_bsp/arm/stm32/stm32_hal/STM32L0xx_HAL_Driver/Src/stm32l0xx_hal_lptim.c **** 
 602:smtc_bsp/arm/stm32/stm32_hal/STM32L0xx_HAL_Driver/Src/stm32l0xx_hal_lptim.c ****   /* Load the period value in the autoreload register */
 603:smtc_bsp/arm/stm32/stm32_hal/STM32L0xx_HAL_Driver/Src/stm32l0xx_hal_lptim.c ****   __HAL_LPTIM_AUTORELOAD_SET(hlptim, Period);
 604:smtc_bsp/arm/stm32/stm32_hal/STM32L0xx_HAL_Driver/Src/stm32l0xx_hal_lptim.c **** 
 605:smtc_bsp/arm/stm32/stm32_hal/STM32L0xx_HAL_Driver/Src/stm32l0xx_hal_lptim.c ****   /* Load the pulse value in the compare register */
 606:smtc_bsp/arm/stm32/stm32_hal/STM32L0xx_HAL_Driver/Src/stm32l0xx_hal_lptim.c ****   __HAL_LPTIM_COMPARE_SET(hlptim, Pulse);
 607:smtc_bsp/arm/stm32/stm32_hal/STM32L0xx_HAL_Driver/Src/stm32l0xx_hal_lptim.c **** 
 608:smtc_bsp/arm/stm32/stm32_hal/STM32L0xx_HAL_Driver/Src/stm32l0xx_hal_lptim.c ****   /* Start timer in single (one shot) mode */
 609:smtc_bsp/arm/stm32/stm32_hal/STM32L0xx_HAL_Driver/Src/stm32l0xx_hal_lptim.c ****   __HAL_LPTIM_START_SINGLE(hlptim);
 610:smtc_bsp/arm/stm32/stm32_hal/STM32L0xx_HAL_Driver/Src/stm32l0xx_hal_lptim.c **** 
 611:smtc_bsp/arm/stm32/stm32_hal/STM32L0xx_HAL_Driver/Src/stm32l0xx_hal_lptim.c ****   /* Change the TIM state*/
 612:smtc_bsp/arm/stm32/stm32_hal/STM32L0xx_HAL_Driver/Src/stm32l0xx_hal_lptim.c ****   hlptim->State = HAL_LPTIM_STATE_READY;
 613:smtc_bsp/arm/stm32/stm32_hal/STM32L0xx_HAL_Driver/Src/stm32l0xx_hal_lptim.c **** 
 614:smtc_bsp/arm/stm32/stm32_hal/STM32L0xx_HAL_Driver/Src/stm32l0xx_hal_lptim.c ****   /* Return function status */
 615:smtc_bsp/arm/stm32/stm32_hal/STM32L0xx_HAL_Driver/Src/stm32l0xx_hal_lptim.c ****   return HAL_OK;
 616:smtc_bsp/arm/stm32/stm32_hal/STM32L0xx_HAL_Driver/Src/stm32l0xx_hal_lptim.c **** }
 488              		.loc 1 616 1 view .LVU144
 489              		@ sp needed
ARM GAS  /var/folders/bq/yv49bw8j2kd6w3hsq868qv180000gn/T//ccQg3V4x.s 			page 22


 597:smtc_bsp/arm/stm32/stm32_hal/STM32L0xx_HAL_Driver/Src/stm32l0xx_hal_lptim.c **** 
 490              		.loc 1 597 26 view .LVU145
 491 0010 3040     		ands	r0, r6
 600:smtc_bsp/arm/stm32/stm32_hal/STM32L0xx_HAL_Driver/Src/stm32l0xx_hal_lptim.c **** 
 492              		.loc 1 600 3 view .LVU146
 493 0012 0126     		movs	r6, #1
 597:smtc_bsp/arm/stm32/stm32_hal/STM32L0xx_HAL_Driver/Src/stm32l0xx_hal_lptim.c **** 
 494              		.loc 1 597 26 view .LVU147
 495 0014 D860     		str	r0, [r3, #12]
 600:smtc_bsp/arm/stm32/stm32_hal/STM32L0xx_HAL_Driver/Src/stm32l0xx_hal_lptim.c **** 
 496              		.loc 1 600 3 is_stmt 1 view .LVU148
 497 0016 1869     		ldr	r0, [r3, #16]
 498 0018 3043     		orrs	r0, r6
 499 001a 1861     		str	r0, [r3, #16]
 603:smtc_bsp/arm/stm32/stm32_hal/STM32L0xx_HAL_Driver/Src/stm32l0xx_hal_lptim.c **** 
 500              		.loc 1 603 3 view .LVU149
 501 001c 9961     		str	r1, [r3, #24]
 606:smtc_bsp/arm/stm32/stm32_hal/STM32L0xx_HAL_Driver/Src/stm32l0xx_hal_lptim.c **** 
 502              		.loc 1 606 3 view .LVU150
 503 001e 5A61     		str	r2, [r3, #20]
 609:smtc_bsp/arm/stm32/stm32_hal/STM32L0xx_HAL_Driver/Src/stm32l0xx_hal_lptim.c **** 
 504              		.loc 1 609 3 view .LVU151
 505 0020 1A69     		ldr	r2, [r3, #16]
 506              	.LVL30:
 507              		.loc 1 616 1 is_stmt 0 view .LVU152
 508 0022 0020     		movs	r0, #0
 609:smtc_bsp/arm/stm32/stm32_hal/STM32L0xx_HAL_Driver/Src/stm32l0xx_hal_lptim.c **** 
 509              		.loc 1 609 3 view .LVU153
 510 0024 1443     		orrs	r4, r2
 511 0026 1C61     		str	r4, [r3, #16]
 512              	.LVL31:
 612:smtc_bsp/arm/stm32/stm32_hal/STM32L0xx_HAL_Driver/Src/stm32l0xx_hal_lptim.c **** 
 513              		.loc 1 612 3 is_stmt 1 view .LVU154
 612:smtc_bsp/arm/stm32/stm32_hal/STM32L0xx_HAL_Driver/Src/stm32l0xx_hal_lptim.c **** 
 514              		.loc 1 612 17 is_stmt 0 view .LVU155
 515 0028 2E70     		strb	r6, [r5]
 615:smtc_bsp/arm/stm32/stm32_hal/STM32L0xx_HAL_Driver/Src/stm32l0xx_hal_lptim.c **** }
 516              		.loc 1 615 3 is_stmt 1 view .LVU156
 517              	.LVL32:
 518              		.loc 1 616 1 is_stmt 0 view .LVU157
 519 002a 70BD     		pop	{r4, r5, r6, pc}
 520              	.L30:
 521              		.align	2
 522              	.L29:
 523 002c FFFFEFFF 		.word	-1048577
 524              		.cfi_endproc
 525              	.LFE55:
 527              		.section	.text.HAL_LPTIM_OnePulse_Start_IT,"ax",%progbits
 528              		.align	1
 529              		.global	HAL_LPTIM_OnePulse_Start_IT
 530              		.syntax unified
 531              		.code	16
 532              		.thumb_func
 533              		.fpu softvfp
 535              	HAL_LPTIM_OnePulse_Start_IT:
 536              	.LVL33:
 537              	.LFB57:
ARM GAS  /var/folders/bq/yv49bw8j2kd6w3hsq868qv180000gn/T//ccQg3V4x.s 			page 23


 617:smtc_bsp/arm/stm32/stm32_hal/STM32L0xx_HAL_Driver/Src/stm32l0xx_hal_lptim.c **** 
 618:smtc_bsp/arm/stm32/stm32_hal/STM32L0xx_HAL_Driver/Src/stm32l0xx_hal_lptim.c **** /**
 619:smtc_bsp/arm/stm32/stm32_hal/STM32L0xx_HAL_Driver/Src/stm32l0xx_hal_lptim.c ****   * @brief  Stop the LPTIM One pulse generation.
 620:smtc_bsp/arm/stm32/stm32_hal/STM32L0xx_HAL_Driver/Src/stm32l0xx_hal_lptim.c ****   * @param  hlptim LPTIM handle
 621:smtc_bsp/arm/stm32/stm32_hal/STM32L0xx_HAL_Driver/Src/stm32l0xx_hal_lptim.c ****   * @retval HAL status
 622:smtc_bsp/arm/stm32/stm32_hal/STM32L0xx_HAL_Driver/Src/stm32l0xx_hal_lptim.c ****   */
 623:smtc_bsp/arm/stm32/stm32_hal/STM32L0xx_HAL_Driver/Src/stm32l0xx_hal_lptim.c **** HAL_StatusTypeDef HAL_LPTIM_OnePulse_Stop(LPTIM_HandleTypeDef *hlptim)
 624:smtc_bsp/arm/stm32/stm32_hal/STM32L0xx_HAL_Driver/Src/stm32l0xx_hal_lptim.c **** {
 625:smtc_bsp/arm/stm32/stm32_hal/STM32L0xx_HAL_Driver/Src/stm32l0xx_hal_lptim.c ****   /* Check the parameters */
 626:smtc_bsp/arm/stm32/stm32_hal/STM32L0xx_HAL_Driver/Src/stm32l0xx_hal_lptim.c ****   assert_param(IS_LPTIM_INSTANCE(hlptim->Instance));
 627:smtc_bsp/arm/stm32/stm32_hal/STM32L0xx_HAL_Driver/Src/stm32l0xx_hal_lptim.c **** 
 628:smtc_bsp/arm/stm32/stm32_hal/STM32L0xx_HAL_Driver/Src/stm32l0xx_hal_lptim.c ****   /* Set the LPTIM state */
 629:smtc_bsp/arm/stm32/stm32_hal/STM32L0xx_HAL_Driver/Src/stm32l0xx_hal_lptim.c ****   hlptim->State = HAL_LPTIM_STATE_BUSY;
 630:smtc_bsp/arm/stm32/stm32_hal/STM32L0xx_HAL_Driver/Src/stm32l0xx_hal_lptim.c **** 
 631:smtc_bsp/arm/stm32/stm32_hal/STM32L0xx_HAL_Driver/Src/stm32l0xx_hal_lptim.c ****   /* Disable the Peripheral */
 632:smtc_bsp/arm/stm32/stm32_hal/STM32L0xx_HAL_Driver/Src/stm32l0xx_hal_lptim.c ****   __HAL_LPTIM_DISABLE(hlptim);
 633:smtc_bsp/arm/stm32/stm32_hal/STM32L0xx_HAL_Driver/Src/stm32l0xx_hal_lptim.c **** 
 634:smtc_bsp/arm/stm32/stm32_hal/STM32L0xx_HAL_Driver/Src/stm32l0xx_hal_lptim.c ****   /* Change the TIM state*/
 635:smtc_bsp/arm/stm32/stm32_hal/STM32L0xx_HAL_Driver/Src/stm32l0xx_hal_lptim.c ****   hlptim->State = HAL_LPTIM_STATE_READY;
 636:smtc_bsp/arm/stm32/stm32_hal/STM32L0xx_HAL_Driver/Src/stm32l0xx_hal_lptim.c **** 
 637:smtc_bsp/arm/stm32/stm32_hal/STM32L0xx_HAL_Driver/Src/stm32l0xx_hal_lptim.c ****   /* Return function status */
 638:smtc_bsp/arm/stm32/stm32_hal/STM32L0xx_HAL_Driver/Src/stm32l0xx_hal_lptim.c ****   return HAL_OK;
 639:smtc_bsp/arm/stm32/stm32_hal/STM32L0xx_HAL_Driver/Src/stm32l0xx_hal_lptim.c **** }
 640:smtc_bsp/arm/stm32/stm32_hal/STM32L0xx_HAL_Driver/Src/stm32l0xx_hal_lptim.c **** 
 641:smtc_bsp/arm/stm32/stm32_hal/STM32L0xx_HAL_Driver/Src/stm32l0xx_hal_lptim.c **** /**
 642:smtc_bsp/arm/stm32/stm32_hal/STM32L0xx_HAL_Driver/Src/stm32l0xx_hal_lptim.c ****   * @brief  Start the LPTIM One pulse generation in interrupt mode.
 643:smtc_bsp/arm/stm32/stm32_hal/STM32L0xx_HAL_Driver/Src/stm32l0xx_hal_lptim.c ****   * @param  hlptim LPTIM handle
 644:smtc_bsp/arm/stm32/stm32_hal/STM32L0xx_HAL_Driver/Src/stm32l0xx_hal_lptim.c ****   * @param  Period Specifies the Autoreload value.
 645:smtc_bsp/arm/stm32/stm32_hal/STM32L0xx_HAL_Driver/Src/stm32l0xx_hal_lptim.c ****   *         This parameter must be a value between 0x0000 and 0xFFFF.
 646:smtc_bsp/arm/stm32/stm32_hal/STM32L0xx_HAL_Driver/Src/stm32l0xx_hal_lptim.c ****   * @param  Pulse Specifies the compare value.
 647:smtc_bsp/arm/stm32/stm32_hal/STM32L0xx_HAL_Driver/Src/stm32l0xx_hal_lptim.c ****   *         This parameter must be a value between 0x0000 and 0xFFFF.
 648:smtc_bsp/arm/stm32/stm32_hal/STM32L0xx_HAL_Driver/Src/stm32l0xx_hal_lptim.c ****   * @retval HAL status
 649:smtc_bsp/arm/stm32/stm32_hal/STM32L0xx_HAL_Driver/Src/stm32l0xx_hal_lptim.c ****   */
 650:smtc_bsp/arm/stm32/stm32_hal/STM32L0xx_HAL_Driver/Src/stm32l0xx_hal_lptim.c **** HAL_StatusTypeDef HAL_LPTIM_OnePulse_Start_IT(LPTIM_HandleTypeDef *hlptim, uint32_t Period, uint32_
 651:smtc_bsp/arm/stm32/stm32_hal/STM32L0xx_HAL_Driver/Src/stm32l0xx_hal_lptim.c **** {
 538              		.loc 1 651 1 is_stmt 1 view -0
 539              		.cfi_startproc
 540              		@ args = 0, pretend = 0, frame = 0
 541              		@ frame_needed = 0, uses_anonymous_args = 0
 652:smtc_bsp/arm/stm32/stm32_hal/STM32L0xx_HAL_Driver/Src/stm32l0xx_hal_lptim.c ****   /* Check the parameters */
 653:smtc_bsp/arm/stm32/stm32_hal/STM32L0xx_HAL_Driver/Src/stm32l0xx_hal_lptim.c ****   assert_param(IS_LPTIM_INSTANCE(hlptim->Instance));
 542              		.loc 1 653 3 view .LVU159
 654:smtc_bsp/arm/stm32/stm32_hal/STM32L0xx_HAL_Driver/Src/stm32l0xx_hal_lptim.c ****   assert_param(IS_LPTIM_PERIOD(Period));
 543              		.loc 1 654 3 view .LVU160
 655:smtc_bsp/arm/stm32/stm32_hal/STM32L0xx_HAL_Driver/Src/stm32l0xx_hal_lptim.c ****   assert_param(IS_LPTIM_PULSE(Pulse));
 544              		.loc 1 655 3 view .LVU161
 656:smtc_bsp/arm/stm32/stm32_hal/STM32L0xx_HAL_Driver/Src/stm32l0xx_hal_lptim.c **** 
 657:smtc_bsp/arm/stm32/stm32_hal/STM32L0xx_HAL_Driver/Src/stm32l0xx_hal_lptim.c ****   /* Set the LPTIM state */
 658:smtc_bsp/arm/stm32/stm32_hal/STM32L0xx_HAL_Driver/Src/stm32l0xx_hal_lptim.c ****   hlptim->State = HAL_LPTIM_STATE_BUSY;
 545              		.loc 1 658 3 view .LVU162
 651:smtc_bsp/arm/stm32/stm32_hal/STM32L0xx_HAL_Driver/Src/stm32l0xx_hal_lptim.c ****   /* Check the parameters */
 546              		.loc 1 651 1 is_stmt 0 view .LVU163
 547 0000 F0B5     		push	{r4, r5, r6, r7, lr}
 548              		.cfi_def_cfa_offset 20
 549              		.cfi_offset 4, -20
 550              		.cfi_offset 5, -16
 551              		.cfi_offset 6, -12
ARM GAS  /var/folders/bq/yv49bw8j2kd6w3hsq868qv180000gn/T//ccQg3V4x.s 			page 24


 552              		.cfi_offset 7, -8
 553              		.cfi_offset 14, -4
 554              		.loc 1 658 17 view .LVU164
 555 0002 0500     		movs	r5, r0
 556 0004 0224     		movs	r4, #2
 557 0006 2E35     		adds	r5, r5, #46
 558 0008 2C70     		strb	r4, [r5]
 659:smtc_bsp/arm/stm32/stm32_hal/STM32L0xx_HAL_Driver/Src/stm32l0xx_hal_lptim.c **** 
 660:smtc_bsp/arm/stm32/stm32_hal/STM32L0xx_HAL_Driver/Src/stm32l0xx_hal_lptim.c ****   /* Reset WAVE bit to set one pulse mode */
 661:smtc_bsp/arm/stm32/stm32_hal/STM32L0xx_HAL_Driver/Src/stm32l0xx_hal_lptim.c ****   hlptim->Instance->CFGR &= ~LPTIM_CFGR_WAVE;
 559              		.loc 1 661 3 is_stmt 1 view .LVU165
 560              		.loc 1 661 9 is_stmt 0 view .LVU166
 561 000a 0368     		ldr	r3, [r0]
 562              		.loc 1 661 26 view .LVU167
 563 000c 134F     		ldr	r7, .L33
 564 000e DE68     		ldr	r6, [r3, #12]
 662:smtc_bsp/arm/stm32/stm32_hal/STM32L0xx_HAL_Driver/Src/stm32l0xx_hal_lptim.c **** 
 663:smtc_bsp/arm/stm32/stm32_hal/STM32L0xx_HAL_Driver/Src/stm32l0xx_hal_lptim.c ****   /* Enable Autoreload write complete interrupt */
 664:smtc_bsp/arm/stm32/stm32_hal/STM32L0xx_HAL_Driver/Src/stm32l0xx_hal_lptim.c ****   __HAL_LPTIM_ENABLE_IT(hlptim, LPTIM_IT_ARROK);
 665:smtc_bsp/arm/stm32/stm32_hal/STM32L0xx_HAL_Driver/Src/stm32l0xx_hal_lptim.c **** 
 666:smtc_bsp/arm/stm32/stm32_hal/STM32L0xx_HAL_Driver/Src/stm32l0xx_hal_lptim.c ****   /* Enable Compare write complete interrupt */
 667:smtc_bsp/arm/stm32/stm32_hal/STM32L0xx_HAL_Driver/Src/stm32l0xx_hal_lptim.c ****   __HAL_LPTIM_ENABLE_IT(hlptim, LPTIM_IT_CMPOK);
 668:smtc_bsp/arm/stm32/stm32_hal/STM32L0xx_HAL_Driver/Src/stm32l0xx_hal_lptim.c **** 
 669:smtc_bsp/arm/stm32/stm32_hal/STM32L0xx_HAL_Driver/Src/stm32l0xx_hal_lptim.c ****   /* Enable Autoreload match interrupt */
 670:smtc_bsp/arm/stm32/stm32_hal/STM32L0xx_HAL_Driver/Src/stm32l0xx_hal_lptim.c ****   __HAL_LPTIM_ENABLE_IT(hlptim, LPTIM_IT_ARRM);
 671:smtc_bsp/arm/stm32/stm32_hal/STM32L0xx_HAL_Driver/Src/stm32l0xx_hal_lptim.c **** 
 672:smtc_bsp/arm/stm32/stm32_hal/STM32L0xx_HAL_Driver/Src/stm32l0xx_hal_lptim.c ****   /* Enable Compare match interrupt */
 673:smtc_bsp/arm/stm32/stm32_hal/STM32L0xx_HAL_Driver/Src/stm32l0xx_hal_lptim.c ****   __HAL_LPTIM_ENABLE_IT(hlptim, LPTIM_IT_CMPM);
 674:smtc_bsp/arm/stm32/stm32_hal/STM32L0xx_HAL_Driver/Src/stm32l0xx_hal_lptim.c **** 
 675:smtc_bsp/arm/stm32/stm32_hal/STM32L0xx_HAL_Driver/Src/stm32l0xx_hal_lptim.c ****   /* If external trigger source is used, then enable external trigger interrupt */
 676:smtc_bsp/arm/stm32/stm32_hal/STM32L0xx_HAL_Driver/Src/stm32l0xx_hal_lptim.c ****   if ((hlptim->Init.Trigger.Source) != LPTIM_TRIGSOURCE_SOFTWARE)
 565              		.loc 1 676 6 view .LVU168
 566 0010 4069     		ldr	r0, [r0, #20]
 567              	.LVL34:
 661:smtc_bsp/arm/stm32/stm32_hal/STM32L0xx_HAL_Driver/Src/stm32l0xx_hal_lptim.c **** 
 568              		.loc 1 661 26 view .LVU169
 569 0012 3E40     		ands	r6, r7
 570 0014 DE60     		str	r6, [r3, #12]
 664:smtc_bsp/arm/stm32/stm32_hal/STM32L0xx_HAL_Driver/Src/stm32l0xx_hal_lptim.c **** 
 571              		.loc 1 664 3 is_stmt 1 view .LVU170
 572 0016 1026     		movs	r6, #16
 573 0018 9F68     		ldr	r7, [r3, #8]
 574 001a 3E43     		orrs	r6, r7
 575 001c 9E60     		str	r6, [r3, #8]
 667:smtc_bsp/arm/stm32/stm32_hal/STM32L0xx_HAL_Driver/Src/stm32l0xx_hal_lptim.c **** 
 576              		.loc 1 667 3 view .LVU171
 577 001e 0826     		movs	r6, #8
 578 0020 9F68     		ldr	r7, [r3, #8]
 579 0022 3E43     		orrs	r6, r7
 580 0024 9E60     		str	r6, [r3, #8]
 670:smtc_bsp/arm/stm32/stm32_hal/STM32L0xx_HAL_Driver/Src/stm32l0xx_hal_lptim.c **** 
 581              		.loc 1 670 3 view .LVU172
 582 0026 9E68     		ldr	r6, [r3, #8]
 583 0028 3443     		orrs	r4, r6
 584 002a 9C60     		str	r4, [r3, #8]
 673:smtc_bsp/arm/stm32/stm32_hal/STM32L0xx_HAL_Driver/Src/stm32l0xx_hal_lptim.c **** 
 585              		.loc 1 673 3 view .LVU173
ARM GAS  /var/folders/bq/yv49bw8j2kd6w3hsq868qv180000gn/T//ccQg3V4x.s 			page 25


 586 002c 0124     		movs	r4, #1
 587 002e 9E68     		ldr	r6, [r3, #8]
 588 0030 3443     		orrs	r4, r6
 589 0032 9C60     		str	r4, [r3, #8]
 590              		.loc 1 676 3 view .LVU174
 591              		.loc 1 676 6 is_stmt 0 view .LVU175
 592 0034 0A4C     		ldr	r4, .L33+4
 593 0036 A042     		cmp	r0, r4
 594 0038 03D0     		beq	.L32
 677:smtc_bsp/arm/stm32/stm32_hal/STM32L0xx_HAL_Driver/Src/stm32l0xx_hal_lptim.c ****   {
 678:smtc_bsp/arm/stm32/stm32_hal/STM32L0xx_HAL_Driver/Src/stm32l0xx_hal_lptim.c ****     /* Enable external trigger interrupt */
 679:smtc_bsp/arm/stm32/stm32_hal/STM32L0xx_HAL_Driver/Src/stm32l0xx_hal_lptim.c ****     __HAL_LPTIM_ENABLE_IT(hlptim, LPTIM_IT_EXTTRIG);
 595              		.loc 1 679 5 is_stmt 1 view .LVU176
 596 003a 0420     		movs	r0, #4
 597 003c 9C68     		ldr	r4, [r3, #8]
 598 003e 2043     		orrs	r0, r4
 599 0040 9860     		str	r0, [r3, #8]
 600              	.L32:
 680:smtc_bsp/arm/stm32/stm32_hal/STM32L0xx_HAL_Driver/Src/stm32l0xx_hal_lptim.c ****   }
 681:smtc_bsp/arm/stm32/stm32_hal/STM32L0xx_HAL_Driver/Src/stm32l0xx_hal_lptim.c **** 
 682:smtc_bsp/arm/stm32/stm32_hal/STM32L0xx_HAL_Driver/Src/stm32l0xx_hal_lptim.c ****   /* Enable the Peripheral */
 683:smtc_bsp/arm/stm32/stm32_hal/STM32L0xx_HAL_Driver/Src/stm32l0xx_hal_lptim.c ****   __HAL_LPTIM_ENABLE(hlptim);
 601              		.loc 1 683 3 view .LVU177
 602 0042 0124     		movs	r4, #1
 603 0044 1869     		ldr	r0, [r3, #16]
 684:smtc_bsp/arm/stm32/stm32_hal/STM32L0xx_HAL_Driver/Src/stm32l0xx_hal_lptim.c **** 
 685:smtc_bsp/arm/stm32/stm32_hal/STM32L0xx_HAL_Driver/Src/stm32l0xx_hal_lptim.c ****   /* Load the period value in the autoreload register */
 686:smtc_bsp/arm/stm32/stm32_hal/STM32L0xx_HAL_Driver/Src/stm32l0xx_hal_lptim.c ****   __HAL_LPTIM_AUTORELOAD_SET(hlptim, Period);
 687:smtc_bsp/arm/stm32/stm32_hal/STM32L0xx_HAL_Driver/Src/stm32l0xx_hal_lptim.c **** 
 688:smtc_bsp/arm/stm32/stm32_hal/STM32L0xx_HAL_Driver/Src/stm32l0xx_hal_lptim.c ****   /* Load the pulse value in the compare register */
 689:smtc_bsp/arm/stm32/stm32_hal/STM32L0xx_HAL_Driver/Src/stm32l0xx_hal_lptim.c ****   __HAL_LPTIM_COMPARE_SET(hlptim, Pulse);
 690:smtc_bsp/arm/stm32/stm32_hal/STM32L0xx_HAL_Driver/Src/stm32l0xx_hal_lptim.c **** 
 691:smtc_bsp/arm/stm32/stm32_hal/STM32L0xx_HAL_Driver/Src/stm32l0xx_hal_lptim.c ****   /* Start timer in single (one shot) mode */
 692:smtc_bsp/arm/stm32/stm32_hal/STM32L0xx_HAL_Driver/Src/stm32l0xx_hal_lptim.c ****   __HAL_LPTIM_START_SINGLE(hlptim);
 693:smtc_bsp/arm/stm32/stm32_hal/STM32L0xx_HAL_Driver/Src/stm32l0xx_hal_lptim.c **** 
 694:smtc_bsp/arm/stm32/stm32_hal/STM32L0xx_HAL_Driver/Src/stm32l0xx_hal_lptim.c ****   /* Change the TIM state*/
 695:smtc_bsp/arm/stm32/stm32_hal/STM32L0xx_HAL_Driver/Src/stm32l0xx_hal_lptim.c ****   hlptim->State = HAL_LPTIM_STATE_READY;
 696:smtc_bsp/arm/stm32/stm32_hal/STM32L0xx_HAL_Driver/Src/stm32l0xx_hal_lptim.c **** 
 697:smtc_bsp/arm/stm32/stm32_hal/STM32L0xx_HAL_Driver/Src/stm32l0xx_hal_lptim.c ****   /* Return function status */
 698:smtc_bsp/arm/stm32/stm32_hal/STM32L0xx_HAL_Driver/Src/stm32l0xx_hal_lptim.c ****   return HAL_OK;
 699:smtc_bsp/arm/stm32/stm32_hal/STM32L0xx_HAL_Driver/Src/stm32l0xx_hal_lptim.c **** }
 604              		.loc 1 699 1 is_stmt 0 view .LVU178
 605              		@ sp needed
 683:smtc_bsp/arm/stm32/stm32_hal/STM32L0xx_HAL_Driver/Src/stm32l0xx_hal_lptim.c **** 
 606              		.loc 1 683 3 view .LVU179
 607 0046 2043     		orrs	r0, r4
 608 0048 1861     		str	r0, [r3, #16]
 686:smtc_bsp/arm/stm32/stm32_hal/STM32L0xx_HAL_Driver/Src/stm32l0xx_hal_lptim.c **** 
 609              		.loc 1 686 3 is_stmt 1 view .LVU180
 610 004a 9961     		str	r1, [r3, #24]
 689:smtc_bsp/arm/stm32/stm32_hal/STM32L0xx_HAL_Driver/Src/stm32l0xx_hal_lptim.c **** 
 611              		.loc 1 689 3 view .LVU181
 612 004c 5A61     		str	r2, [r3, #20]
 692:smtc_bsp/arm/stm32/stm32_hal/STM32L0xx_HAL_Driver/Src/stm32l0xx_hal_lptim.c **** 
 613              		.loc 1 692 3 view .LVU182
 614 004e 0222     		movs	r2, #2
 615              	.LVL35:
ARM GAS  /var/folders/bq/yv49bw8j2kd6w3hsq868qv180000gn/T//ccQg3V4x.s 			page 26


 692:smtc_bsp/arm/stm32/stm32_hal/STM32L0xx_HAL_Driver/Src/stm32l0xx_hal_lptim.c **** 
 616              		.loc 1 692 3 is_stmt 0 view .LVU183
 617 0050 1969     		ldr	r1, [r3, #16]
 618              	.LVL36:
 619              		.loc 1 699 1 view .LVU184
 620 0052 0020     		movs	r0, #0
 692:smtc_bsp/arm/stm32/stm32_hal/STM32L0xx_HAL_Driver/Src/stm32l0xx_hal_lptim.c **** 
 621              		.loc 1 692 3 view .LVU185
 622 0054 0A43     		orrs	r2, r1
 623 0056 1A61     		str	r2, [r3, #16]
 624              	.LVL37:
 695:smtc_bsp/arm/stm32/stm32_hal/STM32L0xx_HAL_Driver/Src/stm32l0xx_hal_lptim.c **** 
 625              		.loc 1 695 3 is_stmt 1 view .LVU186
 695:smtc_bsp/arm/stm32/stm32_hal/STM32L0xx_HAL_Driver/Src/stm32l0xx_hal_lptim.c **** 
 626              		.loc 1 695 17 is_stmt 0 view .LVU187
 627 0058 2C70     		strb	r4, [r5]
 698:smtc_bsp/arm/stm32/stm32_hal/STM32L0xx_HAL_Driver/Src/stm32l0xx_hal_lptim.c **** }
 628              		.loc 1 698 3 is_stmt 1 view .LVU188
 629              	.LVL38:
 630              		.loc 1 699 1 is_stmt 0 view .LVU189
 631 005a F0BD     		pop	{r4, r5, r6, r7, pc}
 632              	.L34:
 633              		.align	2
 634              	.L33:
 635 005c FFFFEFFF 		.word	-1048577
 636 0060 FFFF0000 		.word	65535
 637              		.cfi_endproc
 638              	.LFE57:
 640              		.section	.text.HAL_LPTIM_SetOnce_Start,"ax",%progbits
 641              		.align	1
 642              		.global	HAL_LPTIM_SetOnce_Start
 643              		.syntax unified
 644              		.code	16
 645              		.thumb_func
 646              		.fpu softvfp
 648              	HAL_LPTIM_SetOnce_Start:
 649              	.LVL39:
 650              	.LFB59:
 700:smtc_bsp/arm/stm32/stm32_hal/STM32L0xx_HAL_Driver/Src/stm32l0xx_hal_lptim.c **** 
 701:smtc_bsp/arm/stm32/stm32_hal/STM32L0xx_HAL_Driver/Src/stm32l0xx_hal_lptim.c **** /**
 702:smtc_bsp/arm/stm32/stm32_hal/STM32L0xx_HAL_Driver/Src/stm32l0xx_hal_lptim.c ****   * @brief  Stop the LPTIM One pulse generation in interrupt mode.
 703:smtc_bsp/arm/stm32/stm32_hal/STM32L0xx_HAL_Driver/Src/stm32l0xx_hal_lptim.c ****   * @param  hlptim LPTIM handle
 704:smtc_bsp/arm/stm32/stm32_hal/STM32L0xx_HAL_Driver/Src/stm32l0xx_hal_lptim.c ****   * @retval HAL status
 705:smtc_bsp/arm/stm32/stm32_hal/STM32L0xx_HAL_Driver/Src/stm32l0xx_hal_lptim.c ****   */
 706:smtc_bsp/arm/stm32/stm32_hal/STM32L0xx_HAL_Driver/Src/stm32l0xx_hal_lptim.c **** HAL_StatusTypeDef HAL_LPTIM_OnePulse_Stop_IT(LPTIM_HandleTypeDef *hlptim)
 707:smtc_bsp/arm/stm32/stm32_hal/STM32L0xx_HAL_Driver/Src/stm32l0xx_hal_lptim.c **** {
 708:smtc_bsp/arm/stm32/stm32_hal/STM32L0xx_HAL_Driver/Src/stm32l0xx_hal_lptim.c ****   /* Check the parameters */
 709:smtc_bsp/arm/stm32/stm32_hal/STM32L0xx_HAL_Driver/Src/stm32l0xx_hal_lptim.c ****   assert_param(IS_LPTIM_INSTANCE(hlptim->Instance));
 710:smtc_bsp/arm/stm32/stm32_hal/STM32L0xx_HAL_Driver/Src/stm32l0xx_hal_lptim.c **** 
 711:smtc_bsp/arm/stm32/stm32_hal/STM32L0xx_HAL_Driver/Src/stm32l0xx_hal_lptim.c ****   /* Set the LPTIM state */
 712:smtc_bsp/arm/stm32/stm32_hal/STM32L0xx_HAL_Driver/Src/stm32l0xx_hal_lptim.c ****   hlptim->State = HAL_LPTIM_STATE_BUSY;
 713:smtc_bsp/arm/stm32/stm32_hal/STM32L0xx_HAL_Driver/Src/stm32l0xx_hal_lptim.c **** 
 714:smtc_bsp/arm/stm32/stm32_hal/STM32L0xx_HAL_Driver/Src/stm32l0xx_hal_lptim.c ****   /* Disable the Peripheral */
 715:smtc_bsp/arm/stm32/stm32_hal/STM32L0xx_HAL_Driver/Src/stm32l0xx_hal_lptim.c ****   __HAL_LPTIM_DISABLE(hlptim);
 716:smtc_bsp/arm/stm32/stm32_hal/STM32L0xx_HAL_Driver/Src/stm32l0xx_hal_lptim.c **** 
 717:smtc_bsp/arm/stm32/stm32_hal/STM32L0xx_HAL_Driver/Src/stm32l0xx_hal_lptim.c ****   /* Disable Autoreload write complete interrupt */
 718:smtc_bsp/arm/stm32/stm32_hal/STM32L0xx_HAL_Driver/Src/stm32l0xx_hal_lptim.c ****   __HAL_LPTIM_DISABLE_IT(hlptim, LPTIM_IT_ARROK);
ARM GAS  /var/folders/bq/yv49bw8j2kd6w3hsq868qv180000gn/T//ccQg3V4x.s 			page 27


 719:smtc_bsp/arm/stm32/stm32_hal/STM32L0xx_HAL_Driver/Src/stm32l0xx_hal_lptim.c **** 
 720:smtc_bsp/arm/stm32/stm32_hal/STM32L0xx_HAL_Driver/Src/stm32l0xx_hal_lptim.c ****   /* Disable Compare write complete interrupt */
 721:smtc_bsp/arm/stm32/stm32_hal/STM32L0xx_HAL_Driver/Src/stm32l0xx_hal_lptim.c ****   __HAL_LPTIM_DISABLE_IT(hlptim, LPTIM_IT_CMPOK);
 722:smtc_bsp/arm/stm32/stm32_hal/STM32L0xx_HAL_Driver/Src/stm32l0xx_hal_lptim.c **** 
 723:smtc_bsp/arm/stm32/stm32_hal/STM32L0xx_HAL_Driver/Src/stm32l0xx_hal_lptim.c ****   /* Disable Autoreload match interrupt */
 724:smtc_bsp/arm/stm32/stm32_hal/STM32L0xx_HAL_Driver/Src/stm32l0xx_hal_lptim.c ****   __HAL_LPTIM_DISABLE_IT(hlptim, LPTIM_IT_ARRM);
 725:smtc_bsp/arm/stm32/stm32_hal/STM32L0xx_HAL_Driver/Src/stm32l0xx_hal_lptim.c **** 
 726:smtc_bsp/arm/stm32/stm32_hal/STM32L0xx_HAL_Driver/Src/stm32l0xx_hal_lptim.c ****   /* Disable Compare match interrupt */
 727:smtc_bsp/arm/stm32/stm32_hal/STM32L0xx_HAL_Driver/Src/stm32l0xx_hal_lptim.c ****   __HAL_LPTIM_DISABLE_IT(hlptim, LPTIM_IT_CMPM);
 728:smtc_bsp/arm/stm32/stm32_hal/STM32L0xx_HAL_Driver/Src/stm32l0xx_hal_lptim.c **** 
 729:smtc_bsp/arm/stm32/stm32_hal/STM32L0xx_HAL_Driver/Src/stm32l0xx_hal_lptim.c ****   /* If external trigger source is used, then disable external trigger interrupt */
 730:smtc_bsp/arm/stm32/stm32_hal/STM32L0xx_HAL_Driver/Src/stm32l0xx_hal_lptim.c ****   if ((hlptim->Init.Trigger.Source) != LPTIM_TRIGSOURCE_SOFTWARE)
 731:smtc_bsp/arm/stm32/stm32_hal/STM32L0xx_HAL_Driver/Src/stm32l0xx_hal_lptim.c ****   {
 732:smtc_bsp/arm/stm32/stm32_hal/STM32L0xx_HAL_Driver/Src/stm32l0xx_hal_lptim.c ****     /* Disable external trigger interrupt */
 733:smtc_bsp/arm/stm32/stm32_hal/STM32L0xx_HAL_Driver/Src/stm32l0xx_hal_lptim.c ****     __HAL_LPTIM_DISABLE_IT(hlptim, LPTIM_IT_EXTTRIG);
 734:smtc_bsp/arm/stm32/stm32_hal/STM32L0xx_HAL_Driver/Src/stm32l0xx_hal_lptim.c ****   }
 735:smtc_bsp/arm/stm32/stm32_hal/STM32L0xx_HAL_Driver/Src/stm32l0xx_hal_lptim.c **** 
 736:smtc_bsp/arm/stm32/stm32_hal/STM32L0xx_HAL_Driver/Src/stm32l0xx_hal_lptim.c ****   /* Change the TIM state*/
 737:smtc_bsp/arm/stm32/stm32_hal/STM32L0xx_HAL_Driver/Src/stm32l0xx_hal_lptim.c ****   hlptim->State = HAL_LPTIM_STATE_READY;
 738:smtc_bsp/arm/stm32/stm32_hal/STM32L0xx_HAL_Driver/Src/stm32l0xx_hal_lptim.c **** 
 739:smtc_bsp/arm/stm32/stm32_hal/STM32L0xx_HAL_Driver/Src/stm32l0xx_hal_lptim.c ****   /* Return function status */
 740:smtc_bsp/arm/stm32/stm32_hal/STM32L0xx_HAL_Driver/Src/stm32l0xx_hal_lptim.c ****   return HAL_OK;
 741:smtc_bsp/arm/stm32/stm32_hal/STM32L0xx_HAL_Driver/Src/stm32l0xx_hal_lptim.c **** }
 742:smtc_bsp/arm/stm32/stm32_hal/STM32L0xx_HAL_Driver/Src/stm32l0xx_hal_lptim.c **** 
 743:smtc_bsp/arm/stm32/stm32_hal/STM32L0xx_HAL_Driver/Src/stm32l0xx_hal_lptim.c **** /**
 744:smtc_bsp/arm/stm32/stm32_hal/STM32L0xx_HAL_Driver/Src/stm32l0xx_hal_lptim.c ****   * @brief  Start the LPTIM in Set once mode.
 745:smtc_bsp/arm/stm32/stm32_hal/STM32L0xx_HAL_Driver/Src/stm32l0xx_hal_lptim.c ****   * @param  hlptim LPTIM handle
 746:smtc_bsp/arm/stm32/stm32_hal/STM32L0xx_HAL_Driver/Src/stm32l0xx_hal_lptim.c ****   * @param  Period Specifies the Autoreload value.
 747:smtc_bsp/arm/stm32/stm32_hal/STM32L0xx_HAL_Driver/Src/stm32l0xx_hal_lptim.c ****   *         This parameter must be a value between 0x0000 and 0xFFFF.
 748:smtc_bsp/arm/stm32/stm32_hal/STM32L0xx_HAL_Driver/Src/stm32l0xx_hal_lptim.c ****   * @param  Pulse Specifies the compare value.
 749:smtc_bsp/arm/stm32/stm32_hal/STM32L0xx_HAL_Driver/Src/stm32l0xx_hal_lptim.c ****   *         This parameter must be a value between 0x0000 and 0xFFFF.
 750:smtc_bsp/arm/stm32/stm32_hal/STM32L0xx_HAL_Driver/Src/stm32l0xx_hal_lptim.c ****   * @retval HAL status
 751:smtc_bsp/arm/stm32/stm32_hal/STM32L0xx_HAL_Driver/Src/stm32l0xx_hal_lptim.c ****   */
 752:smtc_bsp/arm/stm32/stm32_hal/STM32L0xx_HAL_Driver/Src/stm32l0xx_hal_lptim.c **** HAL_StatusTypeDef HAL_LPTIM_SetOnce_Start(LPTIM_HandleTypeDef *hlptim, uint32_t Period, uint32_t Pu
 753:smtc_bsp/arm/stm32/stm32_hal/STM32L0xx_HAL_Driver/Src/stm32l0xx_hal_lptim.c **** {
 651              		.loc 1 753 1 is_stmt 1 view -0
 652              		.cfi_startproc
 653              		@ args = 0, pretend = 0, frame = 0
 654              		@ frame_needed = 0, uses_anonymous_args = 0
 754:smtc_bsp/arm/stm32/stm32_hal/STM32L0xx_HAL_Driver/Src/stm32l0xx_hal_lptim.c ****   /* Check the parameters */
 755:smtc_bsp/arm/stm32/stm32_hal/STM32L0xx_HAL_Driver/Src/stm32l0xx_hal_lptim.c ****   assert_param(IS_LPTIM_INSTANCE(hlptim->Instance));
 655              		.loc 1 755 3 view .LVU191
 756:smtc_bsp/arm/stm32/stm32_hal/STM32L0xx_HAL_Driver/Src/stm32l0xx_hal_lptim.c ****   assert_param(IS_LPTIM_PERIOD(Period));
 656              		.loc 1 756 3 view .LVU192
 757:smtc_bsp/arm/stm32/stm32_hal/STM32L0xx_HAL_Driver/Src/stm32l0xx_hal_lptim.c ****   assert_param(IS_LPTIM_PULSE(Pulse));
 657              		.loc 1 757 3 view .LVU193
 758:smtc_bsp/arm/stm32/stm32_hal/STM32L0xx_HAL_Driver/Src/stm32l0xx_hal_lptim.c **** 
 759:smtc_bsp/arm/stm32/stm32_hal/STM32L0xx_HAL_Driver/Src/stm32l0xx_hal_lptim.c ****   /* Set the LPTIM state */
 760:smtc_bsp/arm/stm32/stm32_hal/STM32L0xx_HAL_Driver/Src/stm32l0xx_hal_lptim.c ****   hlptim->State = HAL_LPTIM_STATE_BUSY;
 658              		.loc 1 760 3 view .LVU194
 753:smtc_bsp/arm/stm32/stm32_hal/STM32L0xx_HAL_Driver/Src/stm32l0xx_hal_lptim.c ****   /* Check the parameters */
 659              		.loc 1 753 1 is_stmt 0 view .LVU195
 660 0000 70B5     		push	{r4, r5, r6, lr}
 661              		.cfi_def_cfa_offset 16
 662              		.cfi_offset 4, -16
 663              		.cfi_offset 5, -12
 664              		.cfi_offset 6, -8
ARM GAS  /var/folders/bq/yv49bw8j2kd6w3hsq868qv180000gn/T//ccQg3V4x.s 			page 28


 665              		.cfi_offset 14, -4
 666              		.loc 1 760 17 view .LVU196
 667 0002 0500     		movs	r5, r0
 668 0004 0224     		movs	r4, #2
 669 0006 2E35     		adds	r5, r5, #46
 670 0008 2C70     		strb	r4, [r5]
 761:smtc_bsp/arm/stm32/stm32_hal/STM32L0xx_HAL_Driver/Src/stm32l0xx_hal_lptim.c **** 
 762:smtc_bsp/arm/stm32/stm32_hal/STM32L0xx_HAL_Driver/Src/stm32l0xx_hal_lptim.c ****   /* Set WAVE bit to enable the set once mode */
 763:smtc_bsp/arm/stm32/stm32_hal/STM32L0xx_HAL_Driver/Src/stm32l0xx_hal_lptim.c ****   hlptim->Instance->CFGR |= LPTIM_CFGR_WAVE;
 671              		.loc 1 763 3 is_stmt 1 view .LVU197
 672              		.loc 1 763 9 is_stmt 0 view .LVU198
 673 000a 0368     		ldr	r3, [r0]
 674              		.loc 1 763 26 view .LVU199
 675 000c 8020     		movs	r0, #128
 676              	.LVL40:
 677              		.loc 1 763 26 view .LVU200
 678 000e DE68     		ldr	r6, [r3, #12]
 679 0010 4003     		lsls	r0, r0, #13
 680 0012 3043     		orrs	r0, r6
 764:smtc_bsp/arm/stm32/stm32_hal/STM32L0xx_HAL_Driver/Src/stm32l0xx_hal_lptim.c **** 
 765:smtc_bsp/arm/stm32/stm32_hal/STM32L0xx_HAL_Driver/Src/stm32l0xx_hal_lptim.c ****   /* Enable the Peripheral */
 766:smtc_bsp/arm/stm32/stm32_hal/STM32L0xx_HAL_Driver/Src/stm32l0xx_hal_lptim.c ****   __HAL_LPTIM_ENABLE(hlptim);
 681              		.loc 1 766 3 view .LVU201
 682 0014 0126     		movs	r6, #1
 763:smtc_bsp/arm/stm32/stm32_hal/STM32L0xx_HAL_Driver/Src/stm32l0xx_hal_lptim.c **** 
 683              		.loc 1 763 26 view .LVU202
 684 0016 D860     		str	r0, [r3, #12]
 685              		.loc 1 766 3 is_stmt 1 view .LVU203
 686 0018 1869     		ldr	r0, [r3, #16]
 767:smtc_bsp/arm/stm32/stm32_hal/STM32L0xx_HAL_Driver/Src/stm32l0xx_hal_lptim.c **** 
 768:smtc_bsp/arm/stm32/stm32_hal/STM32L0xx_HAL_Driver/Src/stm32l0xx_hal_lptim.c ****   /* Load the period value in the autoreload register */
 769:smtc_bsp/arm/stm32/stm32_hal/STM32L0xx_HAL_Driver/Src/stm32l0xx_hal_lptim.c ****   __HAL_LPTIM_AUTORELOAD_SET(hlptim, Period);
 770:smtc_bsp/arm/stm32/stm32_hal/STM32L0xx_HAL_Driver/Src/stm32l0xx_hal_lptim.c **** 
 771:smtc_bsp/arm/stm32/stm32_hal/STM32L0xx_HAL_Driver/Src/stm32l0xx_hal_lptim.c ****   /* Load the pulse value in the compare register */
 772:smtc_bsp/arm/stm32/stm32_hal/STM32L0xx_HAL_Driver/Src/stm32l0xx_hal_lptim.c ****   __HAL_LPTIM_COMPARE_SET(hlptim, Pulse);
 773:smtc_bsp/arm/stm32/stm32_hal/STM32L0xx_HAL_Driver/Src/stm32l0xx_hal_lptim.c **** 
 774:smtc_bsp/arm/stm32/stm32_hal/STM32L0xx_HAL_Driver/Src/stm32l0xx_hal_lptim.c ****   /* Start timer in single (one shot) mode */
 775:smtc_bsp/arm/stm32/stm32_hal/STM32L0xx_HAL_Driver/Src/stm32l0xx_hal_lptim.c ****   __HAL_LPTIM_START_SINGLE(hlptim);
 776:smtc_bsp/arm/stm32/stm32_hal/STM32L0xx_HAL_Driver/Src/stm32l0xx_hal_lptim.c **** 
 777:smtc_bsp/arm/stm32/stm32_hal/STM32L0xx_HAL_Driver/Src/stm32l0xx_hal_lptim.c ****   /* Change the TIM state*/
 778:smtc_bsp/arm/stm32/stm32_hal/STM32L0xx_HAL_Driver/Src/stm32l0xx_hal_lptim.c ****   hlptim->State = HAL_LPTIM_STATE_READY;
 779:smtc_bsp/arm/stm32/stm32_hal/STM32L0xx_HAL_Driver/Src/stm32l0xx_hal_lptim.c **** 
 780:smtc_bsp/arm/stm32/stm32_hal/STM32L0xx_HAL_Driver/Src/stm32l0xx_hal_lptim.c ****   /* Return function status */
 781:smtc_bsp/arm/stm32/stm32_hal/STM32L0xx_HAL_Driver/Src/stm32l0xx_hal_lptim.c ****   return HAL_OK;
 782:smtc_bsp/arm/stm32/stm32_hal/STM32L0xx_HAL_Driver/Src/stm32l0xx_hal_lptim.c **** }
 687              		.loc 1 782 1 is_stmt 0 view .LVU204
 688              		@ sp needed
 766:smtc_bsp/arm/stm32/stm32_hal/STM32L0xx_HAL_Driver/Src/stm32l0xx_hal_lptim.c **** 
 689              		.loc 1 766 3 view .LVU205
 690 001a 3043     		orrs	r0, r6
 691 001c 1861     		str	r0, [r3, #16]
 769:smtc_bsp/arm/stm32/stm32_hal/STM32L0xx_HAL_Driver/Src/stm32l0xx_hal_lptim.c **** 
 692              		.loc 1 769 3 is_stmt 1 view .LVU206
 693 001e 9961     		str	r1, [r3, #24]
 772:smtc_bsp/arm/stm32/stm32_hal/STM32L0xx_HAL_Driver/Src/stm32l0xx_hal_lptim.c **** 
 694              		.loc 1 772 3 view .LVU207
 695 0020 5A61     		str	r2, [r3, #20]
ARM GAS  /var/folders/bq/yv49bw8j2kd6w3hsq868qv180000gn/T//ccQg3V4x.s 			page 29


 775:smtc_bsp/arm/stm32/stm32_hal/STM32L0xx_HAL_Driver/Src/stm32l0xx_hal_lptim.c **** 
 696              		.loc 1 775 3 view .LVU208
 697 0022 1A69     		ldr	r2, [r3, #16]
 698              	.LVL41:
 699              		.loc 1 782 1 is_stmt 0 view .LVU209
 700 0024 0020     		movs	r0, #0
 775:smtc_bsp/arm/stm32/stm32_hal/STM32L0xx_HAL_Driver/Src/stm32l0xx_hal_lptim.c **** 
 701              		.loc 1 775 3 view .LVU210
 702 0026 1443     		orrs	r4, r2
 703 0028 1C61     		str	r4, [r3, #16]
 704              	.LVL42:
 778:smtc_bsp/arm/stm32/stm32_hal/STM32L0xx_HAL_Driver/Src/stm32l0xx_hal_lptim.c **** 
 705              		.loc 1 778 3 is_stmt 1 view .LVU211
 778:smtc_bsp/arm/stm32/stm32_hal/STM32L0xx_HAL_Driver/Src/stm32l0xx_hal_lptim.c **** 
 706              		.loc 1 778 17 is_stmt 0 view .LVU212
 707 002a 2E70     		strb	r6, [r5]
 781:smtc_bsp/arm/stm32/stm32_hal/STM32L0xx_HAL_Driver/Src/stm32l0xx_hal_lptim.c **** }
 708              		.loc 1 781 3 is_stmt 1 view .LVU213
 709              	.LVL43:
 710              		.loc 1 782 1 is_stmt 0 view .LVU214
 711 002c 70BD     		pop	{r4, r5, r6, pc}
 712              		.cfi_endproc
 713              	.LFE59:
 715              		.section	.text.HAL_LPTIM_SetOnce_Start_IT,"ax",%progbits
 716              		.align	1
 717              		.global	HAL_LPTIM_SetOnce_Start_IT
 718              		.syntax unified
 719              		.code	16
 720              		.thumb_func
 721              		.fpu softvfp
 723              	HAL_LPTIM_SetOnce_Start_IT:
 724              	.LVL44:
 725              	.LFB61:
 783:smtc_bsp/arm/stm32/stm32_hal/STM32L0xx_HAL_Driver/Src/stm32l0xx_hal_lptim.c **** 
 784:smtc_bsp/arm/stm32/stm32_hal/STM32L0xx_HAL_Driver/Src/stm32l0xx_hal_lptim.c **** /**
 785:smtc_bsp/arm/stm32/stm32_hal/STM32L0xx_HAL_Driver/Src/stm32l0xx_hal_lptim.c ****   * @brief  Stop the LPTIM Set once mode.
 786:smtc_bsp/arm/stm32/stm32_hal/STM32L0xx_HAL_Driver/Src/stm32l0xx_hal_lptim.c ****   * @param  hlptim LPTIM handle
 787:smtc_bsp/arm/stm32/stm32_hal/STM32L0xx_HAL_Driver/Src/stm32l0xx_hal_lptim.c ****   * @retval HAL status
 788:smtc_bsp/arm/stm32/stm32_hal/STM32L0xx_HAL_Driver/Src/stm32l0xx_hal_lptim.c ****   */
 789:smtc_bsp/arm/stm32/stm32_hal/STM32L0xx_HAL_Driver/Src/stm32l0xx_hal_lptim.c **** HAL_StatusTypeDef HAL_LPTIM_SetOnce_Stop(LPTIM_HandleTypeDef *hlptim)
 790:smtc_bsp/arm/stm32/stm32_hal/STM32L0xx_HAL_Driver/Src/stm32l0xx_hal_lptim.c **** {
 791:smtc_bsp/arm/stm32/stm32_hal/STM32L0xx_HAL_Driver/Src/stm32l0xx_hal_lptim.c ****   /* Check the parameters */
 792:smtc_bsp/arm/stm32/stm32_hal/STM32L0xx_HAL_Driver/Src/stm32l0xx_hal_lptim.c ****   assert_param(IS_LPTIM_INSTANCE(hlptim->Instance));
 793:smtc_bsp/arm/stm32/stm32_hal/STM32L0xx_HAL_Driver/Src/stm32l0xx_hal_lptim.c **** 
 794:smtc_bsp/arm/stm32/stm32_hal/STM32L0xx_HAL_Driver/Src/stm32l0xx_hal_lptim.c ****   /* Set the LPTIM state */
 795:smtc_bsp/arm/stm32/stm32_hal/STM32L0xx_HAL_Driver/Src/stm32l0xx_hal_lptim.c ****   hlptim->State = HAL_LPTIM_STATE_BUSY;
 796:smtc_bsp/arm/stm32/stm32_hal/STM32L0xx_HAL_Driver/Src/stm32l0xx_hal_lptim.c **** 
 797:smtc_bsp/arm/stm32/stm32_hal/STM32L0xx_HAL_Driver/Src/stm32l0xx_hal_lptim.c ****   /* Disable the Peripheral */
 798:smtc_bsp/arm/stm32/stm32_hal/STM32L0xx_HAL_Driver/Src/stm32l0xx_hal_lptim.c ****   __HAL_LPTIM_DISABLE(hlptim);
 799:smtc_bsp/arm/stm32/stm32_hal/STM32L0xx_HAL_Driver/Src/stm32l0xx_hal_lptim.c **** 
 800:smtc_bsp/arm/stm32/stm32_hal/STM32L0xx_HAL_Driver/Src/stm32l0xx_hal_lptim.c ****   /* Change the TIM state*/
 801:smtc_bsp/arm/stm32/stm32_hal/STM32L0xx_HAL_Driver/Src/stm32l0xx_hal_lptim.c ****   hlptim->State = HAL_LPTIM_STATE_READY;
 802:smtc_bsp/arm/stm32/stm32_hal/STM32L0xx_HAL_Driver/Src/stm32l0xx_hal_lptim.c **** 
 803:smtc_bsp/arm/stm32/stm32_hal/STM32L0xx_HAL_Driver/Src/stm32l0xx_hal_lptim.c ****   /* Return function status */
 804:smtc_bsp/arm/stm32/stm32_hal/STM32L0xx_HAL_Driver/Src/stm32l0xx_hal_lptim.c ****   return HAL_OK;
 805:smtc_bsp/arm/stm32/stm32_hal/STM32L0xx_HAL_Driver/Src/stm32l0xx_hal_lptim.c **** }
 806:smtc_bsp/arm/stm32/stm32_hal/STM32L0xx_HAL_Driver/Src/stm32l0xx_hal_lptim.c **** 
ARM GAS  /var/folders/bq/yv49bw8j2kd6w3hsq868qv180000gn/T//ccQg3V4x.s 			page 30


 807:smtc_bsp/arm/stm32/stm32_hal/STM32L0xx_HAL_Driver/Src/stm32l0xx_hal_lptim.c **** /**
 808:smtc_bsp/arm/stm32/stm32_hal/STM32L0xx_HAL_Driver/Src/stm32l0xx_hal_lptim.c ****   * @brief  Start the LPTIM Set once mode in interrupt mode.
 809:smtc_bsp/arm/stm32/stm32_hal/STM32L0xx_HAL_Driver/Src/stm32l0xx_hal_lptim.c ****   * @param  hlptim LPTIM handle
 810:smtc_bsp/arm/stm32/stm32_hal/STM32L0xx_HAL_Driver/Src/stm32l0xx_hal_lptim.c ****   * @param  Period Specifies the Autoreload value.
 811:smtc_bsp/arm/stm32/stm32_hal/STM32L0xx_HAL_Driver/Src/stm32l0xx_hal_lptim.c ****   *         This parameter must be a value between 0x0000 and 0xFFFF.
 812:smtc_bsp/arm/stm32/stm32_hal/STM32L0xx_HAL_Driver/Src/stm32l0xx_hal_lptim.c ****   * @param  Pulse Specifies the compare value.
 813:smtc_bsp/arm/stm32/stm32_hal/STM32L0xx_HAL_Driver/Src/stm32l0xx_hal_lptim.c ****   *         This parameter must be a value between 0x0000 and 0xFFFF.
 814:smtc_bsp/arm/stm32/stm32_hal/STM32L0xx_HAL_Driver/Src/stm32l0xx_hal_lptim.c ****   * @retval HAL status
 815:smtc_bsp/arm/stm32/stm32_hal/STM32L0xx_HAL_Driver/Src/stm32l0xx_hal_lptim.c ****   */
 816:smtc_bsp/arm/stm32/stm32_hal/STM32L0xx_HAL_Driver/Src/stm32l0xx_hal_lptim.c **** HAL_StatusTypeDef HAL_LPTIM_SetOnce_Start_IT(LPTIM_HandleTypeDef *hlptim, uint32_t Period, uint32_t
 817:smtc_bsp/arm/stm32/stm32_hal/STM32L0xx_HAL_Driver/Src/stm32l0xx_hal_lptim.c **** {
 726              		.loc 1 817 1 is_stmt 1 view -0
 727              		.cfi_startproc
 728              		@ args = 0, pretend = 0, frame = 0
 729              		@ frame_needed = 0, uses_anonymous_args = 0
 818:smtc_bsp/arm/stm32/stm32_hal/STM32L0xx_HAL_Driver/Src/stm32l0xx_hal_lptim.c ****   /* Check the parameters */
 819:smtc_bsp/arm/stm32/stm32_hal/STM32L0xx_HAL_Driver/Src/stm32l0xx_hal_lptim.c ****   assert_param(IS_LPTIM_INSTANCE(hlptim->Instance));
 730              		.loc 1 819 3 view .LVU216
 820:smtc_bsp/arm/stm32/stm32_hal/STM32L0xx_HAL_Driver/Src/stm32l0xx_hal_lptim.c ****   assert_param(IS_LPTIM_PERIOD(Period));
 731              		.loc 1 820 3 view .LVU217
 821:smtc_bsp/arm/stm32/stm32_hal/STM32L0xx_HAL_Driver/Src/stm32l0xx_hal_lptim.c ****   assert_param(IS_LPTIM_PULSE(Pulse));
 732              		.loc 1 821 3 view .LVU218
 822:smtc_bsp/arm/stm32/stm32_hal/STM32L0xx_HAL_Driver/Src/stm32l0xx_hal_lptim.c **** 
 823:smtc_bsp/arm/stm32/stm32_hal/STM32L0xx_HAL_Driver/Src/stm32l0xx_hal_lptim.c ****   /* Set the LPTIM state */
 824:smtc_bsp/arm/stm32/stm32_hal/STM32L0xx_HAL_Driver/Src/stm32l0xx_hal_lptim.c ****   hlptim->State = HAL_LPTIM_STATE_BUSY;
 733              		.loc 1 824 3 view .LVU219
 817:smtc_bsp/arm/stm32/stm32_hal/STM32L0xx_HAL_Driver/Src/stm32l0xx_hal_lptim.c ****   /* Check the parameters */
 734              		.loc 1 817 1 is_stmt 0 view .LVU220
 735 0000 F0B5     		push	{r4, r5, r6, r7, lr}
 736              		.cfi_def_cfa_offset 20
 737              		.cfi_offset 4, -20
 738              		.cfi_offset 5, -16
 739              		.cfi_offset 6, -12
 740              		.cfi_offset 7, -8
 741              		.cfi_offset 14, -4
 742              		.loc 1 824 17 view .LVU221
 743 0002 0500     		movs	r5, r0
 744 0004 0224     		movs	r4, #2
 825:smtc_bsp/arm/stm32/stm32_hal/STM32L0xx_HAL_Driver/Src/stm32l0xx_hal_lptim.c **** 
 826:smtc_bsp/arm/stm32/stm32_hal/STM32L0xx_HAL_Driver/Src/stm32l0xx_hal_lptim.c ****   /* Set WAVE bit to enable the set once mode */
 827:smtc_bsp/arm/stm32/stm32_hal/STM32L0xx_HAL_Driver/Src/stm32l0xx_hal_lptim.c ****   hlptim->Instance->CFGR |= LPTIM_CFGR_WAVE;
 745              		.loc 1 827 26 view .LVU222
 746 0006 8026     		movs	r6, #128
 824:smtc_bsp/arm/stm32/stm32_hal/STM32L0xx_HAL_Driver/Src/stm32l0xx_hal_lptim.c **** 
 747              		.loc 1 824 17 view .LVU223
 748 0008 2E35     		adds	r5, r5, #46
 749 000a 2C70     		strb	r4, [r5]
 750              		.loc 1 827 3 is_stmt 1 view .LVU224
 751              		.loc 1 827 9 is_stmt 0 view .LVU225
 752 000c 0368     		ldr	r3, [r0]
 753              		.loc 1 827 26 view .LVU226
 754 000e 7603     		lsls	r6, r6, #13
 755 0010 DF68     		ldr	r7, [r3, #12]
 828:smtc_bsp/arm/stm32/stm32_hal/STM32L0xx_HAL_Driver/Src/stm32l0xx_hal_lptim.c **** 
 829:smtc_bsp/arm/stm32/stm32_hal/STM32L0xx_HAL_Driver/Src/stm32l0xx_hal_lptim.c ****   /* Enable Autoreload write complete interrupt */
 830:smtc_bsp/arm/stm32/stm32_hal/STM32L0xx_HAL_Driver/Src/stm32l0xx_hal_lptim.c ****   __HAL_LPTIM_ENABLE_IT(hlptim, LPTIM_IT_ARROK);
 831:smtc_bsp/arm/stm32/stm32_hal/STM32L0xx_HAL_Driver/Src/stm32l0xx_hal_lptim.c **** 
ARM GAS  /var/folders/bq/yv49bw8j2kd6w3hsq868qv180000gn/T//ccQg3V4x.s 			page 31


 832:smtc_bsp/arm/stm32/stm32_hal/STM32L0xx_HAL_Driver/Src/stm32l0xx_hal_lptim.c ****   /* Enable Compare write complete interrupt */
 833:smtc_bsp/arm/stm32/stm32_hal/STM32L0xx_HAL_Driver/Src/stm32l0xx_hal_lptim.c ****   __HAL_LPTIM_ENABLE_IT(hlptim, LPTIM_IT_CMPOK);
 834:smtc_bsp/arm/stm32/stm32_hal/STM32L0xx_HAL_Driver/Src/stm32l0xx_hal_lptim.c **** 
 835:smtc_bsp/arm/stm32/stm32_hal/STM32L0xx_HAL_Driver/Src/stm32l0xx_hal_lptim.c ****   /* Enable Autoreload match interrupt */
 836:smtc_bsp/arm/stm32/stm32_hal/STM32L0xx_HAL_Driver/Src/stm32l0xx_hal_lptim.c ****   __HAL_LPTIM_ENABLE_IT(hlptim, LPTIM_IT_ARRM);
 837:smtc_bsp/arm/stm32/stm32_hal/STM32L0xx_HAL_Driver/Src/stm32l0xx_hal_lptim.c **** 
 838:smtc_bsp/arm/stm32/stm32_hal/STM32L0xx_HAL_Driver/Src/stm32l0xx_hal_lptim.c ****   /* Enable Compare match interrupt */
 839:smtc_bsp/arm/stm32/stm32_hal/STM32L0xx_HAL_Driver/Src/stm32l0xx_hal_lptim.c ****   __HAL_LPTIM_ENABLE_IT(hlptim, LPTIM_IT_CMPM);
 840:smtc_bsp/arm/stm32/stm32_hal/STM32L0xx_HAL_Driver/Src/stm32l0xx_hal_lptim.c **** 
 841:smtc_bsp/arm/stm32/stm32_hal/STM32L0xx_HAL_Driver/Src/stm32l0xx_hal_lptim.c ****   /* If external trigger source is used, then enable external trigger interrupt */
 842:smtc_bsp/arm/stm32/stm32_hal/STM32L0xx_HAL_Driver/Src/stm32l0xx_hal_lptim.c ****   if ((hlptim->Init.Trigger.Source) != LPTIM_TRIGSOURCE_SOFTWARE)
 756              		.loc 1 842 6 view .LVU227
 757 0012 4069     		ldr	r0, [r0, #20]
 758              	.LVL45:
 827:smtc_bsp/arm/stm32/stm32_hal/STM32L0xx_HAL_Driver/Src/stm32l0xx_hal_lptim.c **** 
 759              		.loc 1 827 26 view .LVU228
 760 0014 3E43     		orrs	r6, r7
 761 0016 DE60     		str	r6, [r3, #12]
 830:smtc_bsp/arm/stm32/stm32_hal/STM32L0xx_HAL_Driver/Src/stm32l0xx_hal_lptim.c **** 
 762              		.loc 1 830 3 is_stmt 1 view .LVU229
 763 0018 1026     		movs	r6, #16
 764 001a 9F68     		ldr	r7, [r3, #8]
 765 001c 3E43     		orrs	r6, r7
 766 001e 9E60     		str	r6, [r3, #8]
 833:smtc_bsp/arm/stm32/stm32_hal/STM32L0xx_HAL_Driver/Src/stm32l0xx_hal_lptim.c **** 
 767              		.loc 1 833 3 view .LVU230
 768 0020 0826     		movs	r6, #8
 769 0022 9F68     		ldr	r7, [r3, #8]
 770 0024 3E43     		orrs	r6, r7
 771 0026 9E60     		str	r6, [r3, #8]
 836:smtc_bsp/arm/stm32/stm32_hal/STM32L0xx_HAL_Driver/Src/stm32l0xx_hal_lptim.c **** 
 772              		.loc 1 836 3 view .LVU231
 773 0028 9E68     		ldr	r6, [r3, #8]
 774 002a 3443     		orrs	r4, r6
 775 002c 9C60     		str	r4, [r3, #8]
 839:smtc_bsp/arm/stm32/stm32_hal/STM32L0xx_HAL_Driver/Src/stm32l0xx_hal_lptim.c **** 
 776              		.loc 1 839 3 view .LVU232
 777 002e 0124     		movs	r4, #1
 778 0030 9E68     		ldr	r6, [r3, #8]
 779 0032 3443     		orrs	r4, r6
 780 0034 9C60     		str	r4, [r3, #8]
 781              		.loc 1 842 3 view .LVU233
 782              		.loc 1 842 6 is_stmt 0 view .LVU234
 783 0036 0A4C     		ldr	r4, .L38
 784 0038 A042     		cmp	r0, r4
 785 003a 03D0     		beq	.L37
 843:smtc_bsp/arm/stm32/stm32_hal/STM32L0xx_HAL_Driver/Src/stm32l0xx_hal_lptim.c ****   {
 844:smtc_bsp/arm/stm32/stm32_hal/STM32L0xx_HAL_Driver/Src/stm32l0xx_hal_lptim.c ****     /* Enable external trigger interrupt */
 845:smtc_bsp/arm/stm32/stm32_hal/STM32L0xx_HAL_Driver/Src/stm32l0xx_hal_lptim.c ****     __HAL_LPTIM_ENABLE_IT(hlptim, LPTIM_IT_EXTTRIG);
 786              		.loc 1 845 5 is_stmt 1 view .LVU235
 787 003c 0420     		movs	r0, #4
 788 003e 9C68     		ldr	r4, [r3, #8]
 789 0040 2043     		orrs	r0, r4
 790 0042 9860     		str	r0, [r3, #8]
 791              	.L37:
 846:smtc_bsp/arm/stm32/stm32_hal/STM32L0xx_HAL_Driver/Src/stm32l0xx_hal_lptim.c ****   }
 847:smtc_bsp/arm/stm32/stm32_hal/STM32L0xx_HAL_Driver/Src/stm32l0xx_hal_lptim.c **** 
ARM GAS  /var/folders/bq/yv49bw8j2kd6w3hsq868qv180000gn/T//ccQg3V4x.s 			page 32


 848:smtc_bsp/arm/stm32/stm32_hal/STM32L0xx_HAL_Driver/Src/stm32l0xx_hal_lptim.c ****   /* Enable the Peripheral */
 849:smtc_bsp/arm/stm32/stm32_hal/STM32L0xx_HAL_Driver/Src/stm32l0xx_hal_lptim.c ****   __HAL_LPTIM_ENABLE(hlptim);
 792              		.loc 1 849 3 view .LVU236
 793 0044 0124     		movs	r4, #1
 794 0046 1869     		ldr	r0, [r3, #16]
 850:smtc_bsp/arm/stm32/stm32_hal/STM32L0xx_HAL_Driver/Src/stm32l0xx_hal_lptim.c **** 
 851:smtc_bsp/arm/stm32/stm32_hal/STM32L0xx_HAL_Driver/Src/stm32l0xx_hal_lptim.c ****   /* Load the period value in the autoreload register */
 852:smtc_bsp/arm/stm32/stm32_hal/STM32L0xx_HAL_Driver/Src/stm32l0xx_hal_lptim.c ****   __HAL_LPTIM_AUTORELOAD_SET(hlptim, Period);
 853:smtc_bsp/arm/stm32/stm32_hal/STM32L0xx_HAL_Driver/Src/stm32l0xx_hal_lptim.c **** 
 854:smtc_bsp/arm/stm32/stm32_hal/STM32L0xx_HAL_Driver/Src/stm32l0xx_hal_lptim.c ****   /* Load the pulse value in the compare register */
 855:smtc_bsp/arm/stm32/stm32_hal/STM32L0xx_HAL_Driver/Src/stm32l0xx_hal_lptim.c ****   __HAL_LPTIM_COMPARE_SET(hlptim, Pulse);
 856:smtc_bsp/arm/stm32/stm32_hal/STM32L0xx_HAL_Driver/Src/stm32l0xx_hal_lptim.c **** 
 857:smtc_bsp/arm/stm32/stm32_hal/STM32L0xx_HAL_Driver/Src/stm32l0xx_hal_lptim.c ****   /* Start timer in single (one shot) mode */
 858:smtc_bsp/arm/stm32/stm32_hal/STM32L0xx_HAL_Driver/Src/stm32l0xx_hal_lptim.c ****   __HAL_LPTIM_START_SINGLE(hlptim);
 859:smtc_bsp/arm/stm32/stm32_hal/STM32L0xx_HAL_Driver/Src/stm32l0xx_hal_lptim.c **** 
 860:smtc_bsp/arm/stm32/stm32_hal/STM32L0xx_HAL_Driver/Src/stm32l0xx_hal_lptim.c ****   /* Change the TIM state*/
 861:smtc_bsp/arm/stm32/stm32_hal/STM32L0xx_HAL_Driver/Src/stm32l0xx_hal_lptim.c ****   hlptim->State = HAL_LPTIM_STATE_READY;
 862:smtc_bsp/arm/stm32/stm32_hal/STM32L0xx_HAL_Driver/Src/stm32l0xx_hal_lptim.c **** 
 863:smtc_bsp/arm/stm32/stm32_hal/STM32L0xx_HAL_Driver/Src/stm32l0xx_hal_lptim.c ****   /* Return function status */
 864:smtc_bsp/arm/stm32/stm32_hal/STM32L0xx_HAL_Driver/Src/stm32l0xx_hal_lptim.c ****   return HAL_OK;
 865:smtc_bsp/arm/stm32/stm32_hal/STM32L0xx_HAL_Driver/Src/stm32l0xx_hal_lptim.c **** }
 795              		.loc 1 865 1 is_stmt 0 view .LVU237
 796              		@ sp needed
 849:smtc_bsp/arm/stm32/stm32_hal/STM32L0xx_HAL_Driver/Src/stm32l0xx_hal_lptim.c **** 
 797              		.loc 1 849 3 view .LVU238
 798 0048 2043     		orrs	r0, r4
 799 004a 1861     		str	r0, [r3, #16]
 852:smtc_bsp/arm/stm32/stm32_hal/STM32L0xx_HAL_Driver/Src/stm32l0xx_hal_lptim.c **** 
 800              		.loc 1 852 3 is_stmt 1 view .LVU239
 801 004c 9961     		str	r1, [r3, #24]
 855:smtc_bsp/arm/stm32/stm32_hal/STM32L0xx_HAL_Driver/Src/stm32l0xx_hal_lptim.c **** 
 802              		.loc 1 855 3 view .LVU240
 803 004e 5A61     		str	r2, [r3, #20]
 858:smtc_bsp/arm/stm32/stm32_hal/STM32L0xx_HAL_Driver/Src/stm32l0xx_hal_lptim.c **** 
 804              		.loc 1 858 3 view .LVU241
 805 0050 0222     		movs	r2, #2
 806              	.LVL46:
 858:smtc_bsp/arm/stm32/stm32_hal/STM32L0xx_HAL_Driver/Src/stm32l0xx_hal_lptim.c **** 
 807              		.loc 1 858 3 is_stmt 0 view .LVU242
 808 0052 1969     		ldr	r1, [r3, #16]
 809              	.LVL47:
 810              		.loc 1 865 1 view .LVU243
 811 0054 0020     		movs	r0, #0
 858:smtc_bsp/arm/stm32/stm32_hal/STM32L0xx_HAL_Driver/Src/stm32l0xx_hal_lptim.c **** 
 812              		.loc 1 858 3 view .LVU244
 813 0056 0A43     		orrs	r2, r1
 814 0058 1A61     		str	r2, [r3, #16]
 815              	.LVL48:
 861:smtc_bsp/arm/stm32/stm32_hal/STM32L0xx_HAL_Driver/Src/stm32l0xx_hal_lptim.c **** 
 816              		.loc 1 861 3 is_stmt 1 view .LVU245
 861:smtc_bsp/arm/stm32/stm32_hal/STM32L0xx_HAL_Driver/Src/stm32l0xx_hal_lptim.c **** 
 817              		.loc 1 861 17 is_stmt 0 view .LVU246
 818 005a 2C70     		strb	r4, [r5]
 864:smtc_bsp/arm/stm32/stm32_hal/STM32L0xx_HAL_Driver/Src/stm32l0xx_hal_lptim.c **** }
 819              		.loc 1 864 3 is_stmt 1 view .LVU247
 820              	.LVL49:
 821              		.loc 1 865 1 is_stmt 0 view .LVU248
ARM GAS  /var/folders/bq/yv49bw8j2kd6w3hsq868qv180000gn/T//ccQg3V4x.s 			page 33


 822 005c F0BD     		pop	{r4, r5, r6, r7, pc}
 823              	.L39:
 824 005e C046     		.align	2
 825              	.L38:
 826 0060 FFFF0000 		.word	65535
 827              		.cfi_endproc
 828              	.LFE61:
 830              		.section	.text.HAL_LPTIM_Encoder_Start,"ax",%progbits
 831              		.align	1
 832              		.global	HAL_LPTIM_Encoder_Start
 833              		.syntax unified
 834              		.code	16
 835              		.thumb_func
 836              		.fpu softvfp
 838              	HAL_LPTIM_Encoder_Start:
 839              	.LVL50:
 840              	.LFB63:
 866:smtc_bsp/arm/stm32/stm32_hal/STM32L0xx_HAL_Driver/Src/stm32l0xx_hal_lptim.c **** 
 867:smtc_bsp/arm/stm32/stm32_hal/STM32L0xx_HAL_Driver/Src/stm32l0xx_hal_lptim.c **** /**
 868:smtc_bsp/arm/stm32/stm32_hal/STM32L0xx_HAL_Driver/Src/stm32l0xx_hal_lptim.c ****   * @brief  Stop the LPTIM Set once mode in interrupt mode.
 869:smtc_bsp/arm/stm32/stm32_hal/STM32L0xx_HAL_Driver/Src/stm32l0xx_hal_lptim.c ****   * @param  hlptim LPTIM handle
 870:smtc_bsp/arm/stm32/stm32_hal/STM32L0xx_HAL_Driver/Src/stm32l0xx_hal_lptim.c ****   * @retval HAL status
 871:smtc_bsp/arm/stm32/stm32_hal/STM32L0xx_HAL_Driver/Src/stm32l0xx_hal_lptim.c ****   */
 872:smtc_bsp/arm/stm32/stm32_hal/STM32L0xx_HAL_Driver/Src/stm32l0xx_hal_lptim.c **** HAL_StatusTypeDef HAL_LPTIM_SetOnce_Stop_IT(LPTIM_HandleTypeDef *hlptim)
 873:smtc_bsp/arm/stm32/stm32_hal/STM32L0xx_HAL_Driver/Src/stm32l0xx_hal_lptim.c **** {
 874:smtc_bsp/arm/stm32/stm32_hal/STM32L0xx_HAL_Driver/Src/stm32l0xx_hal_lptim.c ****   /* Check the parameters */
 875:smtc_bsp/arm/stm32/stm32_hal/STM32L0xx_HAL_Driver/Src/stm32l0xx_hal_lptim.c ****   assert_param(IS_LPTIM_INSTANCE(hlptim->Instance));
 876:smtc_bsp/arm/stm32/stm32_hal/STM32L0xx_HAL_Driver/Src/stm32l0xx_hal_lptim.c **** 
 877:smtc_bsp/arm/stm32/stm32_hal/STM32L0xx_HAL_Driver/Src/stm32l0xx_hal_lptim.c ****   /* Set the LPTIM state */
 878:smtc_bsp/arm/stm32/stm32_hal/STM32L0xx_HAL_Driver/Src/stm32l0xx_hal_lptim.c ****   hlptim->State = HAL_LPTIM_STATE_BUSY;
 879:smtc_bsp/arm/stm32/stm32_hal/STM32L0xx_HAL_Driver/Src/stm32l0xx_hal_lptim.c **** 
 880:smtc_bsp/arm/stm32/stm32_hal/STM32L0xx_HAL_Driver/Src/stm32l0xx_hal_lptim.c ****   /* Disable the Peripheral */
 881:smtc_bsp/arm/stm32/stm32_hal/STM32L0xx_HAL_Driver/Src/stm32l0xx_hal_lptim.c ****   __HAL_LPTIM_DISABLE(hlptim);
 882:smtc_bsp/arm/stm32/stm32_hal/STM32L0xx_HAL_Driver/Src/stm32l0xx_hal_lptim.c **** 
 883:smtc_bsp/arm/stm32/stm32_hal/STM32L0xx_HAL_Driver/Src/stm32l0xx_hal_lptim.c ****   /* Disable Autoreload write complete interrupt */
 884:smtc_bsp/arm/stm32/stm32_hal/STM32L0xx_HAL_Driver/Src/stm32l0xx_hal_lptim.c ****   __HAL_LPTIM_DISABLE_IT(hlptim, LPTIM_IT_ARROK);
 885:smtc_bsp/arm/stm32/stm32_hal/STM32L0xx_HAL_Driver/Src/stm32l0xx_hal_lptim.c **** 
 886:smtc_bsp/arm/stm32/stm32_hal/STM32L0xx_HAL_Driver/Src/stm32l0xx_hal_lptim.c ****   /* Disable Compare write complete interrupt */
 887:smtc_bsp/arm/stm32/stm32_hal/STM32L0xx_HAL_Driver/Src/stm32l0xx_hal_lptim.c ****   __HAL_LPTIM_DISABLE_IT(hlptim, LPTIM_IT_CMPOK);
 888:smtc_bsp/arm/stm32/stm32_hal/STM32L0xx_HAL_Driver/Src/stm32l0xx_hal_lptim.c **** 
 889:smtc_bsp/arm/stm32/stm32_hal/STM32L0xx_HAL_Driver/Src/stm32l0xx_hal_lptim.c ****   /* Disable Autoreload match interrupt */
 890:smtc_bsp/arm/stm32/stm32_hal/STM32L0xx_HAL_Driver/Src/stm32l0xx_hal_lptim.c ****   __HAL_LPTIM_DISABLE_IT(hlptim, LPTIM_IT_ARRM);
 891:smtc_bsp/arm/stm32/stm32_hal/STM32L0xx_HAL_Driver/Src/stm32l0xx_hal_lptim.c **** 
 892:smtc_bsp/arm/stm32/stm32_hal/STM32L0xx_HAL_Driver/Src/stm32l0xx_hal_lptim.c ****   /* Disable Compare match interrupt */
 893:smtc_bsp/arm/stm32/stm32_hal/STM32L0xx_HAL_Driver/Src/stm32l0xx_hal_lptim.c ****   __HAL_LPTIM_DISABLE_IT(hlptim, LPTIM_IT_CMPM);
 894:smtc_bsp/arm/stm32/stm32_hal/STM32L0xx_HAL_Driver/Src/stm32l0xx_hal_lptim.c **** 
 895:smtc_bsp/arm/stm32/stm32_hal/STM32L0xx_HAL_Driver/Src/stm32l0xx_hal_lptim.c ****   /* If external trigger source is used, then disable external trigger interrupt */
 896:smtc_bsp/arm/stm32/stm32_hal/STM32L0xx_HAL_Driver/Src/stm32l0xx_hal_lptim.c ****   if ((hlptim->Init.Trigger.Source) != LPTIM_TRIGSOURCE_SOFTWARE)
 897:smtc_bsp/arm/stm32/stm32_hal/STM32L0xx_HAL_Driver/Src/stm32l0xx_hal_lptim.c ****   {
 898:smtc_bsp/arm/stm32/stm32_hal/STM32L0xx_HAL_Driver/Src/stm32l0xx_hal_lptim.c ****     /* Disable external trigger interrupt */
 899:smtc_bsp/arm/stm32/stm32_hal/STM32L0xx_HAL_Driver/Src/stm32l0xx_hal_lptim.c ****     __HAL_LPTIM_DISABLE_IT(hlptim, LPTIM_IT_EXTTRIG);
 900:smtc_bsp/arm/stm32/stm32_hal/STM32L0xx_HAL_Driver/Src/stm32l0xx_hal_lptim.c ****   }
 901:smtc_bsp/arm/stm32/stm32_hal/STM32L0xx_HAL_Driver/Src/stm32l0xx_hal_lptim.c **** 
 902:smtc_bsp/arm/stm32/stm32_hal/STM32L0xx_HAL_Driver/Src/stm32l0xx_hal_lptim.c ****   /* Change the TIM state*/
 903:smtc_bsp/arm/stm32/stm32_hal/STM32L0xx_HAL_Driver/Src/stm32l0xx_hal_lptim.c ****   hlptim->State = HAL_LPTIM_STATE_READY;
 904:smtc_bsp/arm/stm32/stm32_hal/STM32L0xx_HAL_Driver/Src/stm32l0xx_hal_lptim.c **** 
 905:smtc_bsp/arm/stm32/stm32_hal/STM32L0xx_HAL_Driver/Src/stm32l0xx_hal_lptim.c ****   /* Return function status */
ARM GAS  /var/folders/bq/yv49bw8j2kd6w3hsq868qv180000gn/T//ccQg3V4x.s 			page 34


 906:smtc_bsp/arm/stm32/stm32_hal/STM32L0xx_HAL_Driver/Src/stm32l0xx_hal_lptim.c ****   return HAL_OK;
 907:smtc_bsp/arm/stm32/stm32_hal/STM32L0xx_HAL_Driver/Src/stm32l0xx_hal_lptim.c **** }
 908:smtc_bsp/arm/stm32/stm32_hal/STM32L0xx_HAL_Driver/Src/stm32l0xx_hal_lptim.c **** 
 909:smtc_bsp/arm/stm32/stm32_hal/STM32L0xx_HAL_Driver/Src/stm32l0xx_hal_lptim.c **** /**
 910:smtc_bsp/arm/stm32/stm32_hal/STM32L0xx_HAL_Driver/Src/stm32l0xx_hal_lptim.c ****   * @brief  Start the Encoder interface.
 911:smtc_bsp/arm/stm32/stm32_hal/STM32L0xx_HAL_Driver/Src/stm32l0xx_hal_lptim.c ****   * @param  hlptim LPTIM handle
 912:smtc_bsp/arm/stm32/stm32_hal/STM32L0xx_HAL_Driver/Src/stm32l0xx_hal_lptim.c ****   * @param  Period Specifies the Autoreload value.
 913:smtc_bsp/arm/stm32/stm32_hal/STM32L0xx_HAL_Driver/Src/stm32l0xx_hal_lptim.c ****   *         This parameter must be a value between 0x0000 and 0xFFFF.
 914:smtc_bsp/arm/stm32/stm32_hal/STM32L0xx_HAL_Driver/Src/stm32l0xx_hal_lptim.c ****   * @retval HAL status
 915:smtc_bsp/arm/stm32/stm32_hal/STM32L0xx_HAL_Driver/Src/stm32l0xx_hal_lptim.c ****   */
 916:smtc_bsp/arm/stm32/stm32_hal/STM32L0xx_HAL_Driver/Src/stm32l0xx_hal_lptim.c **** HAL_StatusTypeDef HAL_LPTIM_Encoder_Start(LPTIM_HandleTypeDef *hlptim, uint32_t Period)
 917:smtc_bsp/arm/stm32/stm32_hal/STM32L0xx_HAL_Driver/Src/stm32l0xx_hal_lptim.c **** {
 841              		.loc 1 917 1 is_stmt 1 view -0
 842              		.cfi_startproc
 843              		@ args = 0, pretend = 0, frame = 0
 844              		@ frame_needed = 0, uses_anonymous_args = 0
 918:smtc_bsp/arm/stm32/stm32_hal/STM32L0xx_HAL_Driver/Src/stm32l0xx_hal_lptim.c ****   uint32_t          tmpcfgr;
 845              		.loc 1 918 3 view .LVU250
 919:smtc_bsp/arm/stm32/stm32_hal/STM32L0xx_HAL_Driver/Src/stm32l0xx_hal_lptim.c **** 
 920:smtc_bsp/arm/stm32/stm32_hal/STM32L0xx_HAL_Driver/Src/stm32l0xx_hal_lptim.c ****   /* Check the parameters */
 921:smtc_bsp/arm/stm32/stm32_hal/STM32L0xx_HAL_Driver/Src/stm32l0xx_hal_lptim.c ****   assert_param(IS_LPTIM_ENCODER_INTERFACE_INSTANCE(hlptim->Instance));
 846              		.loc 1 921 3 view .LVU251
 922:smtc_bsp/arm/stm32/stm32_hal/STM32L0xx_HAL_Driver/Src/stm32l0xx_hal_lptim.c ****   assert_param(IS_LPTIM_PERIOD(Period));
 847              		.loc 1 922 3 view .LVU252
 923:smtc_bsp/arm/stm32/stm32_hal/STM32L0xx_HAL_Driver/Src/stm32l0xx_hal_lptim.c ****   assert_param(hlptim->Init.Clock.Source == LPTIM_CLOCKSOURCE_APBCLOCK_LPOSC);
 848              		.loc 1 923 3 view .LVU253
 924:smtc_bsp/arm/stm32/stm32_hal/STM32L0xx_HAL_Driver/Src/stm32l0xx_hal_lptim.c ****   assert_param(hlptim->Init.Clock.Prescaler == LPTIM_PRESCALER_DIV1);
 849              		.loc 1 924 3 view .LVU254
 925:smtc_bsp/arm/stm32/stm32_hal/STM32L0xx_HAL_Driver/Src/stm32l0xx_hal_lptim.c ****   assert_param(IS_LPTIM_CLOCK_POLARITY(hlptim->Init.UltraLowPowerClock.Polarity));
 850              		.loc 1 925 3 view .LVU255
 926:smtc_bsp/arm/stm32/stm32_hal/STM32L0xx_HAL_Driver/Src/stm32l0xx_hal_lptim.c **** 
 927:smtc_bsp/arm/stm32/stm32_hal/STM32L0xx_HAL_Driver/Src/stm32l0xx_hal_lptim.c ****   /* Set the LPTIM state */
 928:smtc_bsp/arm/stm32/stm32_hal/STM32L0xx_HAL_Driver/Src/stm32l0xx_hal_lptim.c ****   hlptim->State = HAL_LPTIM_STATE_BUSY;
 851              		.loc 1 928 3 view .LVU256
 917:smtc_bsp/arm/stm32/stm32_hal/STM32L0xx_HAL_Driver/Src/stm32l0xx_hal_lptim.c ****   uint32_t          tmpcfgr;
 852              		.loc 1 917 1 is_stmt 0 view .LVU257
 853 0000 30B5     		push	{r4, r5, lr}
 854              		.cfi_def_cfa_offset 12
 855              		.cfi_offset 4, -12
 856              		.cfi_offset 5, -8
 857              		.cfi_offset 14, -4
 858              		.loc 1 928 17 view .LVU258
 859 0002 0400     		movs	r4, r0
 860 0004 0223     		movs	r3, #2
 929:smtc_bsp/arm/stm32/stm32_hal/STM32L0xx_HAL_Driver/Src/stm32l0xx_hal_lptim.c **** 
 930:smtc_bsp/arm/stm32/stm32_hal/STM32L0xx_HAL_Driver/Src/stm32l0xx_hal_lptim.c ****   /* Get the LPTIMx CFGR value */
 931:smtc_bsp/arm/stm32/stm32_hal/STM32L0xx_HAL_Driver/Src/stm32l0xx_hal_lptim.c ****   tmpcfgr = hlptim->Instance->CFGR;
 932:smtc_bsp/arm/stm32/stm32_hal/STM32L0xx_HAL_Driver/Src/stm32l0xx_hal_lptim.c **** 
 933:smtc_bsp/arm/stm32/stm32_hal/STM32L0xx_HAL_Driver/Src/stm32l0xx_hal_lptim.c ****   /* Clear CKPOL bits */
 934:smtc_bsp/arm/stm32/stm32_hal/STM32L0xx_HAL_Driver/Src/stm32l0xx_hal_lptim.c ****   tmpcfgr &= (uint32_t)(~LPTIM_CFGR_CKPOL);
 861              		.loc 1 934 11 view .LVU259
 862 0006 0625     		movs	r5, #6
 928:smtc_bsp/arm/stm32/stm32_hal/STM32L0xx_HAL_Driver/Src/stm32l0xx_hal_lptim.c **** 
 863              		.loc 1 928 17 view .LVU260
 864 0008 2E34     		adds	r4, r4, #46
 865 000a 2370     		strb	r3, [r4]
 931:smtc_bsp/arm/stm32/stm32_hal/STM32L0xx_HAL_Driver/Src/stm32l0xx_hal_lptim.c **** 
ARM GAS  /var/folders/bq/yv49bw8j2kd6w3hsq868qv180000gn/T//ccQg3V4x.s 			page 35


 866              		.loc 1 931 3 is_stmt 1 view .LVU261
 931:smtc_bsp/arm/stm32/stm32_hal/STM32L0xx_HAL_Driver/Src/stm32l0xx_hal_lptim.c **** 
 867              		.loc 1 931 19 is_stmt 0 view .LVU262
 868 000c 0368     		ldr	r3, [r0]
 935:smtc_bsp/arm/stm32/stm32_hal/STM32L0xx_HAL_Driver/Src/stm32l0xx_hal_lptim.c **** 
 936:smtc_bsp/arm/stm32/stm32_hal/STM32L0xx_HAL_Driver/Src/stm32l0xx_hal_lptim.c ****   /* Set Input polarity */
 937:smtc_bsp/arm/stm32/stm32_hal/STM32L0xx_HAL_Driver/Src/stm32l0xx_hal_lptim.c ****   tmpcfgr |=  hlptim->Init.UltraLowPowerClock.Polarity;
 869              		.loc 1 937 11 view .LVU263
 870 000e C068     		ldr	r0, [r0, #12]
 871              	.LVL51:
 931:smtc_bsp/arm/stm32/stm32_hal/STM32L0xx_HAL_Driver/Src/stm32l0xx_hal_lptim.c **** 
 872              		.loc 1 931 11 view .LVU264
 873 0010 DA68     		ldr	r2, [r3, #12]
 874              	.LVL52:
 934:smtc_bsp/arm/stm32/stm32_hal/STM32L0xx_HAL_Driver/Src/stm32l0xx_hal_lptim.c **** 
 875              		.loc 1 934 3 is_stmt 1 view .LVU265
 938:smtc_bsp/arm/stm32/stm32_hal/STM32L0xx_HAL_Driver/Src/stm32l0xx_hal_lptim.c **** 
 939:smtc_bsp/arm/stm32/stm32_hal/STM32L0xx_HAL_Driver/Src/stm32l0xx_hal_lptim.c ****   /* Write to LPTIMx CFGR */
 940:smtc_bsp/arm/stm32/stm32_hal/STM32L0xx_HAL_Driver/Src/stm32l0xx_hal_lptim.c ****   hlptim->Instance->CFGR = tmpcfgr;
 941:smtc_bsp/arm/stm32/stm32_hal/STM32L0xx_HAL_Driver/Src/stm32l0xx_hal_lptim.c **** 
 942:smtc_bsp/arm/stm32/stm32_hal/STM32L0xx_HAL_Driver/Src/stm32l0xx_hal_lptim.c ****   /* Set ENC bit to enable the encoder interface */
 943:smtc_bsp/arm/stm32/stm32_hal/STM32L0xx_HAL_Driver/Src/stm32l0xx_hal_lptim.c ****   hlptim->Instance->CFGR |= LPTIM_CFGR_ENC;
 944:smtc_bsp/arm/stm32/stm32_hal/STM32L0xx_HAL_Driver/Src/stm32l0xx_hal_lptim.c **** 
 945:smtc_bsp/arm/stm32/stm32_hal/STM32L0xx_HAL_Driver/Src/stm32l0xx_hal_lptim.c ****   /* Enable the Peripheral */
 946:smtc_bsp/arm/stm32/stm32_hal/STM32L0xx_HAL_Driver/Src/stm32l0xx_hal_lptim.c ****   __HAL_LPTIM_ENABLE(hlptim);
 947:smtc_bsp/arm/stm32/stm32_hal/STM32L0xx_HAL_Driver/Src/stm32l0xx_hal_lptim.c **** 
 948:smtc_bsp/arm/stm32/stm32_hal/STM32L0xx_HAL_Driver/Src/stm32l0xx_hal_lptim.c ****   /* Load the period value in the autoreload register */
 949:smtc_bsp/arm/stm32/stm32_hal/STM32L0xx_HAL_Driver/Src/stm32l0xx_hal_lptim.c ****   __HAL_LPTIM_AUTORELOAD_SET(hlptim, Period);
 950:smtc_bsp/arm/stm32/stm32_hal/STM32L0xx_HAL_Driver/Src/stm32l0xx_hal_lptim.c **** 
 951:smtc_bsp/arm/stm32/stm32_hal/STM32L0xx_HAL_Driver/Src/stm32l0xx_hal_lptim.c ****   /* Start timer in continuous mode */
 952:smtc_bsp/arm/stm32/stm32_hal/STM32L0xx_HAL_Driver/Src/stm32l0xx_hal_lptim.c ****   __HAL_LPTIM_START_CONTINUOUS(hlptim);
 953:smtc_bsp/arm/stm32/stm32_hal/STM32L0xx_HAL_Driver/Src/stm32l0xx_hal_lptim.c **** 
 954:smtc_bsp/arm/stm32/stm32_hal/STM32L0xx_HAL_Driver/Src/stm32l0xx_hal_lptim.c ****   /* Change the TIM state*/
 955:smtc_bsp/arm/stm32/stm32_hal/STM32L0xx_HAL_Driver/Src/stm32l0xx_hal_lptim.c ****   hlptim->State = HAL_LPTIM_STATE_READY;
 956:smtc_bsp/arm/stm32/stm32_hal/STM32L0xx_HAL_Driver/Src/stm32l0xx_hal_lptim.c **** 
 957:smtc_bsp/arm/stm32/stm32_hal/STM32L0xx_HAL_Driver/Src/stm32l0xx_hal_lptim.c ****   /* Return function status */
 958:smtc_bsp/arm/stm32/stm32_hal/STM32L0xx_HAL_Driver/Src/stm32l0xx_hal_lptim.c ****   return HAL_OK;
 959:smtc_bsp/arm/stm32/stm32_hal/STM32L0xx_HAL_Driver/Src/stm32l0xx_hal_lptim.c **** }
 876              		.loc 1 959 1 is_stmt 0 view .LVU266
 877              		@ sp needed
 934:smtc_bsp/arm/stm32/stm32_hal/STM32L0xx_HAL_Driver/Src/stm32l0xx_hal_lptim.c **** 
 878              		.loc 1 934 11 view .LVU267
 879 0012 AA43     		bics	r2, r5
 880              	.LVL53:
 937:smtc_bsp/arm/stm32/stm32_hal/STM32L0xx_HAL_Driver/Src/stm32l0xx_hal_lptim.c **** 
 881              		.loc 1 937 3 is_stmt 1 view .LVU268
 937:smtc_bsp/arm/stm32/stm32_hal/STM32L0xx_HAL_Driver/Src/stm32l0xx_hal_lptim.c **** 
 882              		.loc 1 937 11 is_stmt 0 view .LVU269
 883 0014 0243     		orrs	r2, r0
 884              	.LVL54:
 940:smtc_bsp/arm/stm32/stm32_hal/STM32L0xx_HAL_Driver/Src/stm32l0xx_hal_lptim.c **** 
 885              		.loc 1 940 3 is_stmt 1 view .LVU270
 940:smtc_bsp/arm/stm32/stm32_hal/STM32L0xx_HAL_Driver/Src/stm32l0xx_hal_lptim.c **** 
 886              		.loc 1 940 26 is_stmt 0 view .LVU271
 887 0016 DA60     		str	r2, [r3, #12]
 943:smtc_bsp/arm/stm32/stm32_hal/STM32L0xx_HAL_Driver/Src/stm32l0xx_hal_lptim.c **** 
 888              		.loc 1 943 3 is_stmt 1 view .LVU272
ARM GAS  /var/folders/bq/yv49bw8j2kd6w3hsq868qv180000gn/T//ccQg3V4x.s 			page 36


 943:smtc_bsp/arm/stm32/stm32_hal/STM32L0xx_HAL_Driver/Src/stm32l0xx_hal_lptim.c **** 
 889              		.loc 1 943 26 is_stmt 0 view .LVU273
 890 0018 8022     		movs	r2, #128
 891              	.LVL55:
 943:smtc_bsp/arm/stm32/stm32_hal/STM32L0xx_HAL_Driver/Src/stm32l0xx_hal_lptim.c **** 
 892              		.loc 1 943 26 view .LVU274
 893 001a D868     		ldr	r0, [r3, #12]
 894 001c 5204     		lsls	r2, r2, #17
 895 001e 0243     		orrs	r2, r0
 946:smtc_bsp/arm/stm32/stm32_hal/STM32L0xx_HAL_Driver/Src/stm32l0xx_hal_lptim.c **** 
 896              		.loc 1 946 3 view .LVU275
 897 0020 0120     		movs	r0, #1
 943:smtc_bsp/arm/stm32/stm32_hal/STM32L0xx_HAL_Driver/Src/stm32l0xx_hal_lptim.c **** 
 898              		.loc 1 943 26 view .LVU276
 899 0022 DA60     		str	r2, [r3, #12]
 900              	.LVL56:
 946:smtc_bsp/arm/stm32/stm32_hal/STM32L0xx_HAL_Driver/Src/stm32l0xx_hal_lptim.c **** 
 901              		.loc 1 946 3 is_stmt 1 view .LVU277
 902 0024 1A69     		ldr	r2, [r3, #16]
 903 0026 0243     		orrs	r2, r0
 904 0028 1A61     		str	r2, [r3, #16]
 949:smtc_bsp/arm/stm32/stm32_hal/STM32L0xx_HAL_Driver/Src/stm32l0xx_hal_lptim.c **** 
 905              		.loc 1 949 3 view .LVU278
 952:smtc_bsp/arm/stm32/stm32_hal/STM32L0xx_HAL_Driver/Src/stm32l0xx_hal_lptim.c **** 
 906              		.loc 1 952 3 is_stmt 0 view .LVU279
 907 002a 0422     		movs	r2, #4
 949:smtc_bsp/arm/stm32/stm32_hal/STM32L0xx_HAL_Driver/Src/stm32l0xx_hal_lptim.c **** 
 908              		.loc 1 949 3 view .LVU280
 909 002c 9961     		str	r1, [r3, #24]
 952:smtc_bsp/arm/stm32/stm32_hal/STM32L0xx_HAL_Driver/Src/stm32l0xx_hal_lptim.c **** 
 910              		.loc 1 952 3 is_stmt 1 view .LVU281
 911 002e 1969     		ldr	r1, [r3, #16]
 912              	.LVL57:
 952:smtc_bsp/arm/stm32/stm32_hal/STM32L0xx_HAL_Driver/Src/stm32l0xx_hal_lptim.c **** 
 913              		.loc 1 952 3 is_stmt 0 view .LVU282
 914 0030 0A43     		orrs	r2, r1
 915 0032 1A61     		str	r2, [r3, #16]
 916              	.LVL58:
 955:smtc_bsp/arm/stm32/stm32_hal/STM32L0xx_HAL_Driver/Src/stm32l0xx_hal_lptim.c **** 
 917              		.loc 1 955 3 is_stmt 1 view .LVU283
 955:smtc_bsp/arm/stm32/stm32_hal/STM32L0xx_HAL_Driver/Src/stm32l0xx_hal_lptim.c **** 
 918              		.loc 1 955 17 is_stmt 0 view .LVU284
 919 0034 2070     		strb	r0, [r4]
 958:smtc_bsp/arm/stm32/stm32_hal/STM32L0xx_HAL_Driver/Src/stm32l0xx_hal_lptim.c **** }
 920              		.loc 1 958 3 is_stmt 1 view .LVU285
 921              		.loc 1 959 1 is_stmt 0 view .LVU286
 922 0036 0020     		movs	r0, #0
 923              	.LVL59:
 924              		.loc 1 959 1 view .LVU287
 925 0038 30BD     		pop	{r4, r5, pc}
 926              		.cfi_endproc
 927              	.LFE63:
 929              		.section	.text.HAL_LPTIM_Encoder_Start_IT,"ax",%progbits
 930              		.align	1
 931              		.global	HAL_LPTIM_Encoder_Start_IT
 932              		.syntax unified
 933              		.code	16
ARM GAS  /var/folders/bq/yv49bw8j2kd6w3hsq868qv180000gn/T//ccQg3V4x.s 			page 37


 934              		.thumb_func
 935              		.fpu softvfp
 937              	HAL_LPTIM_Encoder_Start_IT:
 938              	.LVL60:
 939              	.LFB65:
 960:smtc_bsp/arm/stm32/stm32_hal/STM32L0xx_HAL_Driver/Src/stm32l0xx_hal_lptim.c **** 
 961:smtc_bsp/arm/stm32/stm32_hal/STM32L0xx_HAL_Driver/Src/stm32l0xx_hal_lptim.c **** /**
 962:smtc_bsp/arm/stm32/stm32_hal/STM32L0xx_HAL_Driver/Src/stm32l0xx_hal_lptim.c ****   * @brief  Stop the Encoder interface.
 963:smtc_bsp/arm/stm32/stm32_hal/STM32L0xx_HAL_Driver/Src/stm32l0xx_hal_lptim.c ****   * @param  hlptim LPTIM handle
 964:smtc_bsp/arm/stm32/stm32_hal/STM32L0xx_HAL_Driver/Src/stm32l0xx_hal_lptim.c ****   * @retval HAL status
 965:smtc_bsp/arm/stm32/stm32_hal/STM32L0xx_HAL_Driver/Src/stm32l0xx_hal_lptim.c ****   */
 966:smtc_bsp/arm/stm32/stm32_hal/STM32L0xx_HAL_Driver/Src/stm32l0xx_hal_lptim.c **** HAL_StatusTypeDef HAL_LPTIM_Encoder_Stop(LPTIM_HandleTypeDef *hlptim)
 967:smtc_bsp/arm/stm32/stm32_hal/STM32L0xx_HAL_Driver/Src/stm32l0xx_hal_lptim.c **** {
 968:smtc_bsp/arm/stm32/stm32_hal/STM32L0xx_HAL_Driver/Src/stm32l0xx_hal_lptim.c ****   /* Check the parameters */
 969:smtc_bsp/arm/stm32/stm32_hal/STM32L0xx_HAL_Driver/Src/stm32l0xx_hal_lptim.c ****   assert_param(IS_LPTIM_ENCODER_INTERFACE_INSTANCE(hlptim->Instance));
 970:smtc_bsp/arm/stm32/stm32_hal/STM32L0xx_HAL_Driver/Src/stm32l0xx_hal_lptim.c **** 
 971:smtc_bsp/arm/stm32/stm32_hal/STM32L0xx_HAL_Driver/Src/stm32l0xx_hal_lptim.c ****   /* Set the LPTIM state */
 972:smtc_bsp/arm/stm32/stm32_hal/STM32L0xx_HAL_Driver/Src/stm32l0xx_hal_lptim.c ****   hlptim->State = HAL_LPTIM_STATE_BUSY;
 973:smtc_bsp/arm/stm32/stm32_hal/STM32L0xx_HAL_Driver/Src/stm32l0xx_hal_lptim.c **** 
 974:smtc_bsp/arm/stm32/stm32_hal/STM32L0xx_HAL_Driver/Src/stm32l0xx_hal_lptim.c ****   /* Disable the Peripheral */
 975:smtc_bsp/arm/stm32/stm32_hal/STM32L0xx_HAL_Driver/Src/stm32l0xx_hal_lptim.c ****   __HAL_LPTIM_DISABLE(hlptim);
 976:smtc_bsp/arm/stm32/stm32_hal/STM32L0xx_HAL_Driver/Src/stm32l0xx_hal_lptim.c **** 
 977:smtc_bsp/arm/stm32/stm32_hal/STM32L0xx_HAL_Driver/Src/stm32l0xx_hal_lptim.c ****   /* Reset ENC bit to disable the encoder interface */
 978:smtc_bsp/arm/stm32/stm32_hal/STM32L0xx_HAL_Driver/Src/stm32l0xx_hal_lptim.c ****   hlptim->Instance->CFGR &= ~LPTIM_CFGR_ENC;
 979:smtc_bsp/arm/stm32/stm32_hal/STM32L0xx_HAL_Driver/Src/stm32l0xx_hal_lptim.c **** 
 980:smtc_bsp/arm/stm32/stm32_hal/STM32L0xx_HAL_Driver/Src/stm32l0xx_hal_lptim.c ****   /* Change the TIM state*/
 981:smtc_bsp/arm/stm32/stm32_hal/STM32L0xx_HAL_Driver/Src/stm32l0xx_hal_lptim.c ****   hlptim->State = HAL_LPTIM_STATE_READY;
 982:smtc_bsp/arm/stm32/stm32_hal/STM32L0xx_HAL_Driver/Src/stm32l0xx_hal_lptim.c **** 
 983:smtc_bsp/arm/stm32/stm32_hal/STM32L0xx_HAL_Driver/Src/stm32l0xx_hal_lptim.c ****   /* Return function status */
 984:smtc_bsp/arm/stm32/stm32_hal/STM32L0xx_HAL_Driver/Src/stm32l0xx_hal_lptim.c ****   return HAL_OK;
 985:smtc_bsp/arm/stm32/stm32_hal/STM32L0xx_HAL_Driver/Src/stm32l0xx_hal_lptim.c **** }
 986:smtc_bsp/arm/stm32/stm32_hal/STM32L0xx_HAL_Driver/Src/stm32l0xx_hal_lptim.c **** 
 987:smtc_bsp/arm/stm32/stm32_hal/STM32L0xx_HAL_Driver/Src/stm32l0xx_hal_lptim.c **** /**
 988:smtc_bsp/arm/stm32/stm32_hal/STM32L0xx_HAL_Driver/Src/stm32l0xx_hal_lptim.c ****   * @brief  Start the Encoder interface in interrupt mode.
 989:smtc_bsp/arm/stm32/stm32_hal/STM32L0xx_HAL_Driver/Src/stm32l0xx_hal_lptim.c ****   * @param  hlptim LPTIM handle
 990:smtc_bsp/arm/stm32/stm32_hal/STM32L0xx_HAL_Driver/Src/stm32l0xx_hal_lptim.c ****   * @param  Period Specifies the Autoreload value.
 991:smtc_bsp/arm/stm32/stm32_hal/STM32L0xx_HAL_Driver/Src/stm32l0xx_hal_lptim.c ****   *         This parameter must be a value between 0x0000 and 0xFFFF.
 992:smtc_bsp/arm/stm32/stm32_hal/STM32L0xx_HAL_Driver/Src/stm32l0xx_hal_lptim.c ****   * @retval HAL status
 993:smtc_bsp/arm/stm32/stm32_hal/STM32L0xx_HAL_Driver/Src/stm32l0xx_hal_lptim.c ****   */
 994:smtc_bsp/arm/stm32/stm32_hal/STM32L0xx_HAL_Driver/Src/stm32l0xx_hal_lptim.c **** HAL_StatusTypeDef HAL_LPTIM_Encoder_Start_IT(LPTIM_HandleTypeDef *hlptim, uint32_t Period)
 995:smtc_bsp/arm/stm32/stm32_hal/STM32L0xx_HAL_Driver/Src/stm32l0xx_hal_lptim.c **** {
 940              		.loc 1 995 1 is_stmt 1 view -0
 941              		.cfi_startproc
 942              		@ args = 0, pretend = 0, frame = 0
 943              		@ frame_needed = 0, uses_anonymous_args = 0
 996:smtc_bsp/arm/stm32/stm32_hal/STM32L0xx_HAL_Driver/Src/stm32l0xx_hal_lptim.c ****   uint32_t          tmpcfgr;
 944              		.loc 1 996 3 view .LVU289
 997:smtc_bsp/arm/stm32/stm32_hal/STM32L0xx_HAL_Driver/Src/stm32l0xx_hal_lptim.c **** 
 998:smtc_bsp/arm/stm32/stm32_hal/STM32L0xx_HAL_Driver/Src/stm32l0xx_hal_lptim.c ****   /* Check the parameters */
 999:smtc_bsp/arm/stm32/stm32_hal/STM32L0xx_HAL_Driver/Src/stm32l0xx_hal_lptim.c ****   assert_param(IS_LPTIM_ENCODER_INTERFACE_INSTANCE(hlptim->Instance));
 945              		.loc 1 999 3 view .LVU290
1000:smtc_bsp/arm/stm32/stm32_hal/STM32L0xx_HAL_Driver/Src/stm32l0xx_hal_lptim.c ****   assert_param(IS_LPTIM_PERIOD(Period));
 946              		.loc 1 1000 3 view .LVU291
1001:smtc_bsp/arm/stm32/stm32_hal/STM32L0xx_HAL_Driver/Src/stm32l0xx_hal_lptim.c ****   assert_param(hlptim->Init.Clock.Source == LPTIM_CLOCKSOURCE_APBCLOCK_LPOSC);
 947              		.loc 1 1001 3 view .LVU292
1002:smtc_bsp/arm/stm32/stm32_hal/STM32L0xx_HAL_Driver/Src/stm32l0xx_hal_lptim.c ****   assert_param(hlptim->Init.Clock.Prescaler == LPTIM_PRESCALER_DIV1);
 948              		.loc 1 1002 3 view .LVU293
ARM GAS  /var/folders/bq/yv49bw8j2kd6w3hsq868qv180000gn/T//ccQg3V4x.s 			page 38


1003:smtc_bsp/arm/stm32/stm32_hal/STM32L0xx_HAL_Driver/Src/stm32l0xx_hal_lptim.c ****   assert_param(IS_LPTIM_CLOCK_POLARITY(hlptim->Init.UltraLowPowerClock.Polarity));
 949              		.loc 1 1003 3 view .LVU294
1004:smtc_bsp/arm/stm32/stm32_hal/STM32L0xx_HAL_Driver/Src/stm32l0xx_hal_lptim.c **** 
1005:smtc_bsp/arm/stm32/stm32_hal/STM32L0xx_HAL_Driver/Src/stm32l0xx_hal_lptim.c ****   /* Set the LPTIM state */
1006:smtc_bsp/arm/stm32/stm32_hal/STM32L0xx_HAL_Driver/Src/stm32l0xx_hal_lptim.c ****   hlptim->State = HAL_LPTIM_STATE_BUSY;
 950              		.loc 1 1006 3 view .LVU295
 995:smtc_bsp/arm/stm32/stm32_hal/STM32L0xx_HAL_Driver/Src/stm32l0xx_hal_lptim.c ****   uint32_t          tmpcfgr;
 951              		.loc 1 995 1 is_stmt 0 view .LVU296
 952 0000 30B5     		push	{r4, r5, lr}
 953              		.cfi_def_cfa_offset 12
 954              		.cfi_offset 4, -12
 955              		.cfi_offset 5, -8
 956              		.cfi_offset 14, -4
 957              		.loc 1 1006 17 view .LVU297
 958 0002 0400     		movs	r4, r0
 959 0004 0223     		movs	r3, #2
1007:smtc_bsp/arm/stm32/stm32_hal/STM32L0xx_HAL_Driver/Src/stm32l0xx_hal_lptim.c **** 
1008:smtc_bsp/arm/stm32/stm32_hal/STM32L0xx_HAL_Driver/Src/stm32l0xx_hal_lptim.c ****   /* Configure edge sensitivity for encoder mode */
1009:smtc_bsp/arm/stm32/stm32_hal/STM32L0xx_HAL_Driver/Src/stm32l0xx_hal_lptim.c ****   /* Get the LPTIMx CFGR value */
1010:smtc_bsp/arm/stm32/stm32_hal/STM32L0xx_HAL_Driver/Src/stm32l0xx_hal_lptim.c ****   tmpcfgr = hlptim->Instance->CFGR;
1011:smtc_bsp/arm/stm32/stm32_hal/STM32L0xx_HAL_Driver/Src/stm32l0xx_hal_lptim.c **** 
1012:smtc_bsp/arm/stm32/stm32_hal/STM32L0xx_HAL_Driver/Src/stm32l0xx_hal_lptim.c ****   /* Clear CKPOL bits */
1013:smtc_bsp/arm/stm32/stm32_hal/STM32L0xx_HAL_Driver/Src/stm32l0xx_hal_lptim.c ****   tmpcfgr &= (uint32_t)(~LPTIM_CFGR_CKPOL);
 960              		.loc 1 1013 11 view .LVU298
 961 0006 0625     		movs	r5, #6
1006:smtc_bsp/arm/stm32/stm32_hal/STM32L0xx_HAL_Driver/Src/stm32l0xx_hal_lptim.c **** 
 962              		.loc 1 1006 17 view .LVU299
 963 0008 2E34     		adds	r4, r4, #46
 964 000a 2370     		strb	r3, [r4]
1010:smtc_bsp/arm/stm32/stm32_hal/STM32L0xx_HAL_Driver/Src/stm32l0xx_hal_lptim.c **** 
 965              		.loc 1 1010 3 is_stmt 1 view .LVU300
1010:smtc_bsp/arm/stm32/stm32_hal/STM32L0xx_HAL_Driver/Src/stm32l0xx_hal_lptim.c **** 
 966              		.loc 1 1010 19 is_stmt 0 view .LVU301
 967 000c 0368     		ldr	r3, [r0]
1014:smtc_bsp/arm/stm32/stm32_hal/STM32L0xx_HAL_Driver/Src/stm32l0xx_hal_lptim.c **** 
1015:smtc_bsp/arm/stm32/stm32_hal/STM32L0xx_HAL_Driver/Src/stm32l0xx_hal_lptim.c ****   /* Set Input polarity */
1016:smtc_bsp/arm/stm32/stm32_hal/STM32L0xx_HAL_Driver/Src/stm32l0xx_hal_lptim.c ****   tmpcfgr |=  hlptim->Init.UltraLowPowerClock.Polarity;
 968              		.loc 1 1016 11 view .LVU302
 969 000e C068     		ldr	r0, [r0, #12]
 970              	.LVL61:
1010:smtc_bsp/arm/stm32/stm32_hal/STM32L0xx_HAL_Driver/Src/stm32l0xx_hal_lptim.c **** 
 971              		.loc 1 1010 11 view .LVU303
 972 0010 DA68     		ldr	r2, [r3, #12]
 973              	.LVL62:
1013:smtc_bsp/arm/stm32/stm32_hal/STM32L0xx_HAL_Driver/Src/stm32l0xx_hal_lptim.c **** 
 974              		.loc 1 1013 3 is_stmt 1 view .LVU304
1017:smtc_bsp/arm/stm32/stm32_hal/STM32L0xx_HAL_Driver/Src/stm32l0xx_hal_lptim.c **** 
1018:smtc_bsp/arm/stm32/stm32_hal/STM32L0xx_HAL_Driver/Src/stm32l0xx_hal_lptim.c ****   /* Write to LPTIMx CFGR */
1019:smtc_bsp/arm/stm32/stm32_hal/STM32L0xx_HAL_Driver/Src/stm32l0xx_hal_lptim.c ****   hlptim->Instance->CFGR = tmpcfgr;
1020:smtc_bsp/arm/stm32/stm32_hal/STM32L0xx_HAL_Driver/Src/stm32l0xx_hal_lptim.c **** 
1021:smtc_bsp/arm/stm32/stm32_hal/STM32L0xx_HAL_Driver/Src/stm32l0xx_hal_lptim.c ****   /* Set ENC bit to enable the encoder interface */
1022:smtc_bsp/arm/stm32/stm32_hal/STM32L0xx_HAL_Driver/Src/stm32l0xx_hal_lptim.c ****   hlptim->Instance->CFGR |= LPTIM_CFGR_ENC;
1023:smtc_bsp/arm/stm32/stm32_hal/STM32L0xx_HAL_Driver/Src/stm32l0xx_hal_lptim.c **** 
1024:smtc_bsp/arm/stm32/stm32_hal/STM32L0xx_HAL_Driver/Src/stm32l0xx_hal_lptim.c ****   /* Enable "switch to down direction" interrupt */
1025:smtc_bsp/arm/stm32/stm32_hal/STM32L0xx_HAL_Driver/Src/stm32l0xx_hal_lptim.c ****   __HAL_LPTIM_ENABLE_IT(hlptim, LPTIM_IT_DOWN);
1026:smtc_bsp/arm/stm32/stm32_hal/STM32L0xx_HAL_Driver/Src/stm32l0xx_hal_lptim.c **** 
1027:smtc_bsp/arm/stm32/stm32_hal/STM32L0xx_HAL_Driver/Src/stm32l0xx_hal_lptim.c ****   /* Enable "switch to up direction" interrupt */
ARM GAS  /var/folders/bq/yv49bw8j2kd6w3hsq868qv180000gn/T//ccQg3V4x.s 			page 39


1028:smtc_bsp/arm/stm32/stm32_hal/STM32L0xx_HAL_Driver/Src/stm32l0xx_hal_lptim.c ****   __HAL_LPTIM_ENABLE_IT(hlptim, LPTIM_IT_UP);
1029:smtc_bsp/arm/stm32/stm32_hal/STM32L0xx_HAL_Driver/Src/stm32l0xx_hal_lptim.c **** 
1030:smtc_bsp/arm/stm32/stm32_hal/STM32L0xx_HAL_Driver/Src/stm32l0xx_hal_lptim.c ****   /* Enable the Peripheral */
1031:smtc_bsp/arm/stm32/stm32_hal/STM32L0xx_HAL_Driver/Src/stm32l0xx_hal_lptim.c ****   __HAL_LPTIM_ENABLE(hlptim);
1032:smtc_bsp/arm/stm32/stm32_hal/STM32L0xx_HAL_Driver/Src/stm32l0xx_hal_lptim.c **** 
1033:smtc_bsp/arm/stm32/stm32_hal/STM32L0xx_HAL_Driver/Src/stm32l0xx_hal_lptim.c ****   /* Load the period value in the autoreload register */
1034:smtc_bsp/arm/stm32/stm32_hal/STM32L0xx_HAL_Driver/Src/stm32l0xx_hal_lptim.c ****   __HAL_LPTIM_AUTORELOAD_SET(hlptim, Period);
1035:smtc_bsp/arm/stm32/stm32_hal/STM32L0xx_HAL_Driver/Src/stm32l0xx_hal_lptim.c **** 
1036:smtc_bsp/arm/stm32/stm32_hal/STM32L0xx_HAL_Driver/Src/stm32l0xx_hal_lptim.c ****   /* Start timer in continuous mode */
1037:smtc_bsp/arm/stm32/stm32_hal/STM32L0xx_HAL_Driver/Src/stm32l0xx_hal_lptim.c ****   __HAL_LPTIM_START_CONTINUOUS(hlptim);
1038:smtc_bsp/arm/stm32/stm32_hal/STM32L0xx_HAL_Driver/Src/stm32l0xx_hal_lptim.c **** 
1039:smtc_bsp/arm/stm32/stm32_hal/STM32L0xx_HAL_Driver/Src/stm32l0xx_hal_lptim.c ****   /* Change the TIM state*/
1040:smtc_bsp/arm/stm32/stm32_hal/STM32L0xx_HAL_Driver/Src/stm32l0xx_hal_lptim.c ****   hlptim->State = HAL_LPTIM_STATE_READY;
1041:smtc_bsp/arm/stm32/stm32_hal/STM32L0xx_HAL_Driver/Src/stm32l0xx_hal_lptim.c **** 
1042:smtc_bsp/arm/stm32/stm32_hal/STM32L0xx_HAL_Driver/Src/stm32l0xx_hal_lptim.c ****   /* Return function status */
1043:smtc_bsp/arm/stm32/stm32_hal/STM32L0xx_HAL_Driver/Src/stm32l0xx_hal_lptim.c ****   return HAL_OK;
1044:smtc_bsp/arm/stm32/stm32_hal/STM32L0xx_HAL_Driver/Src/stm32l0xx_hal_lptim.c **** }
 975              		.loc 1 1044 1 is_stmt 0 view .LVU305
 976              		@ sp needed
1013:smtc_bsp/arm/stm32/stm32_hal/STM32L0xx_HAL_Driver/Src/stm32l0xx_hal_lptim.c **** 
 977              		.loc 1 1013 11 view .LVU306
 978 0012 AA43     		bics	r2, r5
 979              	.LVL63:
1016:smtc_bsp/arm/stm32/stm32_hal/STM32L0xx_HAL_Driver/Src/stm32l0xx_hal_lptim.c **** 
 980              		.loc 1 1016 3 is_stmt 1 view .LVU307
1016:smtc_bsp/arm/stm32/stm32_hal/STM32L0xx_HAL_Driver/Src/stm32l0xx_hal_lptim.c **** 
 981              		.loc 1 1016 11 is_stmt 0 view .LVU308
 982 0014 0243     		orrs	r2, r0
 983              	.LVL64:
1019:smtc_bsp/arm/stm32/stm32_hal/STM32L0xx_HAL_Driver/Src/stm32l0xx_hal_lptim.c **** 
 984              		.loc 1 1019 3 is_stmt 1 view .LVU309
1019:smtc_bsp/arm/stm32/stm32_hal/STM32L0xx_HAL_Driver/Src/stm32l0xx_hal_lptim.c **** 
 985              		.loc 1 1019 26 is_stmt 0 view .LVU310
 986 0016 DA60     		str	r2, [r3, #12]
1022:smtc_bsp/arm/stm32/stm32_hal/STM32L0xx_HAL_Driver/Src/stm32l0xx_hal_lptim.c **** 
 987              		.loc 1 1022 3 is_stmt 1 view .LVU311
1022:smtc_bsp/arm/stm32/stm32_hal/STM32L0xx_HAL_Driver/Src/stm32l0xx_hal_lptim.c **** 
 988              		.loc 1 1022 26 is_stmt 0 view .LVU312
 989 0018 8022     		movs	r2, #128
 990              	.LVL65:
1022:smtc_bsp/arm/stm32/stm32_hal/STM32L0xx_HAL_Driver/Src/stm32l0xx_hal_lptim.c **** 
 991              		.loc 1 1022 26 view .LVU313
 992 001a D868     		ldr	r0, [r3, #12]
 993 001c 5204     		lsls	r2, r2, #17
 994 001e 0243     		orrs	r2, r0
 995 0020 DA60     		str	r2, [r3, #12]
 996              	.LVL66:
1025:smtc_bsp/arm/stm32/stm32_hal/STM32L0xx_HAL_Driver/Src/stm32l0xx_hal_lptim.c **** 
 997              		.loc 1 1025 3 is_stmt 1 view .LVU314
 998 0022 4022     		movs	r2, #64
 999 0024 9868     		ldr	r0, [r3, #8]
 1000 0026 0243     		orrs	r2, r0
 1001 0028 9A60     		str	r2, [r3, #8]
1028:smtc_bsp/arm/stm32/stm32_hal/STM32L0xx_HAL_Driver/Src/stm32l0xx_hal_lptim.c **** 
 1002              		.loc 1 1028 3 view .LVU315
 1003 002a 2022     		movs	r2, #32
 1004 002c 9868     		ldr	r0, [r3, #8]
ARM GAS  /var/folders/bq/yv49bw8j2kd6w3hsq868qv180000gn/T//ccQg3V4x.s 			page 40


 1005 002e 0243     		orrs	r2, r0
1031:smtc_bsp/arm/stm32/stm32_hal/STM32L0xx_HAL_Driver/Src/stm32l0xx_hal_lptim.c **** 
 1006              		.loc 1 1031 3 is_stmt 0 view .LVU316
 1007 0030 0120     		movs	r0, #1
1028:smtc_bsp/arm/stm32/stm32_hal/STM32L0xx_HAL_Driver/Src/stm32l0xx_hal_lptim.c **** 
 1008              		.loc 1 1028 3 view .LVU317
 1009 0032 9A60     		str	r2, [r3, #8]
1031:smtc_bsp/arm/stm32/stm32_hal/STM32L0xx_HAL_Driver/Src/stm32l0xx_hal_lptim.c **** 
 1010              		.loc 1 1031 3 is_stmt 1 view .LVU318
 1011 0034 1A69     		ldr	r2, [r3, #16]
 1012 0036 0243     		orrs	r2, r0
 1013 0038 1A61     		str	r2, [r3, #16]
1034:smtc_bsp/arm/stm32/stm32_hal/STM32L0xx_HAL_Driver/Src/stm32l0xx_hal_lptim.c **** 
 1014              		.loc 1 1034 3 view .LVU319
1037:smtc_bsp/arm/stm32/stm32_hal/STM32L0xx_HAL_Driver/Src/stm32l0xx_hal_lptim.c **** 
 1015              		.loc 1 1037 3 is_stmt 0 view .LVU320
 1016 003a 0422     		movs	r2, #4
1034:smtc_bsp/arm/stm32/stm32_hal/STM32L0xx_HAL_Driver/Src/stm32l0xx_hal_lptim.c **** 
 1017              		.loc 1 1034 3 view .LVU321
 1018 003c 9961     		str	r1, [r3, #24]
1037:smtc_bsp/arm/stm32/stm32_hal/STM32L0xx_HAL_Driver/Src/stm32l0xx_hal_lptim.c **** 
 1019              		.loc 1 1037 3 is_stmt 1 view .LVU322
 1020 003e 1969     		ldr	r1, [r3, #16]
 1021              	.LVL67:
1037:smtc_bsp/arm/stm32/stm32_hal/STM32L0xx_HAL_Driver/Src/stm32l0xx_hal_lptim.c **** 
 1022              		.loc 1 1037 3 is_stmt 0 view .LVU323
 1023 0040 0A43     		orrs	r2, r1
 1024 0042 1A61     		str	r2, [r3, #16]
 1025              	.LVL68:
1040:smtc_bsp/arm/stm32/stm32_hal/STM32L0xx_HAL_Driver/Src/stm32l0xx_hal_lptim.c **** 
 1026              		.loc 1 1040 3 is_stmt 1 view .LVU324
1040:smtc_bsp/arm/stm32/stm32_hal/STM32L0xx_HAL_Driver/Src/stm32l0xx_hal_lptim.c **** 
 1027              		.loc 1 1040 17 is_stmt 0 view .LVU325
 1028 0044 2070     		strb	r0, [r4]
1043:smtc_bsp/arm/stm32/stm32_hal/STM32L0xx_HAL_Driver/Src/stm32l0xx_hal_lptim.c **** }
 1029              		.loc 1 1043 3 is_stmt 1 view .LVU326
 1030              		.loc 1 1044 1 is_stmt 0 view .LVU327
 1031 0046 0020     		movs	r0, #0
 1032              	.LVL69:
 1033              		.loc 1 1044 1 view .LVU328
 1034 0048 30BD     		pop	{r4, r5, pc}
 1035              		.cfi_endproc
 1036              	.LFE65:
 1038              		.section	.text.HAL_LPTIM_TimeOut_Start,"ax",%progbits
 1039              		.align	1
 1040              		.global	HAL_LPTIM_TimeOut_Start
 1041              		.syntax unified
 1042              		.code	16
 1043              		.thumb_func
 1044              		.fpu softvfp
 1046              	HAL_LPTIM_TimeOut_Start:
 1047              	.LVL70:
 1048              	.LFB67:
1045:smtc_bsp/arm/stm32/stm32_hal/STM32L0xx_HAL_Driver/Src/stm32l0xx_hal_lptim.c **** 
1046:smtc_bsp/arm/stm32/stm32_hal/STM32L0xx_HAL_Driver/Src/stm32l0xx_hal_lptim.c **** /**
1047:smtc_bsp/arm/stm32/stm32_hal/STM32L0xx_HAL_Driver/Src/stm32l0xx_hal_lptim.c ****   * @brief  Stop the Encoder interface in interrupt mode.
1048:smtc_bsp/arm/stm32/stm32_hal/STM32L0xx_HAL_Driver/Src/stm32l0xx_hal_lptim.c ****   * @param  hlptim LPTIM handle
ARM GAS  /var/folders/bq/yv49bw8j2kd6w3hsq868qv180000gn/T//ccQg3V4x.s 			page 41


1049:smtc_bsp/arm/stm32/stm32_hal/STM32L0xx_HAL_Driver/Src/stm32l0xx_hal_lptim.c ****   * @retval HAL status
1050:smtc_bsp/arm/stm32/stm32_hal/STM32L0xx_HAL_Driver/Src/stm32l0xx_hal_lptim.c ****   */
1051:smtc_bsp/arm/stm32/stm32_hal/STM32L0xx_HAL_Driver/Src/stm32l0xx_hal_lptim.c **** HAL_StatusTypeDef HAL_LPTIM_Encoder_Stop_IT(LPTIM_HandleTypeDef *hlptim)
1052:smtc_bsp/arm/stm32/stm32_hal/STM32L0xx_HAL_Driver/Src/stm32l0xx_hal_lptim.c **** {
1053:smtc_bsp/arm/stm32/stm32_hal/STM32L0xx_HAL_Driver/Src/stm32l0xx_hal_lptim.c ****   /* Check the parameters */
1054:smtc_bsp/arm/stm32/stm32_hal/STM32L0xx_HAL_Driver/Src/stm32l0xx_hal_lptim.c ****   assert_param(IS_LPTIM_ENCODER_INTERFACE_INSTANCE(hlptim->Instance));
1055:smtc_bsp/arm/stm32/stm32_hal/STM32L0xx_HAL_Driver/Src/stm32l0xx_hal_lptim.c **** 
1056:smtc_bsp/arm/stm32/stm32_hal/STM32L0xx_HAL_Driver/Src/stm32l0xx_hal_lptim.c ****   /* Set the LPTIM state */
1057:smtc_bsp/arm/stm32/stm32_hal/STM32L0xx_HAL_Driver/Src/stm32l0xx_hal_lptim.c ****   hlptim->State = HAL_LPTIM_STATE_BUSY;
1058:smtc_bsp/arm/stm32/stm32_hal/STM32L0xx_HAL_Driver/Src/stm32l0xx_hal_lptim.c **** 
1059:smtc_bsp/arm/stm32/stm32_hal/STM32L0xx_HAL_Driver/Src/stm32l0xx_hal_lptim.c ****   /* Disable the Peripheral */
1060:smtc_bsp/arm/stm32/stm32_hal/STM32L0xx_HAL_Driver/Src/stm32l0xx_hal_lptim.c ****   __HAL_LPTIM_DISABLE(hlptim);
1061:smtc_bsp/arm/stm32/stm32_hal/STM32L0xx_HAL_Driver/Src/stm32l0xx_hal_lptim.c **** 
1062:smtc_bsp/arm/stm32/stm32_hal/STM32L0xx_HAL_Driver/Src/stm32l0xx_hal_lptim.c ****   /* Reset ENC bit to disable the encoder interface */
1063:smtc_bsp/arm/stm32/stm32_hal/STM32L0xx_HAL_Driver/Src/stm32l0xx_hal_lptim.c ****   hlptim->Instance->CFGR &= ~LPTIM_CFGR_ENC;
1064:smtc_bsp/arm/stm32/stm32_hal/STM32L0xx_HAL_Driver/Src/stm32l0xx_hal_lptim.c **** 
1065:smtc_bsp/arm/stm32/stm32_hal/STM32L0xx_HAL_Driver/Src/stm32l0xx_hal_lptim.c ****   /* Disable "switch to down direction" interrupt */
1066:smtc_bsp/arm/stm32/stm32_hal/STM32L0xx_HAL_Driver/Src/stm32l0xx_hal_lptim.c ****   __HAL_LPTIM_DISABLE_IT(hlptim, LPTIM_IT_DOWN);
1067:smtc_bsp/arm/stm32/stm32_hal/STM32L0xx_HAL_Driver/Src/stm32l0xx_hal_lptim.c **** 
1068:smtc_bsp/arm/stm32/stm32_hal/STM32L0xx_HAL_Driver/Src/stm32l0xx_hal_lptim.c ****   /* Disable "switch to up direction" interrupt */
1069:smtc_bsp/arm/stm32/stm32_hal/STM32L0xx_HAL_Driver/Src/stm32l0xx_hal_lptim.c ****   __HAL_LPTIM_DISABLE_IT(hlptim, LPTIM_IT_UP);
1070:smtc_bsp/arm/stm32/stm32_hal/STM32L0xx_HAL_Driver/Src/stm32l0xx_hal_lptim.c **** 
1071:smtc_bsp/arm/stm32/stm32_hal/STM32L0xx_HAL_Driver/Src/stm32l0xx_hal_lptim.c ****   /* Change the TIM state*/
1072:smtc_bsp/arm/stm32/stm32_hal/STM32L0xx_HAL_Driver/Src/stm32l0xx_hal_lptim.c ****   hlptim->State = HAL_LPTIM_STATE_READY;
1073:smtc_bsp/arm/stm32/stm32_hal/STM32L0xx_HAL_Driver/Src/stm32l0xx_hal_lptim.c **** 
1074:smtc_bsp/arm/stm32/stm32_hal/STM32L0xx_HAL_Driver/Src/stm32l0xx_hal_lptim.c ****   /* Return function status */
1075:smtc_bsp/arm/stm32/stm32_hal/STM32L0xx_HAL_Driver/Src/stm32l0xx_hal_lptim.c ****   return HAL_OK;
1076:smtc_bsp/arm/stm32/stm32_hal/STM32L0xx_HAL_Driver/Src/stm32l0xx_hal_lptim.c **** }
1077:smtc_bsp/arm/stm32/stm32_hal/STM32L0xx_HAL_Driver/Src/stm32l0xx_hal_lptim.c **** 
1078:smtc_bsp/arm/stm32/stm32_hal/STM32L0xx_HAL_Driver/Src/stm32l0xx_hal_lptim.c **** /**
1079:smtc_bsp/arm/stm32/stm32_hal/STM32L0xx_HAL_Driver/Src/stm32l0xx_hal_lptim.c ****   * @brief  Start the Timeout function.
1080:smtc_bsp/arm/stm32/stm32_hal/STM32L0xx_HAL_Driver/Src/stm32l0xx_hal_lptim.c ****   * @note   The first trigger event will start the timer, any successive
1081:smtc_bsp/arm/stm32/stm32_hal/STM32L0xx_HAL_Driver/Src/stm32l0xx_hal_lptim.c ****   *         trigger event will reset the counter and the timer restarts.
1082:smtc_bsp/arm/stm32/stm32_hal/STM32L0xx_HAL_Driver/Src/stm32l0xx_hal_lptim.c ****   * @param  hlptim LPTIM handle
1083:smtc_bsp/arm/stm32/stm32_hal/STM32L0xx_HAL_Driver/Src/stm32l0xx_hal_lptim.c ****   * @param  Period Specifies the Autoreload value.
1084:smtc_bsp/arm/stm32/stm32_hal/STM32L0xx_HAL_Driver/Src/stm32l0xx_hal_lptim.c ****   *         This parameter must be a value between 0x0000 and 0xFFFF.
1085:smtc_bsp/arm/stm32/stm32_hal/STM32L0xx_HAL_Driver/Src/stm32l0xx_hal_lptim.c ****   * @param  Timeout Specifies the TimeOut value to reset the counter.
1086:smtc_bsp/arm/stm32/stm32_hal/STM32L0xx_HAL_Driver/Src/stm32l0xx_hal_lptim.c ****   *         This parameter must be a value between 0x0000 and 0xFFFF.
1087:smtc_bsp/arm/stm32/stm32_hal/STM32L0xx_HAL_Driver/Src/stm32l0xx_hal_lptim.c ****   * @retval HAL status
1088:smtc_bsp/arm/stm32/stm32_hal/STM32L0xx_HAL_Driver/Src/stm32l0xx_hal_lptim.c ****   */
1089:smtc_bsp/arm/stm32/stm32_hal/STM32L0xx_HAL_Driver/Src/stm32l0xx_hal_lptim.c **** HAL_StatusTypeDef HAL_LPTIM_TimeOut_Start(LPTIM_HandleTypeDef *hlptim, uint32_t Period, uint32_t Ti
1090:smtc_bsp/arm/stm32/stm32_hal/STM32L0xx_HAL_Driver/Src/stm32l0xx_hal_lptim.c **** {
 1049              		.loc 1 1090 1 is_stmt 1 view -0
 1050              		.cfi_startproc
 1051              		@ args = 0, pretend = 0, frame = 0
 1052              		@ frame_needed = 0, uses_anonymous_args = 0
1091:smtc_bsp/arm/stm32/stm32_hal/STM32L0xx_HAL_Driver/Src/stm32l0xx_hal_lptim.c ****   /* Check the parameters */
1092:smtc_bsp/arm/stm32/stm32_hal/STM32L0xx_HAL_Driver/Src/stm32l0xx_hal_lptim.c ****   assert_param(IS_LPTIM_INSTANCE(hlptim->Instance));
 1053              		.loc 1 1092 3 view .LVU330
1093:smtc_bsp/arm/stm32/stm32_hal/STM32L0xx_HAL_Driver/Src/stm32l0xx_hal_lptim.c ****   assert_param(IS_LPTIM_PERIOD(Period));
 1054              		.loc 1 1093 3 view .LVU331
1094:smtc_bsp/arm/stm32/stm32_hal/STM32L0xx_HAL_Driver/Src/stm32l0xx_hal_lptim.c ****   assert_param(IS_LPTIM_PULSE(Timeout));
 1055              		.loc 1 1094 3 view .LVU332
1095:smtc_bsp/arm/stm32/stm32_hal/STM32L0xx_HAL_Driver/Src/stm32l0xx_hal_lptim.c **** 
1096:smtc_bsp/arm/stm32/stm32_hal/STM32L0xx_HAL_Driver/Src/stm32l0xx_hal_lptim.c ****   /* Set the LPTIM state */
1097:smtc_bsp/arm/stm32/stm32_hal/STM32L0xx_HAL_Driver/Src/stm32l0xx_hal_lptim.c ****   hlptim->State = HAL_LPTIM_STATE_BUSY;
 1056              		.loc 1 1097 3 view .LVU333
ARM GAS  /var/folders/bq/yv49bw8j2kd6w3hsq868qv180000gn/T//ccQg3V4x.s 			page 42


1090:smtc_bsp/arm/stm32/stm32_hal/STM32L0xx_HAL_Driver/Src/stm32l0xx_hal_lptim.c ****   /* Check the parameters */
 1057              		.loc 1 1090 1 is_stmt 0 view .LVU334
 1058 0000 30B5     		push	{r4, r5, lr}
 1059              		.cfi_def_cfa_offset 12
 1060              		.cfi_offset 4, -12
 1061              		.cfi_offset 5, -8
 1062              		.cfi_offset 14, -4
 1063              		.loc 1 1097 17 view .LVU335
 1064 0002 0400     		movs	r4, r0
 1065 0004 0223     		movs	r3, #2
 1066 0006 2E34     		adds	r4, r4, #46
 1067 0008 2370     		strb	r3, [r4]
1098:smtc_bsp/arm/stm32/stm32_hal/STM32L0xx_HAL_Driver/Src/stm32l0xx_hal_lptim.c **** 
1099:smtc_bsp/arm/stm32/stm32_hal/STM32L0xx_HAL_Driver/Src/stm32l0xx_hal_lptim.c ****   /* Set TIMOUT bit to enable the timeout function */
1100:smtc_bsp/arm/stm32/stm32_hal/STM32L0xx_HAL_Driver/Src/stm32l0xx_hal_lptim.c ****   hlptim->Instance->CFGR |= LPTIM_CFGR_TIMOUT;
 1068              		.loc 1 1100 3 is_stmt 1 view .LVU336
 1069              		.loc 1 1100 9 is_stmt 0 view .LVU337
 1070 000a 0368     		ldr	r3, [r0]
 1071              		.loc 1 1100 26 view .LVU338
 1072 000c 8020     		movs	r0, #128
 1073              	.LVL71:
 1074              		.loc 1 1100 26 view .LVU339
 1075 000e DD68     		ldr	r5, [r3, #12]
 1076 0010 0003     		lsls	r0, r0, #12
 1077 0012 2843     		orrs	r0, r5
1101:smtc_bsp/arm/stm32/stm32_hal/STM32L0xx_HAL_Driver/Src/stm32l0xx_hal_lptim.c **** 
1102:smtc_bsp/arm/stm32/stm32_hal/STM32L0xx_HAL_Driver/Src/stm32l0xx_hal_lptim.c ****   /* Enable the Peripheral */
1103:smtc_bsp/arm/stm32/stm32_hal/STM32L0xx_HAL_Driver/Src/stm32l0xx_hal_lptim.c ****   __HAL_LPTIM_ENABLE(hlptim);
 1078              		.loc 1 1103 3 view .LVU340
 1079 0014 0125     		movs	r5, #1
1100:smtc_bsp/arm/stm32/stm32_hal/STM32L0xx_HAL_Driver/Src/stm32l0xx_hal_lptim.c **** 
 1080              		.loc 1 1100 26 view .LVU341
 1081 0016 D860     		str	r0, [r3, #12]
 1082              		.loc 1 1103 3 is_stmt 1 view .LVU342
 1083 0018 1869     		ldr	r0, [r3, #16]
1104:smtc_bsp/arm/stm32/stm32_hal/STM32L0xx_HAL_Driver/Src/stm32l0xx_hal_lptim.c **** 
1105:smtc_bsp/arm/stm32/stm32_hal/STM32L0xx_HAL_Driver/Src/stm32l0xx_hal_lptim.c ****   /* Load the period value in the autoreload register */
1106:smtc_bsp/arm/stm32/stm32_hal/STM32L0xx_HAL_Driver/Src/stm32l0xx_hal_lptim.c ****   __HAL_LPTIM_AUTORELOAD_SET(hlptim, Period);
1107:smtc_bsp/arm/stm32/stm32_hal/STM32L0xx_HAL_Driver/Src/stm32l0xx_hal_lptim.c **** 
1108:smtc_bsp/arm/stm32/stm32_hal/STM32L0xx_HAL_Driver/Src/stm32l0xx_hal_lptim.c ****   /* Load the Timeout value in the compare register */
1109:smtc_bsp/arm/stm32/stm32_hal/STM32L0xx_HAL_Driver/Src/stm32l0xx_hal_lptim.c ****   __HAL_LPTIM_COMPARE_SET(hlptim, Timeout);
1110:smtc_bsp/arm/stm32/stm32_hal/STM32L0xx_HAL_Driver/Src/stm32l0xx_hal_lptim.c **** 
1111:smtc_bsp/arm/stm32/stm32_hal/STM32L0xx_HAL_Driver/Src/stm32l0xx_hal_lptim.c ****   /* Start timer in continuous mode */
1112:smtc_bsp/arm/stm32/stm32_hal/STM32L0xx_HAL_Driver/Src/stm32l0xx_hal_lptim.c ****   __HAL_LPTIM_START_CONTINUOUS(hlptim);
1113:smtc_bsp/arm/stm32/stm32_hal/STM32L0xx_HAL_Driver/Src/stm32l0xx_hal_lptim.c **** 
1114:smtc_bsp/arm/stm32/stm32_hal/STM32L0xx_HAL_Driver/Src/stm32l0xx_hal_lptim.c ****   /* Change the TIM state*/
1115:smtc_bsp/arm/stm32/stm32_hal/STM32L0xx_HAL_Driver/Src/stm32l0xx_hal_lptim.c ****   hlptim->State = HAL_LPTIM_STATE_READY;
1116:smtc_bsp/arm/stm32/stm32_hal/STM32L0xx_HAL_Driver/Src/stm32l0xx_hal_lptim.c **** 
1117:smtc_bsp/arm/stm32/stm32_hal/STM32L0xx_HAL_Driver/Src/stm32l0xx_hal_lptim.c ****   /* Return function status */
1118:smtc_bsp/arm/stm32/stm32_hal/STM32L0xx_HAL_Driver/Src/stm32l0xx_hal_lptim.c ****   return HAL_OK;
1119:smtc_bsp/arm/stm32/stm32_hal/STM32L0xx_HAL_Driver/Src/stm32l0xx_hal_lptim.c **** }
 1084              		.loc 1 1119 1 is_stmt 0 view .LVU343
 1085              		@ sp needed
1103:smtc_bsp/arm/stm32/stm32_hal/STM32L0xx_HAL_Driver/Src/stm32l0xx_hal_lptim.c **** 
 1086              		.loc 1 1103 3 view .LVU344
 1087 001a 2843     		orrs	r0, r5
 1088 001c 1861     		str	r0, [r3, #16]
ARM GAS  /var/folders/bq/yv49bw8j2kd6w3hsq868qv180000gn/T//ccQg3V4x.s 			page 43


1106:smtc_bsp/arm/stm32/stm32_hal/STM32L0xx_HAL_Driver/Src/stm32l0xx_hal_lptim.c **** 
 1089              		.loc 1 1106 3 is_stmt 1 view .LVU345
 1090 001e 9961     		str	r1, [r3, #24]
1109:smtc_bsp/arm/stm32/stm32_hal/STM32L0xx_HAL_Driver/Src/stm32l0xx_hal_lptim.c **** 
 1091              		.loc 1 1109 3 view .LVU346
 1092 0020 5A61     		str	r2, [r3, #20]
1112:smtc_bsp/arm/stm32/stm32_hal/STM32L0xx_HAL_Driver/Src/stm32l0xx_hal_lptim.c **** 
 1093              		.loc 1 1112 3 view .LVU347
 1094 0022 0422     		movs	r2, #4
 1095              	.LVL72:
1112:smtc_bsp/arm/stm32/stm32_hal/STM32L0xx_HAL_Driver/Src/stm32l0xx_hal_lptim.c **** 
 1096              		.loc 1 1112 3 is_stmt 0 view .LVU348
 1097 0024 1969     		ldr	r1, [r3, #16]
 1098              	.LVL73:
 1099              		.loc 1 1119 1 view .LVU349
 1100 0026 0020     		movs	r0, #0
1112:smtc_bsp/arm/stm32/stm32_hal/STM32L0xx_HAL_Driver/Src/stm32l0xx_hal_lptim.c **** 
 1101              		.loc 1 1112 3 view .LVU350
 1102 0028 0A43     		orrs	r2, r1
 1103 002a 1A61     		str	r2, [r3, #16]
 1104              	.LVL74:
1115:smtc_bsp/arm/stm32/stm32_hal/STM32L0xx_HAL_Driver/Src/stm32l0xx_hal_lptim.c **** 
 1105              		.loc 1 1115 3 is_stmt 1 view .LVU351
1115:smtc_bsp/arm/stm32/stm32_hal/STM32L0xx_HAL_Driver/Src/stm32l0xx_hal_lptim.c **** 
 1106              		.loc 1 1115 17 is_stmt 0 view .LVU352
 1107 002c 2570     		strb	r5, [r4]
1118:smtc_bsp/arm/stm32/stm32_hal/STM32L0xx_HAL_Driver/Src/stm32l0xx_hal_lptim.c **** }
 1108              		.loc 1 1118 3 is_stmt 1 view .LVU353
 1109              	.LVL75:
 1110              		.loc 1 1119 1 is_stmt 0 view .LVU354
 1111 002e 30BD     		pop	{r4, r5, pc}
 1112              		.cfi_endproc
 1113              	.LFE67:
 1115              		.section	.text.HAL_LPTIM_TimeOut_Start_IT,"ax",%progbits
 1116              		.align	1
 1117              		.global	HAL_LPTIM_TimeOut_Start_IT
 1118              		.syntax unified
 1119              		.code	16
 1120              		.thumb_func
 1121              		.fpu softvfp
 1123              	HAL_LPTIM_TimeOut_Start_IT:
 1124              	.LVL76:
 1125              	.LFB69:
1120:smtc_bsp/arm/stm32/stm32_hal/STM32L0xx_HAL_Driver/Src/stm32l0xx_hal_lptim.c **** 
1121:smtc_bsp/arm/stm32/stm32_hal/STM32L0xx_HAL_Driver/Src/stm32l0xx_hal_lptim.c **** /**
1122:smtc_bsp/arm/stm32/stm32_hal/STM32L0xx_HAL_Driver/Src/stm32l0xx_hal_lptim.c ****   * @brief  Stop the Timeout function.
1123:smtc_bsp/arm/stm32/stm32_hal/STM32L0xx_HAL_Driver/Src/stm32l0xx_hal_lptim.c ****   * @param  hlptim LPTIM handle
1124:smtc_bsp/arm/stm32/stm32_hal/STM32L0xx_HAL_Driver/Src/stm32l0xx_hal_lptim.c ****   * @retval HAL status
1125:smtc_bsp/arm/stm32/stm32_hal/STM32L0xx_HAL_Driver/Src/stm32l0xx_hal_lptim.c ****   */
1126:smtc_bsp/arm/stm32/stm32_hal/STM32L0xx_HAL_Driver/Src/stm32l0xx_hal_lptim.c **** HAL_StatusTypeDef HAL_LPTIM_TimeOut_Stop(LPTIM_HandleTypeDef *hlptim)
1127:smtc_bsp/arm/stm32/stm32_hal/STM32L0xx_HAL_Driver/Src/stm32l0xx_hal_lptim.c **** {
1128:smtc_bsp/arm/stm32/stm32_hal/STM32L0xx_HAL_Driver/Src/stm32l0xx_hal_lptim.c ****   /* Check the parameters */
1129:smtc_bsp/arm/stm32/stm32_hal/STM32L0xx_HAL_Driver/Src/stm32l0xx_hal_lptim.c ****   assert_param(IS_LPTIM_INSTANCE(hlptim->Instance));
1130:smtc_bsp/arm/stm32/stm32_hal/STM32L0xx_HAL_Driver/Src/stm32l0xx_hal_lptim.c **** 
1131:smtc_bsp/arm/stm32/stm32_hal/STM32L0xx_HAL_Driver/Src/stm32l0xx_hal_lptim.c ****   /* Set the LPTIM state */
1132:smtc_bsp/arm/stm32/stm32_hal/STM32L0xx_HAL_Driver/Src/stm32l0xx_hal_lptim.c ****   hlptim->State = HAL_LPTIM_STATE_BUSY;
1133:smtc_bsp/arm/stm32/stm32_hal/STM32L0xx_HAL_Driver/Src/stm32l0xx_hal_lptim.c **** 
ARM GAS  /var/folders/bq/yv49bw8j2kd6w3hsq868qv180000gn/T//ccQg3V4x.s 			page 44


1134:smtc_bsp/arm/stm32/stm32_hal/STM32L0xx_HAL_Driver/Src/stm32l0xx_hal_lptim.c ****   /* Disable the Peripheral */
1135:smtc_bsp/arm/stm32/stm32_hal/STM32L0xx_HAL_Driver/Src/stm32l0xx_hal_lptim.c ****   __HAL_LPTIM_DISABLE(hlptim);
1136:smtc_bsp/arm/stm32/stm32_hal/STM32L0xx_HAL_Driver/Src/stm32l0xx_hal_lptim.c **** 
1137:smtc_bsp/arm/stm32/stm32_hal/STM32L0xx_HAL_Driver/Src/stm32l0xx_hal_lptim.c ****   /* Reset TIMOUT bit to enable the timeout function */
1138:smtc_bsp/arm/stm32/stm32_hal/STM32L0xx_HAL_Driver/Src/stm32l0xx_hal_lptim.c ****   hlptim->Instance->CFGR &= ~LPTIM_CFGR_TIMOUT;
1139:smtc_bsp/arm/stm32/stm32_hal/STM32L0xx_HAL_Driver/Src/stm32l0xx_hal_lptim.c **** 
1140:smtc_bsp/arm/stm32/stm32_hal/STM32L0xx_HAL_Driver/Src/stm32l0xx_hal_lptim.c ****   /* Change the TIM state*/
1141:smtc_bsp/arm/stm32/stm32_hal/STM32L0xx_HAL_Driver/Src/stm32l0xx_hal_lptim.c ****   hlptim->State = HAL_LPTIM_STATE_READY;
1142:smtc_bsp/arm/stm32/stm32_hal/STM32L0xx_HAL_Driver/Src/stm32l0xx_hal_lptim.c **** 
1143:smtc_bsp/arm/stm32/stm32_hal/STM32L0xx_HAL_Driver/Src/stm32l0xx_hal_lptim.c ****   /* Return function status */
1144:smtc_bsp/arm/stm32/stm32_hal/STM32L0xx_HAL_Driver/Src/stm32l0xx_hal_lptim.c ****   return HAL_OK;
1145:smtc_bsp/arm/stm32/stm32_hal/STM32L0xx_HAL_Driver/Src/stm32l0xx_hal_lptim.c **** }
1146:smtc_bsp/arm/stm32/stm32_hal/STM32L0xx_HAL_Driver/Src/stm32l0xx_hal_lptim.c **** 
1147:smtc_bsp/arm/stm32/stm32_hal/STM32L0xx_HAL_Driver/Src/stm32l0xx_hal_lptim.c **** /**
1148:smtc_bsp/arm/stm32/stm32_hal/STM32L0xx_HAL_Driver/Src/stm32l0xx_hal_lptim.c ****   * @brief  Start the Timeout function in interrupt mode.
1149:smtc_bsp/arm/stm32/stm32_hal/STM32L0xx_HAL_Driver/Src/stm32l0xx_hal_lptim.c ****   * @note   The first trigger event will start the timer, any successive
1150:smtc_bsp/arm/stm32/stm32_hal/STM32L0xx_HAL_Driver/Src/stm32l0xx_hal_lptim.c ****   *         trigger event will reset the counter and the timer restarts.
1151:smtc_bsp/arm/stm32/stm32_hal/STM32L0xx_HAL_Driver/Src/stm32l0xx_hal_lptim.c ****   * @param  hlptim LPTIM handle
1152:smtc_bsp/arm/stm32/stm32_hal/STM32L0xx_HAL_Driver/Src/stm32l0xx_hal_lptim.c ****   * @param  Period Specifies the Autoreload value.
1153:smtc_bsp/arm/stm32/stm32_hal/STM32L0xx_HAL_Driver/Src/stm32l0xx_hal_lptim.c ****   *         This parameter must be a value between 0x0000 and 0xFFFF.
1154:smtc_bsp/arm/stm32/stm32_hal/STM32L0xx_HAL_Driver/Src/stm32l0xx_hal_lptim.c ****   * @param  Timeout Specifies the TimeOut value to reset the counter.
1155:smtc_bsp/arm/stm32/stm32_hal/STM32L0xx_HAL_Driver/Src/stm32l0xx_hal_lptim.c ****   *         This parameter must be a value between 0x0000 and 0xFFFF.
1156:smtc_bsp/arm/stm32/stm32_hal/STM32L0xx_HAL_Driver/Src/stm32l0xx_hal_lptim.c ****   * @retval HAL status
1157:smtc_bsp/arm/stm32/stm32_hal/STM32L0xx_HAL_Driver/Src/stm32l0xx_hal_lptim.c ****   */
1158:smtc_bsp/arm/stm32/stm32_hal/STM32L0xx_HAL_Driver/Src/stm32l0xx_hal_lptim.c **** HAL_StatusTypeDef HAL_LPTIM_TimeOut_Start_IT(LPTIM_HandleTypeDef *hlptim, uint32_t Period, uint32_t
1159:smtc_bsp/arm/stm32/stm32_hal/STM32L0xx_HAL_Driver/Src/stm32l0xx_hal_lptim.c **** {
 1126              		.loc 1 1159 1 is_stmt 1 view -0
 1127              		.cfi_startproc
 1128              		@ args = 0, pretend = 0, frame = 0
 1129              		@ frame_needed = 0, uses_anonymous_args = 0
1160:smtc_bsp/arm/stm32/stm32_hal/STM32L0xx_HAL_Driver/Src/stm32l0xx_hal_lptim.c ****   /* Check the parameters */
1161:smtc_bsp/arm/stm32/stm32_hal/STM32L0xx_HAL_Driver/Src/stm32l0xx_hal_lptim.c ****   assert_param(IS_LPTIM_INSTANCE(hlptim->Instance));
 1130              		.loc 1 1161 3 view .LVU356
1162:smtc_bsp/arm/stm32/stm32_hal/STM32L0xx_HAL_Driver/Src/stm32l0xx_hal_lptim.c ****   assert_param(IS_LPTIM_PERIOD(Period));
 1131              		.loc 1 1162 3 view .LVU357
1163:smtc_bsp/arm/stm32/stm32_hal/STM32L0xx_HAL_Driver/Src/stm32l0xx_hal_lptim.c ****   assert_param(IS_LPTIM_PULSE(Timeout));
 1132              		.loc 1 1163 3 view .LVU358
1164:smtc_bsp/arm/stm32/stm32_hal/STM32L0xx_HAL_Driver/Src/stm32l0xx_hal_lptim.c **** 
1165:smtc_bsp/arm/stm32/stm32_hal/STM32L0xx_HAL_Driver/Src/stm32l0xx_hal_lptim.c ****   /* Set the LPTIM state */
1166:smtc_bsp/arm/stm32/stm32_hal/STM32L0xx_HAL_Driver/Src/stm32l0xx_hal_lptim.c ****   hlptim->State = HAL_LPTIM_STATE_BUSY;
 1133              		.loc 1 1166 3 view .LVU359
1159:smtc_bsp/arm/stm32/stm32_hal/STM32L0xx_HAL_Driver/Src/stm32l0xx_hal_lptim.c ****   /* Check the parameters */
 1134              		.loc 1 1159 1 is_stmt 0 view .LVU360
 1135 0000 70B5     		push	{r4, r5, r6, lr}
 1136              		.cfi_def_cfa_offset 16
 1137              		.cfi_offset 4, -16
 1138              		.cfi_offset 5, -12
 1139              		.cfi_offset 6, -8
 1140              		.cfi_offset 14, -4
 1141              		.loc 1 1166 17 view .LVU361
 1142 0002 0500     		movs	r5, r0
 1143 0004 0223     		movs	r3, #2
 1144 0006 2E35     		adds	r5, r5, #46
 1145 0008 2B70     		strb	r3, [r5]
1167:smtc_bsp/arm/stm32/stm32_hal/STM32L0xx_HAL_Driver/Src/stm32l0xx_hal_lptim.c **** 
1168:smtc_bsp/arm/stm32/stm32_hal/STM32L0xx_HAL_Driver/Src/stm32l0xx_hal_lptim.c ****   /* Enable EXTI Line interrupt on the LPTIM Wake-up Timer */
1169:smtc_bsp/arm/stm32/stm32_hal/STM32L0xx_HAL_Driver/Src/stm32l0xx_hal_lptim.c ****   __HAL_LPTIM_WAKEUPTIMER_EXTI_ENABLE_IT();
ARM GAS  /var/folders/bq/yv49bw8j2kd6w3hsq868qv180000gn/T//ccQg3V4x.s 			page 45


 1146              		.loc 1 1169 3 is_stmt 1 view .LVU362
 1147 000a 8023     		movs	r3, #128
 1148 000c 0D4C     		ldr	r4, .L44
 1149 000e 9B05     		lsls	r3, r3, #22
 1150 0010 2668     		ldr	r6, [r4]
1170:smtc_bsp/arm/stm32/stm32_hal/STM32L0xx_HAL_Driver/Src/stm32l0xx_hal_lptim.c **** 
1171:smtc_bsp/arm/stm32/stm32_hal/STM32L0xx_HAL_Driver/Src/stm32l0xx_hal_lptim.c ****   /* Set TIMOUT bit to enable the timeout function */
1172:smtc_bsp/arm/stm32/stm32_hal/STM32L0xx_HAL_Driver/Src/stm32l0xx_hal_lptim.c ****   hlptim->Instance->CFGR |= LPTIM_CFGR_TIMOUT;
1173:smtc_bsp/arm/stm32/stm32_hal/STM32L0xx_HAL_Driver/Src/stm32l0xx_hal_lptim.c **** 
1174:smtc_bsp/arm/stm32/stm32_hal/STM32L0xx_HAL_Driver/Src/stm32l0xx_hal_lptim.c ****   /* Enable Compare match interrupt */
1175:smtc_bsp/arm/stm32/stm32_hal/STM32L0xx_HAL_Driver/Src/stm32l0xx_hal_lptim.c ****   __HAL_LPTIM_ENABLE_IT(hlptim, LPTIM_IT_CMPM);
1176:smtc_bsp/arm/stm32/stm32_hal/STM32L0xx_HAL_Driver/Src/stm32l0xx_hal_lptim.c **** 
1177:smtc_bsp/arm/stm32/stm32_hal/STM32L0xx_HAL_Driver/Src/stm32l0xx_hal_lptim.c ****   /* Enable the Peripheral */
1178:smtc_bsp/arm/stm32/stm32_hal/STM32L0xx_HAL_Driver/Src/stm32l0xx_hal_lptim.c ****   __HAL_LPTIM_ENABLE(hlptim);
1179:smtc_bsp/arm/stm32/stm32_hal/STM32L0xx_HAL_Driver/Src/stm32l0xx_hal_lptim.c **** 
1180:smtc_bsp/arm/stm32/stm32_hal/STM32L0xx_HAL_Driver/Src/stm32l0xx_hal_lptim.c ****   /* Load the period value in the autoreload register */
1181:smtc_bsp/arm/stm32/stm32_hal/STM32L0xx_HAL_Driver/Src/stm32l0xx_hal_lptim.c ****   __HAL_LPTIM_AUTORELOAD_SET(hlptim, Period);
1182:smtc_bsp/arm/stm32/stm32_hal/STM32L0xx_HAL_Driver/Src/stm32l0xx_hal_lptim.c **** 
1183:smtc_bsp/arm/stm32/stm32_hal/STM32L0xx_HAL_Driver/Src/stm32l0xx_hal_lptim.c ****   /* Load the Timeout value in the compare register */
1184:smtc_bsp/arm/stm32/stm32_hal/STM32L0xx_HAL_Driver/Src/stm32l0xx_hal_lptim.c ****   __HAL_LPTIM_COMPARE_SET(hlptim, Timeout);
1185:smtc_bsp/arm/stm32/stm32_hal/STM32L0xx_HAL_Driver/Src/stm32l0xx_hal_lptim.c **** 
1186:smtc_bsp/arm/stm32/stm32_hal/STM32L0xx_HAL_Driver/Src/stm32l0xx_hal_lptim.c ****   /* Start timer in continuous mode */
1187:smtc_bsp/arm/stm32/stm32_hal/STM32L0xx_HAL_Driver/Src/stm32l0xx_hal_lptim.c ****   __HAL_LPTIM_START_CONTINUOUS(hlptim);
1188:smtc_bsp/arm/stm32/stm32_hal/STM32L0xx_HAL_Driver/Src/stm32l0xx_hal_lptim.c **** 
1189:smtc_bsp/arm/stm32/stm32_hal/STM32L0xx_HAL_Driver/Src/stm32l0xx_hal_lptim.c ****   /* Change the TIM state*/
1190:smtc_bsp/arm/stm32/stm32_hal/STM32L0xx_HAL_Driver/Src/stm32l0xx_hal_lptim.c ****   hlptim->State = HAL_LPTIM_STATE_READY;
1191:smtc_bsp/arm/stm32/stm32_hal/STM32L0xx_HAL_Driver/Src/stm32l0xx_hal_lptim.c **** 
1192:smtc_bsp/arm/stm32/stm32_hal/STM32L0xx_HAL_Driver/Src/stm32l0xx_hal_lptim.c ****   /* Return function status */
1193:smtc_bsp/arm/stm32/stm32_hal/STM32L0xx_HAL_Driver/Src/stm32l0xx_hal_lptim.c ****   return HAL_OK;
1194:smtc_bsp/arm/stm32/stm32_hal/STM32L0xx_HAL_Driver/Src/stm32l0xx_hal_lptim.c **** }
 1151              		.loc 1 1194 1 is_stmt 0 view .LVU363
 1152              		@ sp needed
1169:smtc_bsp/arm/stm32/stm32_hal/STM32L0xx_HAL_Driver/Src/stm32l0xx_hal_lptim.c **** 
 1153              		.loc 1 1169 3 view .LVU364
 1154 0012 3343     		orrs	r3, r6
 1155 0014 2360     		str	r3, [r4]
1172:smtc_bsp/arm/stm32/stm32_hal/STM32L0xx_HAL_Driver/Src/stm32l0xx_hal_lptim.c **** 
 1156              		.loc 1 1172 3 is_stmt 1 view .LVU365
1172:smtc_bsp/arm/stm32/stm32_hal/STM32L0xx_HAL_Driver/Src/stm32l0xx_hal_lptim.c **** 
 1157              		.loc 1 1172 9 is_stmt 0 view .LVU366
 1158 0016 0368     		ldr	r3, [r0]
1172:smtc_bsp/arm/stm32/stm32_hal/STM32L0xx_HAL_Driver/Src/stm32l0xx_hal_lptim.c **** 
 1159              		.loc 1 1172 26 view .LVU367
 1160 0018 8020     		movs	r0, #128
 1161              	.LVL77:
1172:smtc_bsp/arm/stm32/stm32_hal/STM32L0xx_HAL_Driver/Src/stm32l0xx_hal_lptim.c **** 
 1162              		.loc 1 1172 26 view .LVU368
 1163 001a DC68     		ldr	r4, [r3, #12]
 1164 001c 0003     		lsls	r0, r0, #12
 1165 001e 2043     		orrs	r0, r4
 1166 0020 D860     		str	r0, [r3, #12]
1175:smtc_bsp/arm/stm32/stm32_hal/STM32L0xx_HAL_Driver/Src/stm32l0xx_hal_lptim.c **** 
 1167              		.loc 1 1175 3 is_stmt 1 view .LVU369
 1168 0022 0120     		movs	r0, #1
 1169 0024 9C68     		ldr	r4, [r3, #8]
 1170 0026 0443     		orrs	r4, r0
 1171 0028 9C60     		str	r4, [r3, #8]
ARM GAS  /var/folders/bq/yv49bw8j2kd6w3hsq868qv180000gn/T//ccQg3V4x.s 			page 46


1178:smtc_bsp/arm/stm32/stm32_hal/STM32L0xx_HAL_Driver/Src/stm32l0xx_hal_lptim.c **** 
 1172              		.loc 1 1178 3 view .LVU370
 1173 002a 1C69     		ldr	r4, [r3, #16]
 1174 002c 0443     		orrs	r4, r0
 1175 002e 1C61     		str	r4, [r3, #16]
1181:smtc_bsp/arm/stm32/stm32_hal/STM32L0xx_HAL_Driver/Src/stm32l0xx_hal_lptim.c **** 
 1176              		.loc 1 1181 3 view .LVU371
 1177 0030 9961     		str	r1, [r3, #24]
1184:smtc_bsp/arm/stm32/stm32_hal/STM32L0xx_HAL_Driver/Src/stm32l0xx_hal_lptim.c **** 
 1178              		.loc 1 1184 3 view .LVU372
 1179 0032 5A61     		str	r2, [r3, #20]
1187:smtc_bsp/arm/stm32/stm32_hal/STM32L0xx_HAL_Driver/Src/stm32l0xx_hal_lptim.c **** 
 1180              		.loc 1 1187 3 view .LVU373
 1181 0034 0422     		movs	r2, #4
 1182              	.LVL78:
1187:smtc_bsp/arm/stm32/stm32_hal/STM32L0xx_HAL_Driver/Src/stm32l0xx_hal_lptim.c **** 
 1183              		.loc 1 1187 3 is_stmt 0 view .LVU374
 1184 0036 1969     		ldr	r1, [r3, #16]
 1185              	.LVL79:
1187:smtc_bsp/arm/stm32/stm32_hal/STM32L0xx_HAL_Driver/Src/stm32l0xx_hal_lptim.c **** 
 1186              		.loc 1 1187 3 view .LVU375
 1187 0038 0A43     		orrs	r2, r1
 1188 003a 1A61     		str	r2, [r3, #16]
 1189              	.LVL80:
1190:smtc_bsp/arm/stm32/stm32_hal/STM32L0xx_HAL_Driver/Src/stm32l0xx_hal_lptim.c **** 
 1190              		.loc 1 1190 3 is_stmt 1 view .LVU376
1190:smtc_bsp/arm/stm32/stm32_hal/STM32L0xx_HAL_Driver/Src/stm32l0xx_hal_lptim.c **** 
 1191              		.loc 1 1190 17 is_stmt 0 view .LVU377
 1192 003c 2870     		strb	r0, [r5]
1193:smtc_bsp/arm/stm32/stm32_hal/STM32L0xx_HAL_Driver/Src/stm32l0xx_hal_lptim.c **** }
 1193              		.loc 1 1193 3 is_stmt 1 view .LVU378
 1194              		.loc 1 1194 1 is_stmt 0 view .LVU379
 1195 003e 0020     		movs	r0, #0
 1196              	.LVL81:
 1197              		.loc 1 1194 1 view .LVU380
 1198 0040 70BD     		pop	{r4, r5, r6, pc}
 1199              	.L45:
 1200 0042 C046     		.align	2
 1201              	.L44:
 1202 0044 00040140 		.word	1073808384
 1203              		.cfi_endproc
 1204              	.LFE69:
 1206              		.section	.text.HAL_LPTIM_Counter_Start,"ax",%progbits
 1207              		.align	1
 1208              		.global	HAL_LPTIM_Counter_Start
 1209              		.syntax unified
 1210              		.code	16
 1211              		.thumb_func
 1212              		.fpu softvfp
 1214              	HAL_LPTIM_Counter_Start:
 1215              	.LVL82:
 1216              	.LFB71:
1195:smtc_bsp/arm/stm32/stm32_hal/STM32L0xx_HAL_Driver/Src/stm32l0xx_hal_lptim.c **** 
1196:smtc_bsp/arm/stm32/stm32_hal/STM32L0xx_HAL_Driver/Src/stm32l0xx_hal_lptim.c **** /**
1197:smtc_bsp/arm/stm32/stm32_hal/STM32L0xx_HAL_Driver/Src/stm32l0xx_hal_lptim.c ****   * @brief  Stop the Timeout function in interrupt mode.
1198:smtc_bsp/arm/stm32/stm32_hal/STM32L0xx_HAL_Driver/Src/stm32l0xx_hal_lptim.c ****   * @param  hlptim LPTIM handle
1199:smtc_bsp/arm/stm32/stm32_hal/STM32L0xx_HAL_Driver/Src/stm32l0xx_hal_lptim.c ****   * @retval HAL status
ARM GAS  /var/folders/bq/yv49bw8j2kd6w3hsq868qv180000gn/T//ccQg3V4x.s 			page 47


1200:smtc_bsp/arm/stm32/stm32_hal/STM32L0xx_HAL_Driver/Src/stm32l0xx_hal_lptim.c ****   */
1201:smtc_bsp/arm/stm32/stm32_hal/STM32L0xx_HAL_Driver/Src/stm32l0xx_hal_lptim.c **** HAL_StatusTypeDef HAL_LPTIM_TimeOut_Stop_IT(LPTIM_HandleTypeDef *hlptim)
1202:smtc_bsp/arm/stm32/stm32_hal/STM32L0xx_HAL_Driver/Src/stm32l0xx_hal_lptim.c **** {
1203:smtc_bsp/arm/stm32/stm32_hal/STM32L0xx_HAL_Driver/Src/stm32l0xx_hal_lptim.c ****   /* Check the parameters */
1204:smtc_bsp/arm/stm32/stm32_hal/STM32L0xx_HAL_Driver/Src/stm32l0xx_hal_lptim.c ****   assert_param(IS_LPTIM_INSTANCE(hlptim->Instance));
1205:smtc_bsp/arm/stm32/stm32_hal/STM32L0xx_HAL_Driver/Src/stm32l0xx_hal_lptim.c **** 
1206:smtc_bsp/arm/stm32/stm32_hal/STM32L0xx_HAL_Driver/Src/stm32l0xx_hal_lptim.c ****   /* Set the LPTIM state */
1207:smtc_bsp/arm/stm32/stm32_hal/STM32L0xx_HAL_Driver/Src/stm32l0xx_hal_lptim.c ****   hlptim->State = HAL_LPTIM_STATE_BUSY;
1208:smtc_bsp/arm/stm32/stm32_hal/STM32L0xx_HAL_Driver/Src/stm32l0xx_hal_lptim.c **** 
1209:smtc_bsp/arm/stm32/stm32_hal/STM32L0xx_HAL_Driver/Src/stm32l0xx_hal_lptim.c ****   /* Disable EXTI Line interrupt on the LPTIM Wake-up Timer */
1210:smtc_bsp/arm/stm32/stm32_hal/STM32L0xx_HAL_Driver/Src/stm32l0xx_hal_lptim.c ****   __HAL_LPTIM_WAKEUPTIMER_EXTI_DISABLE_IT();
1211:smtc_bsp/arm/stm32/stm32_hal/STM32L0xx_HAL_Driver/Src/stm32l0xx_hal_lptim.c **** 
1212:smtc_bsp/arm/stm32/stm32_hal/STM32L0xx_HAL_Driver/Src/stm32l0xx_hal_lptim.c ****   /* Disable the Peripheral */
1213:smtc_bsp/arm/stm32/stm32_hal/STM32L0xx_HAL_Driver/Src/stm32l0xx_hal_lptim.c ****   __HAL_LPTIM_DISABLE(hlptim);
1214:smtc_bsp/arm/stm32/stm32_hal/STM32L0xx_HAL_Driver/Src/stm32l0xx_hal_lptim.c **** 
1215:smtc_bsp/arm/stm32/stm32_hal/STM32L0xx_HAL_Driver/Src/stm32l0xx_hal_lptim.c ****   /* Reset TIMOUT bit to enable the timeout function */
1216:smtc_bsp/arm/stm32/stm32_hal/STM32L0xx_HAL_Driver/Src/stm32l0xx_hal_lptim.c ****   hlptim->Instance->CFGR &= ~LPTIM_CFGR_TIMOUT;
1217:smtc_bsp/arm/stm32/stm32_hal/STM32L0xx_HAL_Driver/Src/stm32l0xx_hal_lptim.c **** 
1218:smtc_bsp/arm/stm32/stm32_hal/STM32L0xx_HAL_Driver/Src/stm32l0xx_hal_lptim.c ****   /* Disable Compare match interrupt */
1219:smtc_bsp/arm/stm32/stm32_hal/STM32L0xx_HAL_Driver/Src/stm32l0xx_hal_lptim.c ****   __HAL_LPTIM_DISABLE_IT(hlptim, LPTIM_IT_CMPM);
1220:smtc_bsp/arm/stm32/stm32_hal/STM32L0xx_HAL_Driver/Src/stm32l0xx_hal_lptim.c **** 
1221:smtc_bsp/arm/stm32/stm32_hal/STM32L0xx_HAL_Driver/Src/stm32l0xx_hal_lptim.c ****   /* Change the TIM state*/
1222:smtc_bsp/arm/stm32/stm32_hal/STM32L0xx_HAL_Driver/Src/stm32l0xx_hal_lptim.c ****   hlptim->State = HAL_LPTIM_STATE_READY;
1223:smtc_bsp/arm/stm32/stm32_hal/STM32L0xx_HAL_Driver/Src/stm32l0xx_hal_lptim.c **** 
1224:smtc_bsp/arm/stm32/stm32_hal/STM32L0xx_HAL_Driver/Src/stm32l0xx_hal_lptim.c ****   /* Return function status */
1225:smtc_bsp/arm/stm32/stm32_hal/STM32L0xx_HAL_Driver/Src/stm32l0xx_hal_lptim.c ****   return HAL_OK;
1226:smtc_bsp/arm/stm32/stm32_hal/STM32L0xx_HAL_Driver/Src/stm32l0xx_hal_lptim.c **** }
1227:smtc_bsp/arm/stm32/stm32_hal/STM32L0xx_HAL_Driver/Src/stm32l0xx_hal_lptim.c **** 
1228:smtc_bsp/arm/stm32/stm32_hal/STM32L0xx_HAL_Driver/Src/stm32l0xx_hal_lptim.c **** /**
1229:smtc_bsp/arm/stm32/stm32_hal/STM32L0xx_HAL_Driver/Src/stm32l0xx_hal_lptim.c ****   * @brief  Start the Counter mode.
1230:smtc_bsp/arm/stm32/stm32_hal/STM32L0xx_HAL_Driver/Src/stm32l0xx_hal_lptim.c ****   * @param  hlptim LPTIM handle
1231:smtc_bsp/arm/stm32/stm32_hal/STM32L0xx_HAL_Driver/Src/stm32l0xx_hal_lptim.c ****   * @param  Period Specifies the Autoreload value.
1232:smtc_bsp/arm/stm32/stm32_hal/STM32L0xx_HAL_Driver/Src/stm32l0xx_hal_lptim.c ****   *         This parameter must be a value between 0x0000 and 0xFFFF.
1233:smtc_bsp/arm/stm32/stm32_hal/STM32L0xx_HAL_Driver/Src/stm32l0xx_hal_lptim.c ****   * @retval HAL status
1234:smtc_bsp/arm/stm32/stm32_hal/STM32L0xx_HAL_Driver/Src/stm32l0xx_hal_lptim.c ****   */
1235:smtc_bsp/arm/stm32/stm32_hal/STM32L0xx_HAL_Driver/Src/stm32l0xx_hal_lptim.c **** HAL_StatusTypeDef HAL_LPTIM_Counter_Start(LPTIM_HandleTypeDef *hlptim, uint32_t Period)
1236:smtc_bsp/arm/stm32/stm32_hal/STM32L0xx_HAL_Driver/Src/stm32l0xx_hal_lptim.c **** {
 1217              		.loc 1 1236 1 is_stmt 1 view -0
 1218              		.cfi_startproc
 1219              		@ args = 0, pretend = 0, frame = 0
 1220              		@ frame_needed = 0, uses_anonymous_args = 0
1237:smtc_bsp/arm/stm32/stm32_hal/STM32L0xx_HAL_Driver/Src/stm32l0xx_hal_lptim.c ****   /* Check the parameters */
1238:smtc_bsp/arm/stm32/stm32_hal/STM32L0xx_HAL_Driver/Src/stm32l0xx_hal_lptim.c ****   assert_param(IS_LPTIM_INSTANCE(hlptim->Instance));
 1221              		.loc 1 1238 3 view .LVU382
1239:smtc_bsp/arm/stm32/stm32_hal/STM32L0xx_HAL_Driver/Src/stm32l0xx_hal_lptim.c ****   assert_param(IS_LPTIM_PERIOD(Period));
 1222              		.loc 1 1239 3 view .LVU383
1240:smtc_bsp/arm/stm32/stm32_hal/STM32L0xx_HAL_Driver/Src/stm32l0xx_hal_lptim.c **** 
1241:smtc_bsp/arm/stm32/stm32_hal/STM32L0xx_HAL_Driver/Src/stm32l0xx_hal_lptim.c ****   /* Set the LPTIM state */
1242:smtc_bsp/arm/stm32/stm32_hal/STM32L0xx_HAL_Driver/Src/stm32l0xx_hal_lptim.c ****   hlptim->State = HAL_LPTIM_STATE_BUSY;
 1223              		.loc 1 1242 3 view .LVU384
1236:smtc_bsp/arm/stm32/stm32_hal/STM32L0xx_HAL_Driver/Src/stm32l0xx_hal_lptim.c ****   /* Check the parameters */
 1224              		.loc 1 1236 1 is_stmt 0 view .LVU385
 1225 0000 10B5     		push	{r4, lr}
 1226              		.cfi_def_cfa_offset 8
 1227              		.cfi_offset 4, -8
 1228              		.cfi_offset 14, -4
 1229              		.loc 1 1242 17 view .LVU386
ARM GAS  /var/folders/bq/yv49bw8j2kd6w3hsq868qv180000gn/T//ccQg3V4x.s 			page 48


 1230 0002 0400     		movs	r4, r0
 1231 0004 0223     		movs	r3, #2
 1232 0006 2E34     		adds	r4, r4, #46
 1233 0008 2370     		strb	r3, [r4]
1243:smtc_bsp/arm/stm32/stm32_hal/STM32L0xx_HAL_Driver/Src/stm32l0xx_hal_lptim.c **** 
1244:smtc_bsp/arm/stm32/stm32_hal/STM32L0xx_HAL_Driver/Src/stm32l0xx_hal_lptim.c ****   /* If clock source is not ULPTIM clock and counter source is external, then it must not be presca
1245:smtc_bsp/arm/stm32/stm32_hal/STM32L0xx_HAL_Driver/Src/stm32l0xx_hal_lptim.c ****   if ((hlptim->Init.Clock.Source != LPTIM_CLOCKSOURCE_ULPTIM) && (hlptim->Init.CounterSource == LPT
 1234              		.loc 1 1245 3 is_stmt 1 view .LVU387
 1235              		.loc 1 1245 6 is_stmt 0 view .LVU388
 1236 000a 4268     		ldr	r2, [r0, #4]
 1237 000c 0368     		ldr	r3, [r0]
 1238 000e 012A     		cmp	r2, #1
 1239 0010 08D0     		beq	.L47
 1240              		.loc 1 1245 63 discriminator 1 view .LVU389
 1241 0012 8022     		movs	r2, #128
 1242 0014 806A     		ldr	r0, [r0, #40]
 1243              	.LVL83:
 1244              		.loc 1 1245 63 discriminator 1 view .LVU390
 1245 0016 1204     		lsls	r2, r2, #16
 1246 0018 9042     		cmp	r0, r2
 1247 001a 03D1     		bne	.L47
1246:smtc_bsp/arm/stm32/stm32_hal/STM32L0xx_HAL_Driver/Src/stm32l0xx_hal_lptim.c ****   {
1247:smtc_bsp/arm/stm32/stm32_hal/STM32L0xx_HAL_Driver/Src/stm32l0xx_hal_lptim.c ****     /* Check if clock is prescaled */
1248:smtc_bsp/arm/stm32/stm32_hal/STM32L0xx_HAL_Driver/Src/stm32l0xx_hal_lptim.c ****     assert_param(IS_LPTIM_CLOCK_PRESCALERDIV1(hlptim->Init.Clock.Prescaler));
 1248              		.loc 1 1248 5 is_stmt 1 view .LVU391
1249:smtc_bsp/arm/stm32/stm32_hal/STM32L0xx_HAL_Driver/Src/stm32l0xx_hal_lptim.c ****     /* Set clock prescaler to 0 */
1250:smtc_bsp/arm/stm32/stm32_hal/STM32L0xx_HAL_Driver/Src/stm32l0xx_hal_lptim.c ****     hlptim->Instance->CFGR &= ~LPTIM_CFGR_PRESC;
 1249              		.loc 1 1250 5 view .LVU392
 1250              		.loc 1 1250 28 is_stmt 0 view .LVU393
 1251 001c DA68     		ldr	r2, [r3, #12]
 1252 001e 0748     		ldr	r0, .L51
 1253 0020 0240     		ands	r2, r0
 1254 0022 DA60     		str	r2, [r3, #12]
 1255              	.L47:
1251:smtc_bsp/arm/stm32/stm32_hal/STM32L0xx_HAL_Driver/Src/stm32l0xx_hal_lptim.c ****   }
1252:smtc_bsp/arm/stm32/stm32_hal/STM32L0xx_HAL_Driver/Src/stm32l0xx_hal_lptim.c **** 
1253:smtc_bsp/arm/stm32/stm32_hal/STM32L0xx_HAL_Driver/Src/stm32l0xx_hal_lptim.c ****   /* Enable the Peripheral */
1254:smtc_bsp/arm/stm32/stm32_hal/STM32L0xx_HAL_Driver/Src/stm32l0xx_hal_lptim.c ****   __HAL_LPTIM_ENABLE(hlptim);
 1256              		.loc 1 1254 3 is_stmt 1 view .LVU394
 1257 0024 0120     		movs	r0, #1
 1258 0026 1A69     		ldr	r2, [r3, #16]
1255:smtc_bsp/arm/stm32/stm32_hal/STM32L0xx_HAL_Driver/Src/stm32l0xx_hal_lptim.c **** 
1256:smtc_bsp/arm/stm32/stm32_hal/STM32L0xx_HAL_Driver/Src/stm32l0xx_hal_lptim.c ****   /* Load the period value in the autoreload register */
1257:smtc_bsp/arm/stm32/stm32_hal/STM32L0xx_HAL_Driver/Src/stm32l0xx_hal_lptim.c ****   __HAL_LPTIM_AUTORELOAD_SET(hlptim, Period);
1258:smtc_bsp/arm/stm32/stm32_hal/STM32L0xx_HAL_Driver/Src/stm32l0xx_hal_lptim.c **** 
1259:smtc_bsp/arm/stm32/stm32_hal/STM32L0xx_HAL_Driver/Src/stm32l0xx_hal_lptim.c ****   /* Start timer in continuous mode */
1260:smtc_bsp/arm/stm32/stm32_hal/STM32L0xx_HAL_Driver/Src/stm32l0xx_hal_lptim.c ****   __HAL_LPTIM_START_CONTINUOUS(hlptim);
1261:smtc_bsp/arm/stm32/stm32_hal/STM32L0xx_HAL_Driver/Src/stm32l0xx_hal_lptim.c **** 
1262:smtc_bsp/arm/stm32/stm32_hal/STM32L0xx_HAL_Driver/Src/stm32l0xx_hal_lptim.c ****   /* Change the TIM state*/
1263:smtc_bsp/arm/stm32/stm32_hal/STM32L0xx_HAL_Driver/Src/stm32l0xx_hal_lptim.c ****   hlptim->State = HAL_LPTIM_STATE_READY;
1264:smtc_bsp/arm/stm32/stm32_hal/STM32L0xx_HAL_Driver/Src/stm32l0xx_hal_lptim.c **** 
1265:smtc_bsp/arm/stm32/stm32_hal/STM32L0xx_HAL_Driver/Src/stm32l0xx_hal_lptim.c ****   /* Return function status */
1266:smtc_bsp/arm/stm32/stm32_hal/STM32L0xx_HAL_Driver/Src/stm32l0xx_hal_lptim.c ****   return HAL_OK;
1267:smtc_bsp/arm/stm32/stm32_hal/STM32L0xx_HAL_Driver/Src/stm32l0xx_hal_lptim.c **** }
 1259              		.loc 1 1267 1 is_stmt 0 view .LVU395
 1260              		@ sp needed
1254:smtc_bsp/arm/stm32/stm32_hal/STM32L0xx_HAL_Driver/Src/stm32l0xx_hal_lptim.c **** 
ARM GAS  /var/folders/bq/yv49bw8j2kd6w3hsq868qv180000gn/T//ccQg3V4x.s 			page 49


 1261              		.loc 1 1254 3 view .LVU396
 1262 0028 0243     		orrs	r2, r0
 1263 002a 1A61     		str	r2, [r3, #16]
1257:smtc_bsp/arm/stm32/stm32_hal/STM32L0xx_HAL_Driver/Src/stm32l0xx_hal_lptim.c **** 
 1264              		.loc 1 1257 3 is_stmt 1 view .LVU397
1260:smtc_bsp/arm/stm32/stm32_hal/STM32L0xx_HAL_Driver/Src/stm32l0xx_hal_lptim.c **** 
 1265              		.loc 1 1260 3 is_stmt 0 view .LVU398
 1266 002c 0422     		movs	r2, #4
1257:smtc_bsp/arm/stm32/stm32_hal/STM32L0xx_HAL_Driver/Src/stm32l0xx_hal_lptim.c **** 
 1267              		.loc 1 1257 3 view .LVU399
 1268 002e 9961     		str	r1, [r3, #24]
1260:smtc_bsp/arm/stm32/stm32_hal/STM32L0xx_HAL_Driver/Src/stm32l0xx_hal_lptim.c **** 
 1269              		.loc 1 1260 3 is_stmt 1 view .LVU400
 1270 0030 1969     		ldr	r1, [r3, #16]
 1271              	.LVL84:
1260:smtc_bsp/arm/stm32/stm32_hal/STM32L0xx_HAL_Driver/Src/stm32l0xx_hal_lptim.c **** 
 1272              		.loc 1 1260 3 is_stmt 0 view .LVU401
 1273 0032 0A43     		orrs	r2, r1
 1274 0034 1A61     		str	r2, [r3, #16]
 1275              	.LVL85:
1263:smtc_bsp/arm/stm32/stm32_hal/STM32L0xx_HAL_Driver/Src/stm32l0xx_hal_lptim.c **** 
 1276              		.loc 1 1263 3 is_stmt 1 view .LVU402
1263:smtc_bsp/arm/stm32/stm32_hal/STM32L0xx_HAL_Driver/Src/stm32l0xx_hal_lptim.c **** 
 1277              		.loc 1 1263 17 is_stmt 0 view .LVU403
 1278 0036 2070     		strb	r0, [r4]
1266:smtc_bsp/arm/stm32/stm32_hal/STM32L0xx_HAL_Driver/Src/stm32l0xx_hal_lptim.c **** }
 1279              		.loc 1 1266 3 is_stmt 1 view .LVU404
 1280              		.loc 1 1267 1 is_stmt 0 view .LVU405
 1281 0038 0020     		movs	r0, #0
 1282              	.LVL86:
 1283              		.loc 1 1267 1 view .LVU406
 1284 003a 10BD     		pop	{r4, pc}
 1285              	.L52:
 1286              		.align	2
 1287              	.L51:
 1288 003c FFF1FFFF 		.word	-3585
 1289              		.cfi_endproc
 1290              	.LFE71:
 1292              		.section	.text.HAL_LPTIM_Counter_Start_IT,"ax",%progbits
 1293              		.align	1
 1294              		.global	HAL_LPTIM_Counter_Start_IT
 1295              		.syntax unified
 1296              		.code	16
 1297              		.thumb_func
 1298              		.fpu softvfp
 1300              	HAL_LPTIM_Counter_Start_IT:
 1301              	.LVL87:
 1302              	.LFB73:
1268:smtc_bsp/arm/stm32/stm32_hal/STM32L0xx_HAL_Driver/Src/stm32l0xx_hal_lptim.c **** 
1269:smtc_bsp/arm/stm32/stm32_hal/STM32L0xx_HAL_Driver/Src/stm32l0xx_hal_lptim.c **** /**
1270:smtc_bsp/arm/stm32/stm32_hal/STM32L0xx_HAL_Driver/Src/stm32l0xx_hal_lptim.c ****   * @brief  Stop the Counter mode.
1271:smtc_bsp/arm/stm32/stm32_hal/STM32L0xx_HAL_Driver/Src/stm32l0xx_hal_lptim.c ****   * @param  hlptim LPTIM handle
1272:smtc_bsp/arm/stm32/stm32_hal/STM32L0xx_HAL_Driver/Src/stm32l0xx_hal_lptim.c ****   * @retval HAL status
1273:smtc_bsp/arm/stm32/stm32_hal/STM32L0xx_HAL_Driver/Src/stm32l0xx_hal_lptim.c ****   */
1274:smtc_bsp/arm/stm32/stm32_hal/STM32L0xx_HAL_Driver/Src/stm32l0xx_hal_lptim.c **** HAL_StatusTypeDef HAL_LPTIM_Counter_Stop(LPTIM_HandleTypeDef *hlptim)
1275:smtc_bsp/arm/stm32/stm32_hal/STM32L0xx_HAL_Driver/Src/stm32l0xx_hal_lptim.c **** {
1276:smtc_bsp/arm/stm32/stm32_hal/STM32L0xx_HAL_Driver/Src/stm32l0xx_hal_lptim.c ****   /* Check the parameters */
ARM GAS  /var/folders/bq/yv49bw8j2kd6w3hsq868qv180000gn/T//ccQg3V4x.s 			page 50


1277:smtc_bsp/arm/stm32/stm32_hal/STM32L0xx_HAL_Driver/Src/stm32l0xx_hal_lptim.c ****   assert_param(IS_LPTIM_INSTANCE(hlptim->Instance));
1278:smtc_bsp/arm/stm32/stm32_hal/STM32L0xx_HAL_Driver/Src/stm32l0xx_hal_lptim.c **** 
1279:smtc_bsp/arm/stm32/stm32_hal/STM32L0xx_HAL_Driver/Src/stm32l0xx_hal_lptim.c ****   /* Set the LPTIM state */
1280:smtc_bsp/arm/stm32/stm32_hal/STM32L0xx_HAL_Driver/Src/stm32l0xx_hal_lptim.c ****   hlptim->State = HAL_LPTIM_STATE_BUSY;
1281:smtc_bsp/arm/stm32/stm32_hal/STM32L0xx_HAL_Driver/Src/stm32l0xx_hal_lptim.c **** 
1282:smtc_bsp/arm/stm32/stm32_hal/STM32L0xx_HAL_Driver/Src/stm32l0xx_hal_lptim.c ****   /* Disable the Peripheral */
1283:smtc_bsp/arm/stm32/stm32_hal/STM32L0xx_HAL_Driver/Src/stm32l0xx_hal_lptim.c ****   __HAL_LPTIM_DISABLE(hlptim);
1284:smtc_bsp/arm/stm32/stm32_hal/STM32L0xx_HAL_Driver/Src/stm32l0xx_hal_lptim.c **** 
1285:smtc_bsp/arm/stm32/stm32_hal/STM32L0xx_HAL_Driver/Src/stm32l0xx_hal_lptim.c ****   /* Change the TIM state*/
1286:smtc_bsp/arm/stm32/stm32_hal/STM32L0xx_HAL_Driver/Src/stm32l0xx_hal_lptim.c ****   hlptim->State = HAL_LPTIM_STATE_READY;
1287:smtc_bsp/arm/stm32/stm32_hal/STM32L0xx_HAL_Driver/Src/stm32l0xx_hal_lptim.c **** 
1288:smtc_bsp/arm/stm32/stm32_hal/STM32L0xx_HAL_Driver/Src/stm32l0xx_hal_lptim.c ****   /* Return function status */
1289:smtc_bsp/arm/stm32/stm32_hal/STM32L0xx_HAL_Driver/Src/stm32l0xx_hal_lptim.c ****   return HAL_OK;
1290:smtc_bsp/arm/stm32/stm32_hal/STM32L0xx_HAL_Driver/Src/stm32l0xx_hal_lptim.c **** }
1291:smtc_bsp/arm/stm32/stm32_hal/STM32L0xx_HAL_Driver/Src/stm32l0xx_hal_lptim.c **** 
1292:smtc_bsp/arm/stm32/stm32_hal/STM32L0xx_HAL_Driver/Src/stm32l0xx_hal_lptim.c **** /**
1293:smtc_bsp/arm/stm32/stm32_hal/STM32L0xx_HAL_Driver/Src/stm32l0xx_hal_lptim.c ****   * @brief  Start the Counter mode in interrupt mode.
1294:smtc_bsp/arm/stm32/stm32_hal/STM32L0xx_HAL_Driver/Src/stm32l0xx_hal_lptim.c ****   * @param  hlptim LPTIM handle
1295:smtc_bsp/arm/stm32/stm32_hal/STM32L0xx_HAL_Driver/Src/stm32l0xx_hal_lptim.c ****   * @param  Period Specifies the Autoreload value.
1296:smtc_bsp/arm/stm32/stm32_hal/STM32L0xx_HAL_Driver/Src/stm32l0xx_hal_lptim.c ****   *         This parameter must be a value between 0x0000 and 0xFFFF.
1297:smtc_bsp/arm/stm32/stm32_hal/STM32L0xx_HAL_Driver/Src/stm32l0xx_hal_lptim.c ****   * @retval HAL status
1298:smtc_bsp/arm/stm32/stm32_hal/STM32L0xx_HAL_Driver/Src/stm32l0xx_hal_lptim.c ****   */
1299:smtc_bsp/arm/stm32/stm32_hal/STM32L0xx_HAL_Driver/Src/stm32l0xx_hal_lptim.c **** HAL_StatusTypeDef HAL_LPTIM_Counter_Start_IT(LPTIM_HandleTypeDef *hlptim, uint32_t Period)
1300:smtc_bsp/arm/stm32/stm32_hal/STM32L0xx_HAL_Driver/Src/stm32l0xx_hal_lptim.c **** {
 1303              		.loc 1 1300 1 is_stmt 1 view -0
 1304              		.cfi_startproc
 1305              		@ args = 0, pretend = 0, frame = 0
 1306              		@ frame_needed = 0, uses_anonymous_args = 0
1301:smtc_bsp/arm/stm32/stm32_hal/STM32L0xx_HAL_Driver/Src/stm32l0xx_hal_lptim.c ****   /* Check the parameters */
1302:smtc_bsp/arm/stm32/stm32_hal/STM32L0xx_HAL_Driver/Src/stm32l0xx_hal_lptim.c ****   assert_param(IS_LPTIM_INSTANCE(hlptim->Instance));
 1307              		.loc 1 1302 3 view .LVU408
1303:smtc_bsp/arm/stm32/stm32_hal/STM32L0xx_HAL_Driver/Src/stm32l0xx_hal_lptim.c ****   assert_param(IS_LPTIM_PERIOD(Period));
 1308              		.loc 1 1303 3 view .LVU409
1304:smtc_bsp/arm/stm32/stm32_hal/STM32L0xx_HAL_Driver/Src/stm32l0xx_hal_lptim.c **** 
1305:smtc_bsp/arm/stm32/stm32_hal/STM32L0xx_HAL_Driver/Src/stm32l0xx_hal_lptim.c ****   /* Set the LPTIM state */
1306:smtc_bsp/arm/stm32/stm32_hal/STM32L0xx_HAL_Driver/Src/stm32l0xx_hal_lptim.c ****   hlptim->State = HAL_LPTIM_STATE_BUSY;
 1309              		.loc 1 1306 3 view .LVU410
1300:smtc_bsp/arm/stm32/stm32_hal/STM32L0xx_HAL_Driver/Src/stm32l0xx_hal_lptim.c ****   /* Check the parameters */
 1310              		.loc 1 1300 1 is_stmt 0 view .LVU411
 1311 0000 30B5     		push	{r4, r5, lr}
 1312              		.cfi_def_cfa_offset 12
 1313              		.cfi_offset 4, -12
 1314              		.cfi_offset 5, -8
 1315              		.cfi_offset 14, -4
 1316              		.loc 1 1306 17 view .LVU412
 1317 0002 0400     		movs	r4, r0
 1318 0004 0223     		movs	r3, #2
 1319 0006 2E34     		adds	r4, r4, #46
 1320 0008 2370     		strb	r3, [r4]
1307:smtc_bsp/arm/stm32/stm32_hal/STM32L0xx_HAL_Driver/Src/stm32l0xx_hal_lptim.c **** 
1308:smtc_bsp/arm/stm32/stm32_hal/STM32L0xx_HAL_Driver/Src/stm32l0xx_hal_lptim.c ****   /* Enable EXTI Line interrupt on the LPTIM Wake-up Timer */
1309:smtc_bsp/arm/stm32/stm32_hal/STM32L0xx_HAL_Driver/Src/stm32l0xx_hal_lptim.c ****   __HAL_LPTIM_WAKEUPTIMER_EXTI_ENABLE_IT();
 1321              		.loc 1 1309 3 is_stmt 1 view .LVU413
 1322 000a 8023     		movs	r3, #128
 1323 000c 124A     		ldr	r2, .L58
 1324 000e 9B05     		lsls	r3, r3, #22
 1325 0010 1568     		ldr	r5, [r2]
ARM GAS  /var/folders/bq/yv49bw8j2kd6w3hsq868qv180000gn/T//ccQg3V4x.s 			page 51


 1326 0012 2B43     		orrs	r3, r5
 1327 0014 1360     		str	r3, [r2]
1310:smtc_bsp/arm/stm32/stm32_hal/STM32L0xx_HAL_Driver/Src/stm32l0xx_hal_lptim.c **** 
1311:smtc_bsp/arm/stm32/stm32_hal/STM32L0xx_HAL_Driver/Src/stm32l0xx_hal_lptim.c ****   /* If clock source is not ULPTIM clock and counter source is external, then it must not be presca
1312:smtc_bsp/arm/stm32/stm32_hal/STM32L0xx_HAL_Driver/Src/stm32l0xx_hal_lptim.c ****   if ((hlptim->Init.Clock.Source != LPTIM_CLOCKSOURCE_ULPTIM) && (hlptim->Init.CounterSource == LPT
 1328              		.loc 1 1312 3 view .LVU414
 1329              		.loc 1 1312 6 is_stmt 0 view .LVU415
 1330 0016 4268     		ldr	r2, [r0, #4]
 1331 0018 0368     		ldr	r3, [r0]
 1332 001a 012A     		cmp	r2, #1
 1333 001c 08D0     		beq	.L54
 1334              		.loc 1 1312 63 discriminator 1 view .LVU416
 1335 001e 8022     		movs	r2, #128
 1336 0020 806A     		ldr	r0, [r0, #40]
 1337              	.LVL88:
 1338              		.loc 1 1312 63 discriminator 1 view .LVU417
 1339 0022 1204     		lsls	r2, r2, #16
 1340 0024 9042     		cmp	r0, r2
 1341 0026 03D1     		bne	.L54
1313:smtc_bsp/arm/stm32/stm32_hal/STM32L0xx_HAL_Driver/Src/stm32l0xx_hal_lptim.c ****   {
1314:smtc_bsp/arm/stm32/stm32_hal/STM32L0xx_HAL_Driver/Src/stm32l0xx_hal_lptim.c ****     /* Check if clock is prescaled */
1315:smtc_bsp/arm/stm32/stm32_hal/STM32L0xx_HAL_Driver/Src/stm32l0xx_hal_lptim.c ****     assert_param(IS_LPTIM_CLOCK_PRESCALERDIV1(hlptim->Init.Clock.Prescaler));
 1342              		.loc 1 1315 5 is_stmt 1 view .LVU418
1316:smtc_bsp/arm/stm32/stm32_hal/STM32L0xx_HAL_Driver/Src/stm32l0xx_hal_lptim.c ****     /* Set clock prescaler to 0 */
1317:smtc_bsp/arm/stm32/stm32_hal/STM32L0xx_HAL_Driver/Src/stm32l0xx_hal_lptim.c ****     hlptim->Instance->CFGR &= ~LPTIM_CFGR_PRESC;
 1343              		.loc 1 1317 5 view .LVU419
 1344              		.loc 1 1317 28 is_stmt 0 view .LVU420
 1345 0028 DA68     		ldr	r2, [r3, #12]
 1346 002a 0C48     		ldr	r0, .L58+4
 1347 002c 0240     		ands	r2, r0
 1348 002e DA60     		str	r2, [r3, #12]
 1349              	.L54:
1318:smtc_bsp/arm/stm32/stm32_hal/STM32L0xx_HAL_Driver/Src/stm32l0xx_hal_lptim.c ****   }
1319:smtc_bsp/arm/stm32/stm32_hal/STM32L0xx_HAL_Driver/Src/stm32l0xx_hal_lptim.c **** 
1320:smtc_bsp/arm/stm32/stm32_hal/STM32L0xx_HAL_Driver/Src/stm32l0xx_hal_lptim.c ****   /* Enable Autoreload write complete interrupt */
1321:smtc_bsp/arm/stm32/stm32_hal/STM32L0xx_HAL_Driver/Src/stm32l0xx_hal_lptim.c ****   __HAL_LPTIM_ENABLE_IT(hlptim, LPTIM_IT_ARROK);
 1350              		.loc 1 1321 3 is_stmt 1 view .LVU421
 1351 0030 1022     		movs	r2, #16
 1352 0032 9868     		ldr	r0, [r3, #8]
1322:smtc_bsp/arm/stm32/stm32_hal/STM32L0xx_HAL_Driver/Src/stm32l0xx_hal_lptim.c **** 
1323:smtc_bsp/arm/stm32/stm32_hal/STM32L0xx_HAL_Driver/Src/stm32l0xx_hal_lptim.c ****   /* Enable Autoreload match interrupt */
1324:smtc_bsp/arm/stm32/stm32_hal/STM32L0xx_HAL_Driver/Src/stm32l0xx_hal_lptim.c ****   __HAL_LPTIM_ENABLE_IT(hlptim, LPTIM_IT_ARRM);
1325:smtc_bsp/arm/stm32/stm32_hal/STM32L0xx_HAL_Driver/Src/stm32l0xx_hal_lptim.c **** 
1326:smtc_bsp/arm/stm32/stm32_hal/STM32L0xx_HAL_Driver/Src/stm32l0xx_hal_lptim.c ****   /* Enable the Peripheral */
1327:smtc_bsp/arm/stm32/stm32_hal/STM32L0xx_HAL_Driver/Src/stm32l0xx_hal_lptim.c ****   __HAL_LPTIM_ENABLE(hlptim);
1328:smtc_bsp/arm/stm32/stm32_hal/STM32L0xx_HAL_Driver/Src/stm32l0xx_hal_lptim.c **** 
1329:smtc_bsp/arm/stm32/stm32_hal/STM32L0xx_HAL_Driver/Src/stm32l0xx_hal_lptim.c ****   /* Load the period value in the autoreload register */
1330:smtc_bsp/arm/stm32/stm32_hal/STM32L0xx_HAL_Driver/Src/stm32l0xx_hal_lptim.c ****   __HAL_LPTIM_AUTORELOAD_SET(hlptim, Period);
1331:smtc_bsp/arm/stm32/stm32_hal/STM32L0xx_HAL_Driver/Src/stm32l0xx_hal_lptim.c **** 
1332:smtc_bsp/arm/stm32/stm32_hal/STM32L0xx_HAL_Driver/Src/stm32l0xx_hal_lptim.c ****   /* Start timer in continuous mode */
1333:smtc_bsp/arm/stm32/stm32_hal/STM32L0xx_HAL_Driver/Src/stm32l0xx_hal_lptim.c ****   __HAL_LPTIM_START_CONTINUOUS(hlptim);
1334:smtc_bsp/arm/stm32/stm32_hal/STM32L0xx_HAL_Driver/Src/stm32l0xx_hal_lptim.c **** 
1335:smtc_bsp/arm/stm32/stm32_hal/STM32L0xx_HAL_Driver/Src/stm32l0xx_hal_lptim.c ****   /* Change the TIM state*/
1336:smtc_bsp/arm/stm32/stm32_hal/STM32L0xx_HAL_Driver/Src/stm32l0xx_hal_lptim.c ****   hlptim->State = HAL_LPTIM_STATE_READY;
1337:smtc_bsp/arm/stm32/stm32_hal/STM32L0xx_HAL_Driver/Src/stm32l0xx_hal_lptim.c **** 
1338:smtc_bsp/arm/stm32/stm32_hal/STM32L0xx_HAL_Driver/Src/stm32l0xx_hal_lptim.c ****   /* Return function status */
1339:smtc_bsp/arm/stm32/stm32_hal/STM32L0xx_HAL_Driver/Src/stm32l0xx_hal_lptim.c ****   return HAL_OK;
ARM GAS  /var/folders/bq/yv49bw8j2kd6w3hsq868qv180000gn/T//ccQg3V4x.s 			page 52


1340:smtc_bsp/arm/stm32/stm32_hal/STM32L0xx_HAL_Driver/Src/stm32l0xx_hal_lptim.c **** }
 1353              		.loc 1 1340 1 is_stmt 0 view .LVU422
 1354              		@ sp needed
1321:smtc_bsp/arm/stm32/stm32_hal/STM32L0xx_HAL_Driver/Src/stm32l0xx_hal_lptim.c **** 
 1355              		.loc 1 1321 3 view .LVU423
 1356 0034 0243     		orrs	r2, r0
 1357 0036 9A60     		str	r2, [r3, #8]
1324:smtc_bsp/arm/stm32/stm32_hal/STM32L0xx_HAL_Driver/Src/stm32l0xx_hal_lptim.c **** 
 1358              		.loc 1 1324 3 is_stmt 1 view .LVU424
 1359 0038 0222     		movs	r2, #2
 1360 003a 9868     		ldr	r0, [r3, #8]
 1361 003c 0243     		orrs	r2, r0
1327:smtc_bsp/arm/stm32/stm32_hal/STM32L0xx_HAL_Driver/Src/stm32l0xx_hal_lptim.c **** 
 1362              		.loc 1 1327 3 is_stmt 0 view .LVU425
 1363 003e 0120     		movs	r0, #1
1324:smtc_bsp/arm/stm32/stm32_hal/STM32L0xx_HAL_Driver/Src/stm32l0xx_hal_lptim.c **** 
 1364              		.loc 1 1324 3 view .LVU426
 1365 0040 9A60     		str	r2, [r3, #8]
1327:smtc_bsp/arm/stm32/stm32_hal/STM32L0xx_HAL_Driver/Src/stm32l0xx_hal_lptim.c **** 
 1366              		.loc 1 1327 3 is_stmt 1 view .LVU427
 1367 0042 1A69     		ldr	r2, [r3, #16]
 1368 0044 0243     		orrs	r2, r0
 1369 0046 1A61     		str	r2, [r3, #16]
1330:smtc_bsp/arm/stm32/stm32_hal/STM32L0xx_HAL_Driver/Src/stm32l0xx_hal_lptim.c **** 
 1370              		.loc 1 1330 3 view .LVU428
1333:smtc_bsp/arm/stm32/stm32_hal/STM32L0xx_HAL_Driver/Src/stm32l0xx_hal_lptim.c **** 
 1371              		.loc 1 1333 3 is_stmt 0 view .LVU429
 1372 0048 0422     		movs	r2, #4
1330:smtc_bsp/arm/stm32/stm32_hal/STM32L0xx_HAL_Driver/Src/stm32l0xx_hal_lptim.c **** 
 1373              		.loc 1 1330 3 view .LVU430
 1374 004a 9961     		str	r1, [r3, #24]
1333:smtc_bsp/arm/stm32/stm32_hal/STM32L0xx_HAL_Driver/Src/stm32l0xx_hal_lptim.c **** 
 1375              		.loc 1 1333 3 is_stmt 1 view .LVU431
 1376 004c 1969     		ldr	r1, [r3, #16]
 1377              	.LVL89:
1333:smtc_bsp/arm/stm32/stm32_hal/STM32L0xx_HAL_Driver/Src/stm32l0xx_hal_lptim.c **** 
 1378              		.loc 1 1333 3 is_stmt 0 view .LVU432
 1379 004e 0A43     		orrs	r2, r1
 1380 0050 1A61     		str	r2, [r3, #16]
 1381              	.LVL90:
1336:smtc_bsp/arm/stm32/stm32_hal/STM32L0xx_HAL_Driver/Src/stm32l0xx_hal_lptim.c **** 
 1382              		.loc 1 1336 3 is_stmt 1 view .LVU433
1336:smtc_bsp/arm/stm32/stm32_hal/STM32L0xx_HAL_Driver/Src/stm32l0xx_hal_lptim.c **** 
 1383              		.loc 1 1336 17 is_stmt 0 view .LVU434
 1384 0052 2070     		strb	r0, [r4]
1339:smtc_bsp/arm/stm32/stm32_hal/STM32L0xx_HAL_Driver/Src/stm32l0xx_hal_lptim.c **** }
 1385              		.loc 1 1339 3 is_stmt 1 view .LVU435
 1386              		.loc 1 1340 1 is_stmt 0 view .LVU436
 1387 0054 0020     		movs	r0, #0
 1388              	.LVL91:
 1389              		.loc 1 1340 1 view .LVU437
 1390 0056 30BD     		pop	{r4, r5, pc}
 1391              	.L59:
 1392              		.align	2
 1393              	.L58:
 1394 0058 00040140 		.word	1073808384
 1395 005c FFF1FFFF 		.word	-3585
ARM GAS  /var/folders/bq/yv49bw8j2kd6w3hsq868qv180000gn/T//ccQg3V4x.s 			page 53


 1396              		.cfi_endproc
 1397              	.LFE73:
 1399              		.section	.text.HAL_LPTIM_ReadCounter,"ax",%progbits
 1400              		.align	1
 1401              		.global	HAL_LPTIM_ReadCounter
 1402              		.syntax unified
 1403              		.code	16
 1404              		.thumb_func
 1405              		.fpu softvfp
 1407              	HAL_LPTIM_ReadCounter:
 1408              	.LVL92:
 1409              	.LFB75:
1341:smtc_bsp/arm/stm32/stm32_hal/STM32L0xx_HAL_Driver/Src/stm32l0xx_hal_lptim.c **** 
1342:smtc_bsp/arm/stm32/stm32_hal/STM32L0xx_HAL_Driver/Src/stm32l0xx_hal_lptim.c **** /**
1343:smtc_bsp/arm/stm32/stm32_hal/STM32L0xx_HAL_Driver/Src/stm32l0xx_hal_lptim.c ****   * @brief  Stop the Counter mode in interrupt mode.
1344:smtc_bsp/arm/stm32/stm32_hal/STM32L0xx_HAL_Driver/Src/stm32l0xx_hal_lptim.c ****   * @param  hlptim LPTIM handle
1345:smtc_bsp/arm/stm32/stm32_hal/STM32L0xx_HAL_Driver/Src/stm32l0xx_hal_lptim.c ****   * @retval HAL status
1346:smtc_bsp/arm/stm32/stm32_hal/STM32L0xx_HAL_Driver/Src/stm32l0xx_hal_lptim.c ****   */
1347:smtc_bsp/arm/stm32/stm32_hal/STM32L0xx_HAL_Driver/Src/stm32l0xx_hal_lptim.c **** HAL_StatusTypeDef HAL_LPTIM_Counter_Stop_IT(LPTIM_HandleTypeDef *hlptim)
1348:smtc_bsp/arm/stm32/stm32_hal/STM32L0xx_HAL_Driver/Src/stm32l0xx_hal_lptim.c **** {
1349:smtc_bsp/arm/stm32/stm32_hal/STM32L0xx_HAL_Driver/Src/stm32l0xx_hal_lptim.c ****   /* Check the parameters */
1350:smtc_bsp/arm/stm32/stm32_hal/STM32L0xx_HAL_Driver/Src/stm32l0xx_hal_lptim.c ****   assert_param(IS_LPTIM_INSTANCE(hlptim->Instance));
1351:smtc_bsp/arm/stm32/stm32_hal/STM32L0xx_HAL_Driver/Src/stm32l0xx_hal_lptim.c **** 
1352:smtc_bsp/arm/stm32/stm32_hal/STM32L0xx_HAL_Driver/Src/stm32l0xx_hal_lptim.c ****   /* Set the LPTIM state */
1353:smtc_bsp/arm/stm32/stm32_hal/STM32L0xx_HAL_Driver/Src/stm32l0xx_hal_lptim.c ****   hlptim->State = HAL_LPTIM_STATE_BUSY;
1354:smtc_bsp/arm/stm32/stm32_hal/STM32L0xx_HAL_Driver/Src/stm32l0xx_hal_lptim.c **** 
1355:smtc_bsp/arm/stm32/stm32_hal/STM32L0xx_HAL_Driver/Src/stm32l0xx_hal_lptim.c ****   /* Disable EXTI Line interrupt on the LPTIM Wake-up Timer */
1356:smtc_bsp/arm/stm32/stm32_hal/STM32L0xx_HAL_Driver/Src/stm32l0xx_hal_lptim.c ****   __HAL_LPTIM_WAKEUPTIMER_EXTI_DISABLE_IT();
1357:smtc_bsp/arm/stm32/stm32_hal/STM32L0xx_HAL_Driver/Src/stm32l0xx_hal_lptim.c **** 
1358:smtc_bsp/arm/stm32/stm32_hal/STM32L0xx_HAL_Driver/Src/stm32l0xx_hal_lptim.c ****   /* Disable the Peripheral */
1359:smtc_bsp/arm/stm32/stm32_hal/STM32L0xx_HAL_Driver/Src/stm32l0xx_hal_lptim.c ****   __HAL_LPTIM_DISABLE(hlptim);
1360:smtc_bsp/arm/stm32/stm32_hal/STM32L0xx_HAL_Driver/Src/stm32l0xx_hal_lptim.c **** 
1361:smtc_bsp/arm/stm32/stm32_hal/STM32L0xx_HAL_Driver/Src/stm32l0xx_hal_lptim.c ****   /* Disable Autoreload write complete interrupt */
1362:smtc_bsp/arm/stm32/stm32_hal/STM32L0xx_HAL_Driver/Src/stm32l0xx_hal_lptim.c ****   __HAL_LPTIM_DISABLE_IT(hlptim, LPTIM_IT_ARROK);
1363:smtc_bsp/arm/stm32/stm32_hal/STM32L0xx_HAL_Driver/Src/stm32l0xx_hal_lptim.c **** 
1364:smtc_bsp/arm/stm32/stm32_hal/STM32L0xx_HAL_Driver/Src/stm32l0xx_hal_lptim.c ****   /* Disable Autoreload match interrupt */
1365:smtc_bsp/arm/stm32/stm32_hal/STM32L0xx_HAL_Driver/Src/stm32l0xx_hal_lptim.c ****   __HAL_LPTIM_DISABLE_IT(hlptim, LPTIM_IT_ARRM);
1366:smtc_bsp/arm/stm32/stm32_hal/STM32L0xx_HAL_Driver/Src/stm32l0xx_hal_lptim.c **** 
1367:smtc_bsp/arm/stm32/stm32_hal/STM32L0xx_HAL_Driver/Src/stm32l0xx_hal_lptim.c ****   /* Change the TIM state*/
1368:smtc_bsp/arm/stm32/stm32_hal/STM32L0xx_HAL_Driver/Src/stm32l0xx_hal_lptim.c ****   hlptim->State = HAL_LPTIM_STATE_READY;
1369:smtc_bsp/arm/stm32/stm32_hal/STM32L0xx_HAL_Driver/Src/stm32l0xx_hal_lptim.c **** 
1370:smtc_bsp/arm/stm32/stm32_hal/STM32L0xx_HAL_Driver/Src/stm32l0xx_hal_lptim.c ****   /* Return function status */
1371:smtc_bsp/arm/stm32/stm32_hal/STM32L0xx_HAL_Driver/Src/stm32l0xx_hal_lptim.c ****   return HAL_OK;
1372:smtc_bsp/arm/stm32/stm32_hal/STM32L0xx_HAL_Driver/Src/stm32l0xx_hal_lptim.c **** }
1373:smtc_bsp/arm/stm32/stm32_hal/STM32L0xx_HAL_Driver/Src/stm32l0xx_hal_lptim.c **** 
1374:smtc_bsp/arm/stm32/stm32_hal/STM32L0xx_HAL_Driver/Src/stm32l0xx_hal_lptim.c **** /**
1375:smtc_bsp/arm/stm32/stm32_hal/STM32L0xx_HAL_Driver/Src/stm32l0xx_hal_lptim.c ****   * @}
1376:smtc_bsp/arm/stm32/stm32_hal/STM32L0xx_HAL_Driver/Src/stm32l0xx_hal_lptim.c ****   */
1377:smtc_bsp/arm/stm32/stm32_hal/STM32L0xx_HAL_Driver/Src/stm32l0xx_hal_lptim.c **** 
1378:smtc_bsp/arm/stm32/stm32_hal/STM32L0xx_HAL_Driver/Src/stm32l0xx_hal_lptim.c **** /** @defgroup LPTIM_Exported_Functions_Group3 LPTIM Read operation functions
1379:smtc_bsp/arm/stm32/stm32_hal/STM32L0xx_HAL_Driver/Src/stm32l0xx_hal_lptim.c ****  *  @brief  Read operation functions.
1380:smtc_bsp/arm/stm32/stm32_hal/STM32L0xx_HAL_Driver/Src/stm32l0xx_hal_lptim.c ****  *
1381:smtc_bsp/arm/stm32/stm32_hal/STM32L0xx_HAL_Driver/Src/stm32l0xx_hal_lptim.c **** @verbatim
1382:smtc_bsp/arm/stm32/stm32_hal/STM32L0xx_HAL_Driver/Src/stm32l0xx_hal_lptim.c ****   ==============================================================================
1383:smtc_bsp/arm/stm32/stm32_hal/STM32L0xx_HAL_Driver/Src/stm32l0xx_hal_lptim.c ****                   ##### LPTIM Read operation functions #####
1384:smtc_bsp/arm/stm32/stm32_hal/STM32L0xx_HAL_Driver/Src/stm32l0xx_hal_lptim.c ****   ==============================================================================
1385:smtc_bsp/arm/stm32/stm32_hal/STM32L0xx_HAL_Driver/Src/stm32l0xx_hal_lptim.c **** [..]  This section provides LPTIM Reading functions.
ARM GAS  /var/folders/bq/yv49bw8j2kd6w3hsq868qv180000gn/T//ccQg3V4x.s 			page 54


1386:smtc_bsp/arm/stm32/stm32_hal/STM32L0xx_HAL_Driver/Src/stm32l0xx_hal_lptim.c ****       (+) Read the counter value.
1387:smtc_bsp/arm/stm32/stm32_hal/STM32L0xx_HAL_Driver/Src/stm32l0xx_hal_lptim.c ****       (+) Read the period (Auto-reload) value.
1388:smtc_bsp/arm/stm32/stm32_hal/STM32L0xx_HAL_Driver/Src/stm32l0xx_hal_lptim.c ****       (+) Read the pulse (Compare)value.
1389:smtc_bsp/arm/stm32/stm32_hal/STM32L0xx_HAL_Driver/Src/stm32l0xx_hal_lptim.c **** @endverbatim
1390:smtc_bsp/arm/stm32/stm32_hal/STM32L0xx_HAL_Driver/Src/stm32l0xx_hal_lptim.c ****   * @{
1391:smtc_bsp/arm/stm32/stm32_hal/STM32L0xx_HAL_Driver/Src/stm32l0xx_hal_lptim.c ****   */
1392:smtc_bsp/arm/stm32/stm32_hal/STM32L0xx_HAL_Driver/Src/stm32l0xx_hal_lptim.c **** 
1393:smtc_bsp/arm/stm32/stm32_hal/STM32L0xx_HAL_Driver/Src/stm32l0xx_hal_lptim.c **** /**
1394:smtc_bsp/arm/stm32/stm32_hal/STM32L0xx_HAL_Driver/Src/stm32l0xx_hal_lptim.c ****   * @brief  Return the current counter value.
